   1              		.file	"simpleuart.c"
   2              		.option nopic
   3              		.text
   4              	.Ltext0:
   5              		.cfi_sections	.debug_frame
   6              		.section	.text.uart_init,"ax",@progbits
   7              		.align	1
   8              		.globl	uart_init
  10              	uart_init:
  11              	.LFB3:
  12              		.file 1 "../src/bsp/simpleuart.c"
   1:../src/bsp/simpleuart.c **** /*
   2:../src/bsp/simpleuart.c ****  * *****************************************************************************************
   3:../src/bsp/simpleuart.c ****  *
   4:../src/bsp/simpleuart.c ****  * 		Copyright (C) 2014-2022 Gowin Semiconductor Technology Co.,Ltd.
   5:../src/bsp/simpleuart.c ****  *
   6:../src/bsp/simpleuart.c ****  * @file		simpleuart.c
   7:../src/bsp/simpleuart.c ****  * @author		Embedded Development Team
   8:../src/bsp/simpleuart.c ****  * @version		V1.2.x
   9:../src/bsp/simpleuart.c ****  * @date		2022-01-01 09:00:00
  10:../src/bsp/simpleuart.c ****  * @brief		Simple UART Peripheral.
  11:../src/bsp/simpleuart.c ****  ******************************************************************************************
  12:../src/bsp/simpleuart.c ****  */
  13:../src/bsp/simpleuart.c **** 
  14:../src/bsp/simpleuart.c **** /* Includes --------------------------------------------------------------------- */
  15:../src/bsp/simpleuart.c **** #include "simpleuart.h"
  16:../src/bsp/simpleuart.c **** 
  17:../src/bsp/simpleuart.c **** /* Functions --------------------------------------------------------------------- */
  18:../src/bsp/simpleuart.c **** void uart_init(uint32_t BaudRate)
  19:../src/bsp/simpleuart.c **** {
  13              		.loc 1 19 1
  14              		.cfi_startproc
  15 0000 0111     		addi	sp,sp,-32
  16              		.cfi_def_cfa_offset 32
  17 0002 22CE     		sw	s0,28(sp)
  18              		.cfi_offset 8, -4
  19 0004 0010     		addi	s0,sp,32
  20              		.cfi_def_cfa 8, 0
  21 0006 2326A4FE 		sw	a0,-20(s0)
  20:../src/bsp/simpleuart.c **** 	PICO_SIMPLEUART->CLKDIV = SYSCLKFREQ / BaudRate;
  22              		.loc 1 20 17
  23 000a B7070003 		li	a5,50331648
  24              		.loc 1 20 39
  25 000e 37F7FA02 		li	a4,49999872
  26 0012 93060708 		addi	a3,a4,128
  27 0016 0327C4FE 		lw	a4,-20(s0)
  28 001a 33D7E602 		divu	a4,a3,a4
  29              		.loc 1 20 26
  30 001e D8C3     		sw	a4,4(a5)
  21:../src/bsp/simpleuart.c **** }
  31              		.loc 1 21 1
  32 0020 0100     		nop
  33 0022 7244     		lw	s0,28(sp)
  34              		.cfi_restore 8
  35 0024 0561     		addi	sp,sp,32
  36              		.cfi_def_cfa_register 2
  37 0026 8280     		jr	ra
  38              		.cfi_endproc
  39              	.LFE3:
  41              		.section	.text.outbyte,"ax",@progbits
  42              		.align	1
  43              		.globl	outbyte
  45              	outbyte:
  46              	.LFB4:
  22:../src/bsp/simpleuart.c **** 
  23:../src/bsp/simpleuart.c **** int outbyte(int c)
  24:../src/bsp/simpleuart.c **** {
  47              		.loc 1 24 1
  48              		.cfi_startproc
  49 0000 0111     		addi	sp,sp,-32
  50              		.cfi_def_cfa_offset 32
  51 0002 06CE     		sw	ra,28(sp)
  52 0004 22CC     		sw	s0,24(sp)
  53              		.cfi_offset 1, -4
  54              		.cfi_offset 8, -8
  55 0006 0010     		addi	s0,sp,32
  56              		.cfi_def_cfa 8, 0
  57 0008 2326A4FE 		sw	a0,-20(s0)
  25:../src/bsp/simpleuart.c **** 	if (c == '\n')
  58              		.loc 1 25 5
  59 000c 0327C4FE 		lw	a4,-20(s0)
  60 0010 A947     		li	a5,10
  61 0012 6317F700 		bne	a4,a5,.L3
  26:../src/bsp/simpleuart.c **** 		outbyte('\r');
  62              		.loc 1 26 3
  63 0016 3545     		li	a0,13
  64 0018 97000000 		call	outbyte
  64      E7800000 
  65              	.L3:
  27:../src/bsp/simpleuart.c **** 	PICO_SIMPLEUART->DATA = c;
  66              		.loc 1 27 17
  67 0020 B7070003 		li	a5,50331648
  68              		.loc 1 27 24
  69 0024 0327C4FE 		lw	a4,-20(s0)
  70 0028 98C7     		sw	a4,8(a5)
  28:../src/bsp/simpleuart.c **** 
  29:../src/bsp/simpleuart.c **** 	return c;
  71              		.loc 1 29 9
  72 002a 8327C4FE 		lw	a5,-20(s0)
  30:../src/bsp/simpleuart.c **** }
  73              		.loc 1 30 1
  74 002e 3E85     		mv	a0,a5
  75 0030 F240     		lw	ra,28(sp)
  76              		.cfi_restore 1
  77 0032 6244     		lw	s0,24(sp)
  78              		.cfi_restore 8
  79 0034 0561     		addi	sp,sp,32
  80              		.cfi_def_cfa_register 2
  81 0036 8280     		jr	ra
  82              		.cfi_endproc
  83              	.LFE4:
  85              		.section	.text.uart_putchar,"ax",@progbits
  86              		.align	1
  87              		.globl	uart_putchar
  89              	uart_putchar:
  90              	.LFB5:
  31:../src/bsp/simpleuart.c **** 
  32:../src/bsp/simpleuart.c **** void uart_putchar(char c)
  33:../src/bsp/simpleuart.c **** {
  91              		.loc 1 33 1
  92              		.cfi_startproc
  93 0000 0111     		addi	sp,sp,-32
  94              		.cfi_def_cfa_offset 32
  95 0002 22CE     		sw	s0,28(sp)
  96              		.cfi_offset 8, -4
  97 0004 0010     		addi	s0,sp,32
  98              		.cfi_def_cfa 8, 0
  99 0006 AA87     		mv	a5,a0
 100 0008 A307F4FE 		sb	a5,-17(s0)
  34:../src/bsp/simpleuart.c **** 	PICO_SIMPLEUART->DATA = c;
 101              		.loc 1 34 17
 102 000c B7070003 		li	a5,50331648
 103              		.loc 1 34 24
 104 0010 0347F4FE 		lbu	a4,-17(s0)
 105 0014 98C7     		sw	a4,8(a5)
  35:../src/bsp/simpleuart.c **** }
 106              		.loc 1 35 1
 107 0016 0100     		nop
 108 0018 7244     		lw	s0,28(sp)
 109              		.cfi_restore 8
 110 001a 0561     		addi	sp,sp,32
 111              		.cfi_def_cfa_register 2
 112 001c 8280     		jr	ra
 113              		.cfi_endproc
 114              	.LFE5:
 116              		.section	.text.getchar_prompt,"ax",@progbits
 117              		.align	1
 118              		.globl	getchar_prompt
 120              	getchar_prompt:
 121              	.LFB6:
  36:../src/bsp/simpleuart.c **** 
  37:../src/bsp/simpleuart.c **** char getchar_prompt(char *prompt)
  38:../src/bsp/simpleuart.c **** {
 122              		.loc 1 38 1
 123              		.cfi_startproc
 124 0000 7971     		addi	sp,sp,-48
 125              		.cfi_def_cfa_offset 48
 126 0002 22D6     		sw	s0,44(sp)
 127              		.cfi_offset 8, -4
 128 0004 0018     		addi	s0,sp,48
 129              		.cfi_def_cfa 8, 0
 130 0006 232EA4FC 		sw	a0,-36(s0)
  39:../src/bsp/simpleuart.c **** 	int32_t c = -1;
 131              		.loc 1 39 10
 132 000a FD57     		li	a5,-1
 133 000c 2326F4FE 		sw	a5,-20(s0)
  40:../src/bsp/simpleuart.c **** 
  41:../src/bsp/simpleuart.c **** 	uint32_t cycles_begin, cycles_now, cycles;
  42:../src/bsp/simpleuart.c **** 	__asm__ volatile ("rdcycle %0" : "=r"(cycles_begin));
 134              		.loc 1 42 2
 135              	 #APP
 136              	# 42 "../src/bsp/simpleuart.c" 1
  43              	
 137              		rdcycle a5
 138              	# 0 "" 2
 139              	 #NO_APP
 140 0014 2324F4FE 		sw	a5,-24(s0)
  44:../src/bsp/simpleuart.c **** 	while (c == -1)
 141              		.loc 1 44 8
 142 0018 35A8     		j	.L7
 143              	.L9:
  45:../src/bsp/simpleuart.c **** 	{
  46:../src/bsp/simpleuart.c **** 		__asm__ volatile ("rdcycle %0" : "=r"(cycles_now));
 144              		.loc 1 46 3
 145              	 #APP
 146              	# 46 "../src/bsp/simpleuart.c" 1
  47              			cycles = cycles_now - cycles_begin;
 147              		rdcycle a5
 148              	# 0 "" 2
 149              	 #NO_APP
 150 001e 2322F4FE 		sw	a5,-28(s0)
 151              		.loc 1 47 10
 152 0022 032744FE 		lw	a4,-28(s0)
 153 0026 832784FE 		lw	a5,-24(s0)
 154 002a B307F740 		sub	a5,a4,a5
 155 002e 2320F4FE 		sw	a5,-32(s0)
  48:../src/bsp/simpleuart.c **** 		if (cycles > 12000000)
 156              		.loc 1 48 6
 157 0032 032704FE 		lw	a4,-32(s0)
 158 0036 B727B700 		li	a5,12001280
 159 003a 938707B0 		addi	a5,a5,-1280
 160 003e 63F6E700 		bleu	a4,a5,.L8
  49:../src/bsp/simpleuart.c **** 		{
  50:../src/bsp/simpleuart.c **** 			cycles_begin = cycles_now;
 161              		.loc 1 50 17
 162 0042 832744FE 		lw	a5,-28(s0)
 163 0046 2324F4FE 		sw	a5,-24(s0)
 164              	.L8:
  51:../src/bsp/simpleuart.c **** 		}
  52:../src/bsp/simpleuart.c **** 		c = PICO_SIMPLEUART->DATA;
 165              		.loc 1 52 22
 166 004a B7070003 		li	a5,50331648
 167 004e 9C47     		lw	a5,8(a5)
 168              		.loc 1 52 5
 169 0050 2326F4FE 		sw	a5,-20(s0)
 170              	.L7:
  44:../src/bsp/simpleuart.c **** 	{
 171              		.loc 1 44 8
 172 0054 0327C4FE 		lw	a4,-20(s0)
 173 0058 FD57     		li	a5,-1
 174 005a E300F7FC 		beq	a4,a5,.L9
  53:../src/bsp/simpleuart.c **** 	}
  54:../src/bsp/simpleuart.c **** 
  55:../src/bsp/simpleuart.c **** 	return c;
 175              		.loc 1 55 9
 176 005e 8327C4FE 		lw	a5,-20(s0)
 177 0062 93F7F70F 		andi	a5,a5,0xff
  56:../src/bsp/simpleuart.c **** }
 178              		.loc 1 56 1
 179 0066 3E85     		mv	a0,a5
 180 0068 3254     		lw	s0,44(sp)
 181              		.cfi_restore 8
 182 006a 4561     		addi	sp,sp,48
 183              		.cfi_def_cfa_register 2
 184 006c 8280     		jr	ra
 185              		.cfi_endproc
 186              	.LFE6:
 188              		.section	.text.uart_getchar,"ax",@progbits
 189              		.align	1
 190              		.globl	uart_getchar
 192              	uart_getchar:
 193              	.LFB7:
  57:../src/bsp/simpleuart.c **** 
  58:../src/bsp/simpleuart.c **** char uart_getchar()
  59:../src/bsp/simpleuart.c **** {
 194              		.loc 1 59 1
 195              		.cfi_startproc
 196 0000 4111     		addi	sp,sp,-16
 197              		.cfi_def_cfa_offset 16
 198 0002 06C6     		sw	ra,12(sp)
 199 0004 22C4     		sw	s0,8(sp)
 200              		.cfi_offset 1, -4
 201              		.cfi_offset 8, -8
 202 0006 0008     		addi	s0,sp,16
 203              		.cfi_def_cfa 8, 0
  60:../src/bsp/simpleuart.c **** 	return getchar_prompt(0);
 204              		.loc 1 60 9
 205 0008 0145     		li	a0,0
 206 000a 97000000 		call	getchar_prompt
 206      E7800000 
 207 0012 AA87     		mv	a5,a0
  61:../src/bsp/simpleuart.c **** }
 208              		.loc 1 61 1
 209 0014 3E85     		mv	a0,a5
 210 0016 B240     		lw	ra,12(sp)
 211              		.cfi_restore 1
 212 0018 2244     		lw	s0,8(sp)
 213              		.cfi_restore 8
 214 001a 4101     		addi	sp,sp,16
 215              		.cfi_def_cfa_register 2
 216 001c 8280     		jr	ra
 217              		.cfi_endproc
 218              	.LFE7:
 220              		.text
 221              	.Letext0:
 222              		.file 2 "c:\\gmd\\toolchain\\risc-v_toolchain\\riscv-none-embed\\include\\machine\\_default_types.
 223              		.file 3 "c:\\gmd\\toolchain\\risc-v_toolchain\\riscv-none-embed\\include\\sys\\_stdint.h"
 224              		.file 4 "c:\\gmd\\toolchain\\risc-v_toolchain\\riscv-none-embed\\include\\sys\\lock.h"
 225              		.file 5 "c:\\gmd\\toolchain\\risc-v_toolchain\\riscv-none-embed\\include\\sys\\_types.h"
 226              		.file 6 "c:\\gmd\\toolchain\\risc-v_toolchain\\lib\\gcc\\riscv-none-embed\\8.2.0\\include\\stddef.
 227              		.file 7 "c:\\gmd\\toolchain\\risc-v_toolchain\\riscv-none-embed\\include\\sys\\reent.h"
 228              		.file 8 "E:\\GMD\\workspace\\picorv32_demo\\src/picorv32.h"