   1              		.file	"wbspiflash.c"
   2              		.option nopic
   3              		.text
   4              	.Ltext0:
   5              		.cfi_sections	.debug_frame
   6              		.section	.text.SPI_reset,"ax",@progbits
   7              		.align	1
   8              		.globl	SPI_reset
  10              	SPI_reset:
  11              	.LFB3:
  12              		.file 1 "../src/bsp/wbspiflash.c"
   1:../src/bsp/wbspiflash.c **** /*
   2:../src/bsp/wbspiflash.c ****  * *****************************************************************************************
   3:../src/bsp/wbspiflash.c ****  *
   4:../src/bsp/wbspiflash.c ****  * 		Copyright (C) 2014-2022 Gowin Semiconductor Technology Co.,Ltd.
   5:../src/bsp/wbspiflash.c ****  *
   6:../src/bsp/wbspiflash.c ****  * @file		wbspiflash.c
   7:../src/bsp/wbspiflash.c ****  * @author		Embedded Development Team
   8:../src/bsp/wbspiflash.c ****  * @version		V1.2.x
   9:../src/bsp/wbspiflash.c ****  * @date		2022-01-01 09:00:00
  10:../src/bsp/wbspiflash.c ****  * @brief		Wishbone SPI_Flash Peripheral.
  11:../src/bsp/wbspiflash.c ****  ******************************************************************************************
  12:../src/bsp/wbspiflash.c ****  */
  13:../src/bsp/wbspiflash.c **** 
  14:../src/bsp/wbspiflash.c **** /* Includes --------------------------------------------------------------------- */
  15:../src/bsp/wbspiflash.c **** #include "wbspiflash.h"
  16:../src/bsp/wbspiflash.c **** #include <stdio.h>
  17:../src/bsp/wbspiflash.c **** 
  18:../src/bsp/wbspiflash.c **** /* Functions --------------------------------------------------------------------- */
  19:../src/bsp/wbspiflash.c **** void SPI_reset(void)
  20:../src/bsp/wbspiflash.c **** {
  13              		.loc 1 20 1
  14              		.cfi_startproc
  15 0000 4111     		addi	sp,sp,-16
  16              		.cfi_def_cfa_offset 16
  17 0002 22C6     		sw	s0,12(sp)
  18              		.cfi_offset 8, -4
  19 0004 0008     		addi	s0,sp,16
  20              		.cfi_def_cfa 8, 0
  21:../src/bsp/wbspiflash.c **** 	PICO_WBSPI_FLASH->CTRL |= 0x01;         //reset spi
  21              		.loc 1 21 25
  22 0006 B7470011 		li	a5,285229056
  23 000a 985B     		lw	a4,48(a5)
  24 000c B7470011 		li	a5,285229056
  25 0010 13671700 		ori	a4,a4,1
  26 0014 98DB     		sw	a4,48(a5)
  22:../src/bsp/wbspiflash.c **** 	while((PICO_WBSPI_FLASH->CTRL & 0x01)); //wait until spi reset complete
  27              		.loc 1 22 7
  28 0016 0100     		nop
  29              	.L2:
  30              		.loc 1 22 25 discriminator 1
  31 0018 B7470011 		li	a5,285229056
  32 001c 9C5B     		lw	a5,48(a5)
  33              		.loc 1 22 32 discriminator 1
  34 001e 858B     		andi	a5,a5,1
  35              		.loc 1 22 7 discriminator 1
  36 0020 E5FF     		bnez	a5,.L2
  23:../src/bsp/wbspiflash.c **** 	return;
  37              		.loc 1 23 2
  38 0022 0100     		nop
  24:../src/bsp/wbspiflash.c **** }
  39              		.loc 1 24 1
  40 0024 3244     		lw	s0,12(sp)
  41              		.cfi_restore 8
  42 0026 4101     		addi	sp,sp,16
  43              		.cfi_def_cfa_register 2
  44 0028 8280     		jr	ra
  45              		.cfi_endproc
  46              	.LFE3:
  48              		.section	.text.SPI_set_mode,"ax",@progbits
  49              		.align	1
  50              		.globl	SPI_set_mode
  52              	SPI_set_mode:
  53              	.LFB4:
  25:../src/bsp/wbspiflash.c **** 
  26:../src/bsp/wbspiflash.c **** //select the slave mode or master mode
  27:../src/bsp/wbspiflash.c **** //but need the hardware support
  28:../src/bsp/wbspiflash.c **** void SPI_set_mode(uint32_t spi_mode)
  29:../src/bsp/wbspiflash.c **** {
  54              		.loc 1 29 1
  55              		.cfi_startproc
  56 0000 7971     		addi	sp,sp,-48
  57              		.cfi_def_cfa_offset 48
  58 0002 22D6     		sw	s0,44(sp)
  59              		.cfi_offset 8, -4
  60 0004 0018     		addi	s0,sp,48
  61              		.cfi_def_cfa 8, 0
  62 0006 232EA4FC 		sw	a0,-36(s0)
  30:../src/bsp/wbspiflash.c **** 	uint32_t buff = PICO_WBSPI_FLASH->TRANSFMT;
  63              		.loc 1 30 34
  64 000a B7470011 		li	a5,285229056
  65              		.loc 1 30 11
  66 000e 9C4B     		lw	a5,16(a5)
  67 0010 2326F4FE 		sw	a5,-20(s0)
  31:../src/bsp/wbspiflash.c **** 	PICO_WBSPI_FLASH->TRANSFMT = (buff & (~(1UL << 2))) + spi_mode;
  68              		.loc 1 31 37
  69 0014 8327C4FE 		lw	a5,-20(s0)
  70 0018 93F6B7FF 		andi	a3,a5,-5
  71              		.loc 1 31 18
  72 001c B7470011 		li	a5,285229056
  73              		.loc 1 31 54
  74 0020 0327C4FD 		lw	a4,-36(s0)
  75 0024 3697     		add	a4,a3,a4
  76              		.loc 1 31 29
  77 0026 98CB     		sw	a4,16(a5)
  32:../src/bsp/wbspiflash.c **** 	return;
  78              		.loc 1 32 2
  79 0028 0100     		nop
  33:../src/bsp/wbspiflash.c **** }
  80              		.loc 1 33 1
  81 002a 3254     		lw	s0,44(sp)
  82              		.cfi_restore 8
  83 002c 4561     		addi	sp,sp,48
  84              		.cfi_def_cfa_register 2
  85 002e 8280     		jr	ra
  86              		.cfi_endproc
  87              	.LFE4:
  89              		.section	.text.SPI_set_addr_format,"ax",@progbits
  90              		.align	1
  91              		.globl	SPI_set_addr_format
  93              	SPI_set_addr_format:
  94              	.LFB5:
  34:../src/bsp/wbspiflash.c **** 
  35:../src/bsp/wbspiflash.c **** //addrLen = SPI_ADDR_LEN_1_BYTE / SPI_ADDR_LEN_2_BYTE / SPI_ADDR_LEN_3_BYTE / SPI_ADDR_LEN_4_BYTE
  36:../src/bsp/wbspiflash.c **** //addrFmt = ADDRFMT_REGULAR / ADDRFMT_ASDATA
  37:../src/bsp/wbspiflash.c **** void SPI_set_addr_format(uint8_t addrEn, uint32_t addrLen, uint32_t addrFmt)
  38:../src/bsp/wbspiflash.c **** {
  95              		.loc 1 38 1
  96              		.cfi_startproc
  97 0000 7971     		addi	sp,sp,-48
  98              		.cfi_def_cfa_offset 48
  99 0002 22D6     		sw	s0,44(sp)
 100              		.cfi_offset 8, -4
 101 0004 0018     		addi	s0,sp,48
 102              		.cfi_def_cfa 8, 0
 103 0006 AA87     		mv	a5,a0
 104 0008 232CB4FC 		sw	a1,-40(s0)
 105 000c 232AC4FC 		sw	a2,-44(s0)
 106 0010 A30FF4FC 		sb	a5,-33(s0)
  39:../src/bsp/wbspiflash.c **** 	uint32_t buff;
  40:../src/bsp/wbspiflash.c **** 	if(0 == addrEn)
 107              		.loc 1 40 4
 108 0014 8347F4FD 		lbu	a5,-33(s0)
 109 0018 B1CB     		beqz	a5,.L9
  41:../src/bsp/wbspiflash.c **** 	{
  42:../src/bsp/wbspiflash.c **** 		return;
  43:../src/bsp/wbspiflash.c **** 	}
  44:../src/bsp/wbspiflash.c **** 	else
  45:../src/bsp/wbspiflash.c **** 	{
  46:../src/bsp/wbspiflash.c **** 		//set the addr enable && addr fomat
  47:../src/bsp/wbspiflash.c **** 		buff = PICO_WBSPI_FLASH->TRANSCTRL;
 110              		.loc 1 47 26
 111 001a B7470011 		li	a5,285229056
 112              		.loc 1 47 8
 113 001e 9C53     		lw	a5,32(a5)
 114 0020 2326F4FE 		sw	a5,-20(s0)
  48:../src/bsp/wbspiflash.c **** 		PICO_WBSPI_FLASH->TRANSCTRL = (buff & (~(3UL << 28))) + addrFmt + SPI_ADDREN;
 115              		.loc 1 48 39
 116 0024 0327C4FE 		lw	a4,-20(s0)
 117 0028 B70700D0 		li	a5,-805306368
 118 002c FD17     		addi	a5,a5,-1
 119 002e 7D8F     		and	a4,a4,a5
 120              		.loc 1 48 57
 121 0030 832744FD 		lw	a5,-44(s0)
 122 0034 B306F700 		add	a3,a4,a5
 123              		.loc 1 48 19
 124 0038 B7470011 		li	a5,285229056
 125              		.loc 1 48 67
 126 003c 37070020 		li	a4,536870912
 127 0040 3697     		add	a4,a3,a4
 128              		.loc 1 48 31
 129 0042 98D3     		sw	a4,32(a5)
  49:../src/bsp/wbspiflash.c **** 		//set the width of the addr length
  50:../src/bsp/wbspiflash.c **** 		buff = PICO_WBSPI_FLASH->TRANSFMT;
 130              		.loc 1 50 26
 131 0044 B7470011 		li	a5,285229056
 132              		.loc 1 50 8
 133 0048 9C4B     		lw	a5,16(a5)
 134 004a 2326F4FE 		sw	a5,-20(s0)
  51:../src/bsp/wbspiflash.c **** 		PICO_WBSPI_FLASH->TRANSFMT  = (buff & (~(3UL << 16))) + addrLen;
 135              		.loc 1 51 39
 136 004e 0327C4FE 		lw	a4,-20(s0)
 137 0052 B707FDFF 		li	a5,-196608
 138 0056 FD17     		addi	a5,a5,-1
 139 0058 B376F700 		and	a3,a4,a5
 140              		.loc 1 51 19
 141 005c B7470011 		li	a5,285229056
 142              		.loc 1 51 57
 143 0060 032784FD 		lw	a4,-40(s0)
 144 0064 3697     		add	a4,a3,a4
 145              		.loc 1 51 31
 146 0066 98CB     		sw	a4,16(a5)
  52:../src/bsp/wbspiflash.c **** 	}
  53:../src/bsp/wbspiflash.c **** 	return;
 147              		.loc 1 53 2
 148 0068 0100     		nop
 149 006a 11A0     		j	.L6
 150              	.L9:
  42:../src/bsp/wbspiflash.c **** 	}
 151              		.loc 1 42 3
 152 006c 0100     		nop
 153              	.L6:
  54:../src/bsp/wbspiflash.c **** }
 154              		.loc 1 54 1
 155 006e 3254     		lw	s0,44(sp)
 156              		.cfi_restore 8
 157 0070 4561     		addi	sp,sp,48
 158              		.cfi_def_cfa_register 2
 159 0072 8280     		jr	ra
 160              		.cfi_endproc
 161              	.LFE5:
 163              		.section	.text.SPI_set_cmd_format,"ax",@progbits
 164              		.align	1
 165              		.globl	SPI_set_cmd_format
 167              	SPI_set_cmd_format:
 168              	.LFB6:
  55:../src/bsp/wbspiflash.c **** 
  56:../src/bsp/wbspiflash.c **** void SPI_set_cmd_format(uint8_t cmdEn)
  57:../src/bsp/wbspiflash.c **** {
 169              		.loc 1 57 1
 170              		.cfi_startproc
 171 0000 7971     		addi	sp,sp,-48
 172              		.cfi_def_cfa_offset 48
 173 0002 22D6     		sw	s0,44(sp)
 174              		.cfi_offset 8, -4
 175 0004 0018     		addi	s0,sp,48
 176              		.cfi_def_cfa 8, 0
 177 0006 AA87     		mv	a5,a0
 178 0008 A30FF4FC 		sb	a5,-33(s0)
  58:../src/bsp/wbspiflash.c **** 	uint32_t buff;
  59:../src/bsp/wbspiflash.c **** 	if(0 == cmdEn)
 179              		.loc 1 59 4
 180 000c 8347F4FD 		lbu	a5,-33(s0)
 181 0010 8DC7     		beqz	a5,.L13
  60:../src/bsp/wbspiflash.c **** 	{
  61:../src/bsp/wbspiflash.c **** 		return;
  62:../src/bsp/wbspiflash.c **** 	}
  63:../src/bsp/wbspiflash.c **** 
  64:../src/bsp/wbspiflash.c **** 	else
  65:../src/bsp/wbspiflash.c **** 	{
  66:../src/bsp/wbspiflash.c **** 		//open the spi cmd phase
  67:../src/bsp/wbspiflash.c **** 		buff = PICO_WBSPI_FLASH->TRANSCTRL;
 182              		.loc 1 67 26
 183 0012 B7470011 		li	a5,285229056
 184              		.loc 1 67 8
 185 0016 9C53     		lw	a5,32(a5)
 186 0018 2326F4FE 		sw	a5,-20(s0)
  68:../src/bsp/wbspiflash.c **** 		PICO_WBSPI_FLASH->TRANSCTRL = (buff & (~(1UL << 30))) + SPI_CMDEN;
 187              		.loc 1 68 39
 188 001c 0327C4FE 		lw	a4,-20(s0)
 189 0020 B70700C0 		li	a5,-1073741824
 190 0024 FD17     		addi	a5,a5,-1
 191 0026 B376F700 		and	a3,a4,a5
 192              		.loc 1 68 19
 193 002a B7470011 		li	a5,285229056
 194              		.loc 1 68 57
 195 002e 37070040 		li	a4,1073741824
 196 0032 3697     		add	a4,a3,a4
 197              		.loc 1 68 31
 198 0034 98D3     		sw	a4,32(a5)
  69:../src/bsp/wbspiflash.c **** 	}
  70:../src/bsp/wbspiflash.c **** 	return;
 199              		.loc 1 70 2
 200 0036 0100     		nop
 201 0038 11A0     		j	.L10
 202              	.L13:
  61:../src/bsp/wbspiflash.c **** 	}
 203              		.loc 1 61 3
 204 003a 0100     		nop
 205              	.L10:
  71:../src/bsp/wbspiflash.c **** }
 206              		.loc 1 71 1
 207 003c 3254     		lw	s0,44(sp)
 208              		.cfi_restore 8
 209 003e 4561     		addi	sp,sp,48
 210              		.cfi_def_cfa_register 2
 211 0040 8280     		jr	ra
 212              		.cfi_endproc
 213              	.LFE6:
 215              		.section	.text.SPI_set_data_format,"ax",@progbits
 216              		.align	1
 217              		.globl	SPI_set_data_format
 219              	SPI_set_data_format:
 220              	.LFB7:
  72:../src/bsp/wbspiflash.c **** 
  73:../src/bsp/wbspiflash.c **** //dataMerge takes effect only when data length is 8
  74:../src/bsp/wbspiflash.c **** void SPI_set_data_format(uint8_t dataBits, uint8_t dataMerge)
  75:../src/bsp/wbspiflash.c **** {
 221              		.loc 1 75 1
 222              		.cfi_startproc
 223 0000 7971     		addi	sp,sp,-48
 224              		.cfi_def_cfa_offset 48
 225 0002 22D6     		sw	s0,44(sp)
 226              		.cfi_offset 8, -4
 227 0004 0018     		addi	s0,sp,48
 228              		.cfi_def_cfa 8, 0
 229 0006 AA87     		mv	a5,a0
 230 0008 2E87     		mv	a4,a1
 231 000a A30FF4FC 		sb	a5,-33(s0)
 232 000e BA87     		mv	a5,a4
 233 0010 230FF4FC 		sb	a5,-34(s0)
  76:../src/bsp/wbspiflash.c **** 	uint32_t buff;
  77:../src/bsp/wbspiflash.c **** 	buff = PICO_WBSPI_FLASH->TRANSFMT;
 234              		.loc 1 77 25
 235 0014 B7470011 		li	a5,285229056
 236              		.loc 1 77 7
 237 0018 9C4B     		lw	a5,16(a5)
 238 001a 2326F4FE 		sw	a5,-20(s0)
  78:../src/bsp/wbspiflash.c **** 	PICO_WBSPI_FLASH->TRANSFMT = (buff &(~(0xf << 8))) + (((dataBits - 1) & 0xf) << 8);
 239              		.loc 1 78 37
 240 001e 0327C4FE 		lw	a4,-20(s0)
 241 0022 FD77     		li	a5,-4096
 242 0024 9387F70F 		addi	a5,a5,255
 243 0028 B376F700 		and	a3,a4,a5
 244              		.loc 1 78 67
 245 002c 8347F4FD 		lbu	a5,-33(s0)
 246 0030 FD17     		addi	a5,a5,-1
 247              		.loc 1 78 79
 248 0032 A207     		slli	a5,a5,8
 249 0034 3E87     		mv	a4,a5
 250 0036 8567     		li	a5,4096
 251 0038 938707F0 		addi	a5,a5,-256
 252 003c 7D8F     		and	a4,a4,a5
 253              		.loc 1 78 18
 254 003e B7470011 		li	a5,285229056
 255              		.loc 1 78 53
 256 0042 558F     		or	a4,a3,a4
 257              		.loc 1 78 29
 258 0044 98CB     		sw	a4,16(a5)
  79:../src/bsp/wbspiflash.c **** 	if(8 == dataBits)
 259              		.loc 1 79 4
 260 0046 0347F4FD 		lbu	a4,-33(s0)
 261 004a A147     		li	a5,8
 262 004c 6315F702 		bne	a4,a5,.L17
  80:../src/bsp/wbspiflash.c **** 	{
  81:../src/bsp/wbspiflash.c **** 		buff = PICO_WBSPI_FLASH->TRANSFMT;
 263              		.loc 1 81 26
 264 0050 B7470011 		li	a5,285229056
 265              		.loc 1 81 8
 266 0054 9C4B     		lw	a5,16(a5)
 267 0056 2326F4FE 		sw	a5,-20(s0)
  82:../src/bsp/wbspiflash.c **** 		PICO_WBSPI_FLASH->TRANSFMT = (buff &(~(0x1 << 7))) + ((dataMerge & 0x1) << 8);
 268              		.loc 1 82 38
 269 005a 8327C4FE 		lw	a5,-20(s0)
 270 005e 93F6F7F7 		andi	a3,a5,-129
 271              		.loc 1 82 75
 272 0062 8347E4FD 		lbu	a5,-34(s0)
 273 0066 A207     		slli	a5,a5,8
 274 0068 13F70710 		andi	a4,a5,256
 275              		.loc 1 82 19
 276 006c B7470011 		li	a5,285229056
 277              		.loc 1 82 54
 278 0070 3697     		add	a4,a3,a4
 279              		.loc 1 82 30
 280 0072 98CB     		sw	a4,16(a5)
  83:../src/bsp/wbspiflash.c **** 	}
  84:../src/bsp/wbspiflash.c **** 	return;
 281              		.loc 1 84 2
 282 0074 0100     		nop
 283              	.L17:
 284 0076 0100     		nop
  85:../src/bsp/wbspiflash.c **** }
 285              		.loc 1 85 1
 286 0078 3254     		lw	s0,44(sp)
 287              		.cfi_restore 8
 288 007a 4561     		addi	sp,sp,48
 289              		.cfi_def_cfa_register 2
 290 007c 8280     		jr	ra
 291              		.cfi_endproc
 292              	.LFE7:
 294              		.section	.text.SPI_set_transfer_format,"ax",@progbits
 295              		.align	1
 296              		.globl	SPI_set_transfer_format
 298              	SPI_set_transfer_format:
 299              	.LFB8:
  86:../src/bsp/wbspiflash.c **** 
  87:../src/bsp/wbspiflash.c **** //mosiDir = SPI_MOSIBIDIR / SPI_MOSIUINDIR
  88:../src/bsp/wbspiflash.c **** //lsbmsb  = SPI_LSB / SPI_MSB
  89:../src/bsp/wbspiflash.c **** //cpol    = 0 / 1
  90:../src/bsp/wbspiflash.c **** //cpha    = 0 / 1
  91:../src/bsp/wbspiflash.c **** void SPI_set_transfer_format(uint32_t mosiDir, uint32_t lsbmsb, uint32_t cpol, uint32_t cpha)
  92:../src/bsp/wbspiflash.c **** {
 300              		.loc 1 92 1
 301              		.cfi_startproc
 302 0000 7971     		addi	sp,sp,-48
 303              		.cfi_def_cfa_offset 48
 304 0002 22D6     		sw	s0,44(sp)
 305              		.cfi_offset 8, -4
 306 0004 0018     		addi	s0,sp,48
 307              		.cfi_def_cfa 8, 0
 308 0006 232EA4FC 		sw	a0,-36(s0)
 309 000a 232CB4FC 		sw	a1,-40(s0)
 310 000e 232AC4FC 		sw	a2,-44(s0)
 311 0012 2328D4FC 		sw	a3,-48(s0)
  93:../src/bsp/wbspiflash.c **** 	uint32_t buff;
  94:../src/bsp/wbspiflash.c **** 	uint32_t tmp;
  95:../src/bsp/wbspiflash.c **** 	buff = PICO_WBSPI_FLASH->TRANSFMT;
 312              		.loc 1 95 25
 313 0016 B7470011 		li	a5,285229056
 314              		.loc 1 95 7
 315 001a 9C4B     		lw	a5,16(a5)
 316 001c 2326F4FE 		sw	a5,-20(s0)
  96:../src/bsp/wbspiflash.c **** 	tmp = mosiDir + lsbmsb + ((cpol & 0x1) << 1) + (cpha & 0x1);
 317              		.loc 1 96 16
 318 0020 0327C4FD 		lw	a4,-36(s0)
 319 0024 832784FD 		lw	a5,-40(s0)
 320 0028 3E97     		add	a4,a4,a5
 321              		.loc 1 96 41
 322 002a 832744FD 		lw	a5,-44(s0)
 323 002e 8607     		slli	a5,a5,1
 324 0030 898B     		andi	a5,a5,2
 325              		.loc 1 96 25
 326 0032 3E97     		add	a4,a4,a5
 327              		.loc 1 96 55
 328 0034 832704FD 		lw	a5,-48(s0)
 329 0038 858B     		andi	a5,a5,1
 330              		.loc 1 96 6
 331 003a BA97     		add	a5,a4,a5
 332 003c 2324F4FE 		sw	a5,-24(s0)
  97:../src/bsp/wbspiflash.c **** 	PICO_WBSPI_FLASH->TRANSFMT = (buff & (~(0x1b))) + tmp;
 333              		.loc 1 97 37
 334 0040 8327C4FE 		lw	a5,-20(s0)
 335 0044 93F647FE 		andi	a3,a5,-28
 336              		.loc 1 97 18
 337 0048 B7470011 		li	a5,285229056
 338              		.loc 1 97 50
 339 004c 032784FE 		lw	a4,-24(s0)
 340 0050 3697     		add	a4,a3,a4
 341              		.loc 1 97 29
 342 0052 98CB     		sw	a4,16(a5)
  98:../src/bsp/wbspiflash.c **** 	return;
 343              		.loc 1 98 2
 344 0054 0100     		nop
  99:../src/bsp/wbspiflash.c **** }
 345              		.loc 1 99 1
 346 0056 3254     		lw	s0,44(sp)
 347              		.cfi_restore 8
 348 0058 4561     		addi	sp,sp,48
 349              		.cfi_def_cfa_register 2
 350 005a 8280     		jr	ra
 351              		.cfi_endproc
 352              	.LFE8:
 354              		.section	.text.SPI_set_trans_ctrl,"ax",@progbits
 355              		.align	1
 356              		.globl	SPI_set_trans_ctrl
 358              	SPI_set_trans_ctrl:
 359              	.LFB9:
 100:../src/bsp/wbspiflash.c **** 
 101:../src/bsp/wbspiflash.c **** //transMode = SPI_TRANSMODE_WRnRD     / SPI_TRANSMODE_WRONLY   / SPI_TRANSMODE_RDONLY    /
 102:../src/bsp/wbspiflash.c **** //            SPI_TRANSMODE_WR_RD     / SPI_TRANSMODE_RD_WR    / SPI_TRANSMODE_WR_DMY_RD /
 103:../src/bsp/wbspiflash.c **** //            SPI_TRANSMODE_RD_DMY_WR / SPI_TRANSMODE_NONEDATA / SPI_TRANSMODE_DMY_WR    /
 104:../src/bsp/wbspiflash.c **** //            SPI_TRANSMODE_DMY_RD
 105:../src/bsp/wbspiflash.c **** //dualQuad  = SPI_REGULAR / SPI_DUAL / SPI_QUAD
 106:../src/bsp/wbspiflash.c **** //dummyCnt  = 1 / 2 / 3 / 4
 107:../src/bsp/wbspiflash.c **** void SPI_set_trans_ctrl(uint32_t transMode, uint32_t dualQuad, uint32_t dummyCnt)
 108:../src/bsp/wbspiflash.c **** {
 360              		.loc 1 108 1
 361              		.cfi_startproc
 362 0000 7971     		addi	sp,sp,-48
 363              		.cfi_def_cfa_offset 48
 364 0002 22D6     		sw	s0,44(sp)
 365              		.cfi_offset 8, -4
 366 0004 0018     		addi	s0,sp,48
 367              		.cfi_def_cfa 8, 0
 368 0006 232EA4FC 		sw	a0,-36(s0)
 369 000a 232CB4FC 		sw	a1,-40(s0)
 370 000e 232AC4FC 		sw	a2,-44(s0)
 109:../src/bsp/wbspiflash.c **** 	uint32_t buff = PICO_WBSPI_FLASH->TRANSCTRL;
 371              		.loc 1 109 34
 372 0012 B7470011 		li	a5,285229056
 373              		.loc 1 109 11
 374 0016 9C53     		lw	a5,32(a5)
 375 0018 2326F4FE 		sw	a5,-20(s0)
 110:../src/bsp/wbspiflash.c **** 	PICO_WBSPI_FLASH->TRANSCTRL = buff & (~((0xf << 24) + (0x3 << 22) + (0x3 << 9)));
 376              		.loc 1 110 18
 377 001c B7470011 		li	a5,285229056
 378              		.loc 1 110 37
 379 0020 8326C4FE 		lw	a3,-20(s0)
 380 0024 370740F0 		li	a4,-264241152
 381 0028 1307F79F 		addi	a4,a4,-1537
 382 002c 758F     		and	a4,a3,a4
 383              		.loc 1 110 30
 384 002e 98D3     		sw	a4,32(a5)
 111:../src/bsp/wbspiflash.c **** 	PICO_WBSPI_FLASH->TRANSCTRL += transMode;
 385              		.loc 1 111 30
 386 0030 B7470011 		li	a5,285229056
 387 0034 9453     		lw	a3,32(a5)
 388 0036 B7470011 		li	a5,285229056
 389 003a 0327C4FD 		lw	a4,-36(s0)
 390 003e 3697     		add	a4,a3,a4
 391 0040 98D3     		sw	a4,32(a5)
 112:../src/bsp/wbspiflash.c **** 	PICO_WBSPI_FLASH->TRANSCTRL += dualQuad;
 392              		.loc 1 112 30
 393 0042 B7470011 		li	a5,285229056
 394 0046 9453     		lw	a3,32(a5)
 395 0048 B7470011 		li	a5,285229056
 396 004c 032784FD 		lw	a4,-40(s0)
 397 0050 3697     		add	a4,a3,a4
 398 0052 98D3     		sw	a4,32(a5)
 113:../src/bsp/wbspiflash.c **** 	PICO_WBSPI_FLASH->TRANSCTRL += (((dummyCnt - 1) & 0x3) << 9);
 399              		.loc 1 113 30
 400 0054 B7470011 		li	a5,285229056
 401 0058 9453     		lw	a3,32(a5)
 402              		.loc 1 113 45
 403 005a 832744FD 		lw	a5,-44(s0)
 404 005e FD17     		addi	a5,a5,-1
 405              		.loc 1 113 57
 406 0060 A607     		slli	a5,a5,9
 407 0062 13F70760 		andi	a4,a5,1536
 408              		.loc 1 113 30
 409 0066 B7470011 		li	a5,285229056
 410 006a 3697     		add	a4,a3,a4
 411 006c 98D3     		sw	a4,32(a5)
 114:../src/bsp/wbspiflash.c **** 	return;
 412              		.loc 1 114 2
 413 006e 0100     		nop
 115:../src/bsp/wbspiflash.c **** }
 414              		.loc 1 115 1
 415 0070 3254     		lw	s0,44(sp)
 416              		.cfi_restore 8
 417 0072 4561     		addi	sp,sp,48
 418              		.cfi_def_cfa_register 2
 419 0074 8280     		jr	ra
 420              		.cfi_endproc
 421              	.LFE9:
 423              		.section	.text.SPI_set_token,"ax",@progbits
 424              		.align	1
 425              		.globl	SPI_set_token
 427              	SPI_set_token:
 428              	.LFB10:
 116:../src/bsp/wbspiflash.c **** 
 117:../src/bsp/wbspiflash.c **** void SPI_set_token(uint8_t tokenEn, uint8_t tokenValue)
 118:../src/bsp/wbspiflash.c **** {
 429              		.loc 1 118 1
 430              		.cfi_startproc
 431 0000 7971     		addi	sp,sp,-48
 432              		.cfi_def_cfa_offset 48
 433 0002 22D6     		sw	s0,44(sp)
 434              		.cfi_offset 8, -4
 435 0004 0018     		addi	s0,sp,48
 436              		.cfi_def_cfa 8, 0
 437 0006 AA87     		mv	a5,a0
 438 0008 2E87     		mv	a4,a1
 439 000a A30FF4FC 		sb	a5,-33(s0)
 440 000e BA87     		mv	a5,a4
 441 0010 230FF4FC 		sb	a5,-34(s0)
 119:../src/bsp/wbspiflash.c **** 	uint32_t buff = PICO_WBSPI_FLASH->TRANSCTRL;
 442              		.loc 1 119 34
 443 0014 B7470011 		li	a5,285229056
 444              		.loc 1 119 11
 445 0018 9C53     		lw	a5,32(a5)
 446 001a 2326F4FE 		sw	a5,-20(s0)
 120:../src/bsp/wbspiflash.c **** 	if(0 == tokenEn)
 447              		.loc 1 120 4
 448 001e 8347F4FD 		lbu	a5,-33(s0)
 449 0022 8DCB     		beqz	a5,.L25
 121:../src/bsp/wbspiflash.c **** 	{
 122:../src/bsp/wbspiflash.c **** 		return;
 123:../src/bsp/wbspiflash.c **** 	}
 124:../src/bsp/wbspiflash.c **** 	else
 125:../src/bsp/wbspiflash.c **** 	{
 126:../src/bsp/wbspiflash.c **** 		PICO_WBSPI_FLASH->TRANSCTRL = (buff & (~((1 << 21) + (1 << 11)))) + (1 << 21) + ((tokenValue & 0x
 450              		.loc 1 126 39
 451 0024 0327C4FE 		lw	a4,-20(s0)
 452 0028 B7F7DFFF 		li	a5,-2101248
 453 002c 9387F77F 		addi	a5,a5,2047
 454 0030 7D8F     		and	a4,a4,a5
 455              		.loc 1 126 103
 456 0032 8347E4FD 		lbu	a5,-34(s0)
 457 0036 AE07     		slli	a5,a5,11
 458 0038 BE86     		mv	a3,a5
 459 003a 8567     		li	a5,4096
 460 003c 93870780 		addi	a5,a5,-2048
 461 0040 F58F     		and	a5,a3,a5
 462              		.loc 1 126 81
 463 0042 B366F700 		or	a3,a4,a5
 464              		.loc 1 126 19
 465 0046 B7470011 		li	a5,285229056
 466              		.loc 1 126 81
 467 004a 37072000 		li	a4,2097152
 468 004e 3697     		add	a4,a3,a4
 469              		.loc 1 126 31
 470 0050 98D3     		sw	a4,32(a5)
 471 0052 11A0     		j	.L22
 472              	.L25:
 122:../src/bsp/wbspiflash.c **** 	}
 473              		.loc 1 122 3
 474 0054 0100     		nop
 475              	.L22:
 127:../src/bsp/wbspiflash.c **** 	}
 128:../src/bsp/wbspiflash.c **** }
 476              		.loc 1 128 1
 477 0056 3254     		lw	s0,44(sp)
 478              		.cfi_restore 8
 479 0058 4561     		addi	sp,sp,48
 480              		.cfi_def_cfa_register 2
 481 005a 8280     		jr	ra
 482              		.cfi_endproc
 483              	.LFE10:
 485              		.section	.text.SPI_tx_fifo_reset,"ax",@progbits
 486              		.align	1
 487              		.globl	SPI_tx_fifo_reset
 489              	SPI_tx_fifo_reset:
 490              	.LFB11:
 129:../src/bsp/wbspiflash.c **** 
 130:../src/bsp/wbspiflash.c **** void SPI_tx_fifo_reset(void)
 131:../src/bsp/wbspiflash.c **** {
 491              		.loc 1 131 1
 492              		.cfi_startproc
 493 0000 4111     		addi	sp,sp,-16
 494              		.cfi_def_cfa_offset 16
 495 0002 22C6     		sw	s0,12(sp)
 496              		.cfi_offset 8, -4
 497 0004 0008     		addi	s0,sp,16
 498              		.cfi_def_cfa 8, 0
 132:../src/bsp/wbspiflash.c **** 	PICO_WBSPI_FLASH->CTRL |= (0x1 << 2);    //reset tx fifo
 499              		.loc 1 132 25
 500 0006 B7470011 		li	a5,285229056
 501 000a 985B     		lw	a4,48(a5)
 502 000c B7470011 		li	a5,285229056
 503 0010 13674700 		ori	a4,a4,4
 504 0014 98DB     		sw	a4,48(a5)
 133:../src/bsp/wbspiflash.c **** 	while((PICO_WBSPI_FLASH->CTRL & 0x2)) ;  //wait tx fifo reset complete
 505              		.loc 1 133 7
 506 0016 0100     		nop
 507              	.L27:
 508              		.loc 1 133 25 discriminator 1
 509 0018 B7470011 		li	a5,285229056
 510 001c 9C5B     		lw	a5,48(a5)
 511              		.loc 1 133 32 discriminator 1
 512 001e 898B     		andi	a5,a5,2
 513              		.loc 1 133 7 discriminator 1
 514 0020 E5FF     		bnez	a5,.L27
 134:../src/bsp/wbspiflash.c **** }
 515              		.loc 1 134 1
 516 0022 0100     		nop
 517 0024 3244     		lw	s0,12(sp)
 518              		.cfi_restore 8
 519 0026 4101     		addi	sp,sp,16
 520              		.cfi_def_cfa_register 2
 521 0028 8280     		jr	ra
 522              		.cfi_endproc
 523              	.LFE11:
 525              		.section	.text.SPI_rx_fifo_reset,"ax",@progbits
 526              		.align	1
 527              		.globl	SPI_rx_fifo_reset
 529              	SPI_rx_fifo_reset:
 530              	.LFB12:
 135:../src/bsp/wbspiflash.c **** 
 136:../src/bsp/wbspiflash.c **** void SPI_rx_fifo_reset(void)
 137:../src/bsp/wbspiflash.c **** {
 531              		.loc 1 137 1
 532              		.cfi_startproc
 533 0000 4111     		addi	sp,sp,-16
 534              		.cfi_def_cfa_offset 16
 535 0002 22C6     		sw	s0,12(sp)
 536              		.cfi_offset 8, -4
 537 0004 0008     		addi	s0,sp,16
 538              		.cfi_def_cfa 8, 0
 138:../src/bsp/wbspiflash.c **** 	PICO_WBSPI_FLASH->CTRL |= (0x1 << 1);    //reset rx fifo
 539              		.loc 1 138 25
 540 0006 B7470011 		li	a5,285229056
 541 000a 985B     		lw	a4,48(a5)
 542 000c B7470011 		li	a5,285229056
 543 0010 13672700 		ori	a4,a4,2
 544 0014 98DB     		sw	a4,48(a5)
 139:../src/bsp/wbspiflash.c **** 	while((PICO_WBSPI_FLASH->CTRL & 0x1)) ;  //wait rx fifo reset complete
 545              		.loc 1 139 7
 546 0016 0100     		nop
 547              	.L29:
 548              		.loc 1 139 25 discriminator 1
 549 0018 B7470011 		li	a5,285229056
 550 001c 9C5B     		lw	a5,48(a5)
 551              		.loc 1 139 32 discriminator 1
 552 001e 858B     		andi	a5,a5,1
 553              		.loc 1 139 7 discriminator 1
 554 0020 E5FF     		bnez	a5,.L29
 140:../src/bsp/wbspiflash.c **** }
 555              		.loc 1 140 1
 556 0022 0100     		nop
 557 0024 3244     		lw	s0,12(sp)
 558              		.cfi_restore 8
 559 0026 4101     		addi	sp,sp,16
 560              		.cfi_def_cfa_register 2
 561 0028 8280     		jr	ra
 562              		.cfi_endproc
 563              	.LFE12:
 565              		.section	.text.spi_get_fifo_depth,"ax",@progbits
 566              		.align	1
 567              		.globl	spi_get_fifo_depth
 569              	spi_get_fifo_depth:
 570              	.LFB13:
 141:../src/bsp/wbspiflash.c **** 
 142:../src/bsp/wbspiflash.c **** uint8_t spi_get_fifo_depth(uint8_t fifo_depth_config)
 143:../src/bsp/wbspiflash.c **** {
 571              		.loc 1 143 1
 572              		.cfi_startproc
 573              	.LBB2:
 144:../src/bsp/wbspiflash.c **** 	uint8_t fifo_depth = 1;
 145:../src/bsp/wbspiflash.c **** 	for(int i = 0; i < fifo_depth_config+1; i++)
 574              		.loc 1 145 10
 575 0000 0147     		li	a4,0
 576              	.LBE2:
 144:../src/bsp/wbspiflash.c **** 	uint8_t fifo_depth = 1;
 577              		.loc 1 144 10
 578 0002 8547     		li	a5,1
 579              	.L31:
 580              	.LBB3:
 146:../src/bsp/wbspiflash.c **** 	{
 147:../src/bsp/wbspiflash.c **** 		fifo_depth *= 2;
 581              		.loc 1 147 14 discriminator 3
 582 0004 8607     		slli	a5,a5,1
 145:../src/bsp/wbspiflash.c **** 	{
 583              		.loc 1 145 43 discriminator 3
 584 0006 0507     		addi	a4,a4,1
 585              		.loc 1 147 14 discriminator 3
 586 0008 93F7F70F 		andi	a5,a5,0xff
 145:../src/bsp/wbspiflash.c **** 	{
 587              		.loc 1 145 2 discriminator 3
 588 000c E35CE5FE 		bge	a0,a4,.L31
 589              	.LBE3:
 148:../src/bsp/wbspiflash.c **** 	}
 149:../src/bsp/wbspiflash.c **** 	return fifo_depth;
 150:../src/bsp/wbspiflash.c **** }
 590              		.loc 1 150 1
 591 0010 3E85     		mv	a0,a5
 592 0012 8280     		ret
 593              		.cfi_endproc
 594              	.LFE13:
 596              		.section	.rodata.SPI_set_tx_threshold.str1.4,"aMS",@progbits,1
 597              		.align	2
 598              	.LC0:
 599 0000 4572726F 		.string	"Error : TX threshold should not be set larger than TX fifo depth!\r\n"
 599      72203A20 
 599      54582074 
 599      68726573 
 599      686F6C64 
 600              		.section	.text.SPI_set_tx_threshold,"ax",@progbits
 601              		.align	1
 602              		.globl	SPI_set_tx_threshold
 604              	SPI_set_tx_threshold:
 605              	.LFB14:
 151:../src/bsp/wbspiflash.c **** 
 152:../src/bsp/wbspiflash.c **** void SPI_set_tx_threshold(uint8_t tx_threshold)
 153:../src/bsp/wbspiflash.c **** {
 606              		.loc 1 153 1
 607              		.cfi_startproc
 608 0000 7971     		addi	sp,sp,-48
 609              		.cfi_def_cfa_offset 48
 610 0002 06D6     		sw	ra,44(sp)
 611 0004 22D4     		sw	s0,40(sp)
 612              		.cfi_offset 1, -4
 613              		.cfi_offset 8, -8
 614 0006 0018     		addi	s0,sp,48
 615              		.cfi_def_cfa 8, 0
 616 0008 AA87     		mv	a5,a0
 617 000a A30FF4FC 		sb	a5,-33(s0)
 154:../src/bsp/wbspiflash.c **** 	uint32_t buff;
 155:../src/bsp/wbspiflash.c **** 	buff = PICO_WBSPI_FLASH->CONFIG;
 618              		.loc 1 155 25
 619 000e B7470011 		li	a5,285229056
 620              		.loc 1 155 7
 621 0012 FC5F     		lw	a5,124(a5)
 622 0014 2326F4FE 		sw	a5,-20(s0)
 156:../src/bsp/wbspiflash.c **** 	uint8_t tx_fifo_depth_config = (buff & 0x3f) >> 4;
 623              		.loc 1 156 47
 624 0018 8327C4FE 		lw	a5,-20(s0)
 625 001c 9183     		srli	a5,a5,4
 626 001e 93F7F70F 		andi	a5,a5,0xff
 627              		.loc 1 156 10
 628 0022 8D8B     		andi	a5,a5,3
 629 0024 A305F4FE 		sb	a5,-21(s0)
 157:../src/bsp/wbspiflash.c **** 	uint8_t tx_fifo_depth = spi_get_fifo_depth(tx_fifo_depth_config);
 630              		.loc 1 157 26
 631 0028 8347B4FE 		lbu	a5,-21(s0)
 632 002c 3E85     		mv	a0,a5
 633 002e 97000000 		call	spi_get_fifo_depth
 633      E7800000 
 634 0036 AA87     		mv	a5,a0
 635 0038 2305F4FE 		sb	a5,-22(s0)
 158:../src/bsp/wbspiflash.c **** 	if(tx_threshold > tx_fifo_depth)
 636              		.loc 1 158 4
 637 003c 0347F4FD 		lbu	a4,-33(s0)
 638 0040 8347A4FE 		lbu	a5,-22(s0)
 639 0044 63FBE700 		bleu	a4,a5,.L34
 159:../src/bsp/wbspiflash.c **** 	{
 160:../src/bsp/wbspiflash.c **** 		printf("Error : TX threshold should not be set larger than TX fifo depth!\r\n");
 640              		.loc 1 160 3
 641 0048 17050000 		lla	a0,.LC0
 641      13050500 
 642 0050 97000000 		call	printf
 642      E7800000 
 161:../src/bsp/wbspiflash.c **** 	}
 162:../src/bsp/wbspiflash.c **** 	else
 163:../src/bsp/wbspiflash.c **** 	{
 164:../src/bsp/wbspiflash.c **** 		PICO_WBSPI_FLASH->CTRL &= (~(0x1f << 16));
 165:../src/bsp/wbspiflash.c **** 		PICO_WBSPI_FLASH->CTRL |= ((tx_threshold) << 16);
 166:../src/bsp/wbspiflash.c **** 	}
 167:../src/bsp/wbspiflash.c **** 	return;
 643              		.loc 1 167 2
 644 0058 3DA0     		j	.L33
 645              	.L34:
 164:../src/bsp/wbspiflash.c **** 		PICO_WBSPI_FLASH->CTRL |= ((tx_threshold) << 16);
 646              		.loc 1 164 26
 647 005a B7470011 		li	a5,285229056
 648 005e 945B     		lw	a3,48(a5)
 649 0060 B7470011 		li	a5,285229056
 650 0064 3707E1FF 		li	a4,-2031616
 651 0068 7D17     		addi	a4,a4,-1
 652 006a 758F     		and	a4,a3,a4
 653 006c 98DB     		sw	a4,48(a5)
 165:../src/bsp/wbspiflash.c **** 	}
 654              		.loc 1 165 26
 655 006e B7470011 		li	a5,285229056
 656 0072 985B     		lw	a4,48(a5)
 165:../src/bsp/wbspiflash.c **** 	}
 657              		.loc 1 165 45
 658 0074 8347F4FD 		lbu	a5,-33(s0)
 659 0078 C207     		slli	a5,a5,16
 660 007a BE86     		mv	a3,a5
 165:../src/bsp/wbspiflash.c **** 	}
 661              		.loc 1 165 26
 662 007c B7470011 		li	a5,285229056
 663 0080 558F     		or	a4,a4,a3
 664 0082 98DB     		sw	a4,48(a5)
 665              		.loc 1 167 2
 666 0084 0100     		nop
 667              	.L33:
 168:../src/bsp/wbspiflash.c **** }
 668              		.loc 1 168 1
 669 0086 B250     		lw	ra,44(sp)
 670              		.cfi_restore 1
 671 0088 2254     		lw	s0,40(sp)
 672              		.cfi_restore 8
 673 008a 4561     		addi	sp,sp,48
 674              		.cfi_def_cfa_register 2
 675 008c 8280     		jr	ra
 676              		.cfi_endproc
 677              	.LFE14:
 679              		.section	.rodata.SPI_set_rx_threshold.str1.4,"aMS",@progbits,1
 680              		.align	2
 681              	.LC1:
 682 0000 72782074 		.string	"rx threshold should not be set larger than rx fifo depth!\r\n"
 682      68726573 
 682      686F6C64 
 682      2073686F 
 682      756C6420 
 683              		.section	.text.SPI_set_rx_threshold,"ax",@progbits
 684              		.align	1
 685              		.globl	SPI_set_rx_threshold
 687              	SPI_set_rx_threshold:
 688              	.LFB15:
 169:../src/bsp/wbspiflash.c **** 
 170:../src/bsp/wbspiflash.c **** void SPI_set_rx_threshold(uint8_t rx_threshold)
 171:../src/bsp/wbspiflash.c **** {
 689              		.loc 1 171 1
 690              		.cfi_startproc
 691 0000 7971     		addi	sp,sp,-48
 692              		.cfi_def_cfa_offset 48
 693 0002 06D6     		sw	ra,44(sp)
 694 0004 22D4     		sw	s0,40(sp)
 695              		.cfi_offset 1, -4
 696              		.cfi_offset 8, -8
 697 0006 0018     		addi	s0,sp,48
 698              		.cfi_def_cfa 8, 0
 699 0008 AA87     		mv	a5,a0
 700 000a A30FF4FC 		sb	a5,-33(s0)
 172:../src/bsp/wbspiflash.c **** 	uint32_t buff;
 173:../src/bsp/wbspiflash.c **** 	buff = PICO_WBSPI_FLASH->CONFIG;
 701              		.loc 1 173 25
 702 000e B7470011 		li	a5,285229056
 703              		.loc 1 173 7
 704 0012 FC5F     		lw	a5,124(a5)
 705 0014 2326F4FE 		sw	a5,-20(s0)
 174:../src/bsp/wbspiflash.c **** 	uint8_t rx_fifo_depth_config = (buff & 0x03);
 706              		.loc 1 174 39
 707 0018 8327C4FE 		lw	a5,-20(s0)
 708 001c 93F7F70F 		andi	a5,a5,0xff
 709              		.loc 1 174 10
 710 0020 8D8B     		andi	a5,a5,3
 711 0022 A305F4FE 		sb	a5,-21(s0)
 175:../src/bsp/wbspiflash.c **** 	uint8_t rx_fifo_depth = spi_get_fifo_depth(rx_fifo_depth_config);
 712              		.loc 1 175 26
 713 0026 8347B4FE 		lbu	a5,-21(s0)
 714 002a 3E85     		mv	a0,a5
 715 002c 97000000 		call	spi_get_fifo_depth
 715      E7800000 
 716 0034 AA87     		mv	a5,a0
 717 0036 2305F4FE 		sb	a5,-22(s0)
 176:../src/bsp/wbspiflash.c **** 	if(rx_threshold > rx_fifo_depth)
 718              		.loc 1 176 4
 719 003a 0347F4FD 		lbu	a4,-33(s0)
 720 003e 8347A4FE 		lbu	a5,-22(s0)
 721 0042 63FBE700 		bleu	a4,a5,.L38
 177:../src/bsp/wbspiflash.c **** 	{
 178:../src/bsp/wbspiflash.c **** 		printf("rx threshold should not be set larger than rx fifo depth!\r\n");
 722              		.loc 1 178 3
 723 0046 17050000 		lla	a0,.LC1
 723      13050500 
 724 004e 97000000 		call	printf
 724      E7800000 
 179:../src/bsp/wbspiflash.c **** 	}
 180:../src/bsp/wbspiflash.c **** 	else
 181:../src/bsp/wbspiflash.c **** 	{
 182:../src/bsp/wbspiflash.c **** 		PICO_WBSPI_FLASH->CTRL &= (~(0x1f << 8));
 183:../src/bsp/wbspiflash.c **** 		PICO_WBSPI_FLASH->CTRL |= ((rx_threshold) << 8);
 184:../src/bsp/wbspiflash.c **** 	}
 185:../src/bsp/wbspiflash.c **** 	return;
 725              		.loc 1 185 2
 726 0056 3DA0     		j	.L37
 727              	.L38:
 182:../src/bsp/wbspiflash.c **** 		PICO_WBSPI_FLASH->CTRL |= ((rx_threshold) << 8);
 728              		.loc 1 182 26
 729 0058 B7470011 		li	a5,285229056
 730 005c 945B     		lw	a3,48(a5)
 731 005e B7470011 		li	a5,285229056
 732 0062 7977     		li	a4,-8192
 733 0064 1307F70F 		addi	a4,a4,255
 734 0068 758F     		and	a4,a3,a4
 735 006a 98DB     		sw	a4,48(a5)
 183:../src/bsp/wbspiflash.c **** 	}
 736              		.loc 1 183 26
 737 006c B7470011 		li	a5,285229056
 738 0070 985B     		lw	a4,48(a5)
 183:../src/bsp/wbspiflash.c **** 	}
 739              		.loc 1 183 45
 740 0072 8347F4FD 		lbu	a5,-33(s0)
 741 0076 A207     		slli	a5,a5,8
 742 0078 BE86     		mv	a3,a5
 183:../src/bsp/wbspiflash.c **** 	}
 743              		.loc 1 183 26
 744 007a B7470011 		li	a5,285229056
 745 007e 558F     		or	a4,a4,a3
 746 0080 98DB     		sw	a4,48(a5)
 747              		.loc 1 185 2
 748 0082 0100     		nop
 749              	.L37:
 186:../src/bsp/wbspiflash.c **** }
 750              		.loc 1 186 1
 751 0084 B250     		lw	ra,44(sp)
 752              		.cfi_restore 1
 753 0086 2254     		lw	s0,40(sp)
 754              		.cfi_restore 8
 755 0088 4561     		addi	sp,sp,48
 756              		.cfi_def_cfa_register 2
 757 008a 8280     		jr	ra
 758              		.cfi_endproc
 759              	.LFE15:
 761              		.section	.text.spi_flash_init,"ax",@progbits
 762              		.align	1
 763              		.globl	spi_flash_init
 765              	spi_flash_init:
 766              	.LFB16:
 187:../src/bsp/wbspiflash.c **** 
 188:../src/bsp/wbspiflash.c **** void spi_flash_init(void)
 189:../src/bsp/wbspiflash.c **** {
 767              		.loc 1 189 1
 768              		.cfi_startproc
 769 0000 17030000 		call	t0,__riscv_save_3
 769      E7020300 
 770              		.cfi_offset 18, -16
 771              		.cfi_offset 9, -12
 772              		.cfi_offset 1, -4
 773              		.cfi_def_cfa_offset 16
 190:../src/bsp/wbspiflash.c **** 	uint32_t buff;
 191:../src/bsp/wbspiflash.c **** 
 192:../src/bsp/wbspiflash.c **** 	PICO_WBSPI_FLASH->CTRL |= 0x01;         //reset spi
 774              		.loc 1 192 25
 775 0008 37470011 		li	a4,285229056
 776 000c 1C5B     		lw	a5,48(a4)
 777 000e 93E71700 		ori	a5,a5,1
 778 0012 1CDB     		sw	a5,48(a4)
 779              	.L42:
 193:../src/bsp/wbspiflash.c **** 	while((PICO_WBSPI_FLASH->CTRL & 0x01)); //wait until spi reset complete
 780              		.loc 1 193 25 discriminator 1
 781 0014 1C5B     		lw	a5,48(a4)
 782              		.loc 1 193 32 discriminator 1
 783 0016 858B     		andi	a5,a5,1
 784              		.loc 1 193 7 discriminator 1
 785 0018 F5FF     		bnez	a5,.L42
 194:../src/bsp/wbspiflash.c **** 
 195:../src/bsp/wbspiflash.c **** 	buff = PICO_WBSPI_FLASH->CONFIG;
 786              		.loc 1 195 7
 787 001a 0329C707 		lw	s2,124(a4)
 196:../src/bsp/wbspiflash.c **** 	uint8_t tx_fifo_depth_config = (buff & 0x3f) >> 4;
 788              		.loc 1 196 47
 789 001e 13554900 		srli	a0,s2,4
 197:../src/bsp/wbspiflash.c **** 	uint8_t tx_fifo_depth = spi_get_fifo_depth(tx_fifo_depth_config);
 790              		.loc 1 197 26
 791 0022 0D89     		andi	a0,a0,3
 792 0024 97000000 		call	spi_get_fifo_depth
 792      E7800000 
 793 002c AA84     		mv	s1,a0
 198:../src/bsp/wbspiflash.c **** 	uint8_t rx_fifo_depth_config = (buff & 0x03);
 199:../src/bsp/wbspiflash.c **** 	uint8_t rx_fifo_depth = spi_get_fifo_depth(rx_fifo_depth_config);
 794              		.loc 1 199 26
 795 002e 13753900 		andi	a0,s2,3
 796 0032 97000000 		call	spi_get_fifo_depth
 796      E7800000 
 200:../src/bsp/wbspiflash.c **** 
 201:../src/bsp/wbspiflash.c **** 	while((PICO_WBSPI_FLASH->STATUS & 0x01)); //wait until SPI2 active finish
 797              		.loc 1 201 25
 798 003a B7470011 		li	a5,285229056
 799              	.L43:
 800              		.loc 1 201 25 is_stmt 0 discriminator 1
 801 003e D85B     		lw	a4,52(a5)
 802              		.loc 1 201 34 is_stmt 1 discriminator 1
 803 0040 058B     		andi	a4,a4,1
 804              		.loc 1 201 7 discriminator 1
 805 0042 75FF     		bnez	a4,.L43
 202:../src/bsp/wbspiflash.c **** 
 203:../src/bsp/wbspiflash.c **** 
 204:../src/bsp/wbspiflash.c **** 
 205:../src/bsp/wbspiflash.c **** 	buff = (2 << 16) +(7 << 8) + (0 << 7);
 206:../src/bsp/wbspiflash.c **** 	//AddrLen = 3; DataLen = 8 DataMerge = 0
 207:../src/bsp/wbspiflash.c **** 	//other fields reset to 0 while spi_default_modes connected to 0
 208:../src/bsp/wbspiflash.c **** 	PICO_WBSPI_FLASH->TRANSFMT = buff;
 806              		.loc 1 208 29
 807 0044 37070200 		li	a4,131072
 808 0048 13070770 		addi	a4,a4,1792
 809 004c 98CB     		sw	a4,16(a5)
 209:../src/bsp/wbspiflash.c **** 
 210:../src/bsp/wbspiflash.c **** 
 211:../src/bsp/wbspiflash.c **** 	PICO_WBSPI_FLASH->CTRL |= (0x1 << 2);    //reset tx fifo
 810              		.loc 1 211 25
 811 004e 985B     		lw	a4,48(a5)
 812 0050 13674700 		ori	a4,a4,4
 813 0054 98DB     		sw	a4,48(a5)
 212:../src/bsp/wbspiflash.c **** 	while((PICO_WBSPI_FLASH->CTRL & 0x2)) ;  //wait tx fifo reset complete
 814              		.loc 1 212 25
 815 0056 B7470011 		li	a5,285229056
 816              	.L44:
 817              		.loc 1 212 25 is_stmt 0 discriminator 1
 818 005a 985B     		lw	a4,48(a5)
 819              		.loc 1 212 32 is_stmt 1 discriminator 1
 820 005c 098B     		andi	a4,a4,2
 821              		.loc 1 212 7 discriminator 1
 822 005e 75FF     		bnez	a4,.L44
 213:../src/bsp/wbspiflash.c **** 	PICO_WBSPI_FLASH->CTRL  |= ((tx_fifo_depth/2) << 16);  //set tx threshold as half of txfifo depth
 823              		.loc 1 213 26
 824 0060 985B     		lw	a4,48(a5)
 825              		.loc 1 213 44
 826 0062 8580     		srli	s1,s1,1
 827 0064 93F4F40F 		andi	s1,s1,0xff
 828              		.loc 1 213 48
 829 0068 C204     		slli	s1,s1,16
 830              		.loc 1 213 26
 831 006a D98C     		or	s1,s1,a4
 832 006c 84DB     		sw	s1,48(a5)
 214:../src/bsp/wbspiflash.c **** 
 215:../src/bsp/wbspiflash.c **** 	PICO_WBSPI_FLASH->CTRL |= (0x1 << 1);    //reset rx fifo
 833              		.loc 1 215 25
 834 006e 985B     		lw	a4,48(a5)
 835 0070 13672700 		ori	a4,a4,2
 836 0074 98DB     		sw	a4,48(a5)
 216:../src/bsp/wbspiflash.c **** 	while((PICO_WBSPI_FLASH->CTRL & 0x1)) ;  //wait rx fifo reset complete
 837              		.loc 1 216 25
 838 0076 B7470011 		li	a5,285229056
 839              	.L45:
 840              		.loc 1 216 25 is_stmt 0 discriminator 1
 841 007a 985B     		lw	a4,48(a5)
 842              		.loc 1 216 32 is_stmt 1 discriminator 1
 843 007c 058B     		andi	a4,a4,1
 844              		.loc 1 216 7 discriminator 1
 845 007e 75FF     		bnez	a4,.L45
 217:../src/bsp/wbspiflash.c **** 	PICO_WBSPI_FLASH->CTRL  |= ((rx_fifo_depth/2) << 8);  //set rx threshold as half of rxfifo depth
 846              		.loc 1 217 26
 847 0080 945B     		lw	a3,48(a5)
 848              		.loc 1 217 44
 849 0082 13571500 		srli	a4,a0,1
 850 0086 1377F70F 		andi	a4,a4,0xff
 851              		.loc 1 217 48
 852 008a 2207     		slli	a4,a4,8
 853              		.loc 1 217 26
 854 008c 558F     		or	a4,a4,a3
 855 008e 98DB     		sw	a4,48(a5)
 218:../src/bsp/wbspiflash.c **** 
 219:../src/bsp/wbspiflash.c **** 	//PICO_WBSPI_FLASH->INTREN |= (0x1 << 4);  //Do not support Interupt signal
 220:../src/bsp/wbspiflash.c **** 	PICO_WBSPI_FLASH->INTREN &= 0x00000000;    //close all the interrupt
 856              		.loc 1 220 27
 857 0090 985F     		lw	a4,56(a5)
 858 0092 23AC0702 		sw	zero,56(a5)
 221:../src/bsp/wbspiflash.c **** 	PICO_WBSPI_FLASH->TIMING &= (~(0xff));
 859              		.loc 1 221 27
 860 0096 B843     		lw	a4,64(a5)
 861 0098 137707F0 		andi	a4,a4,-256
 862 009c B8C3     		sw	a4,64(a5)
 222:../src/bsp/wbspiflash.c **** 	PICO_WBSPI_FLASH->TIMING |= (0x3);       //Set the SPI Interface Timing Register (0x40)
 863              		.loc 1 222 27
 864 009e B843     		lw	a4,64(a5)
 865 00a0 13673700 		ori	a4,a4,3
 866 00a4 B8C3     		sw	a4,64(a5)
 223:../src/bsp/wbspiflash.c **** 	                                   //to set SCLK_DIV to 4, which divide the spi_clk into
 224:../src/bsp/wbspiflash.c **** 	                                   //((4+1)*2) = 10 as SCLK
 225:../src/bsp/wbspiflash.c **** 	return;
 226:../src/bsp/wbspiflash.c **** }
 867              		.loc 1 226 1
 868 00a6 17030000 		tail	__riscv_restore_3
 868      67000300 
 869              		.cfi_restore 18
 870              		.cfi_restore 9
 871              		.cfi_restore 1
 872              		.cfi_def_cfa_offset 0
 873              		.cfi_endproc
 874              	.LFE16:
 876              		.section	.text.spi_flash_read,"ax",@progbits
 877              		.align	1
 878              		.globl	spi_flash_read
 880              	spi_flash_read:
 881              	.LFB17:
 227:../src/bsp/wbspiflash.c **** 
 228:../src/bsp/wbspiflash.c **** //cmd -> address -> data
 229:../src/bsp/wbspiflash.c **** void spi_flash_read(uint8_t rd_len, uint32_t cmd, uint32_t address,uint8_t *read_buffer)
 230:../src/bsp/wbspiflash.c **** {
 882              		.loc 1 230 1
 883              		.cfi_startproc
 231:../src/bsp/wbspiflash.c **** 	PICO_WBSPI_FLASH->TRANSCTRL = (1 << 30) +     //enable cmd
 232:../src/bsp/wbspiflash.c **** 							(1 << 29) +        //Open the address
 233:../src/bsp/wbspiflash.c **** 			                (2 << 24) +        //trans mode = 2 (read only)
 234:../src/bsp/wbspiflash.c **** 							(0 << 22) +        //dual mode 0 regular mode
 884              		.loc 1 234 18
 885 0000 B7070062 		li	a5,1644167168
 886 0004 FD17     		addi	a5,a5,-1
 231:../src/bsp/wbspiflash.c **** 	PICO_WBSPI_FLASH->TRANSCTRL = (1 << 30) +     //enable cmd
 887              		.loc 1 231 30
 888 0006 37470011 		li	a4,285229056
 889              		.loc 1 234 18
 890 000a AA97     		add	a5,a0,a5
 231:../src/bsp/wbspiflash.c **** 	PICO_WBSPI_FLASH->TRANSCTRL = (1 << 30) +     //enable cmd
 891              		.loc 1 231 30
 892 000c 1CD3     		sw	a5,32(a4)
 235:../src/bsp/wbspiflash.c **** 							((rd_len-1) << 0); //set read trans byte count
 236:../src/bsp/wbspiflash.c **** 	//printf("%08x\n", PICO_WBSPI_FLASH->TRANSCTRL);
 237:../src/bsp/wbspiflash.c **** 	PICO_WBSPI_FLASH->ADDR = address;
 893              		.loc 1 237 25
 894 000e 10D7     		sw	a2,40(a4)
 238:../src/bsp/wbspiflash.c **** 	//printf("%08x\n", PICO_WBSPI_FLASH->ADDR);
 239:../src/bsp/wbspiflash.c **** 	PICO_WBSPI_FLASH->CMD  = cmd;
 895              		.loc 1 239 25
 896 0010 4CD3     		sw	a1,36(a4)
 897              	.LBB4:
 240:../src/bsp/wbspiflash.c **** 	//printf("%08x\n", PICO_WBSPI_FLASH->CMD);
 241:../src/bsp/wbspiflash.c **** 
 242:../src/bsp/wbspiflash.c **** 	for(uint8_t i = 0; i < rd_len; i++)
 898              		.loc 1 242 2
 899 0012 15C1     		beqz	a0,.L52
 900 0014 1306F5FF 		addi	a2,a0,-1
 901 0018 1376F60F 		andi	a2,a2,0xff
 902 001c 0506     		addi	a2,a2,1
 903 001e 3696     		add	a2,a3,a2
 904              	.L54:
 243:../src/bsp/wbspiflash.c **** 	{
 244:../src/bsp/wbspiflash.c **** 		*read_buffer = PICO_WBSPI_FLASH->DATA;
 905              		.loc 1 244 34
 906 0020 5C57     		lw	a5,44(a4)
 245:../src/bsp/wbspiflash.c **** 		read_buffer++;
 907              		.loc 1 245 14
 908 0022 8506     		addi	a3,a3,1
 244:../src/bsp/wbspiflash.c **** 		read_buffer++;
 909              		.loc 1 244 16
 910 0024 A38FF6FE 		sb	a5,-1(a3)
 911              	.L53:
 246:../src/bsp/wbspiflash.c **** 		while(PICO_WBSPI_FLASH ->STATUS & (0x1 <<15));
 912              		.loc 1 246 26 discriminator 1
 913 0028 5C5B     		lw	a5,52(a4)
 914              		.loc 1 246 8 discriminator 1
 915 002a 93950701 		slli	a1,a5,16
 916 002e E3CD05FE 		bltz	a1,.L53
 242:../src/bsp/wbspiflash.c **** 	{
 917              		.loc 1 242 2 discriminator 2
 918 0032 E397C6FE 		bne	a3,a2,.L54
 919              	.L52:
 920              	.LBE4:
 247:../src/bsp/wbspiflash.c **** 	}
 248:../src/bsp/wbspiflash.c **** 	while((PICO_WBSPI_FLASH->STATUS & 0x01)); //wait until SPI_Ctroller active finish
 921              		.loc 1 248 25
 922 0036 37470011 		li	a4,285229056
 923              	.L55:
 924              		.loc 1 248 25 is_stmt 0 discriminator 1
 925 003a 5C5B     		lw	a5,52(a4)
 926              		.loc 1 248 34 is_stmt 1 discriminator 1
 927 003c 858B     		andi	a5,a5,1
 928              		.loc 1 248 7 discriminator 1
 929 003e F5FF     		bnez	a5,.L55
 249:../src/bsp/wbspiflash.c **** }
 930              		.loc 1 249 1
 931 0040 8280     		ret
 932              		.cfi_endproc
 933              	.LFE17:
 935              		.section	.text.spi_flash_write,"ax",@progbits
 936              		.align	1
 937              		.globl	spi_flash_write
 939              	spi_flash_write:
 940              	.LFB18:
 250:../src/bsp/wbspiflash.c **** 
 251:../src/bsp/wbspiflash.c **** //the consequence of sending
 252:../src/bsp/wbspiflash.c **** //cmd -> address -> data
 253:../src/bsp/wbspiflash.c **** void spi_flash_write(uint8_t wr_len, uint32_t cmd, uint32_t address,uint8_t *write_buffer)
 254:../src/bsp/wbspiflash.c **** {
 941              		.loc 1 254 1
 942              		.cfi_startproc
 943 0000 17030000 		call	t0,__riscv_save_2
 943      E7020300 
 944              		.cfi_offset 9, -12
 945              		.cfi_offset 1, -4
 946              		.cfi_def_cfa_offset 16
 947 0008 4111     		addi	sp,sp,-16
 948              		.cfi_def_cfa_offset 32
 949              		.loc 1 254 1
 950 000a AA84     		mv	s1,a0
 255:../src/bsp/wbspiflash.c **** 	spi_flash_write_cmd(WRITE_ENABLE);
 951              		.loc 1 255 2
 952 000c 1945     		li	a0,6
 254:../src/bsp/wbspiflash.c **** 	spi_flash_write_cmd(WRITE_ENABLE);
 953              		.loc 1 254 1
 954 000e 2EC6     		sw	a1,12(sp)
 955 0010 32C4     		sw	a2,8(sp)
 956 0012 36C2     		sw	a3,4(sp)
 957              		.loc 1 255 2
 958 0014 97000000 		call	spi_flash_write_cmd
 958      E7800000 
 256:../src/bsp/wbspiflash.c **** 	spi_flash_read_status();
 959              		.loc 1 256 2
 960 001c 97000000 		call	spi_flash_read_status
 960      E7800000 
 257:../src/bsp/wbspiflash.c **** 
 258:../src/bsp/wbspiflash.c **** 	PICO_WBSPI_FLASH->TRANSCTRL = (1 << 30) +        //enable cmd
 259:../src/bsp/wbspiflash.c **** 							(1 << 29) + //enable address
 260:../src/bsp/wbspiflash.c **** 			                (1 << 24) +        //trans mode = 1 (write only)
 261:../src/bsp/wbspiflash.c **** 							(0 << 22) +         //dual mode
 262:../src/bsp/wbspiflash.c **** 							((wr_len-1) << 12); //set read trans byte count
 961              		.loc 1 262 16
 962 0024 9387F4FF 		addi	a5,s1,-1
 261:../src/bsp/wbspiflash.c **** 							((wr_len-1) << 12); //set read trans byte count
 963              		.loc 1 261 18
 964 0028 37070061 		li	a4,1627389952
 263:../src/bsp/wbspiflash.c **** 
 264:../src/bsp/wbspiflash.c **** 	PICO_WBSPI_FLASH->ADDR = address;
 965              		.loc 1 264 25
 966 002c 2246     		lw	a2,8(sp)
 262:../src/bsp/wbspiflash.c **** 
 967              		.loc 1 262 20
 968 002e B207     		slli	a5,a5,12
 261:../src/bsp/wbspiflash.c **** 							((wr_len-1) << 12); //set read trans byte count
 969              		.loc 1 261 18
 970 0030 BA97     		add	a5,a5,a4
 265:../src/bsp/wbspiflash.c **** 	PICO_WBSPI_FLASH->CMD  = cmd;
 971              		.loc 1 265 25
 972 0032 B245     		lw	a1,12(sp)
 258:../src/bsp/wbspiflash.c **** 							(1 << 29) + //enable address
 973              		.loc 1 258 30
 974 0034 37470011 		li	a4,285229056
 975 0038 1CD3     		sw	a5,32(a4)
 976              	.LBB5:
 266:../src/bsp/wbspiflash.c **** 	for(uint8_t i = 0; i < wr_len; i++)
 977              		.loc 1 266 2
 978 003a 9246     		lw	a3,4(sp)
 979              	.LBE5:
 264:../src/bsp/wbspiflash.c **** 	PICO_WBSPI_FLASH->CMD  = cmd;
 980              		.loc 1 264 25
 981 003c 10D7     		sw	a2,40(a4)
 265:../src/bsp/wbspiflash.c **** 	for(uint8_t i = 0; i < wr_len; i++)
 982              		.loc 1 265 25
 983 003e 4CD3     		sw	a1,36(a4)
 984              	.LBB6:
 985              		.loc 1 266 2
 986 0040 8147     		li	a5,0
 987              	.L64:
 988              		.loc 1 266 2 is_stmt 0 discriminator 1
 989 0042 13F6F70F 		andi	a2,a5,0xff
 990 0046 63659602 		bgtu	s1,a2,.L66
 991              	.LBE6:
 267:../src/bsp/wbspiflash.c **** 	{
 268:../src/bsp/wbspiflash.c **** 		PICO_WBSPI_FLASH->DATA = (uint32_t)(*write_buffer);
 269:../src/bsp/wbspiflash.c **** 		write_buffer++;
 270:../src/bsp/wbspiflash.c **** 		//check the status of txfifo
 271:../src/bsp/wbspiflash.c **** 		while(PICO_WBSPI_FLASH ->STATUS & (0x1 <<23));
 272:../src/bsp/wbspiflash.c **** 	}
 273:../src/bsp/wbspiflash.c **** 
 274:../src/bsp/wbspiflash.c **** 	while((PICO_WBSPI_FLASH->STATUS & 0x01)); //wait until SPI_ctroller active finish
 992              		.loc 1 274 25 is_stmt 1
 993 004a 37470011 		li	a4,285229056
 994              	.L67:
 995              		.loc 1 274 25 is_stmt 0 discriminator 1
 996 004e 5C5B     		lw	a5,52(a4)
 997              		.loc 1 274 34 is_stmt 1 discriminator 1
 998 0050 858B     		andi	a5,a5,1
 999              		.loc 1 274 7 discriminator 1
 1000 0052 F5FF     		bnez	a5,.L67
 275:../src/bsp/wbspiflash.c **** 	spi_flash_write_cmd(WRITE_DISENABLE);
 1001              		.loc 1 275 2
 1002 0054 1145     		li	a0,4
 1003 0056 97000000 		call	spi_flash_write_cmd
 1003      E7800000 
 276:../src/bsp/wbspiflash.c **** 	spi_flash_read_status();
 1004              		.loc 1 276 2
 1005 005e 97000000 		call	spi_flash_read_status
 1005      E7800000 
 277:../src/bsp/wbspiflash.c **** }
 1006              		.loc 1 277 1
 1007 0066 4101     		addi	sp,sp,16
 1008              		.cfi_remember_state
 1009              		.cfi_def_cfa_offset 0
 1010 0068 17030000 		tail	__riscv_restore_2
 1010      67000300 
 1011              		.cfi_restore 9
 1012              		.cfi_restore 1
 1013              		.cfi_def_cfa_offset -16
 1014              	.L66:
 1015              		.cfi_restore_state
 1016              	.LBB7:
 268:../src/bsp/wbspiflash.c **** 		write_buffer++;
 1017              		.loc 1 268 39
 1018 0070 3386F600 		add	a2,a3,a5
 268:../src/bsp/wbspiflash.c **** 		write_buffer++;
 1019              		.loc 1 268 28
 1020 0074 03460600 		lbu	a2,0(a2)
 268:../src/bsp/wbspiflash.c **** 		write_buffer++;
 1021              		.loc 1 268 26
 1022 0078 50D7     		sw	a2,44(a4)
 1023              	.L65:
 271:../src/bsp/wbspiflash.c **** 	}
 1024              		.loc 1 271 26 discriminator 1
 1025 007a 505B     		lw	a2,52(a4)
 271:../src/bsp/wbspiflash.c **** 	}
 1026              		.loc 1 271 8 discriminator 1
 1027 007c 93158600 		slli	a1,a2,8
 1028 0080 E3CD05FE 		bltz	a1,.L65
 1029 0084 8507     		addi	a5,a5,1
 1030 0086 75BF     		j	.L64
 1031              	.LBE7:
 1032              		.cfi_endproc
 1033              	.LFE18:
 1035              		.section	.text.change_mode_spi_flash,"ax",@progbits
 1036              		.align	1
 1037              		.globl	change_mode_spi_flash
 1039              	change_mode_spi_flash:
 1040              	.LFB19:
 278:../src/bsp/wbspiflash.c **** 
 279:../src/bsp/wbspiflash.c **** //change the mode of spi flash
 280:../src/bsp/wbspiflash.c **** void change_mode_spi_flash()
 281:../src/bsp/wbspiflash.c **** {
 1041              		.loc 1 281 1
 1042              		.cfi_startproc
 282:../src/bsp/wbspiflash.c **** 	uint32_t i;
 283:../src/bsp/wbspiflash.c **** 	//read spi memory access register 0x50
 284:../src/bsp/wbspiflash.c **** 	i = PICO_WBSPI_FLASH ->MEMCTRL;
 1043              		.loc 1 284 4
 1044 0000 B7470011 		li	a5,285229056
 1045 0004 B84B     		lw	a4,80(a5)
 285:../src/bsp/wbspiflash.c **** 	//write back to spi flash reg
 286:../src/bsp/wbspiflash.c **** 	PICO_WBSPI_FLASH ->MEMCTRL = i;
 1046              		.loc 1 286 29
 1047 0006 B8CB     		sw	a4,80(a5)
 287:../src/bsp/wbspiflash.c **** 	//wait the memCtrlChg become 0
 288:../src/bsp/wbspiflash.c **** 	while(PICO_WBSPI_FLASH ->MEMCTRL & (0x01 <<8 ));
 1048              		.loc 1 288 25
 1049 0008 37470011 		li	a4,285229056
 1050              	.L72:
 1051              		.loc 1 288 25 is_stmt 0 discriminator 1
 1052 000c 3C4B     		lw	a5,80(a4)
 1053              		.loc 1 288 35 is_stmt 1 discriminator 1
 1054 000e 93F70710 		andi	a5,a5,256
 1055              		.loc 1 288 7 discriminator 1
 1056 0012 EDFF     		bnez	a5,.L72
 289:../src/bsp/wbspiflash.c **** 
 290:../src/bsp/wbspiflash.c **** }
 1057              		.loc 1 290 1
 1058 0014 8280     		ret
 1059              		.cfi_endproc
 1060              	.LFE19:
 1062              		.section	.text.spi_flash_write_cmd,"ax",@progbits
 1063              		.align	1
 1064              		.globl	spi_flash_write_cmd
 1066              	spi_flash_write_cmd:
 1067              	.LFB20:
 291:../src/bsp/wbspiflash.c **** 
 292:../src/bsp/wbspiflash.c **** //write cmd to spi flash
 293:../src/bsp/wbspiflash.c **** //accord different spi flash
 294:../src/bsp/wbspiflash.c **** void spi_flash_write_cmd(uint32_t cmd)
 295:../src/bsp/wbspiflash.c **** {
 1068              		.loc 1 295 1
 1069              		.cfi_startproc
 1070 0000 17030000 		call	t0,__riscv_save_2
 1070      E7020300 
 1071              		.cfi_offset 9, -12
 1072              		.cfi_offset 1, -4
 1073              		.cfi_def_cfa_offset 16
 296:../src/bsp/wbspiflash.c **** 	PICO_WBSPI_FLASH->TRANSCTRL = (0 << 30) +        //Disenable cmd
 1074              		.loc 1 296 30
 1075 0008 B7470011 		li	a5,285229056
 1076 000c 37070001 		li	a4,16777216
 1077 0010 98D3     		sw	a4,32(a5)
 297:../src/bsp/wbspiflash.c **** 			                (1 << 24) + //trans mode = 1 (write only)
 298:../src/bsp/wbspiflash.c **** 							(0 << 22) +//regular mode
 299:../src/bsp/wbspiflash.c **** 							(0 << 12); //set trans byte count is 1
 300:../src/bsp/wbspiflash.c **** 	PICO_WBSPI_FLASH->CMD  = 0x01;//Start to transfer
 1078              		.loc 1 300 25
 1079 0012 0547     		li	a4,1
 1080 0014 D8D3     		sw	a4,36(a5)
 301:../src/bsp/wbspiflash.c **** 	if(cmd == CHIP_ERASE)
 1081              		.loc 1 301 4
 1082 0016 93070006 		li	a5,96
 295:../src/bsp/wbspiflash.c **** 	PICO_WBSPI_FLASH->TRANSCTRL = (0 << 30) +        //Disenable cmd
 1083              		.loc 1 295 1
 1084 001a AA84     		mv	s1,a0
 1085              		.loc 1 301 4
 1086 001c 6305F502 		beq	a0,a5,.L81
 1087              	.L75:
 302:../src/bsp/wbspiflash.c **** 	{
 303:../src/bsp/wbspiflash.c **** 		spi_flash_write_cmd(WRITE_ENABLE);
 304:../src/bsp/wbspiflash.c **** 		spi_flash_read_status();
 305:../src/bsp/wbspiflash.c **** 	}
 306:../src/bsp/wbspiflash.c **** 	PICO_WBSPI_FLASH->DATA = cmd;
 1088              		.loc 1 306 25
 1089 0020 B7470011 		li	a5,285229056
 1090 0024 C4D7     		sw	s1,44(a5)
 307:../src/bsp/wbspiflash.c **** 	//Check the status of tx_FIFO
 308:../src/bsp/wbspiflash.c **** 	while(PICO_WBSPI_FLASH ->STATUS & (0x1 <<23));
 1091              		.loc 1 308 25
 1092 0026 37470011 		li	a4,285229056
 1093              	.L76:
 1094              		.loc 1 308 25 is_stmt 0 discriminator 1
 1095 002a 5C5B     		lw	a5,52(a4)
 1096              		.loc 1 308 7 is_stmt 1 discriminator 1
 1097 002c 93968700 		slli	a3,a5,8
 1098 0030 E3CD06FE 		bltz	a3,.L76
 309:../src/bsp/wbspiflash.c **** 	//Check the status of Transfer
 310:../src/bsp/wbspiflash.c **** 	while((PICO_WBSPI_FLASH->STATUS & 0x01));
 1099              		.loc 1 310 25
 1100 0034 37470011 		li	a4,285229056
 1101              	.L77:
 1102              		.loc 1 310 25 is_stmt 0 discriminator 1
 1103 0038 5C5B     		lw	a5,52(a4)
 1104              		.loc 1 310 34 is_stmt 1 discriminator 1
 1105 003a 858B     		andi	a5,a5,1
 1106              		.loc 1 310 7 discriminator 1
 1107 003c F5FF     		bnez	a5,.L77
 311:../src/bsp/wbspiflash.c **** }
 1108              		.loc 1 311 1
 1109 003e 17030000 		tail	__riscv_restore_2
 1109      67000300 
 1110              		.cfi_remember_state
 1111              		.cfi_restore 9
 1112              		.cfi_restore 1
 1113              		.cfi_def_cfa_offset 0
 1114              	.L81:
 1115              		.cfi_restore_state
 303:../src/bsp/wbspiflash.c **** 		spi_flash_read_status();
 1116              		.loc 1 303 3
 1117 0046 1945     		li	a0,6
 1118 0048 97000000 		call	spi_flash_write_cmd
 1118      E7800000 
 304:../src/bsp/wbspiflash.c **** 	}
 1119              		.loc 1 304 3
 1120 0050 97000000 		call	spi_flash_read_status
 1120      E7800000 
 1121 0058 E1B7     		j	.L75
 1122              		.cfi_endproc
 1123              	.LFE20:
 1125              		.section	.text.spi_flash_page_program,"ax",@progbits
 1126              		.align	1
 1127              		.globl	spi_flash_page_program
 1129              	spi_flash_page_program:
 1130              	.LFB21:
 312:../src/bsp/wbspiflash.c **** 
 313:../src/bsp/wbspiflash.c **** //Page program
 314:../src/bsp/wbspiflash.c **** void spi_flash_page_program(uint8_t wr_len,uint32_t address,uint8_t *write_buffer)
 315:../src/bsp/wbspiflash.c **** {
 1131              		.loc 1 315 1
 1132              		.cfi_startproc
 1133 0000 17030000 		call	t0,__riscv_save_2
 1133      E7020300 
 1134              		.cfi_offset 9, -12
 1135              		.cfi_offset 1, -4
 1136              		.cfi_def_cfa_offset 16
 1137 0008 4111     		addi	sp,sp,-16
 1138              		.cfi_def_cfa_offset 32
 1139              		.loc 1 315 1
 1140 000a AA84     		mv	s1,a0
 316:../src/bsp/wbspiflash.c **** 	spi_flash_write_cmd(WRITE_ENABLE);
 1141              		.loc 1 316 2
 1142 000c 1945     		li	a0,6
 315:../src/bsp/wbspiflash.c **** 	spi_flash_write_cmd(WRITE_ENABLE);
 1143              		.loc 1 315 1
 1144 000e 2EC4     		sw	a1,8(sp)
 1145 0010 32C6     		sw	a2,12(sp)
 1146              		.loc 1 316 2
 1147 0012 97000000 		call	spi_flash_write_cmd
 1147      E7800000 
 317:../src/bsp/wbspiflash.c **** 	spi_flash_read_status();
 1148              		.loc 1 317 2
 1149 001a 97000000 		call	spi_flash_read_status
 1149      E7800000 
 318:../src/bsp/wbspiflash.c **** 
 319:../src/bsp/wbspiflash.c **** 	PICO_WBSPI_FLASH->TRANSCTRL = (1 << 30) + //enable cmd
 320:../src/bsp/wbspiflash.c **** 							(1 << 29) + //enable address
 321:../src/bsp/wbspiflash.c **** 			                (1 << 24) +        //trans mode = 1 (write only)
 322:../src/bsp/wbspiflash.c **** 							(0 << 22) +         //dual mode
 323:../src/bsp/wbspiflash.c **** 							((wr_len-1) << 12); //set read trans byte count
 1150              		.loc 1 323 16
 1151 0022 9387F4FF 		addi	a5,s1,-1
 324:../src/bsp/wbspiflash.c **** 
 325:../src/bsp/wbspiflash.c **** 	PICO_WBSPI_FLASH->ADDR = address;
 1152              		.loc 1 325 25
 1153 0026 A245     		lw	a1,8(sp)
 323:../src/bsp/wbspiflash.c **** 
 1154              		.loc 1 323 20
 1155 0028 9396C700 		slli	a3,a5,12
 322:../src/bsp/wbspiflash.c **** 							((wr_len-1) << 12); //set read trans byte count
 1156              		.loc 1 322 18
 1157 002c 37050061 		li	a0,1627389952
 319:../src/bsp/wbspiflash.c **** 							(1 << 29) + //enable address
 1158              		.loc 1 319 30
 1159 0030 37470011 		li	a4,285229056
 322:../src/bsp/wbspiflash.c **** 							((wr_len-1) << 12); //set read trans byte count
 1160              		.loc 1 322 18
 1161 0034 AA96     		add	a3,a3,a0
 319:../src/bsp/wbspiflash.c **** 							(1 << 29) + //enable address
 1162              		.loc 1 319 30
 1163 0036 14D3     		sw	a3,32(a4)
 1164              		.loc 1 325 25
 1165 0038 0CD7     		sw	a1,40(a4)
 326:../src/bsp/wbspiflash.c **** 	PICO_WBSPI_FLASH->CMD  = 0x02;//page program cmd
 1166              		.loc 1 326 25
 1167 003a 8946     		li	a3,2
 1168 003c 54D3     		sw	a3,36(a4)
 1169              	.LBB8:
 327:../src/bsp/wbspiflash.c **** 	for(uint8_t i = 0; i < wr_len; i++)
 1170              		.loc 1 327 2
 1171 003e 8DC0     		beqz	s1,.L83
 1172 0040 3246     		lw	a2,12(sp)
 1173 0042 93F6F70F 		andi	a3,a5,0xff
 1174 0046 8506     		addi	a3,a3,1
 1175 0048 B296     		add	a3,a2,a3
 1176              	.L85:
 328:../src/bsp/wbspiflash.c **** 	{
 329:../src/bsp/wbspiflash.c **** 		PICO_WBSPI_FLASH->DATA = (uint32_t)(*write_buffer);
 1177              		.loc 1 329 28
 1178 004a 83470600 		lbu	a5,0(a2)
 330:../src/bsp/wbspiflash.c **** 		write_buffer++;
 1179              		.loc 1 330 15
 1180 004e 0506     		addi	a2,a2,1
 329:../src/bsp/wbspiflash.c **** 		write_buffer++;
 1181              		.loc 1 329 26
 1182 0050 5CD7     		sw	a5,44(a4)
 1183              	.L84:
 331:../src/bsp/wbspiflash.c **** 		//check the status of txfifo
 332:../src/bsp/wbspiflash.c **** 		while(PICO_WBSPI_FLASH ->STATUS & (0x1 <<23));
 1184              		.loc 1 332 26 discriminator 1
 1185 0052 5C5B     		lw	a5,52(a4)
 1186              		.loc 1 332 8 discriminator 1
 1187 0054 93958700 		slli	a1,a5,8
 1188 0058 E3CD05FE 		bltz	a1,.L84
 327:../src/bsp/wbspiflash.c **** 	{
 1189              		.loc 1 327 2 discriminator 2
 1190 005c E397C6FE 		bne	a3,a2,.L85
 1191              	.L83:
 1192              	.LBE8:
 333:../src/bsp/wbspiflash.c **** 	}
 334:../src/bsp/wbspiflash.c **** 
 335:../src/bsp/wbspiflash.c **** 	while((PICO_WBSPI_FLASH->STATUS & 0x01)); //wait until SPI_ctroller active finish
 1193              		.loc 1 335 25
 1194 0060 37470011 		li	a4,285229056
 1195              	.L86:
 1196              		.loc 1 335 25 is_stmt 0 discriminator 1
 1197 0064 5C5B     		lw	a5,52(a4)
 1198              		.loc 1 335 34 is_stmt 1 discriminator 1
 1199 0066 858B     		andi	a5,a5,1
 1200              		.loc 1 335 7 discriminator 1
 1201 0068 F5FF     		bnez	a5,.L86
 336:../src/bsp/wbspiflash.c **** 	spi_flash_write_cmd(WRITE_DISENABLE);
 1202              		.loc 1 336 2
 1203 006a 1145     		li	a0,4
 1204 006c 97000000 		call	spi_flash_write_cmd
 1204      E7800000 
 337:../src/bsp/wbspiflash.c **** 	spi_flash_read_status();    //wait spi flash free
 1205              		.loc 1 337 2
 1206 0074 97000000 		call	spi_flash_read_status
 1206      E7800000 
 338:../src/bsp/wbspiflash.c **** }
 1207              		.loc 1 338 1
 1208 007c 4101     		addi	sp,sp,16
 1209              		.cfi_def_cfa_offset 0
 1210 007e 17030000 		tail	__riscv_restore_2
 1210      67000300 
 1211              		.cfi_restore 9
 1212              		.cfi_restore 1
 1213              		.cfi_def_cfa_offset -16
 1214              		.cfi_endproc
 1215              	.LFE21:
 1217              		.section	.text.spi_flash_sector_erase,"ax",@progbits
 1218              		.align	1
 1219              		.globl	spi_flash_sector_erase
 1221              	spi_flash_sector_erase:
 1222              	.LFB22:
 339:../src/bsp/wbspiflash.c **** 
 340:../src/bsp/wbspiflash.c **** //Sector Erase
 341:../src/bsp/wbspiflash.c **** void spi_flash_sector_erase(uint32_t address)
 342:../src/bsp/wbspiflash.c **** {
 1223              		.loc 1 342 1
 1224              		.cfi_startproc
 1225 0000 17030000 		call	t0,__riscv_save_2
 1225      E7020300 
 1226              		.cfi_offset 9, -12
 1227              		.cfi_offset 1, -4
 1228              		.cfi_def_cfa_offset 16
 1229              		.loc 1 342 1
 1230 0008 AA84     		mv	s1,a0
 343:../src/bsp/wbspiflash.c **** 	spi_flash_write_cmd(WRITE_ENABLE);
 1231              		.loc 1 343 2
 1232 000a 1945     		li	a0,6
 1233 000c 97000000 		call	spi_flash_write_cmd
 1233      E7800000 
 344:../src/bsp/wbspiflash.c **** 	spi_flash_read_status();
 1234              		.loc 1 344 2
 1235 0014 97000000 		call	spi_flash_read_status
 1235      E7800000 
 345:../src/bsp/wbspiflash.c **** 	//litter endian and the range of address
 346:../src/bsp/wbspiflash.c **** 	//uint8_t temp[3];
 347:../src/bsp/wbspiflash.c **** 	uint8_t temp0;
 348:../src/bsp/wbspiflash.c **** 	uint8_t temp1;
 349:../src/bsp/wbspiflash.c **** 	uint8_t temp2;
 350:../src/bsp/wbspiflash.c **** 	PICO_WBSPI_FLASH->TRANSCTRL = (1 << 30) + //enable cmd
 1236              		.loc 1 350 30
 1237 001c B7470011 		li	a5,285229056
 1238 0020 37270041 		li	a4,1090527232
 1239 0024 98D3     		sw	a4,32(a5)
 351:../src/bsp/wbspiflash.c **** 			                (1 << 24) +        //trans mode = 1 (write only)
 352:../src/bsp/wbspiflash.c **** 							(0 << 22) +         //dual mode
 353:../src/bsp/wbspiflash.c **** 							(2 << 12); //set address - 3bytes
 354:../src/bsp/wbspiflash.c **** 
 355:../src/bsp/wbspiflash.c **** 	temp0 = (address >> 16 &0xFF);//The address High byte
 356:../src/bsp/wbspiflash.c **** 	temp1 = (address >> 8  &0xFF);//The address middle byte
 357:../src/bsp/wbspiflash.c **** 	temp2 = (address       &0xFF);//The address low   byte
 358:../src/bsp/wbspiflash.c **** 
 359:../src/bsp/wbspiflash.c **** 	PICO_WBSPI_FLASH->CMD  = 0x20; //Sector Erase cmd
 1240              		.loc 1 359 25
 1241 0026 93060002 		li	a3,32
 355:../src/bsp/wbspiflash.c **** 	temp1 = (address >> 8  &0xFF);//The address middle byte
 1242              		.loc 1 355 19
 1243 002a 13D70401 		srli	a4,s1,16
 1244              		.loc 1 359 25
 1245 002e D4D3     		sw	a3,36(a5)
 1246 0030 1377F70F 		andi	a4,a4,255
 360:../src/bsp/wbspiflash.c **** 
 361:../src/bsp/wbspiflash.c **** 	PICO_WBSPI_FLASH->DATA = temp0;
 1247              		.loc 1 361 25
 1248 0034 D8D7     		sw	a4,44(a5)
 356:../src/bsp/wbspiflash.c **** 	temp2 = (address       &0xFF);//The address low   byte
 1249              		.loc 1 356 19
 1250 0036 93D68400 		srli	a3,s1,8
 362:../src/bsp/wbspiflash.c **** 	//check the status of txfifo
 363:../src/bsp/wbspiflash.c **** 	while(PICO_WBSPI_FLASH ->STATUS & (0x1 <<23));
 1251              		.loc 1 363 25
 1252 003a 37470011 		li	a4,285229056
 1253              	.L95:
 1254              		.loc 1 363 25 is_stmt 0 discriminator 1
 1255 003e 5C5B     		lw	a5,52(a4)
 1256              		.loc 1 363 7 is_stmt 1 discriminator 1
 1257 0040 13968700 		slli	a2,a5,8
 1258 0044 E34D06FE 		bltz	a2,.L95
 1259 0048 93F7F60F 		andi	a5,a3,255
 364:../src/bsp/wbspiflash.c **** 
 365:../src/bsp/wbspiflash.c **** 	PICO_WBSPI_FLASH->DATA = temp1;
 1260              		.loc 1 365 25
 1261 004c 5CD7     		sw	a5,44(a4)
 366:../src/bsp/wbspiflash.c **** 	//check the status of txfifo
 367:../src/bsp/wbspiflash.c **** 	while(PICO_WBSPI_FLASH ->STATUS & (0x1 <<23));
 1262              		.loc 1 367 25
 1263 004e 37470011 		li	a4,285229056
 1264              	.L96:
 1265              		.loc 1 367 25 is_stmt 0 discriminator 1
 1266 0052 5C5B     		lw	a5,52(a4)
 1267              		.loc 1 367 7 is_stmt 1 discriminator 1
 1268 0054 93968700 		slli	a3,a5,8
 1269 0058 E3CD06FE 		bltz	a3,.L96
 1270 005c 93F4F40F 		andi	s1,s1,255
 368:../src/bsp/wbspiflash.c **** 
 369:../src/bsp/wbspiflash.c **** 	PICO_WBSPI_FLASH->DATA = temp2;
 1271              		.loc 1 369 25
 1272 0060 44D7     		sw	s1,44(a4)
 370:../src/bsp/wbspiflash.c **** 	//check the status of txfifo
 371:../src/bsp/wbspiflash.c **** 	while(PICO_WBSPI_FLASH ->STATUS & (0x1 <<23));
 1273              		.loc 1 371 25
 1274 0062 37470011 		li	a4,285229056
 1275              	.L97:
 1276              		.loc 1 371 25 is_stmt 0 discriminator 1
 1277 0066 5C5B     		lw	a5,52(a4)
 1278              		.loc 1 371 7 is_stmt 1 discriminator 1
 1279 0068 93968700 		slli	a3,a5,8
 1280 006c E3CD06FE 		bltz	a3,.L97
 372:../src/bsp/wbspiflash.c **** 
 373:../src/bsp/wbspiflash.c **** 	while((PICO_WBSPI_FLASH->STATUS & 0x01)); //wait until SPI_ctroller active finish
 1281              		.loc 1 373 25
 1282 0070 37470011 		li	a4,285229056
 1283              	.L98:
 1284              		.loc 1 373 25 is_stmt 0 discriminator 1
 1285 0074 5C5B     		lw	a5,52(a4)
 1286              		.loc 1 373 34 is_stmt 1 discriminator 1
 1287 0076 858B     		andi	a5,a5,1
 1288              		.loc 1 373 7 discriminator 1
 1289 0078 F5FF     		bnez	a5,.L98
 374:../src/bsp/wbspiflash.c **** 	spi_flash_write_cmd(WRITE_DISENABLE);
 1290              		.loc 1 374 2
 1291 007a 1145     		li	a0,4
 1292 007c 97000000 		call	spi_flash_write_cmd
 1292      E7800000 
 375:../src/bsp/wbspiflash.c **** 	spi_flash_read_status();    //wait spi flash free
 1293              		.loc 1 375 2
 1294 0084 97000000 		call	spi_flash_read_status
 1294      E7800000 
 376:../src/bsp/wbspiflash.c **** }
 1295              		.loc 1 376 1
 1296 008c 17030000 		tail	__riscv_restore_2
 1296      67000300 
 1297              		.cfi_restore 9
 1298              		.cfi_restore 1
 1299              		.cfi_def_cfa_offset 0
 1300              		.cfi_endproc
 1301              	.LFE22:
 1303              		.section	.text.spi_flash_read_status,"ax",@progbits
 1304              		.align	1
 1305              		.globl	spi_flash_read_status
 1307              	spi_flash_read_status:
 1308              	.LFB23:
 377:../src/bsp/wbspiflash.c **** 
 378:../src/bsp/wbspiflash.c **** void spi_flash_read_status()
 379:../src/bsp/wbspiflash.c **** {
 1309              		.loc 1 379 1
 1310              		.cfi_startproc
 380:../src/bsp/wbspiflash.c **** 	uint8_t temp_first;
 381:../src/bsp/wbspiflash.c **** 	PICO_WBSPI_FLASH->TRANSCTRL = (1 << 30) +     //enable cmd
 1311              		.loc 1 381 30
 1312 0000 37070042 		li	a4,1107296256
 1313 0004 B7470011 		li	a5,285229056
 1314 0008 98D3     		sw	a4,32(a5)
 382:../src/bsp/wbspiflash.c **** 			                (2 << 24) +        //trans mode = 2 (read only)
 383:../src/bsp/wbspiflash.c **** 							(0 << 22) +        //dual mode 0 regular mode
 384:../src/bsp/wbspiflash.c **** 							(0 << 0); //set read 1 byte
 385:../src/bsp/wbspiflash.c ****    do
 386:../src/bsp/wbspiflash.c ****    {
 387:../src/bsp/wbspiflash.c **** 	   	PICO_WBSPI_FLASH->CMD  = 0x05;//read status
 1315              		.loc 1 387 29
 1316 000a 9546     		li	a3,5
 1317 000c 37470011 		li	a4,285229056
 1318              	.L105:
 1319              		.loc 1 387 29 is_stmt 0 discriminator 1
 1320 0010 54D3     		sw	a3,36(a4)
 388:../src/bsp/wbspiflash.c **** 		temp_first  = PICO_WBSPI_FLASH->DATA;
 1321              		.loc 1 388 33 is_stmt 1 discriminator 1
 1322 0012 5C57     		lw	a5,44(a4)
 389:../src/bsp/wbspiflash.c **** 		//printf("The spi  read status is %x\r\n",temp_first);
 390:../src/bsp/wbspiflash.c ****    }
 391:../src/bsp/wbspiflash.c ****    while(temp_first & 0x01 );//Select the low bit and wait become 0
 1323              		.loc 1 391 21 discriminator 1
 1324 0014 858B     		andi	a5,a5,1
 1325              		.loc 1 391 4 discriminator 1
 1326 0016 EDFF     		bnez	a5,.L105
 392:../src/bsp/wbspiflash.c **** 
 393:../src/bsp/wbspiflash.c ****    while((PICO_WBSPI_FLASH->STATUS & 0x03)) ; //wait until SPI_Ctroller active finish
 1327              		.loc 1 393 27
 1328 0018 37470011 		li	a4,285229056
 1329              	.L106:
 1330              		.loc 1 393 27 is_stmt 0 discriminator 1
 1331 001c 5C5B     		lw	a5,52(a4)
 1332              		.loc 1 393 36 is_stmt 1 discriminator 1
 1333 001e 8D8B     		andi	a5,a5,3
 1334              		.loc 1 393 9 discriminator 1
 1335 0020 F5FF     		bnez	a5,.L106
 394:../src/bsp/wbspiflash.c **** }
 1336              		.loc 1 394 1
 1337 0022 8280     		ret
 1338              		.cfi_endproc
 1339              	.LFE23:
 1341              		.text
 1342              	.Letext0:
 1343              		.file 2 "c:\\gmd\\toolchain\\risc-v_toolchain\\riscv-none-embed\\include\\machine\\_default_types.
 1344              		.file 3 "c:\\gmd\\toolchain\\risc-v_toolchain\\riscv-none-embed\\include\\sys\\_stdint.h"
 1345              		.file 4 "c:\\gmd\\toolchain\\risc-v_toolchain\\riscv-none-embed\\include\\sys\\lock.h"
 1346              		.file 5 "c:\\gmd\\toolchain\\risc-v_toolchain\\riscv-none-embed\\include\\sys\\_types.h"
 1347              		.file 6 "c:\\gmd\\toolchain\\risc-v_toolchain\\lib\\gcc\\riscv-none-embed\\8.2.0\\include\\stddef.
 1348              		.file 7 "c:\\gmd\\toolchain\\risc-v_toolchain\\riscv-none-embed\\include\\sys\\reent.h"
 1349              		.file 8 "E:\\GMD\\workspace\\picorv32_demo\\src/picorv32.h"
DEFINED SYMBOLS
                            *ABS*:0000000000000000 wbspiflash.c
C:\Users\liukai\AppData\Local\Temp\ccWEnOCw.s:10     .text.SPI_reset:0000000000000000 SPI_reset
C:\Users\liukai\AppData\Local\Temp\ccWEnOCw.s:14     .text.SPI_reset:0000000000000000 .L0 
C:\Users\liukai\AppData\Local\Temp\ccWEnOCw.s:15     .text.SPI_reset:0000000000000000 .L0 
C:\Users\liukai\AppData\Local\Temp\ccWEnOCw.s:16     .text.SPI_reset:0000000000000002 .L0 
C:\Users\liukai\AppData\Local\Temp\ccWEnOCw.s:18     .text.SPI_reset:0000000000000004 .L0 
C:\Users\liukai\AppData\Local\Temp\ccWEnOCw.s:20     .text.SPI_reset:0000000000000006 .L0 
C:\Users\liukai\AppData\Local\Temp\ccWEnOCw.s:22     .text.SPI_reset:0000000000000006 .L0 
C:\Users\liukai\AppData\Local\Temp\ccWEnOCw.s:28     .text.SPI_reset:0000000000000016 .L0 
C:\Users\liukai\AppData\Local\Temp\ccWEnOCw.s:31     .text.SPI_reset:0000000000000018 .L0 
C:\Users\liukai\AppData\Local\Temp\ccWEnOCw.s:34     .text.SPI_reset:000000000000001e .L0 
C:\Users\liukai\AppData\Local\Temp\ccWEnOCw.s:36     .text.SPI_reset:0000000000000020 .L0 
C:\Users\liukai\AppData\Local\Temp\ccWEnOCw.s:38     .text.SPI_reset:0000000000000022 .L0 
C:\Users\liukai\AppData\Local\Temp\ccWEnOCw.s:40     .text.SPI_reset:0000000000000024 .L0 
C:\Users\liukai\AppData\Local\Temp\ccWEnOCw.s:41     .text.SPI_reset:0000000000000026 .L0 
C:\Users\liukai\AppData\Local\Temp\ccWEnOCw.s:43     .text.SPI_reset:0000000000000028 .L0 
C:\Users\liukai\AppData\Local\Temp\ccWEnOCw.s:45     .text.SPI_reset:000000000000002a .L0 
C:\Users\liukai\AppData\Local\Temp\ccWEnOCw.s:52     .text.SPI_set_mode:0000000000000000 SPI_set_mode
C:\Users\liukai\AppData\Local\Temp\ccWEnOCw.s:55     .text.SPI_set_mode:0000000000000000 .L0 
C:\Users\liukai\AppData\Local\Temp\ccWEnOCw.s:56     .text.SPI_set_mode:0000000000000000 .L0 
C:\Users\liukai\AppData\Local\Temp\ccWEnOCw.s:57     .text.SPI_set_mode:0000000000000002 .L0 
C:\Users\liukai\AppData\Local\Temp\ccWEnOCw.s:59     .text.SPI_set_mode:0000000000000004 .L0 
C:\Users\liukai\AppData\Local\Temp\ccWEnOCw.s:61     .text.SPI_set_mode:0000000000000006 .L0 
C:\Users\liukai\AppData\Local\Temp\ccWEnOCw.s:64     .text.SPI_set_mode:000000000000000a .L0 
C:\Users\liukai\AppData\Local\Temp\ccWEnOCw.s:66     .text.SPI_set_mode:000000000000000e .L0 
C:\Users\liukai\AppData\Local\Temp\ccWEnOCw.s:69     .text.SPI_set_mode:0000000000000014 .L0 
C:\Users\liukai\AppData\Local\Temp\ccWEnOCw.s:72     .text.SPI_set_mode:000000000000001c .L0 
C:\Users\liukai\AppData\Local\Temp\ccWEnOCw.s:74     .text.SPI_set_mode:0000000000000020 .L0 
C:\Users\liukai\AppData\Local\Temp\ccWEnOCw.s:77     .text.SPI_set_mode:0000000000000026 .L0 
C:\Users\liukai\AppData\Local\Temp\ccWEnOCw.s:79     .text.SPI_set_mode:0000000000000028 .L0 
C:\Users\liukai\AppData\Local\Temp\ccWEnOCw.s:81     .text.SPI_set_mode:000000000000002a .L0 
C:\Users\liukai\AppData\Local\Temp\ccWEnOCw.s:82     .text.SPI_set_mode:000000000000002c .L0 
C:\Users\liukai\AppData\Local\Temp\ccWEnOCw.s:84     .text.SPI_set_mode:000000000000002e .L0 
C:\Users\liukai\AppData\Local\Temp\ccWEnOCw.s:86     .text.SPI_set_mode:0000000000000030 .L0 
C:\Users\liukai\AppData\Local\Temp\ccWEnOCw.s:93     .text.SPI_set_addr_format:0000000000000000 SPI_set_addr_format
C:\Users\liukai\AppData\Local\Temp\ccWEnOCw.s:96     .text.SPI_set_addr_format:0000000000000000 .L0 
C:\Users\liukai\AppData\Local\Temp\ccWEnOCw.s:97     .text.SPI_set_addr_format:0000000000000000 .L0 
C:\Users\liukai\AppData\Local\Temp\ccWEnOCw.s:98     .text.SPI_set_addr_format:0000000000000002 .L0 
C:\Users\liukai\AppData\Local\Temp\ccWEnOCw.s:100    .text.SPI_set_addr_format:0000000000000004 .L0 
C:\Users\liukai\AppData\Local\Temp\ccWEnOCw.s:102    .text.SPI_set_addr_format:0000000000000006 .L0 
C:\Users\liukai\AppData\Local\Temp\ccWEnOCw.s:108    .text.SPI_set_addr_format:0000000000000014 .L0 
C:\Users\liukai\AppData\Local\Temp\ccWEnOCw.s:111    .text.SPI_set_addr_format:000000000000001a .L0 
C:\Users\liukai\AppData\Local\Temp\ccWEnOCw.s:113    .text.SPI_set_addr_format:000000000000001e .L0 
C:\Users\liukai\AppData\Local\Temp\ccWEnOCw.s:116    .text.SPI_set_addr_format:0000000000000024 .L0 
C:\Users\liukai\AppData\Local\Temp\ccWEnOCw.s:121    .text.SPI_set_addr_format:0000000000000030 .L0 
C:\Users\liukai\AppData\Local\Temp\ccWEnOCw.s:124    .text.SPI_set_addr_format:0000000000000038 .L0 
C:\Users\liukai\AppData\Local\Temp\ccWEnOCw.s:126    .text.SPI_set_addr_format:000000000000003c .L0 
C:\Users\liukai\AppData\Local\Temp\ccWEnOCw.s:129    .text.SPI_set_addr_format:0000000000000042 .L0 
C:\Users\liukai\AppData\Local\Temp\ccWEnOCw.s:131    .text.SPI_set_addr_format:0000000000000044 .L0 
C:\Users\liukai\AppData\Local\Temp\ccWEnOCw.s:133    .text.SPI_set_addr_format:0000000000000048 .L0 
C:\Users\liukai\AppData\Local\Temp\ccWEnOCw.s:136    .text.SPI_set_addr_format:000000000000004e .L0 
C:\Users\liukai\AppData\Local\Temp\ccWEnOCw.s:141    .text.SPI_set_addr_format:000000000000005c .L0 
C:\Users\liukai\AppData\Local\Temp\ccWEnOCw.s:143    .text.SPI_set_addr_format:0000000000000060 .L0 
C:\Users\liukai\AppData\Local\Temp\ccWEnOCw.s:146    .text.SPI_set_addr_format:0000000000000066 .L0 
C:\Users\liukai\AppData\Local\Temp\ccWEnOCw.s:148    .text.SPI_set_addr_format:0000000000000068 .L0 
C:\Users\liukai\AppData\Local\Temp\ccWEnOCw.s:152    .text.SPI_set_addr_format:000000000000006c .L0 
C:\Users\liukai\AppData\Local\Temp\ccWEnOCw.s:155    .text.SPI_set_addr_format:000000000000006e .L0 
C:\Users\liukai\AppData\Local\Temp\ccWEnOCw.s:156    .text.SPI_set_addr_format:0000000000000070 .L0 
C:\Users\liukai\AppData\Local\Temp\ccWEnOCw.s:158    .text.SPI_set_addr_format:0000000000000072 .L0 
C:\Users\liukai\AppData\Local\Temp\ccWEnOCw.s:160    .text.SPI_set_addr_format:0000000000000074 .L0 
C:\Users\liukai\AppData\Local\Temp\ccWEnOCw.s:167    .text.SPI_set_cmd_format:0000000000000000 SPI_set_cmd_format
C:\Users\liukai\AppData\Local\Temp\ccWEnOCw.s:170    .text.SPI_set_cmd_format:0000000000000000 .L0 
C:\Users\liukai\AppData\Local\Temp\ccWEnOCw.s:171    .text.SPI_set_cmd_format:0000000000000000 .L0 
C:\Users\liukai\AppData\Local\Temp\ccWEnOCw.s:172    .text.SPI_set_cmd_format:0000000000000002 .L0 
C:\Users\liukai\AppData\Local\Temp\ccWEnOCw.s:174    .text.SPI_set_cmd_format:0000000000000004 .L0 
C:\Users\liukai\AppData\Local\Temp\ccWEnOCw.s:176    .text.SPI_set_cmd_format:0000000000000006 .L0 
C:\Users\liukai\AppData\Local\Temp\ccWEnOCw.s:180    .text.SPI_set_cmd_format:000000000000000c .L0 
C:\Users\liukai\AppData\Local\Temp\ccWEnOCw.s:183    .text.SPI_set_cmd_format:0000000000000012 .L0 
C:\Users\liukai\AppData\Local\Temp\ccWEnOCw.s:185    .text.SPI_set_cmd_format:0000000000000016 .L0 
C:\Users\liukai\AppData\Local\Temp\ccWEnOCw.s:188    .text.SPI_set_cmd_format:000000000000001c .L0 
C:\Users\liukai\AppData\Local\Temp\ccWEnOCw.s:193    .text.SPI_set_cmd_format:000000000000002a .L0 
C:\Users\liukai\AppData\Local\Temp\ccWEnOCw.s:195    .text.SPI_set_cmd_format:000000000000002e .L0 
C:\Users\liukai\AppData\Local\Temp\ccWEnOCw.s:198    .text.SPI_set_cmd_format:0000000000000034 .L0 
C:\Users\liukai\AppData\Local\Temp\ccWEnOCw.s:200    .text.SPI_set_cmd_format:0000000000000036 .L0 
C:\Users\liukai\AppData\Local\Temp\ccWEnOCw.s:204    .text.SPI_set_cmd_format:000000000000003a .L0 
C:\Users\liukai\AppData\Local\Temp\ccWEnOCw.s:207    .text.SPI_set_cmd_format:000000000000003c .L0 
C:\Users\liukai\AppData\Local\Temp\ccWEnOCw.s:208    .text.SPI_set_cmd_format:000000000000003e .L0 
C:\Users\liukai\AppData\Local\Temp\ccWEnOCw.s:210    .text.SPI_set_cmd_format:0000000000000040 .L0 
C:\Users\liukai\AppData\Local\Temp\ccWEnOCw.s:212    .text.SPI_set_cmd_format:0000000000000042 .L0 
C:\Users\liukai\AppData\Local\Temp\ccWEnOCw.s:219    .text.SPI_set_data_format:0000000000000000 SPI_set_data_format
C:\Users\liukai\AppData\Local\Temp\ccWEnOCw.s:222    .text.SPI_set_data_format:0000000000000000 .L0 
C:\Users\liukai\AppData\Local\Temp\ccWEnOCw.s:223    .text.SPI_set_data_format:0000000000000000 .L0 
C:\Users\liukai\AppData\Local\Temp\ccWEnOCw.s:224    .text.SPI_set_data_format:0000000000000002 .L0 
C:\Users\liukai\AppData\Local\Temp\ccWEnOCw.s:226    .text.SPI_set_data_format:0000000000000004 .L0 
C:\Users\liukai\AppData\Local\Temp\ccWEnOCw.s:228    .text.SPI_set_data_format:0000000000000006 .L0 
C:\Users\liukai\AppData\Local\Temp\ccWEnOCw.s:235    .text.SPI_set_data_format:0000000000000014 .L0 
C:\Users\liukai\AppData\Local\Temp\ccWEnOCw.s:237    .text.SPI_set_data_format:0000000000000018 .L0 
C:\Users\liukai\AppData\Local\Temp\ccWEnOCw.s:240    .text.SPI_set_data_format:000000000000001e .L0 
C:\Users\liukai\AppData\Local\Temp\ccWEnOCw.s:245    .text.SPI_set_data_format:000000000000002c .L0 
C:\Users\liukai\AppData\Local\Temp\ccWEnOCw.s:248    .text.SPI_set_data_format:0000000000000032 .L0 
C:\Users\liukai\AppData\Local\Temp\ccWEnOCw.s:254    .text.SPI_set_data_format:000000000000003e .L0 
C:\Users\liukai\AppData\Local\Temp\ccWEnOCw.s:256    .text.SPI_set_data_format:0000000000000042 .L0 
C:\Users\liukai\AppData\Local\Temp\ccWEnOCw.s:258    .text.SPI_set_data_format:0000000000000044 .L0 
C:\Users\liukai\AppData\Local\Temp\ccWEnOCw.s:260    .text.SPI_set_data_format:0000000000000046 .L0 
C:\Users\liukai\AppData\Local\Temp\ccWEnOCw.s:264    .text.SPI_set_data_format:0000000000000050 .L0 
C:\Users\liukai\AppData\Local\Temp\ccWEnOCw.s:266    .text.SPI_set_data_format:0000000000000054 .L0 
C:\Users\liukai\AppData\Local\Temp\ccWEnOCw.s:269    .text.SPI_set_data_format:000000000000005a .L0 
C:\Users\liukai\AppData\Local\Temp\ccWEnOCw.s:272    .text.SPI_set_data_format:0000000000000062 .L0 
C:\Users\liukai\AppData\Local\Temp\ccWEnOCw.s:276    .text.SPI_set_data_format:000000000000006c .L0 
C:\Users\liukai\AppData\Local\Temp\ccWEnOCw.s:278    .text.SPI_set_data_format:0000000000000070 .L0 
C:\Users\liukai\AppData\Local\Temp\ccWEnOCw.s:280    .text.SPI_set_data_format:0000000000000072 .L0 
C:\Users\liukai\AppData\Local\Temp\ccWEnOCw.s:282    .text.SPI_set_data_format:0000000000000074 .L0 
C:\Users\liukai\AppData\Local\Temp\ccWEnOCw.s:286    .text.SPI_set_data_format:0000000000000078 .L0 
C:\Users\liukai\AppData\Local\Temp\ccWEnOCw.s:287    .text.SPI_set_data_format:000000000000007a .L0 
C:\Users\liukai\AppData\Local\Temp\ccWEnOCw.s:289    .text.SPI_set_data_format:000000000000007c .L0 
C:\Users\liukai\AppData\Local\Temp\ccWEnOCw.s:291    .text.SPI_set_data_format:000000000000007e .L0 
C:\Users\liukai\AppData\Local\Temp\ccWEnOCw.s:298    .text.SPI_set_transfer_format:0000000000000000 SPI_set_transfer_format
C:\Users\liukai\AppData\Local\Temp\ccWEnOCw.s:301    .text.SPI_set_transfer_format:0000000000000000 .L0 
C:\Users\liukai\AppData\Local\Temp\ccWEnOCw.s:302    .text.SPI_set_transfer_format:0000000000000000 .L0 
C:\Users\liukai\AppData\Local\Temp\ccWEnOCw.s:303    .text.SPI_set_transfer_format:0000000000000002 .L0 
C:\Users\liukai\AppData\Local\Temp\ccWEnOCw.s:305    .text.SPI_set_transfer_format:0000000000000004 .L0 
C:\Users\liukai\AppData\Local\Temp\ccWEnOCw.s:307    .text.SPI_set_transfer_format:0000000000000006 .L0 
C:\Users\liukai\AppData\Local\Temp\ccWEnOCw.s:313    .text.SPI_set_transfer_format:0000000000000016 .L0 
C:\Users\liukai\AppData\Local\Temp\ccWEnOCw.s:315    .text.SPI_set_transfer_format:000000000000001a .L0 
C:\Users\liukai\AppData\Local\Temp\ccWEnOCw.s:318    .text.SPI_set_transfer_format:0000000000000020 .L0 
C:\Users\liukai\AppData\Local\Temp\ccWEnOCw.s:322    .text.SPI_set_transfer_format:000000000000002a .L0 
C:\Users\liukai\AppData\Local\Temp\ccWEnOCw.s:326    .text.SPI_set_transfer_format:0000000000000032 .L0 
C:\Users\liukai\AppData\Local\Temp\ccWEnOCw.s:328    .text.SPI_set_transfer_format:0000000000000034 .L0 
C:\Users\liukai\AppData\Local\Temp\ccWEnOCw.s:331    .text.SPI_set_transfer_format:000000000000003a .L0 
C:\Users\liukai\AppData\Local\Temp\ccWEnOCw.s:334    .text.SPI_set_transfer_format:0000000000000040 .L0 
C:\Users\liukai\AppData\Local\Temp\ccWEnOCw.s:337    .text.SPI_set_transfer_format:0000000000000048 .L0 
C:\Users\liukai\AppData\Local\Temp\ccWEnOCw.s:339    .text.SPI_set_transfer_format:000000000000004c .L0 
C:\Users\liukai\AppData\Local\Temp\ccWEnOCw.s:342    .text.SPI_set_transfer_format:0000000000000052 .L0 
C:\Users\liukai\AppData\Local\Temp\ccWEnOCw.s:344    .text.SPI_set_transfer_format:0000000000000054 .L0 
C:\Users\liukai\AppData\Local\Temp\ccWEnOCw.s:346    .text.SPI_set_transfer_format:0000000000000056 .L0 
C:\Users\liukai\AppData\Local\Temp\ccWEnOCw.s:347    .text.SPI_set_transfer_format:0000000000000058 .L0 
C:\Users\liukai\AppData\Local\Temp\ccWEnOCw.s:349    .text.SPI_set_transfer_format:000000000000005a .L0 
C:\Users\liukai\AppData\Local\Temp\ccWEnOCw.s:351    .text.SPI_set_transfer_format:000000000000005c .L0 
C:\Users\liukai\AppData\Local\Temp\ccWEnOCw.s:358    .text.SPI_set_trans_ctrl:0000000000000000 SPI_set_trans_ctrl
C:\Users\liukai\AppData\Local\Temp\ccWEnOCw.s:361    .text.SPI_set_trans_ctrl:0000000000000000 .L0 
C:\Users\liukai\AppData\Local\Temp\ccWEnOCw.s:362    .text.SPI_set_trans_ctrl:0000000000000000 .L0 
C:\Users\liukai\AppData\Local\Temp\ccWEnOCw.s:363    .text.SPI_set_trans_ctrl:0000000000000002 .L0 
C:\Users\liukai\AppData\Local\Temp\ccWEnOCw.s:365    .text.SPI_set_trans_ctrl:0000000000000004 .L0 
C:\Users\liukai\AppData\Local\Temp\ccWEnOCw.s:367    .text.SPI_set_trans_ctrl:0000000000000006 .L0 
C:\Users\liukai\AppData\Local\Temp\ccWEnOCw.s:372    .text.SPI_set_trans_ctrl:0000000000000012 .L0 
C:\Users\liukai\AppData\Local\Temp\ccWEnOCw.s:374    .text.SPI_set_trans_ctrl:0000000000000016 .L0 
C:\Users\liukai\AppData\Local\Temp\ccWEnOCw.s:377    .text.SPI_set_trans_ctrl:000000000000001c .L0 
C:\Users\liukai\AppData\Local\Temp\ccWEnOCw.s:379    .text.SPI_set_trans_ctrl:0000000000000020 .L0 
C:\Users\liukai\AppData\Local\Temp\ccWEnOCw.s:384    .text.SPI_set_trans_ctrl:000000000000002e .L0 
C:\Users\liukai\AppData\Local\Temp\ccWEnOCw.s:386    .text.SPI_set_trans_ctrl:0000000000000030 .L0 
C:\Users\liukai\AppData\Local\Temp\ccWEnOCw.s:393    .text.SPI_set_trans_ctrl:0000000000000042 .L0 
C:\Users\liukai\AppData\Local\Temp\ccWEnOCw.s:400    .text.SPI_set_trans_ctrl:0000000000000054 .L0 
C:\Users\liukai\AppData\Local\Temp\ccWEnOCw.s:403    .text.SPI_set_trans_ctrl:000000000000005a .L0 
C:\Users\liukai\AppData\Local\Temp\ccWEnOCw.s:406    .text.SPI_set_trans_ctrl:0000000000000060 .L0 
C:\Users\liukai\AppData\Local\Temp\ccWEnOCw.s:409    .text.SPI_set_trans_ctrl:0000000000000066 .L0 
C:\Users\liukai\AppData\Local\Temp\ccWEnOCw.s:413    .text.SPI_set_trans_ctrl:000000000000006e .L0 
C:\Users\liukai\AppData\Local\Temp\ccWEnOCw.s:415    .text.SPI_set_trans_ctrl:0000000000000070 .L0 
C:\Users\liukai\AppData\Local\Temp\ccWEnOCw.s:416    .text.SPI_set_trans_ctrl:0000000000000072 .L0 
C:\Users\liukai\AppData\Local\Temp\ccWEnOCw.s:418    .text.SPI_set_trans_ctrl:0000000000000074 .L0 
C:\Users\liukai\AppData\Local\Temp\ccWEnOCw.s:420    .text.SPI_set_trans_ctrl:0000000000000076 .L0 
C:\Users\liukai\AppData\Local\Temp\ccWEnOCw.s:427    .text.SPI_set_token:0000000000000000 SPI_set_token
C:\Users\liukai\AppData\Local\Temp\ccWEnOCw.s:430    .text.SPI_set_token:0000000000000000 .L0 
C:\Users\liukai\AppData\Local\Temp\ccWEnOCw.s:431    .text.SPI_set_token:0000000000000000 .L0 
C:\Users\liukai\AppData\Local\Temp\ccWEnOCw.s:432    .text.SPI_set_token:0000000000000002 .L0 
C:\Users\liukai\AppData\Local\Temp\ccWEnOCw.s:434    .text.SPI_set_token:0000000000000004 .L0 
C:\Users\liukai\AppData\Local\Temp\ccWEnOCw.s:436    .text.SPI_set_token:0000000000000006 .L0 
C:\Users\liukai\AppData\Local\Temp\ccWEnOCw.s:443    .text.SPI_set_token:0000000000000014 .L0 
C:\Users\liukai\AppData\Local\Temp\ccWEnOCw.s:445    .text.SPI_set_token:0000000000000018 .L0 
C:\Users\liukai\AppData\Local\Temp\ccWEnOCw.s:448    .text.SPI_set_token:000000000000001e .L0 
C:\Users\liukai\AppData\Local\Temp\ccWEnOCw.s:451    .text.SPI_set_token:0000000000000024 .L0 
C:\Users\liukai\AppData\Local\Temp\ccWEnOCw.s:456    .text.SPI_set_token:0000000000000032 .L0 
C:\Users\liukai\AppData\Local\Temp\ccWEnOCw.s:463    .text.SPI_set_token:0000000000000042 .L0 
C:\Users\liukai\AppData\Local\Temp\ccWEnOCw.s:465    .text.SPI_set_token:0000000000000046 .L0 
C:\Users\liukai\AppData\Local\Temp\ccWEnOCw.s:467    .text.SPI_set_token:000000000000004a .L0 
C:\Users\liukai\AppData\Local\Temp\ccWEnOCw.s:470    .text.SPI_set_token:0000000000000050 .L0 
C:\Users\liukai\AppData\Local\Temp\ccWEnOCw.s:474    .text.SPI_set_token:0000000000000054 .L0 
C:\Users\liukai\AppData\Local\Temp\ccWEnOCw.s:477    .text.SPI_set_token:0000000000000056 .L0 
C:\Users\liukai\AppData\Local\Temp\ccWEnOCw.s:478    .text.SPI_set_token:0000000000000058 .L0 
C:\Users\liukai\AppData\Local\Temp\ccWEnOCw.s:480    .text.SPI_set_token:000000000000005a .L0 
C:\Users\liukai\AppData\Local\Temp\ccWEnOCw.s:482    .text.SPI_set_token:000000000000005c .L0 
C:\Users\liukai\AppData\Local\Temp\ccWEnOCw.s:489    .text.SPI_tx_fifo_reset:0000000000000000 SPI_tx_fifo_reset
C:\Users\liukai\AppData\Local\Temp\ccWEnOCw.s:492    .text.SPI_tx_fifo_reset:0000000000000000 .L0 
C:\Users\liukai\AppData\Local\Temp\ccWEnOCw.s:493    .text.SPI_tx_fifo_reset:0000000000000000 .L0 
C:\Users\liukai\AppData\Local\Temp\ccWEnOCw.s:494    .text.SPI_tx_fifo_reset:0000000000000002 .L0 
C:\Users\liukai\AppData\Local\Temp\ccWEnOCw.s:496    .text.SPI_tx_fifo_reset:0000000000000004 .L0 
C:\Users\liukai\AppData\Local\Temp\ccWEnOCw.s:498    .text.SPI_tx_fifo_reset:0000000000000006 .L0 
C:\Users\liukai\AppData\Local\Temp\ccWEnOCw.s:500    .text.SPI_tx_fifo_reset:0000000000000006 .L0 
C:\Users\liukai\AppData\Local\Temp\ccWEnOCw.s:506    .text.SPI_tx_fifo_reset:0000000000000016 .L0 
C:\Users\liukai\AppData\Local\Temp\ccWEnOCw.s:509    .text.SPI_tx_fifo_reset:0000000000000018 .L0 
C:\Users\liukai\AppData\Local\Temp\ccWEnOCw.s:512    .text.SPI_tx_fifo_reset:000000000000001e .L0 
C:\Users\liukai\AppData\Local\Temp\ccWEnOCw.s:514    .text.SPI_tx_fifo_reset:0000000000000020 .L0 
C:\Users\liukai\AppData\Local\Temp\ccWEnOCw.s:516    .text.SPI_tx_fifo_reset:0000000000000022 .L0 
C:\Users\liukai\AppData\Local\Temp\ccWEnOCw.s:518    .text.SPI_tx_fifo_reset:0000000000000026 .L0 
C:\Users\liukai\AppData\Local\Temp\ccWEnOCw.s:520    .text.SPI_tx_fifo_reset:0000000000000028 .L0 
C:\Users\liukai\AppData\Local\Temp\ccWEnOCw.s:522    .text.SPI_tx_fifo_reset:000000000000002a .L0 
C:\Users\liukai\AppData\Local\Temp\ccWEnOCw.s:529    .text.SPI_rx_fifo_reset:0000000000000000 SPI_rx_fifo_reset
C:\Users\liukai\AppData\Local\Temp\ccWEnOCw.s:532    .text.SPI_rx_fifo_reset:0000000000000000 .L0 
C:\Users\liukai\AppData\Local\Temp\ccWEnOCw.s:533    .text.SPI_rx_fifo_reset:0000000000000000 .L0 
C:\Users\liukai\AppData\Local\Temp\ccWEnOCw.s:534    .text.SPI_rx_fifo_reset:0000000000000002 .L0 
C:\Users\liukai\AppData\Local\Temp\ccWEnOCw.s:536    .text.SPI_rx_fifo_reset:0000000000000004 .L0 
C:\Users\liukai\AppData\Local\Temp\ccWEnOCw.s:538    .text.SPI_rx_fifo_reset:0000000000000006 .L0 
C:\Users\liukai\AppData\Local\Temp\ccWEnOCw.s:540    .text.SPI_rx_fifo_reset:0000000000000006 .L0 
C:\Users\liukai\AppData\Local\Temp\ccWEnOCw.s:546    .text.SPI_rx_fifo_reset:0000000000000016 .L0 
C:\Users\liukai\AppData\Local\Temp\ccWEnOCw.s:549    .text.SPI_rx_fifo_reset:0000000000000018 .L0 
C:\Users\liukai\AppData\Local\Temp\ccWEnOCw.s:552    .text.SPI_rx_fifo_reset:000000000000001e .L0 
C:\Users\liukai\AppData\Local\Temp\ccWEnOCw.s:554    .text.SPI_rx_fifo_reset:0000000000000020 .L0 
C:\Users\liukai\AppData\Local\Temp\ccWEnOCw.s:556    .text.SPI_rx_fifo_reset:0000000000000022 .L0 
C:\Users\liukai\AppData\Local\Temp\ccWEnOCw.s:558    .text.SPI_rx_fifo_reset:0000000000000026 .L0 
C:\Users\liukai\AppData\Local\Temp\ccWEnOCw.s:560    .text.SPI_rx_fifo_reset:0000000000000028 .L0 
C:\Users\liukai\AppData\Local\Temp\ccWEnOCw.s:562    .text.SPI_rx_fifo_reset:000000000000002a .L0 
C:\Users\liukai\AppData\Local\Temp\ccWEnOCw.s:569    .text.spi_get_fifo_depth:0000000000000000 spi_get_fifo_depth
C:\Users\liukai\AppData\Local\Temp\ccWEnOCw.s:572    .text.spi_get_fifo_depth:0000000000000000 .L0 
C:\Users\liukai\AppData\Local\Temp\ccWEnOCw.s:574    .text.spi_get_fifo_depth:0000000000000000 .L0 
C:\Users\liukai\AppData\Local\Temp\ccWEnOCw.s:575    .text.spi_get_fifo_depth:0000000000000000 .L0 
C:\Users\liukai\AppData\Local\Temp\ccWEnOCw.s:578    .text.spi_get_fifo_depth:0000000000000002 .L0 
C:\Users\liukai\AppData\Local\Temp\ccWEnOCw.s:582    .text.spi_get_fifo_depth:0000000000000004 .L0 
C:\Users\liukai\AppData\Local\Temp\ccWEnOCw.s:584    .text.spi_get_fifo_depth:0000000000000006 .L0 
C:\Users\liukai\AppData\Local\Temp\ccWEnOCw.s:586    .text.spi_get_fifo_depth:0000000000000008 .L0 
C:\Users\liukai\AppData\Local\Temp\ccWEnOCw.s:588    .text.spi_get_fifo_depth:000000000000000c .L0 
C:\Users\liukai\AppData\Local\Temp\ccWEnOCw.s:591    .text.spi_get_fifo_depth:0000000000000010 .L0 
C:\Users\liukai\AppData\Local\Temp\ccWEnOCw.s:593    .text.spi_get_fifo_depth:0000000000000014 .L0 
C:\Users\liukai\AppData\Local\Temp\ccWEnOCw.s:604    .text.SPI_set_tx_threshold:0000000000000000 SPI_set_tx_threshold
C:\Users\liukai\AppData\Local\Temp\ccWEnOCw.s:607    .text.SPI_set_tx_threshold:0000000000000000 .L0 
C:\Users\liukai\AppData\Local\Temp\ccWEnOCw.s:608    .text.SPI_set_tx_threshold:0000000000000000 .L0 
C:\Users\liukai\AppData\Local\Temp\ccWEnOCw.s:609    .text.SPI_set_tx_threshold:0000000000000002 .L0 
C:\Users\liukai\AppData\Local\Temp\ccWEnOCw.s:612    .text.SPI_set_tx_threshold:0000000000000006 .L0 
C:\Users\liukai\AppData\Local\Temp\ccWEnOCw.s:613    .text.SPI_set_tx_threshold:0000000000000006 .L0 
C:\Users\liukai\AppData\Local\Temp\ccWEnOCw.s:615    .text.SPI_set_tx_threshold:0000000000000008 .L0 
C:\Users\liukai\AppData\Local\Temp\ccWEnOCw.s:619    .text.SPI_set_tx_threshold:000000000000000e .L0 
C:\Users\liukai\AppData\Local\Temp\ccWEnOCw.s:621    .text.SPI_set_tx_threshold:0000000000000012 .L0 
C:\Users\liukai\AppData\Local\Temp\ccWEnOCw.s:624    .text.SPI_set_tx_threshold:0000000000000018 .L0 
C:\Users\liukai\AppData\Local\Temp\ccWEnOCw.s:628    .text.SPI_set_tx_threshold:0000000000000022 .L0 
C:\Users\liukai\AppData\Local\Temp\ccWEnOCw.s:631    .text.SPI_set_tx_threshold:0000000000000028 .L0 
C:\Users\liukai\AppData\Local\Temp\ccWEnOCw.s:637    .text.SPI_set_tx_threshold:000000000000003c .L0 
C:\Users\liukai\AppData\Local\Temp\ccWEnOCw.s:641    .text.SPI_set_tx_threshold:0000000000000048 .L0 
C:\Users\liukai\AppData\Local\Temp\ccWEnOCw.s:644    .text.SPI_set_tx_threshold:0000000000000058 .L0 
C:\Users\liukai\AppData\Local\Temp\ccWEnOCw.s:647    .text.SPI_set_tx_threshold:000000000000005a .L0 
C:\Users\liukai\AppData\Local\Temp\ccWEnOCw.s:655    .text.SPI_set_tx_threshold:000000000000006e .L0 
C:\Users\liukai\AppData\Local\Temp\ccWEnOCw.s:658    .text.SPI_set_tx_threshold:0000000000000074 .L0 
C:\Users\liukai\AppData\Local\Temp\ccWEnOCw.s:662    .text.SPI_set_tx_threshold:000000000000007c .L0 
C:\Users\liukai\AppData\Local\Temp\ccWEnOCw.s:666    .text.SPI_set_tx_threshold:0000000000000084 .L0 
C:\Users\liukai\AppData\Local\Temp\ccWEnOCw.s:669    .text.SPI_set_tx_threshold:0000000000000086 .L0 
C:\Users\liukai\AppData\Local\Temp\ccWEnOCw.s:670    .text.SPI_set_tx_threshold:0000000000000088 .L0 
C:\Users\liukai\AppData\Local\Temp\ccWEnOCw.s:672    .text.SPI_set_tx_threshold:000000000000008a .L0 
C:\Users\liukai\AppData\Local\Temp\ccWEnOCw.s:674    .text.SPI_set_tx_threshold:000000000000008c .L0 
C:\Users\liukai\AppData\Local\Temp\ccWEnOCw.s:676    .text.SPI_set_tx_threshold:000000000000008e .L0 
C:\Users\liukai\AppData\Local\Temp\ccWEnOCw.s:687    .text.SPI_set_rx_threshold:0000000000000000 SPI_set_rx_threshold
C:\Users\liukai\AppData\Local\Temp\ccWEnOCw.s:690    .text.SPI_set_rx_threshold:0000000000000000 .L0 
C:\Users\liukai\AppData\Local\Temp\ccWEnOCw.s:691    .text.SPI_set_rx_threshold:0000000000000000 .L0 
C:\Users\liukai\AppData\Local\Temp\ccWEnOCw.s:692    .text.SPI_set_rx_threshold:0000000000000002 .L0 
C:\Users\liukai\AppData\Local\Temp\ccWEnOCw.s:695    .text.SPI_set_rx_threshold:0000000000000006 .L0 
C:\Users\liukai\AppData\Local\Temp\ccWEnOCw.s:696    .text.SPI_set_rx_threshold:0000000000000006 .L0 
C:\Users\liukai\AppData\Local\Temp\ccWEnOCw.s:698    .text.SPI_set_rx_threshold:0000000000000008 .L0 
C:\Users\liukai\AppData\Local\Temp\ccWEnOCw.s:702    .text.SPI_set_rx_threshold:000000000000000e .L0 
C:\Users\liukai\AppData\Local\Temp\ccWEnOCw.s:704    .text.SPI_set_rx_threshold:0000000000000012 .L0 
C:\Users\liukai\AppData\Local\Temp\ccWEnOCw.s:707    .text.SPI_set_rx_threshold:0000000000000018 .L0 
C:\Users\liukai\AppData\Local\Temp\ccWEnOCw.s:710    .text.SPI_set_rx_threshold:0000000000000020 .L0 
C:\Users\liukai\AppData\Local\Temp\ccWEnOCw.s:713    .text.SPI_set_rx_threshold:0000000000000026 .L0 
C:\Users\liukai\AppData\Local\Temp\ccWEnOCw.s:719    .text.SPI_set_rx_threshold:000000000000003a .L0 
C:\Users\liukai\AppData\Local\Temp\ccWEnOCw.s:723    .text.SPI_set_rx_threshold:0000000000000046 .L0 
C:\Users\liukai\AppData\Local\Temp\ccWEnOCw.s:726    .text.SPI_set_rx_threshold:0000000000000056 .L0 
C:\Users\liukai\AppData\Local\Temp\ccWEnOCw.s:729    .text.SPI_set_rx_threshold:0000000000000058 .L0 
C:\Users\liukai\AppData\Local\Temp\ccWEnOCw.s:737    .text.SPI_set_rx_threshold:000000000000006c .L0 
C:\Users\liukai\AppData\Local\Temp\ccWEnOCw.s:740    .text.SPI_set_rx_threshold:0000000000000072 .L0 
C:\Users\liukai\AppData\Local\Temp\ccWEnOCw.s:744    .text.SPI_set_rx_threshold:000000000000007a .L0 
C:\Users\liukai\AppData\Local\Temp\ccWEnOCw.s:748    .text.SPI_set_rx_threshold:0000000000000082 .L0 
C:\Users\liukai\AppData\Local\Temp\ccWEnOCw.s:751    .text.SPI_set_rx_threshold:0000000000000084 .L0 
C:\Users\liukai\AppData\Local\Temp\ccWEnOCw.s:752    .text.SPI_set_rx_threshold:0000000000000086 .L0 
C:\Users\liukai\AppData\Local\Temp\ccWEnOCw.s:754    .text.SPI_set_rx_threshold:0000000000000088 .L0 
C:\Users\liukai\AppData\Local\Temp\ccWEnOCw.s:756    .text.SPI_set_rx_threshold:000000000000008a .L0 
C:\Users\liukai\AppData\Local\Temp\ccWEnOCw.s:758    .text.SPI_set_rx_threshold:000000000000008c .L0 
C:\Users\liukai\AppData\Local\Temp\ccWEnOCw.s:765    .text.spi_flash_init:0000000000000000 spi_flash_init
C:\Users\liukai\AppData\Local\Temp\ccWEnOCw.s:768    .text.spi_flash_init:0000000000000000 .L0 
C:\Users\liukai\AppData\Local\Temp\ccWEnOCw.s:769    .text.spi_flash_init:0000000000000000 .L0 
C:\Users\liukai\AppData\Local\Temp\ccWEnOCw.s:770    .text.spi_flash_init:0000000000000008 .L0 
C:\Users\liukai\AppData\Local\Temp\ccWEnOCw.s:771    .text.spi_flash_init:0000000000000008 .L0 
C:\Users\liukai\AppData\Local\Temp\ccWEnOCw.s:772    .text.spi_flash_init:0000000000000008 .L0 
C:\Users\liukai\AppData\Local\Temp\ccWEnOCw.s:773    .text.spi_flash_init:0000000000000008 .L0 
C:\Users\liukai\AppData\Local\Temp\ccWEnOCw.s:775    .text.spi_flash_init:0000000000000008 .L0 
C:\Users\liukai\AppData\Local\Temp\ccWEnOCw.s:781    .text.spi_flash_init:0000000000000014 .L0 
C:\Users\liukai\AppData\Local\Temp\ccWEnOCw.s:783    .text.spi_flash_init:0000000000000016 .L0 
C:\Users\liukai\AppData\Local\Temp\ccWEnOCw.s:785    .text.spi_flash_init:0000000000000018 .L0 
C:\Users\liukai\AppData\Local\Temp\ccWEnOCw.s:787    .text.spi_flash_init:000000000000001a .L0 
C:\Users\liukai\AppData\Local\Temp\ccWEnOCw.s:789    .text.spi_flash_init:000000000000001e .L0 
C:\Users\liukai\AppData\Local\Temp\ccWEnOCw.s:791    .text.spi_flash_init:0000000000000022 .L0 
C:\Users\liukai\AppData\Local\Temp\ccWEnOCw.s:795    .text.spi_flash_init:000000000000002e .L0 
C:\Users\liukai\AppData\Local\Temp\ccWEnOCw.s:798    .text.spi_flash_init:000000000000003a .L0 
C:\Users\liukai\AppData\Local\Temp\ccWEnOCw.s:801    .text.spi_flash_init:000000000000003e .L0 
C:\Users\liukai\AppData\Local\Temp\ccWEnOCw.s:803    .text.spi_flash_init:0000000000000040 .L0 
C:\Users\liukai\AppData\Local\Temp\ccWEnOCw.s:805    .text.spi_flash_init:0000000000000042 .L0 
C:\Users\liukai\AppData\Local\Temp\ccWEnOCw.s:807    .text.spi_flash_init:0000000000000044 .L0 
C:\Users\liukai\AppData\Local\Temp\ccWEnOCw.s:811    .text.spi_flash_init:000000000000004e .L0 
C:\Users\liukai\AppData\Local\Temp\ccWEnOCw.s:815    .text.spi_flash_init:0000000000000056 .L0 
C:\Users\liukai\AppData\Local\Temp\ccWEnOCw.s:818    .text.spi_flash_init:000000000000005a .L0 
C:\Users\liukai\AppData\Local\Temp\ccWEnOCw.s:820    .text.spi_flash_init:000000000000005c .L0 
C:\Users\liukai\AppData\Local\Temp\ccWEnOCw.s:822    .text.spi_flash_init:000000000000005e .L0 
C:\Users\liukai\AppData\Local\Temp\ccWEnOCw.s:824    .text.spi_flash_init:0000000000000060 .L0 
C:\Users\liukai\AppData\Local\Temp\ccWEnOCw.s:826    .text.spi_flash_init:0000000000000062 .L0 
C:\Users\liukai\AppData\Local\Temp\ccWEnOCw.s:829    .text.spi_flash_init:0000000000000068 .L0 
C:\Users\liukai\AppData\Local\Temp\ccWEnOCw.s:831    .text.spi_flash_init:000000000000006a .L0 
C:\Users\liukai\AppData\Local\Temp\ccWEnOCw.s:834    .text.spi_flash_init:000000000000006e .L0 
C:\Users\liukai\AppData\Local\Temp\ccWEnOCw.s:838    .text.spi_flash_init:0000000000000076 .L0 
C:\Users\liukai\AppData\Local\Temp\ccWEnOCw.s:841    .text.spi_flash_init:000000000000007a .L0 
C:\Users\liukai\AppData\Local\Temp\ccWEnOCw.s:843    .text.spi_flash_init:000000000000007c .L0 
C:\Users\liukai\AppData\Local\Temp\ccWEnOCw.s:845    .text.spi_flash_init:000000000000007e .L0 
C:\Users\liukai\AppData\Local\Temp\ccWEnOCw.s:847    .text.spi_flash_init:0000000000000080 .L0 
C:\Users\liukai\AppData\Local\Temp\ccWEnOCw.s:849    .text.spi_flash_init:0000000000000082 .L0 
C:\Users\liukai\AppData\Local\Temp\ccWEnOCw.s:852    .text.spi_flash_init:000000000000008a .L0 
C:\Users\liukai\AppData\Local\Temp\ccWEnOCw.s:854    .text.spi_flash_init:000000000000008c .L0 
C:\Users\liukai\AppData\Local\Temp\ccWEnOCw.s:857    .text.spi_flash_init:0000000000000090 .L0 
C:\Users\liukai\AppData\Local\Temp\ccWEnOCw.s:860    .text.spi_flash_init:0000000000000096 .L0 
C:\Users\liukai\AppData\Local\Temp\ccWEnOCw.s:864    .text.spi_flash_init:000000000000009e .L0 
C:\Users\liukai\AppData\Local\Temp\ccWEnOCw.s:868    .text.spi_flash_init:00000000000000a6 .L0 
C:\Users\liukai\AppData\Local\Temp\ccWEnOCw.s:869    .text.spi_flash_init:00000000000000ae .L0 
C:\Users\liukai\AppData\Local\Temp\ccWEnOCw.s:870    .text.spi_flash_init:00000000000000ae .L0 
C:\Users\liukai\AppData\Local\Temp\ccWEnOCw.s:871    .text.spi_flash_init:00000000000000ae .L0 
C:\Users\liukai\AppData\Local\Temp\ccWEnOCw.s:872    .text.spi_flash_init:00000000000000ae .L0 
C:\Users\liukai\AppData\Local\Temp\ccWEnOCw.s:873    .text.spi_flash_init:00000000000000ae .L0 
C:\Users\liukai\AppData\Local\Temp\ccWEnOCw.s:880    .text.spi_flash_read:0000000000000000 spi_flash_read
C:\Users\liukai\AppData\Local\Temp\ccWEnOCw.s:883    .text.spi_flash_read:0000000000000000 .L0 
C:\Users\liukai\AppData\Local\Temp\ccWEnOCw.s:884    .text.spi_flash_read:0000000000000000 .L0 
C:\Users\liukai\AppData\Local\Temp\ccWEnOCw.s:885    .text.spi_flash_read:0000000000000000 .L0 
C:\Users\liukai\AppData\Local\Temp\ccWEnOCw.s:888    .text.spi_flash_read:0000000000000006 .L0 
C:\Users\liukai\AppData\Local\Temp\ccWEnOCw.s:890    .text.spi_flash_read:000000000000000a .L0 
C:\Users\liukai\AppData\Local\Temp\ccWEnOCw.s:892    .text.spi_flash_read:000000000000000c .L0 
C:\Users\liukai\AppData\Local\Temp\ccWEnOCw.s:894    .text.spi_flash_read:000000000000000e .L0 
C:\Users\liukai\AppData\Local\Temp\ccWEnOCw.s:896    .text.spi_flash_read:0000000000000010 .L0 
C:\Users\liukai\AppData\Local\Temp\ccWEnOCw.s:899    .text.spi_flash_read:0000000000000012 .L0 
C:\Users\liukai\AppData\Local\Temp\ccWEnOCw.s:906    .text.spi_flash_read:0000000000000020 .L0 
C:\Users\liukai\AppData\Local\Temp\ccWEnOCw.s:908    .text.spi_flash_read:0000000000000022 .L0 
C:\Users\liukai\AppData\Local\Temp\ccWEnOCw.s:910    .text.spi_flash_read:0000000000000024 .L0 
C:\Users\liukai\AppData\Local\Temp\ccWEnOCw.s:913    .text.spi_flash_read:0000000000000028 .L0 
C:\Users\liukai\AppData\Local\Temp\ccWEnOCw.s:915    .text.spi_flash_read:000000000000002a .L0 
C:\Users\liukai\AppData\Local\Temp\ccWEnOCw.s:918    .text.spi_flash_read:0000000000000032 .L0 
C:\Users\liukai\AppData\Local\Temp\ccWEnOCw.s:922    .text.spi_flash_read:0000000000000036 .L0 
C:\Users\liukai\AppData\Local\Temp\ccWEnOCw.s:925    .text.spi_flash_read:000000000000003a .L0 
C:\Users\liukai\AppData\Local\Temp\ccWEnOCw.s:927    .text.spi_flash_read:000000000000003c .L0 
C:\Users\liukai\AppData\Local\Temp\ccWEnOCw.s:929    .text.spi_flash_read:000000000000003e .L0 
C:\Users\liukai\AppData\Local\Temp\ccWEnOCw.s:931    .text.spi_flash_read:0000000000000040 .L0 
C:\Users\liukai\AppData\Local\Temp\ccWEnOCw.s:932    .text.spi_flash_read:0000000000000042 .L0 
C:\Users\liukai\AppData\Local\Temp\ccWEnOCw.s:939    .text.spi_flash_write:0000000000000000 spi_flash_write
C:\Users\liukai\AppData\Local\Temp\ccWEnOCw.s:942    .text.spi_flash_write:0000000000000000 .L0 
C:\Users\liukai\AppData\Local\Temp\ccWEnOCw.s:943    .text.spi_flash_write:0000000000000000 .L0 
C:\Users\liukai\AppData\Local\Temp\ccWEnOCw.s:944    .text.spi_flash_write:0000000000000008 .L0 
C:\Users\liukai\AppData\Local\Temp\ccWEnOCw.s:945    .text.spi_flash_write:0000000000000008 .L0 
C:\Users\liukai\AppData\Local\Temp\ccWEnOCw.s:946    .text.spi_flash_write:0000000000000008 .L0 
C:\Users\liukai\AppData\Local\Temp\ccWEnOCw.s:948    .text.spi_flash_write:000000000000000a .L0 
C:\Users\liukai\AppData\Local\Temp\ccWEnOCw.s:950    .text.spi_flash_write:000000000000000a .L0 
C:\Users\liukai\AppData\Local\Temp\ccWEnOCw.s:952    .text.spi_flash_write:000000000000000c .L0 
C:\Users\liukai\AppData\Local\Temp\ccWEnOCw.s:954    .text.spi_flash_write:000000000000000e .L0 
C:\Users\liukai\AppData\Local\Temp\ccWEnOCw.s:1066   .text.spi_flash_write_cmd:0000000000000000 spi_flash_write_cmd
C:\Users\liukai\AppData\Local\Temp\ccWEnOCw.s:958    .text.spi_flash_write:0000000000000014 .L0 
C:\Users\liukai\AppData\Local\Temp\ccWEnOCw.s:1307   .text.spi_flash_read_status:0000000000000000 spi_flash_read_status
C:\Users\liukai\AppData\Local\Temp\ccWEnOCw.s:960    .text.spi_flash_write:000000000000001c .L0 
C:\Users\liukai\AppData\Local\Temp\ccWEnOCw.s:962    .text.spi_flash_write:0000000000000024 .L0 
C:\Users\liukai\AppData\Local\Temp\ccWEnOCw.s:964    .text.spi_flash_write:0000000000000028 .L0 
C:\Users\liukai\AppData\Local\Temp\ccWEnOCw.s:966    .text.spi_flash_write:000000000000002c .L0 
C:\Users\liukai\AppData\Local\Temp\ccWEnOCw.s:968    .text.spi_flash_write:000000000000002e .L0 
C:\Users\liukai\AppData\Local\Temp\ccWEnOCw.s:970    .text.spi_flash_write:0000000000000030 .L0 
C:\Users\liukai\AppData\Local\Temp\ccWEnOCw.s:972    .text.spi_flash_write:0000000000000032 .L0 
C:\Users\liukai\AppData\Local\Temp\ccWEnOCw.s:974    .text.spi_flash_write:0000000000000034 .L0 
C:\Users\liukai\AppData\Local\Temp\ccWEnOCw.s:978    .text.spi_flash_write:000000000000003a .L0 
C:\Users\liukai\AppData\Local\Temp\ccWEnOCw.s:981    .text.spi_flash_write:000000000000003c .L0 
C:\Users\liukai\AppData\Local\Temp\ccWEnOCw.s:983    .text.spi_flash_write:000000000000003e .L0 
C:\Users\liukai\AppData\Local\Temp\ccWEnOCw.s:986    .text.spi_flash_write:0000000000000040 .L0 
C:\Users\liukai\AppData\Local\Temp\ccWEnOCw.s:989    .text.spi_flash_write:0000000000000042 .L0 
C:\Users\liukai\AppData\Local\Temp\ccWEnOCw.s:993    .text.spi_flash_write:000000000000004a .L0 
C:\Users\liukai\AppData\Local\Temp\ccWEnOCw.s:996    .text.spi_flash_write:000000000000004e .L0 
C:\Users\liukai\AppData\Local\Temp\ccWEnOCw.s:998    .text.spi_flash_write:0000000000000050 .L0 
C:\Users\liukai\AppData\Local\Temp\ccWEnOCw.s:1000   .text.spi_flash_write:0000000000000052 .L0 
C:\Users\liukai\AppData\Local\Temp\ccWEnOCw.s:1002   .text.spi_flash_write:0000000000000054 .L0 
C:\Users\liukai\AppData\Local\Temp\ccWEnOCw.s:1005   .text.spi_flash_write:000000000000005e .L0 
C:\Users\liukai\AppData\Local\Temp\ccWEnOCw.s:1007   .text.spi_flash_write:0000000000000066 .L0 
C:\Users\liukai\AppData\Local\Temp\ccWEnOCw.s:1008   .text.spi_flash_write:0000000000000068 .L0 
C:\Users\liukai\AppData\Local\Temp\ccWEnOCw.s:1009   .text.spi_flash_write:0000000000000068 .L0 
C:\Users\liukai\AppData\Local\Temp\ccWEnOCw.s:1011   .text.spi_flash_write:0000000000000070 .L0 
C:\Users\liukai\AppData\Local\Temp\ccWEnOCw.s:1012   .text.spi_flash_write:0000000000000070 .L0 
C:\Users\liukai\AppData\Local\Temp\ccWEnOCw.s:1013   .text.spi_flash_write:0000000000000070 .L0 
C:\Users\liukai\AppData\Local\Temp\ccWEnOCw.s:1015   .text.spi_flash_write:0000000000000070 .L0 
C:\Users\liukai\AppData\Local\Temp\ccWEnOCw.s:1018   .text.spi_flash_write:0000000000000070 .L0 
C:\Users\liukai\AppData\Local\Temp\ccWEnOCw.s:1020   .text.spi_flash_write:0000000000000074 .L0 
C:\Users\liukai\AppData\Local\Temp\ccWEnOCw.s:1022   .text.spi_flash_write:0000000000000078 .L0 
C:\Users\liukai\AppData\Local\Temp\ccWEnOCw.s:1025   .text.spi_flash_write:000000000000007a .L0 
C:\Users\liukai\AppData\Local\Temp\ccWEnOCw.s:1027   .text.spi_flash_write:000000000000007c .L0 
C:\Users\liukai\AppData\Local\Temp\ccWEnOCw.s:1032   .text.spi_flash_write:0000000000000088 .L0 
C:\Users\liukai\AppData\Local\Temp\ccWEnOCw.s:1039   .text.change_mode_spi_flash:0000000000000000 change_mode_spi_flash
C:\Users\liukai\AppData\Local\Temp\ccWEnOCw.s:1042   .text.change_mode_spi_flash:0000000000000000 .L0 
C:\Users\liukai\AppData\Local\Temp\ccWEnOCw.s:1043   .text.change_mode_spi_flash:0000000000000000 .L0 
C:\Users\liukai\AppData\Local\Temp\ccWEnOCw.s:1044   .text.change_mode_spi_flash:0000000000000000 .L0 
C:\Users\liukai\AppData\Local\Temp\ccWEnOCw.s:1047   .text.change_mode_spi_flash:0000000000000006 .L0 
C:\Users\liukai\AppData\Local\Temp\ccWEnOCw.s:1049   .text.change_mode_spi_flash:0000000000000008 .L0 
C:\Users\liukai\AppData\Local\Temp\ccWEnOCw.s:1052   .text.change_mode_spi_flash:000000000000000c .L0 
C:\Users\liukai\AppData\Local\Temp\ccWEnOCw.s:1054   .text.change_mode_spi_flash:000000000000000e .L0 
C:\Users\liukai\AppData\Local\Temp\ccWEnOCw.s:1056   .text.change_mode_spi_flash:0000000000000012 .L0 
C:\Users\liukai\AppData\Local\Temp\ccWEnOCw.s:1058   .text.change_mode_spi_flash:0000000000000014 .L0 
C:\Users\liukai\AppData\Local\Temp\ccWEnOCw.s:1059   .text.change_mode_spi_flash:0000000000000016 .L0 
C:\Users\liukai\AppData\Local\Temp\ccWEnOCw.s:1069   .text.spi_flash_write_cmd:0000000000000000 .L0 
C:\Users\liukai\AppData\Local\Temp\ccWEnOCw.s:1070   .text.spi_flash_write_cmd:0000000000000000 .L0 
C:\Users\liukai\AppData\Local\Temp\ccWEnOCw.s:1071   .text.spi_flash_write_cmd:0000000000000008 .L0 
C:\Users\liukai\AppData\Local\Temp\ccWEnOCw.s:1072   .text.spi_flash_write_cmd:0000000000000008 .L0 
C:\Users\liukai\AppData\Local\Temp\ccWEnOCw.s:1073   .text.spi_flash_write_cmd:0000000000000008 .L0 
C:\Users\liukai\AppData\Local\Temp\ccWEnOCw.s:1075   .text.spi_flash_write_cmd:0000000000000008 .L0 
C:\Users\liukai\AppData\Local\Temp\ccWEnOCw.s:1079   .text.spi_flash_write_cmd:0000000000000012 .L0 
C:\Users\liukai\AppData\Local\Temp\ccWEnOCw.s:1082   .text.spi_flash_write_cmd:0000000000000016 .L0 
C:\Users\liukai\AppData\Local\Temp\ccWEnOCw.s:1084   .text.spi_flash_write_cmd:000000000000001a .L0 
C:\Users\liukai\AppData\Local\Temp\ccWEnOCw.s:1086   .text.spi_flash_write_cmd:000000000000001c .L0 
C:\Users\liukai\AppData\Local\Temp\ccWEnOCw.s:1089   .text.spi_flash_write_cmd:0000000000000020 .L0 
C:\Users\liukai\AppData\Local\Temp\ccWEnOCw.s:1092   .text.spi_flash_write_cmd:0000000000000026 .L0 
C:\Users\liukai\AppData\Local\Temp\ccWEnOCw.s:1095   .text.spi_flash_write_cmd:000000000000002a .L0 
C:\Users\liukai\AppData\Local\Temp\ccWEnOCw.s:1097   .text.spi_flash_write_cmd:000000000000002c .L0 
C:\Users\liukai\AppData\Local\Temp\ccWEnOCw.s:1100   .text.spi_flash_write_cmd:0000000000000034 .L0 
C:\Users\liukai\AppData\Local\Temp\ccWEnOCw.s:1103   .text.spi_flash_write_cmd:0000000000000038 .L0 
C:\Users\liukai\AppData\Local\Temp\ccWEnOCw.s:1105   .text.spi_flash_write_cmd:000000000000003a .L0 
C:\Users\liukai\AppData\Local\Temp\ccWEnOCw.s:1107   .text.spi_flash_write_cmd:000000000000003c .L0 
C:\Users\liukai\AppData\Local\Temp\ccWEnOCw.s:1109   .text.spi_flash_write_cmd:000000000000003e .L0 
C:\Users\liukai\AppData\Local\Temp\ccWEnOCw.s:1110   .text.spi_flash_write_cmd:0000000000000046 .L0 
C:\Users\liukai\AppData\Local\Temp\ccWEnOCw.s:1111   .text.spi_flash_write_cmd:0000000000000046 .L0 
C:\Users\liukai\AppData\Local\Temp\ccWEnOCw.s:1112   .text.spi_flash_write_cmd:0000000000000046 .L0 
C:\Users\liukai\AppData\Local\Temp\ccWEnOCw.s:1113   .text.spi_flash_write_cmd:0000000000000046 .L0 
C:\Users\liukai\AppData\Local\Temp\ccWEnOCw.s:1115   .text.spi_flash_write_cmd:0000000000000046 .L0 
C:\Users\liukai\AppData\Local\Temp\ccWEnOCw.s:1117   .text.spi_flash_write_cmd:0000000000000046 .L0 
C:\Users\liukai\AppData\Local\Temp\ccWEnOCw.s:1120   .text.spi_flash_write_cmd:0000000000000050 .L0 
C:\Users\liukai\AppData\Local\Temp\ccWEnOCw.s:1122   .text.spi_flash_write_cmd:000000000000005a .L0 
C:\Users\liukai\AppData\Local\Temp\ccWEnOCw.s:1129   .text.spi_flash_page_program:0000000000000000 spi_flash_page_program
C:\Users\liukai\AppData\Local\Temp\ccWEnOCw.s:1132   .text.spi_flash_page_program:0000000000000000 .L0 
C:\Users\liukai\AppData\Local\Temp\ccWEnOCw.s:1133   .text.spi_flash_page_program:0000000000000000 .L0 
C:\Users\liukai\AppData\Local\Temp\ccWEnOCw.s:1134   .text.spi_flash_page_program:0000000000000008 .L0 
C:\Users\liukai\AppData\Local\Temp\ccWEnOCw.s:1135   .text.spi_flash_page_program:0000000000000008 .L0 
C:\Users\liukai\AppData\Local\Temp\ccWEnOCw.s:1136   .text.spi_flash_page_program:0000000000000008 .L0 
C:\Users\liukai\AppData\Local\Temp\ccWEnOCw.s:1138   .text.spi_flash_page_program:000000000000000a .L0 
C:\Users\liukai\AppData\Local\Temp\ccWEnOCw.s:1140   .text.spi_flash_page_program:000000000000000a .L0 
C:\Users\liukai\AppData\Local\Temp\ccWEnOCw.s:1142   .text.spi_flash_page_program:000000000000000c .L0 
C:\Users\liukai\AppData\Local\Temp\ccWEnOCw.s:1144   .text.spi_flash_page_program:000000000000000e .L0 
C:\Users\liukai\AppData\Local\Temp\ccWEnOCw.s:1147   .text.spi_flash_page_program:0000000000000012 .L0 
C:\Users\liukai\AppData\Local\Temp\ccWEnOCw.s:1149   .text.spi_flash_page_program:000000000000001a .L0 
C:\Users\liukai\AppData\Local\Temp\ccWEnOCw.s:1151   .text.spi_flash_page_program:0000000000000022 .L0 
C:\Users\liukai\AppData\Local\Temp\ccWEnOCw.s:1153   .text.spi_flash_page_program:0000000000000026 .L0 
C:\Users\liukai\AppData\Local\Temp\ccWEnOCw.s:1155   .text.spi_flash_page_program:0000000000000028 .L0 
C:\Users\liukai\AppData\Local\Temp\ccWEnOCw.s:1157   .text.spi_flash_page_program:000000000000002c .L0 
C:\Users\liukai\AppData\Local\Temp\ccWEnOCw.s:1159   .text.spi_flash_page_program:0000000000000030 .L0 
C:\Users\liukai\AppData\Local\Temp\ccWEnOCw.s:1161   .text.spi_flash_page_program:0000000000000034 .L0 
C:\Users\liukai\AppData\Local\Temp\ccWEnOCw.s:1163   .text.spi_flash_page_program:0000000000000036 .L0 
C:\Users\liukai\AppData\Local\Temp\ccWEnOCw.s:1165   .text.spi_flash_page_program:0000000000000038 .L0 
C:\Users\liukai\AppData\Local\Temp\ccWEnOCw.s:1167   .text.spi_flash_page_program:000000000000003a .L0 
C:\Users\liukai\AppData\Local\Temp\ccWEnOCw.s:1171   .text.spi_flash_page_program:000000000000003e .L0 
C:\Users\liukai\AppData\Local\Temp\ccWEnOCw.s:1178   .text.spi_flash_page_program:000000000000004a .L0 
C:\Users\liukai\AppData\Local\Temp\ccWEnOCw.s:1180   .text.spi_flash_page_program:000000000000004e .L0 
C:\Users\liukai\AppData\Local\Temp\ccWEnOCw.s:1182   .text.spi_flash_page_program:0000000000000050 .L0 
C:\Users\liukai\AppData\Local\Temp\ccWEnOCw.s:1185   .text.spi_flash_page_program:0000000000000052 .L0 
C:\Users\liukai\AppData\Local\Temp\ccWEnOCw.s:1187   .text.spi_flash_page_program:0000000000000054 .L0 
C:\Users\liukai\AppData\Local\Temp\ccWEnOCw.s:1190   .text.spi_flash_page_program:000000000000005c .L0 
C:\Users\liukai\AppData\Local\Temp\ccWEnOCw.s:1194   .text.spi_flash_page_program:0000000000000060 .L0 
C:\Users\liukai\AppData\Local\Temp\ccWEnOCw.s:1197   .text.spi_flash_page_program:0000000000000064 .L0 
C:\Users\liukai\AppData\Local\Temp\ccWEnOCw.s:1199   .text.spi_flash_page_program:0000000000000066 .L0 
C:\Users\liukai\AppData\Local\Temp\ccWEnOCw.s:1201   .text.spi_flash_page_program:0000000000000068 .L0 
C:\Users\liukai\AppData\Local\Temp\ccWEnOCw.s:1203   .text.spi_flash_page_program:000000000000006a .L0 
C:\Users\liukai\AppData\Local\Temp\ccWEnOCw.s:1206   .text.spi_flash_page_program:0000000000000074 .L0 
C:\Users\liukai\AppData\Local\Temp\ccWEnOCw.s:1208   .text.spi_flash_page_program:000000000000007c .L0 
C:\Users\liukai\AppData\Local\Temp\ccWEnOCw.s:1209   .text.spi_flash_page_program:000000000000007e .L0 
C:\Users\liukai\AppData\Local\Temp\ccWEnOCw.s:1211   .text.spi_flash_page_program:0000000000000086 .L0 
C:\Users\liukai\AppData\Local\Temp\ccWEnOCw.s:1212   .text.spi_flash_page_program:0000000000000086 .L0 
C:\Users\liukai\AppData\Local\Temp\ccWEnOCw.s:1213   .text.spi_flash_page_program:0000000000000086 .L0 
C:\Users\liukai\AppData\Local\Temp\ccWEnOCw.s:1214   .text.spi_flash_page_program:0000000000000086 .L0 
C:\Users\liukai\AppData\Local\Temp\ccWEnOCw.s:1221   .text.spi_flash_sector_erase:0000000000000000 spi_flash_sector_erase
C:\Users\liukai\AppData\Local\Temp\ccWEnOCw.s:1224   .text.spi_flash_sector_erase:0000000000000000 .L0 
C:\Users\liukai\AppData\Local\Temp\ccWEnOCw.s:1225   .text.spi_flash_sector_erase:0000000000000000 .L0 
C:\Users\liukai\AppData\Local\Temp\ccWEnOCw.s:1226   .text.spi_flash_sector_erase:0000000000000008 .L0 
C:\Users\liukai\AppData\Local\Temp\ccWEnOCw.s:1227   .text.spi_flash_sector_erase:0000000000000008 .L0 
C:\Users\liukai\AppData\Local\Temp\ccWEnOCw.s:1228   .text.spi_flash_sector_erase:0000000000000008 .L0 
C:\Users\liukai\AppData\Local\Temp\ccWEnOCw.s:1230   .text.spi_flash_sector_erase:0000000000000008 .L0 
C:\Users\liukai\AppData\Local\Temp\ccWEnOCw.s:1232   .text.spi_flash_sector_erase:000000000000000a .L0 
C:\Users\liukai\AppData\Local\Temp\ccWEnOCw.s:1235   .text.spi_flash_sector_erase:0000000000000014 .L0 
C:\Users\liukai\AppData\Local\Temp\ccWEnOCw.s:1237   .text.spi_flash_sector_erase:000000000000001c .L0 
C:\Users\liukai\AppData\Local\Temp\ccWEnOCw.s:1241   .text.spi_flash_sector_erase:0000000000000026 .L0 
C:\Users\liukai\AppData\Local\Temp\ccWEnOCw.s:1243   .text.spi_flash_sector_erase:000000000000002a .L0 
C:\Users\liukai\AppData\Local\Temp\ccWEnOCw.s:1245   .text.spi_flash_sector_erase:000000000000002e .L0 
C:\Users\liukai\AppData\Local\Temp\ccWEnOCw.s:1248   .text.spi_flash_sector_erase:0000000000000034 .L0 
C:\Users\liukai\AppData\Local\Temp\ccWEnOCw.s:1250   .text.spi_flash_sector_erase:0000000000000036 .L0 
C:\Users\liukai\AppData\Local\Temp\ccWEnOCw.s:1252   .text.spi_flash_sector_erase:000000000000003a .L0 
C:\Users\liukai\AppData\Local\Temp\ccWEnOCw.s:1255   .text.spi_flash_sector_erase:000000000000003e .L0 
C:\Users\liukai\AppData\Local\Temp\ccWEnOCw.s:1257   .text.spi_flash_sector_erase:0000000000000040 .L0 
C:\Users\liukai\AppData\Local\Temp\ccWEnOCw.s:1261   .text.spi_flash_sector_erase:000000000000004c .L0 
C:\Users\liukai\AppData\Local\Temp\ccWEnOCw.s:1263   .text.spi_flash_sector_erase:000000000000004e .L0 
C:\Users\liukai\AppData\Local\Temp\ccWEnOCw.s:1266   .text.spi_flash_sector_erase:0000000000000052 .L0 
C:\Users\liukai\AppData\Local\Temp\ccWEnOCw.s:1268   .text.spi_flash_sector_erase:0000000000000054 .L0 
C:\Users\liukai\AppData\Local\Temp\ccWEnOCw.s:1272   .text.spi_flash_sector_erase:0000000000000060 .L0 
C:\Users\liukai\AppData\Local\Temp\ccWEnOCw.s:1274   .text.spi_flash_sector_erase:0000000000000062 .L0 
C:\Users\liukai\AppData\Local\Temp\ccWEnOCw.s:1277   .text.spi_flash_sector_erase:0000000000000066 .L0 
C:\Users\liukai\AppData\Local\Temp\ccWEnOCw.s:1279   .text.spi_flash_sector_erase:0000000000000068 .L0 
C:\Users\liukai\AppData\Local\Temp\ccWEnOCw.s:1282   .text.spi_flash_sector_erase:0000000000000070 .L0 
C:\Users\liukai\AppData\Local\Temp\ccWEnOCw.s:1285   .text.spi_flash_sector_erase:0000000000000074 .L0 
C:\Users\liukai\AppData\Local\Temp\ccWEnOCw.s:1287   .text.spi_flash_sector_erase:0000000000000076 .L0 
C:\Users\liukai\AppData\Local\Temp\ccWEnOCw.s:1289   .text.spi_flash_sector_erase:0000000000000078 .L0 
C:\Users\liukai\AppData\Local\Temp\ccWEnOCw.s:1291   .text.spi_flash_sector_erase:000000000000007a .L0 
C:\Users\liukai\AppData\Local\Temp\ccWEnOCw.s:1294   .text.spi_flash_sector_erase:0000000000000084 .L0 
C:\Users\liukai\AppData\Local\Temp\ccWEnOCw.s:1296   .text.spi_flash_sector_erase:000000000000008c .L0 
C:\Users\liukai\AppData\Local\Temp\ccWEnOCw.s:1297   .text.spi_flash_sector_erase:0000000000000094 .L0 
C:\Users\liukai\AppData\Local\Temp\ccWEnOCw.s:1298   .text.spi_flash_sector_erase:0000000000000094 .L0 
C:\Users\liukai\AppData\Local\Temp\ccWEnOCw.s:1299   .text.spi_flash_sector_erase:0000000000000094 .L0 
C:\Users\liukai\AppData\Local\Temp\ccWEnOCw.s:1300   .text.spi_flash_sector_erase:0000000000000094 .L0 
C:\Users\liukai\AppData\Local\Temp\ccWEnOCw.s:1310   .text.spi_flash_read_status:0000000000000000 .L0 
C:\Users\liukai\AppData\Local\Temp\ccWEnOCw.s:1311   .text.spi_flash_read_status:0000000000000000 .L0 
C:\Users\liukai\AppData\Local\Temp\ccWEnOCw.s:1312   .text.spi_flash_read_status:0000000000000000 .L0 
C:\Users\liukai\AppData\Local\Temp\ccWEnOCw.s:1316   .text.spi_flash_read_status:000000000000000a .L0 
C:\Users\liukai\AppData\Local\Temp\ccWEnOCw.s:1320   .text.spi_flash_read_status:0000000000000010 .L0 
C:\Users\liukai\AppData\Local\Temp\ccWEnOCw.s:1322   .text.spi_flash_read_status:0000000000000012 .L0 
C:\Users\liukai\AppData\Local\Temp\ccWEnOCw.s:1324   .text.spi_flash_read_status:0000000000000014 .L0 
C:\Users\liukai\AppData\Local\Temp\ccWEnOCw.s:1326   .text.spi_flash_read_status:0000000000000016 .L0 
C:\Users\liukai\AppData\Local\Temp\ccWEnOCw.s:1328   .text.spi_flash_read_status:0000000000000018 .L0 
C:\Users\liukai\AppData\Local\Temp\ccWEnOCw.s:1331   .text.spi_flash_read_status:000000000000001c .L0 
C:\Users\liukai\AppData\Local\Temp\ccWEnOCw.s:1333   .text.spi_flash_read_status:000000000000001e .L0 
C:\Users\liukai\AppData\Local\Temp\ccWEnOCw.s:1335   .text.spi_flash_read_status:0000000000000020 .L0 
C:\Users\liukai\AppData\Local\Temp\ccWEnOCw.s:1337   .text.spi_flash_read_status:0000000000000022 .L0 
C:\Users\liukai\AppData\Local\Temp\ccWEnOCw.s:1338   .text.spi_flash_read_status:0000000000000024 .L0 
C:\Users\liukai\AppData\Local\Temp\ccWEnOCw.s:48     .text.SPI_reset:000000000000002a .L0 
C:\Users\liukai\AppData\Local\Temp\ccWEnOCw.s:89     .text.SPI_set_mode:0000000000000030 .L0 
C:\Users\liukai\AppData\Local\Temp\ccWEnOCw.s:163    .text.SPI_set_addr_format:0000000000000074 .L0 
C:\Users\liukai\AppData\Local\Temp\ccWEnOCw.s:215    .text.SPI_set_cmd_format:0000000000000042 .L0 
C:\Users\liukai\AppData\Local\Temp\ccWEnOCw.s:294    .text.SPI_set_data_format:000000000000007e .L0 
C:\Users\liukai\AppData\Local\Temp\ccWEnOCw.s:354    .text.SPI_set_transfer_format:000000000000005c .L0 
C:\Users\liukai\AppData\Local\Temp\ccWEnOCw.s:423    .text.SPI_set_trans_ctrl:0000000000000076 .L0 
C:\Users\liukai\AppData\Local\Temp\ccWEnOCw.s:485    .text.SPI_set_token:000000000000005c .L0 
C:\Users\liukai\AppData\Local\Temp\ccWEnOCw.s:525    .text.SPI_tx_fifo_reset:000000000000002a .L0 
C:\Users\liukai\AppData\Local\Temp\ccWEnOCw.s:565    .text.SPI_rx_fifo_reset:000000000000002a .L0 
C:\Users\liukai\AppData\Local\Temp\ccWEnOCw.s:596    .text.spi_get_fifo_depth:0000000000000014 .L0 
C:\Users\liukai\AppData\Local\Temp\ccWEnOCw.s:679    .text.SPI_set_tx_threshold:000000000000008e .L0 
C:\Users\liukai\AppData\Local\Temp\ccWEnOCw.s:761    .text.SPI_set_rx_threshold:000000000000008c .L0 
C:\Users\liukai\AppData\Local\Temp\ccWEnOCw.s:876    .text.spi_flash_init:00000000000000ae .L0 
C:\Users\liukai\AppData\Local\Temp\ccWEnOCw.s:935    .text.spi_flash_read:0000000000000042 .L0 
C:\Users\liukai\AppData\Local\Temp\ccWEnOCw.s:1035   .text.spi_flash_write:0000000000000088 .L0 
C:\Users\liukai\AppData\Local\Temp\ccWEnOCw.s:1062   .text.change_mode_spi_flash:0000000000000016 .L0 
C:\Users\liukai\AppData\Local\Temp\ccWEnOCw.s:1125   .text.spi_flash_write_cmd:000000000000005a .L0 
C:\Users\liukai\AppData\Local\Temp\ccWEnOCw.s:1217   .text.spi_flash_page_program:0000000000000086 .L0 
C:\Users\liukai\AppData\Local\Temp\ccWEnOCw.s:1303   .text.spi_flash_sector_erase:0000000000000094 .L0 
C:\Users\liukai\AppData\Local\Temp\ccWEnOCw.s:1341   .text.spi_flash_read_status:0000000000000024 .L0 
                     .debug_frame:0000000000000000 .L0 
C:\Users\liukai\AppData\Local\Temp\ccWEnOCw.s:29     .text.SPI_reset:0000000000000018 .L2
C:\Users\liukai\AppData\Local\Temp\ccWEnOCw.s:150    .text.SPI_set_addr_format:000000000000006c .L9
C:\Users\liukai\AppData\Local\Temp\ccWEnOCw.s:153    .text.SPI_set_addr_format:000000000000006e .L6
C:\Users\liukai\AppData\Local\Temp\ccWEnOCw.s:202    .text.SPI_set_cmd_format:000000000000003a .L13
C:\Users\liukai\AppData\Local\Temp\ccWEnOCw.s:205    .text.SPI_set_cmd_format:000000000000003c .L10
C:\Users\liukai\AppData\Local\Temp\ccWEnOCw.s:283    .text.SPI_set_data_format:0000000000000076 .L17
C:\Users\liukai\AppData\Local\Temp\ccWEnOCw.s:472    .text.SPI_set_token:0000000000000054 .L25
C:\Users\liukai\AppData\Local\Temp\ccWEnOCw.s:475    .text.SPI_set_token:0000000000000056 .L22
C:\Users\liukai\AppData\Local\Temp\ccWEnOCw.s:507    .text.SPI_tx_fifo_reset:0000000000000018 .L27
C:\Users\liukai\AppData\Local\Temp\ccWEnOCw.s:547    .text.SPI_rx_fifo_reset:0000000000000018 .L29
C:\Users\liukai\AppData\Local\Temp\ccWEnOCw.s:579    .text.spi_get_fifo_depth:0000000000000004 .L31
C:\Users\liukai\AppData\Local\Temp\ccWEnOCw.s:598    .rodata.SPI_set_tx_threshold.str1.4:0000000000000000 .LC0
C:\Users\liukai\AppData\Local\Temp\ccWEnOCw.s:641    .text.SPI_set_tx_threshold:0000000000000048 .L0 
C:\Users\liukai\AppData\Local\Temp\ccWEnOCw.s:645    .text.SPI_set_tx_threshold:000000000000005a .L34
C:\Users\liukai\AppData\Local\Temp\ccWEnOCw.s:667    .text.SPI_set_tx_threshold:0000000000000086 .L33
C:\Users\liukai\AppData\Local\Temp\ccWEnOCw.s:681    .rodata.SPI_set_rx_threshold.str1.4:0000000000000000 .LC1
C:\Users\liukai\AppData\Local\Temp\ccWEnOCw.s:723    .text.SPI_set_rx_threshold:0000000000000046 .L0 
C:\Users\liukai\AppData\Local\Temp\ccWEnOCw.s:727    .text.SPI_set_rx_threshold:0000000000000058 .L38
C:\Users\liukai\AppData\Local\Temp\ccWEnOCw.s:749    .text.SPI_set_rx_threshold:0000000000000084 .L37
C:\Users\liukai\AppData\Local\Temp\ccWEnOCw.s:779    .text.spi_flash_init:0000000000000014 .L42
C:\Users\liukai\AppData\Local\Temp\ccWEnOCw.s:799    .text.spi_flash_init:000000000000003e .L43
C:\Users\liukai\AppData\Local\Temp\ccWEnOCw.s:816    .text.spi_flash_init:000000000000005a .L44
C:\Users\liukai\AppData\Local\Temp\ccWEnOCw.s:839    .text.spi_flash_init:000000000000007a .L45
C:\Users\liukai\AppData\Local\Temp\ccWEnOCw.s:919    .text.spi_flash_read:0000000000000036 .L52
C:\Users\liukai\AppData\Local\Temp\ccWEnOCw.s:911    .text.spi_flash_read:0000000000000028 .L53
C:\Users\liukai\AppData\Local\Temp\ccWEnOCw.s:904    .text.spi_flash_read:0000000000000020 .L54
C:\Users\liukai\AppData\Local\Temp\ccWEnOCw.s:923    .text.spi_flash_read:000000000000003a .L55
C:\Users\liukai\AppData\Local\Temp\ccWEnOCw.s:1014   .text.spi_flash_write:0000000000000070 .L66
C:\Users\liukai\AppData\Local\Temp\ccWEnOCw.s:994    .text.spi_flash_write:000000000000004e .L67
C:\Users\liukai\AppData\Local\Temp\ccWEnOCw.s:1023   .text.spi_flash_write:000000000000007a .L65
C:\Users\liukai\AppData\Local\Temp\ccWEnOCw.s:987    .text.spi_flash_write:0000000000000042 .L64
C:\Users\liukai\AppData\Local\Temp\ccWEnOCw.s:1050   .text.change_mode_spi_flash:000000000000000c .L72
C:\Users\liukai\AppData\Local\Temp\ccWEnOCw.s:1114   .text.spi_flash_write_cmd:0000000000000046 .L81
C:\Users\liukai\AppData\Local\Temp\ccWEnOCw.s:1093   .text.spi_flash_write_cmd:000000000000002a .L76
C:\Users\liukai\AppData\Local\Temp\ccWEnOCw.s:1101   .text.spi_flash_write_cmd:0000000000000038 .L77
C:\Users\liukai\AppData\Local\Temp\ccWEnOCw.s:1087   .text.spi_flash_write_cmd:0000000000000020 .L75
C:\Users\liukai\AppData\Local\Temp\ccWEnOCw.s:1191   .text.spi_flash_page_program:0000000000000060 .L83
C:\Users\liukai\AppData\Local\Temp\ccWEnOCw.s:1183   .text.spi_flash_page_program:0000000000000052 .L84
C:\Users\liukai\AppData\Local\Temp\ccWEnOCw.s:1176   .text.spi_flash_page_program:000000000000004a .L85
C:\Users\liukai\AppData\Local\Temp\ccWEnOCw.s:1195   .text.spi_flash_page_program:0000000000000064 .L86
C:\Users\liukai\AppData\Local\Temp\ccWEnOCw.s:1253   .text.spi_flash_sector_erase:000000000000003e .L95
C:\Users\liukai\AppData\Local\Temp\ccWEnOCw.s:1264   .text.spi_flash_sector_erase:0000000000000052 .L96
C:\Users\liukai\AppData\Local\Temp\ccWEnOCw.s:1275   .text.spi_flash_sector_erase:0000000000000066 .L97
C:\Users\liukai\AppData\Local\Temp\ccWEnOCw.s:1283   .text.spi_flash_sector_erase:0000000000000074 .L98
C:\Users\liukai\AppData\Local\Temp\ccWEnOCw.s:1318   .text.spi_flash_read_status:0000000000000010 .L105
C:\Users\liukai\AppData\Local\Temp\ccWEnOCw.s:1329   .text.spi_flash_read_status:000000000000001c .L106
C:\Users\liukai\AppData\Local\Temp\ccWEnOCw.s:3486   .debug_abbrev:0000000000000000 .Ldebug_abbrev0
C:\Users\liukai\AppData\Local\Temp\ccWEnOCw.s:8599   .debug_str:0000000000001c52 .LASF1252
C:\Users\liukai\AppData\Local\Temp\ccWEnOCw.s:10405  .debug_str:0000000000007c79 .LASF1253
C:\Users\liukai\AppData\Local\Temp\ccWEnOCw.s:9411   .debug_str:00000000000047c2 .LASF1254
C:\Users\liukai\AppData\Local\Temp\ccWEnOCw.s:4322   .debug_ranges:0000000000000000 .Ldebug_ranges0
C:\Users\liukai\AppData\Local\Temp\ccWEnOCw.s:8043   .debug_line:0000000000000000 .Ldebug_line0
C:\Users\liukai\AppData\Local\Temp\ccWEnOCw.s:4382   .debug_macro:0000000000000000 .Ldebug_macro0
C:\Users\liukai\AppData\Local\Temp\ccWEnOCw.s:8149   .debug_str:000000000000050a .LASF1052
C:\Users\liukai\AppData\Local\Temp\ccWEnOCw.s:9935   .debug_str:000000000000638b .LASF1057
C:\Users\liukai\AppData\Local\Temp\ccWEnOCw.s:9623   .debug_str:0000000000005291 .LASF1053
C:\Users\liukai\AppData\Local\Temp\ccWEnOCw.s:10107  .debug_str:0000000000006d10 .LASF1054
C:\Users\liukai\AppData\Local\Temp\ccWEnOCw.s:10409  .debug_str:0000000000007ca3 .LASF1055
C:\Users\liukai\AppData\Local\Temp\ccWEnOCw.s:8459   .debug_str:000000000000158f .LASF1056
C:\Users\liukai\AppData\Local\Temp\ccWEnOCw.s:9119   .debug_str:0000000000003987 .LASF1058
C:\Users\liukai\AppData\Local\Temp\ccWEnOCw.s:9103   .debug_str:00000000000038ba .LASF1059
C:\Users\liukai\AppData\Local\Temp\ccWEnOCw.s:10337  .debug_str:0000000000007938 .LASF1060
C:\Users\liukai\AppData\Local\Temp\ccWEnOCw.s:9813   .debug_str:0000000000005c8c .LASF1061
C:\Users\liukai\AppData\Local\Temp\ccWEnOCw.s:9471   .debug_str:0000000000004b5d .LASF1062
C:\Users\liukai\AppData\Local\Temp\ccWEnOCw.s:8603   .debug_str:0000000000001d49 .LASF1063
C:\Users\liukai\AppData\Local\Temp\ccWEnOCw.s:10341  .debug_str:0000000000007960 .LASF1064
C:\Users\liukai\AppData\Local\Temp\ccWEnOCw.s:9695   .debug_str:000000000000562b .LASF1065
C:\Users\liukai\AppData\Local\Temp\ccWEnOCw.s:10279  .debug_str:000000000000766f .LASF1066
C:\Users\liukai\AppData\Local\Temp\ccWEnOCw.s:8999   .debug_str:00000000000032e9 .LASF1173
C:\Users\liukai\AppData\Local\Temp\ccWEnOCw.s:10381  .debug_str:0000000000007b23 .LASF1067
C:\Users\liukai\AppData\Local\Temp\ccWEnOCw.s:9755   .debug_str:000000000000596f .LASF1068
C:\Users\liukai\AppData\Local\Temp\ccWEnOCw.s:8073   .debug_str:0000000000000156 .LASF1069
C:\Users\liukai\AppData\Local\Temp\ccWEnOCw.s:9971   .debug_str:000000000000657e .LASF1070
C:\Users\liukai\AppData\Local\Temp\ccWEnOCw.s:8379   .debug_str:00000000000010e0 .LASF1071
C:\Users\liukai\AppData\Local\Temp\ccWEnOCw.s:9759   .debug_str:000000000000598d .LASF1072
C:\Users\liukai\AppData\Local\Temp\ccWEnOCw.s:9639   .debug_str:000000000000535d .LASF1073
C:\Users\liukai\AppData\Local\Temp\ccWEnOCw.s:8091   .debug_str:0000000000000217 .LASF1074
C:\Users\liukai\AppData\Local\Temp\ccWEnOCw.s:9955   .debug_str:00000000000064c5 .LASF1075
C:\Users\liukai\AppData\Local\Temp\ccWEnOCw.s:9939   .debug_str:00000000000063a0 .LASF1076
C:\Users\liukai\AppData\Local\Temp\ccWEnOCw.s:10323  .debug_str:000000000000786d .LASF1077
C:\Users\liukai\AppData\Local\Temp\ccWEnOCw.s:9225   .debug_str:0000000000003ee0 .LASF1082
C:\Users\liukai\AppData\Local\Temp\ccWEnOCw.s:9983   .debug_str:000000000000662a .LASF1078
C:\Users\liukai\AppData\Local\Temp\ccWEnOCw.s:10173  .debug_str:0000000000007125 .LASF1079
C:\Users\liukai\AppData\Local\Temp\ccWEnOCw.s:9405   .debug_str:0000000000004787 .LASF1080
C:\Users\liukai\AppData\Local\Temp\ccWEnOCw.s:8989   .debug_str:0000000000003260 .LASF1081
C:\Users\liukai\AppData\Local\Temp\ccWEnOCw.s:8201   .debug_str:00000000000007d6 .LASF1083
C:\Users\liukai\AppData\Local\Temp\ccWEnOCw.s:8207   .debug_str:00000000000007f2 .LASF1084
C:\Users\liukai\AppData\Local\Temp\ccWEnOCw.s:10528  .debug_str:000000000000854d .LASF1085
C:\Users\liukai\AppData\Local\Temp\ccWEnOCw.s:10413  .debug_str:0000000000007ccb .LASF1086
C:\Users\liukai\AppData\Local\Temp\ccWEnOCw.s:9543   .debug_str:0000000000004ee8 .LASF1087
C:\Users\liukai\AppData\Local\Temp\ccWEnOCw.s:8547   .debug_str:0000000000001a4c .LASF1088
C:\Users\liukai\AppData\Local\Temp\ccWEnOCw.s:10187  .debug_str:00000000000071ef .LASF1089
C:\Users\liukai\AppData\Local\Temp\ccWEnOCw.s:10425  .debug_str:0000000000007d44 .LASF1090
C:\Users\liukai\AppData\Local\Temp\ccWEnOCw.s:9701   .debug_str:0000000000005651 .LASF1091
C:\Users\liukai\AppData\Local\Temp\ccWEnOCw.s:10493  .debug_str:0000000000008150 .LASF1092
C:\Users\liukai\AppData\Local\Temp\ccWEnOCw.s:8413   .debug_str:000000000000129d .LASF1093
C:\Users\liukai\AppData\Local\Temp\ccWEnOCw.s:10489  .debug_str:000000000000813f .LASF1094
C:\Users\liukai\AppData\Local\Temp\ccWEnOCw.s:9841   .debug_str:0000000000005e19 .LASF1095
C:\Users\liukai\AppData\Local\Temp\ccWEnOCw.s:8523   .debug_str:00000000000018bb .LASF1096
C:\Users\liukai\AppData\Local\Temp\ccWEnOCw.s:10277  .debug_str:0000000000007667 .LASF1097
C:\Users\liukai\AppData\Local\Temp\ccWEnOCw.s:9607   .debug_str:00000000000051df .LASF1098
C:\Users\liukai\AppData\Local\Temp\ccWEnOCw.s:10249  .debug_str:0000000000007530 .LASF1099
C:\Users\liukai\AppData\Local\Temp\ccWEnOCw.s:8767   .debug_str:00000000000026ef .LASF1100
C:\Users\liukai\AppData\Local\Temp\ccWEnOCw.s:8511   .debug_str:0000000000001853 .LASF1101
C:\Users\liukai\AppData\Local\Temp\ccWEnOCw.s:9903   .debug_str:00000000000060d0 .LASF1102
C:\Users\liukai\AppData\Local\Temp\ccWEnOCw.s:10343  .debug_str:0000000000007969 .LASF1103
C:\Users\liukai\AppData\Local\Temp\ccWEnOCw.s:9125   .debug_str:00000000000039c7 .LASF1104
C:\Users\liukai\AppData\Local\Temp\ccWEnOCw.s:9587   .debug_str:000000000000512d .LASF1105
C:\Users\liukai\AppData\Local\Temp\ccWEnOCw.s:8423   .debug_str:0000000000001305 .LASF1106
C:\Users\liukai\AppData\Local\Temp\ccWEnOCw.s:10241  .debug_str:00000000000074fe .LASF1107
C:\Users\liukai\AppData\Local\Temp\ccWEnOCw.s:8977   .debug_str:00000000000031d0 .LASF1108
C:\Users\liukai\AppData\Local\Temp\ccWEnOCw.s:8107   .debug_str:00000000000002c4 .LASF1109
C:\Users\liukai\AppData\Local\Temp\ccWEnOCw.s:8141   .debug_str:000000000000047c .LASF1110
C:\Users\liukai\AppData\Local\Temp\ccWEnOCw.s:9741   .debug_str:00000000000058ec .LASF1111
C:\Users\liukai\AppData\Local\Temp\ccWEnOCw.s:8783   .debug_str:00000000000027b6 .LASF1112
C:\Users\liukai\AppData\Local\Temp\ccWEnOCw.s:9557   .debug_str:0000000000004fad .LASF1113
C:\Users\liukai\AppData\Local\Temp\ccWEnOCw.s:8205   .debug_str:00000000000007ec .LASF1114
C:\Users\liukai\AppData\Local\Temp\ccWEnOCw.s:9887   .debug_str:0000000000006044 .LASF1115
C:\Users\liukai\AppData\Local\Temp\ccWEnOCw.s:9753   .debug_str:0000000000005967 .LASF1116
C:\Users\liukai\AppData\Local\Temp\ccWEnOCw.s:9987   .debug_str:000000000000664a .LASF1117
C:\Users\liukai\AppData\Local\Temp\ccWEnOCw.s:8261   .debug_str:0000000000000b4f .LASF1118
C:\Users\liukai\AppData\Local\Temp\ccWEnOCw.s:9575   .debug_str:0000000000005067 .LASF1119
C:\Users\liukai\AppData\Local\Temp\ccWEnOCw.s:9463   .debug_str:0000000000004af0 .LASF1120
C:\Users\liukai\AppData\Local\Temp\ccWEnOCw.s:8709   .debug_str:000000000000242f .LASF1121
C:\Users\liukai\AppData\Local\Temp\ccWEnOCw.s:9177   .debug_str:0000000000003c8f .LASF1122
C:\Users\liukai\AppData\Local\Temp\ccWEnOCw.s:8835   .debug_str:0000000000002a55 .LASF1123
C:\Users\liukai\AppData\Local\Temp\ccWEnOCw.s:8633   .debug_str:0000000000001f49 .LASF1124
C:\Users\liukai\AppData\Local\Temp\ccWEnOCw.s:9563   .debug_str:0000000000004ffd .LASF1125
C:\Users\liukai\AppData\Local\Temp\ccWEnOCw.s:8741   .debug_str:00000000000025ba .LASF1126
C:\Users\liukai\AppData\Local\Temp\ccWEnOCw.s:9285   .debug_str:00000000000041da .LASF1127
C:\Users\liukai\AppData\Local\Temp\ccWEnOCw.s:8693   .debug_str:00000000000022e2 .LASF1128
C:\Users\liukai\AppData\Local\Temp\ccWEnOCw.s:10321  .debug_str:0000000000007865 .LASF1129
C:\Users\liukai\AppData\Local\Temp\ccWEnOCw.s:9127   .debug_str:00000000000039cf .LASF1130
C:\Users\liukai\AppData\Local\Temp\ccWEnOCw.s:9249   .debug_str:0000000000003ffc .LASF1131
C:\Users\liukai\AppData\Local\Temp\ccWEnOCw.s:10353  .debug_str:00000000000079bf .LASF1132
C:\Users\liukai\AppData\Local\Temp\ccWEnOCw.s:8473   .debug_str:0000000000001642 .LASF1133
C:\Users\liukai\AppData\Local\Temp\ccWEnOCw.s:9101   .debug_str:00000000000038b5 .LASF1134
C:\Users\liukai\AppData\Local\Temp\ccWEnOCw.s:9387   .debug_str:0000000000004696 .LASF1135
C:\Users\liukai\AppData\Local\Temp\ccWEnOCw.s:8159   .debug_str:0000000000000578 .LASF1136
C:\Users\liukai\AppData\Local\Temp\ccWEnOCw.s:9767   .debug_str:0000000000005a37 .LASF1137
C:\Users\liukai\AppData\Local\Temp\ccWEnOCw.s:9551   .debug_str:0000000000004f78 .LASF1138
C:\Users\liukai\AppData\Local\Temp\ccWEnOCw.s:9251   .debug_str:0000000000004006 .LASF1139
C:\Users\liukai\AppData\Local\Temp\ccWEnOCw.s:9005   .debug_str:000000000000333f .LASF1140
C:\Users\liukai\AppData\Local\Temp\ccWEnOCw.s:10481  .debug_str:00000000000080ed .LASF1141
C:\Users\liukai\AppData\Local\Temp\ccWEnOCw.s:8095   .debug_str:0000000000000232 .LASF1142
C:\Users\liukai\AppData\Local\Temp\ccWEnOCw.s:8757   .debug_str:0000000000002668 .LASF362
C:\Users\liukai\AppData\Local\Temp\ccWEnOCw.s:9943   .debug_str:00000000000063dc .LASF1143
C:\Users\liukai\AppData\Local\Temp\ccWEnOCw.s:9403   .debug_str:0000000000004781 .LASF1144
C:\Users\liukai\AppData\Local\Temp\ccWEnOCw.s:9317   .debug_str:0000000000004323 .LASF1145
C:\Users\liukai\AppData\Local\Temp\ccWEnOCw.s:9035   .debug_str:000000000000354f .LASF1146
C:\Users\liukai\AppData\Local\Temp\ccWEnOCw.s:9853   .debug_str:0000000000005e9d .LASF1147
C:\Users\liukai\AppData\Local\Temp\ccWEnOCw.s:9731   .debug_str:000000000000585d .LASF1148
C:\Users\liukai\AppData\Local\Temp\ccWEnOCw.s:8303   .debug_str:0000000000000d7e .LASF1149
C:\Users\liukai\AppData\Local\Temp\ccWEnOCw.s:10399  .debug_str:0000000000007c0c .LASF1150
C:\Users\liukai\AppData\Local\Temp\ccWEnOCw.s:8595   .debug_str:0000000000001c32 .LASF1151
C:\Users\liukai\AppData\Local\Temp\ccWEnOCw.s:9917   .debug_str:00000000000061dc .LASF1152
C:\Users\liukai\AppData\Local\Temp\ccWEnOCw.s:8155   .debug_str:0000000000000554 .LASF1153
C:\Users\liukai\AppData\Local\Temp\ccWEnOCw.s:8503   .debug_str:00000000000017f9 .LASF1154
C:\Users\liukai\AppData\Local\Temp\ccWEnOCw.s:9355   .debug_str:00000000000044f8 .LASF1155
C:\Users\liukai\AppData\Local\Temp\ccWEnOCw.s:9583   .debug_str:000000000000510b .LASF1156
C:\Users\liukai\AppData\Local\Temp\ccWEnOCw.s:9961   .debug_str:00000000000064f9 .LASF1157
C:\Users\liukai\AppData\Local\Temp\ccWEnOCw.s:10103  .debug_str:0000000000006cf0 .LASF1158
C:\Users\liukai\AppData\Local\Temp\ccWEnOCw.s:9785   .debug_str:0000000000005b0a .LASF1159
C:\Users\liukai\AppData\Local\Temp\ccWEnOCw.s:9571   .debug_str:000000000000503f .LASF1160
C:\Users\liukai\AppData\Local\Temp\ccWEnOCw.s:8219   .debug_str:0000000000000862 .LASF1161
C:\Users\liukai\AppData\Local\Temp\ccWEnOCw.s:9195   .debug_str:0000000000003dad .LASF1162
C:\Users\liukai\AppData\Local\Temp\ccWEnOCw.s:10534  .debug_str:000000000000858e .LASF1163
C:\Users\liukai\AppData\Local\Temp\ccWEnOCw.s:8457   .debug_str:0000000000001581 .LASF1164
C:\Users\liukai\AppData\Local\Temp\ccWEnOCw.s:9929   .debug_str:00000000000062e2 .LASF1165
C:\Users\liukai\AppData\Local\Temp\ccWEnOCw.s:10441  .debug_str:0000000000007e76 .LASF1166
C:\Users\liukai\AppData\Local\Temp\ccWEnOCw.s:9535   .debug_str:0000000000004e8b .LASF1167
C:\Users\liukai\AppData\Local\Temp\ccWEnOCw.s:8203   .debug_str:00000000000007db .LASF1168
C:\Users\liukai\AppData\Local\Temp\ccWEnOCw.s:8787   .debug_str:00000000000027cc .LASF1169
C:\Users\liukai\AppData\Local\Temp\ccWEnOCw.s:10287  .debug_str:00000000000076c4 .LASF1170
C:\Users\liukai\AppData\Local\Temp\ccWEnOCw.s:9339   .debug_str:0000000000004446 .LASF1171
C:\Users\liukai\AppData\Local\Temp\ccWEnOCw.s:8731   .debug_str:0000000000002547 .LASF1172
C:\Users\liukai\AppData\Local\Temp\ccWEnOCw.s:8087   .debug_str:00000000000001f6 .LASF1174
C:\Users\liukai\AppData\Local\Temp\ccWEnOCw.s:8467   .debug_str:00000000000015f4 .LASF1175
C:\Users\liukai\AppData\Local\Temp\ccWEnOCw.s:8715   .debug_str:00000000000024a2 .LASF1176
C:\Users\liukai\AppData\Local\Temp\ccWEnOCw.s:9167   .debug_str:0000000000003c1d .LASF1177
C:\Users\liukai\AppData\Local\Temp\ccWEnOCw.s:8659   .debug_str:00000000000020dd .LASF1178
C:\Users\liukai\AppData\Local\Temp\ccWEnOCw.s:9091   .debug_str:0000000000003845 .LASF1179
C:\Users\liukai\AppData\Local\Temp\ccWEnOCw.s:10237  .debug_str:00000000000074cd .LASF1180
C:\Users\liukai\AppData\Local\Temp\ccWEnOCw.s:8661   .debug_str:00000000000020e7 .LASF1181
C:\Users\liukai\AppData\Local\Temp\ccWEnOCw.s:9635   .debug_str:0000000000005338 .LASF1182
C:\Users\liukai\AppData\Local\Temp\ccWEnOCw.s:10243  .debug_str:0000000000007507 .LASF1183
C:\Users\liukai\AppData\Local\Temp\ccWEnOCw.s:8833   .debug_str:0000000000002a50 .LASF1184
C:\Users\liukai\AppData\Local\Temp\ccWEnOCw.s:9365   .debug_str:0000000000004567 .LASF1185
C:\Users\liukai\AppData\Local\Temp\ccWEnOCw.s:10297  .debug_str:000000000000774c .LASF1186
C:\Users\liukai\AppData\Local\Temp\ccWEnOCw.s:8667   .debug_str:0000000000002114 .LASF1187
C:\Users\liukai\AppData\Local\Temp\ccWEnOCw.s:9817   .debug_str:0000000000005ccb .LASF1188
C:\Users\liukai\AppData\Local\Temp\ccWEnOCw.s:8065   .debug_str:00000000000000d5 .LASF1189
C:\Users\liukai\AppData\Local\Temp\ccWEnOCw.s:8743   .debug_str:00000000000025bf .LASF1190
C:\Users\liukai\AppData\Local\Temp\ccWEnOCw.s:8249   .debug_str:0000000000000ab5 .LASF1191
C:\Users\liukai\AppData\Local\Temp\ccWEnOCw.s:8907   .debug_str:0000000000002e42 .LASF1192
C:\Users\liukai\AppData\Local\Temp\ccWEnOCw.s:8577   .debug_str:0000000000001b8d .LASF1193
C:\Users\liukai\AppData\Local\Temp\ccWEnOCw.s:10351  .debug_str:00000000000079b4 .LASF1194
C:\Users\liukai\AppData\Local\Temp\ccWEnOCw.s:8747   .debug_str:00000000000025d8 .LASF1195
C:\Users\liukai\AppData\Local\Temp\ccWEnOCw.s:9087   .debug_str:000000000000382c .LASF1196
C:\Users\liukai\AppData\Local\Temp\ccWEnOCw.s:9299   .debug_str:0000000000004272 .LASF1197
C:\Users\liukai\AppData\Local\Temp\ccWEnOCw.s:9787   .debug_str:0000000000005b18 .LASF1208
C:\Users\liukai\AppData\Local\Temp\ccWEnOCw.s:1308   .text.spi_flash_read_status:0000000000000000 .LFB23
C:\Users\liukai\AppData\Local\Temp\ccWEnOCw.s:1339   .text.spi_flash_read_status:0000000000000024 .LFE23
C:\Users\liukai\AppData\Local\Temp\ccWEnOCw.s:10055  .debug_str:00000000000069ec .LASF1198
C:\Users\liukai\AppData\Local\Temp\ccWEnOCw.s:8215   .debug_str:0000000000000830 .LASF1202
C:\Users\liukai\AppData\Local\Temp\ccWEnOCw.s:1222   .text.spi_flash_sector_erase:0000000000000000 .LFB22
C:\Users\liukai\AppData\Local\Temp\ccWEnOCw.s:1301   .text.spi_flash_sector_erase:0000000000000094 .LFE22
C:\Users\liukai\AppData\Local\Temp\ccWEnOCw.s:9135   .debug_str:0000000000003a1a .LASF1204
C:\Users\liukai\AppData\Local\Temp\ccWEnOCw.s:9495   .debug_str:0000000000004c51 .LASF1199
C:\Users\liukai\AppData\Local\Temp\ccWEnOCw.s:9589   .debug_str:0000000000005134 .LASF1200
C:\Users\liukai\AppData\Local\Temp\ccWEnOCw.s:9591   .debug_str:000000000000513a .LASF1201
C:\Users\liukai\AppData\Local\Temp\ccWEnOCw.s:8639   .debug_str:0000000000001fbb .LASF1203
C:\Users\liukai\AppData\Local\Temp\ccWEnOCw.s:1130   .text.spi_flash_page_program:0000000000000000 .LFB21
C:\Users\liukai\AppData\Local\Temp\ccWEnOCw.s:1215   .text.spi_flash_page_program:0000000000000086 .LFE21
C:\Users\liukai\AppData\Local\Temp\ccWEnOCw.s:8987   .debug_str:0000000000003259 .LASF1205
C:\Users\liukai\AppData\Local\Temp\ccWEnOCw.s:9399   .debug_str:000000000000476b .LASF1206
C:\Users\liukai\AppData\Local\Temp\ccWEnOCw.s:1169   .text.spi_flash_page_program:000000000000003e .LBB8
C:\Users\liukai\AppData\Local\Temp\ccWEnOCw.s:1192   .text.spi_flash_page_program:0000000000000060 .LBE8
C:\Users\liukai\AppData\Local\Temp\ccWEnOCw.s:10139  .debug_str:0000000000006f1e .LASF1207
C:\Users\liukai\AppData\Local\Temp\ccWEnOCw.s:1067   .text.spi_flash_write_cmd:0000000000000000 .LFB20
C:\Users\liukai\AppData\Local\Temp\ccWEnOCw.s:1123   .text.spi_flash_write_cmd:000000000000005a .LFE20
C:\Users\liukai\AppData\Local\Temp\ccWEnOCw.s:9271   .debug_str:0000000000004113 .LASF1209
C:\Users\liukai\AppData\Local\Temp\ccWEnOCw.s:1040   .text.change_mode_spi_flash:0000000000000000 .LFB19
C:\Users\liukai\AppData\Local\Temp\ccWEnOCw.s:1060   .text.change_mode_spi_flash:0000000000000016 .LFE19
C:\Users\liukai\AppData\Local\Temp\ccWEnOCw.s:9083   .debug_str:0000000000003802 .LASF1210
C:\Users\liukai\AppData\Local\Temp\ccWEnOCw.s:940    .text.spi_flash_write:0000000000000000 .LFB18
C:\Users\liukai\AppData\Local\Temp\ccWEnOCw.s:1033   .text.spi_flash_write:0000000000000088 .LFE18
C:\Users\liukai\AppData\Local\Temp\ccWEnOCw.s:9897   .debug_str:00000000000060a2 .LASF1211
C:\Users\liukai\AppData\Local\Temp\ccWEnOCw.s:881    .text.spi_flash_read:0000000000000000 .LFB17
C:\Users\liukai\AppData\Local\Temp\ccWEnOCw.s:933    .text.spi_flash_read:0000000000000042 .LFE17
C:\Users\liukai\AppData\Local\Temp\ccWEnOCw.s:8421   .debug_str:00000000000012fe .LASF1212
C:\Users\liukai\AppData\Local\Temp\ccWEnOCw.s:9303   .debug_str:00000000000042a0 .LASF1213
C:\Users\liukai\AppData\Local\Temp\ccWEnOCw.s:897    .text.spi_flash_read:0000000000000012 .LBB4
C:\Users\liukai\AppData\Local\Temp\ccWEnOCw.s:920    .text.spi_flash_read:0000000000000036 .LBE4
C:\Users\liukai\AppData\Local\Temp\ccWEnOCw.s:8745   .debug_str:00000000000025c9 .LASF1214
C:\Users\liukai\AppData\Local\Temp\ccWEnOCw.s:766    .text.spi_flash_init:0000000000000000 .LFB16
C:\Users\liukai\AppData\Local\Temp\ccWEnOCw.s:874    .text.spi_flash_init:00000000000000ae .LFE16
C:\Users\liukai\AppData\Local\Temp\ccWEnOCw.s:9423   .debug_str:000000000000486f .LASF1215
C:\Users\liukai\AppData\Local\Temp\ccWEnOCw.s:10369  .debug_str:0000000000007aa2 .LASF1216
C:\Users\liukai\AppData\Local\Temp\ccWEnOCw.s:8885   .debug_str:0000000000002d73 .LASF1217
C:\Users\liukai\AppData\Local\Temp\ccWEnOCw.s:8175   .debug_str:000000000000067d .LASF1218
C:\Users\liukai\AppData\Local\Temp\ccWEnOCw.s:9259   .debug_str:000000000000404b .LASF1219
C:\Users\liukai\AppData\Local\Temp\ccWEnOCw.s:9699   .debug_str:000000000000563c .LASF1220
C:\Users\liukai\AppData\Local\Temp\ccWEnOCw.s:688    .text.SPI_set_rx_threshold:0000000000000000 .LFB15
C:\Users\liukai\AppData\Local\Temp\ccWEnOCw.s:759    .text.SPI_set_rx_threshold:000000000000008c .LFE15
C:\Users\liukai\AppData\Local\Temp\ccWEnOCw.s:8211   .debug_str:000000000000080a .LASF1221
C:\Users\liukai\AppData\Local\Temp\ccWEnOCw.s:10411  .debug_str:0000000000007cb6 .LASF1222
C:\Users\liukai\AppData\Local\Temp\ccWEnOCw.s:605    .text.SPI_set_tx_threshold:0000000000000000 .LFB14
C:\Users\liukai\AppData\Local\Temp\ccWEnOCw.s:677    .text.SPI_set_tx_threshold:000000000000008e .LFE14
C:\Users\liukai\AppData\Local\Temp\ccWEnOCw.s:10375  .debug_str:0000000000007ae3 .LASF1223
C:\Users\liukai\AppData\Local\Temp\ccWEnOCw.s:10235  .debug_str:00000000000074ba .LASF1255
C:\Users\liukai\AppData\Local\Temp\ccWEnOCw.s:570    .text.spi_get_fifo_depth:0000000000000000 .LFB13
C:\Users\liukai\AppData\Local\Temp\ccWEnOCw.s:594    .text.spi_get_fifo_depth:0000000000000014 .LFE13
C:\Users\liukai\AppData\Local\Temp\ccWEnOCw.s:10315  .debug_str:0000000000007809 .LASF1224
C:\Users\liukai\AppData\Local\Temp\ccWEnOCw.s:9615   .debug_str:000000000000523f .LASF1225
C:\Users\liukai\AppData\Local\Temp\ccWEnOCw.s:8129   .debug_str:00000000000003d4 .LASF1226
C:\Users\liukai\AppData\Local\Temp\ccWEnOCw.s:530    .text.SPI_rx_fifo_reset:0000000000000000 .LFB12
C:\Users\liukai\AppData\Local\Temp\ccWEnOCw.s:563    .text.SPI_rx_fifo_reset:000000000000002a .LFE12
C:\Users\liukai\AppData\Local\Temp\ccWEnOCw.s:8559   .debug_str:0000000000001ad1 .LASF1227
C:\Users\liukai\AppData\Local\Temp\ccWEnOCw.s:490    .text.SPI_tx_fifo_reset:0000000000000000 .LFB11
C:\Users\liukai\AppData\Local\Temp\ccWEnOCw.s:523    .text.SPI_tx_fifo_reset:000000000000002a .LFE11
C:\Users\liukai\AppData\Local\Temp\ccWEnOCw.s:10419  .debug_str:0000000000007cff .LASF1228
C:\Users\liukai\AppData\Local\Temp\ccWEnOCw.s:428    .text.SPI_set_token:0000000000000000 .LFB10
C:\Users\liukai\AppData\Local\Temp\ccWEnOCw.s:483    .text.SPI_set_token:000000000000005c .LFE10
C:\Users\liukai\AppData\Local\Temp\ccWEnOCw.s:9095   .debug_str:000000000000387d .LASF1229
C:\Users\liukai\AppData\Local\Temp\ccWEnOCw.s:8051   .debug_str:0000000000000047 .LASF1230
C:\Users\liukai\AppData\Local\Temp\ccWEnOCw.s:9833   .debug_str:0000000000005d9b .LASF1231
C:\Users\liukai\AppData\Local\Temp\ccWEnOCw.s:359    .text.SPI_set_trans_ctrl:0000000000000000 .LFB9
C:\Users\liukai\AppData\Local\Temp\ccWEnOCw.s:421    .text.SPI_set_trans_ctrl:0000000000000076 .LFE9
C:\Users\liukai\AppData\Local\Temp\ccWEnOCw.s:9775   .debug_str:0000000000005a84 .LASF1232
C:\Users\liukai\AppData\Local\Temp\ccWEnOCw.s:9783   .debug_str:0000000000005b01 .LASF1233
C:\Users\liukai\AppData\Local\Temp\ccWEnOCw.s:10031  .debug_str:000000000000689c .LASF1234
C:\Users\liukai\AppData\Local\Temp\ccWEnOCw.s:9685   .debug_str:00000000000055b8 .LASF1235
C:\Users\liukai\AppData\Local\Temp\ccWEnOCw.s:299    .text.SPI_set_transfer_format:0000000000000000 .LFB8
C:\Users\liukai\AppData\Local\Temp\ccWEnOCw.s:352    .text.SPI_set_transfer_format:000000000000005c .LFE8
C:\Users\liukai\AppData\Local\Temp\ccWEnOCw.s:9477   .debug_str:0000000000004b8f .LASF1236
C:\Users\liukai\AppData\Local\Temp\ccWEnOCw.s:9681   .debug_str:0000000000005572 .LASF1237
C:\Users\liukai\AppData\Local\Temp\ccWEnOCw.s:8927   .debug_str:0000000000002f4d .LASF1238
C:\Users\liukai\AppData\Local\Temp\ccWEnOCw.s:8325   .debug_str:0000000000000e6a .LASF1239
C:\Users\liukai\AppData\Local\Temp\ccWEnOCw.s:8797   .debug_str:0000000000002855 .LASF1240
C:\Users\liukai\AppData\Local\Temp\ccWEnOCw.s:220    .text.SPI_set_data_format:0000000000000000 .LFB7
C:\Users\liukai\AppData\Local\Temp\ccWEnOCw.s:292    .text.SPI_set_data_format:000000000000007e .LFE7
C:\Users\liukai\AppData\Local\Temp\ccWEnOCw.s:9915   .debug_str:00000000000061d3 .LASF1241
C:\Users\liukai\AppData\Local\Temp\ccWEnOCw.s:10101  .debug_str:0000000000006ce6 .LASF1242
C:\Users\liukai\AppData\Local\Temp\ccWEnOCw.s:10045  .debug_str:000000000000698d .LASF1243
C:\Users\liukai\AppData\Local\Temp\ccWEnOCw.s:168    .text.SPI_set_cmd_format:0000000000000000 .LFB6
C:\Users\liukai\AppData\Local\Temp\ccWEnOCw.s:213    .text.SPI_set_cmd_format:0000000000000042 .LFE6
C:\Users\liukai\AppData\Local\Temp\ccWEnOCw.s:9973   .debug_str:0000000000006585 .LASF1244
C:\Users\liukai\AppData\Local\Temp\ccWEnOCw.s:8807   .debug_str:00000000000028ad .LASF1245
C:\Users\liukai\AppData\Local\Temp\ccWEnOCw.s:94     .text.SPI_set_addr_format:0000000000000000 .LFB5
C:\Users\liukai\AppData\Local\Temp\ccWEnOCw.s:161    .text.SPI_set_addr_format:0000000000000074 .LFE5
C:\Users\liukai\AppData\Local\Temp\ccWEnOCw.s:8079   .debug_str:000000000000019b .LASF1246
C:\Users\liukai\AppData\Local\Temp\ccWEnOCw.s:8521   .debug_str:00000000000018b3 .LASF1247
C:\Users\liukai\AppData\Local\Temp\ccWEnOCw.s:10520  .debug_str:0000000000008509 .LASF1248
C:\Users\liukai\AppData\Local\Temp\ccWEnOCw.s:8243   .debug_str:0000000000000a58 .LASF1249
C:\Users\liukai\AppData\Local\Temp\ccWEnOCw.s:53     .text.SPI_set_mode:0000000000000000 .LFB4
C:\Users\liukai\AppData\Local\Temp\ccWEnOCw.s:87     .text.SPI_set_mode:0000000000000030 .LFE4
C:\Users\liukai\AppData\Local\Temp\ccWEnOCw.s:9029   .debug_str:0000000000003510 .LASF1250
C:\Users\liukai\AppData\Local\Temp\ccWEnOCw.s:10267  .debug_str:000000000000760b .LASF1251
C:\Users\liukai\AppData\Local\Temp\ccWEnOCw.s:11     .text.SPI_reset:0000000000000000 .LFB3
C:\Users\liukai\AppData\Local\Temp\ccWEnOCw.s:46     .text.SPI_reset:000000000000002a .LFE3
C:\Users\liukai\AppData\Local\Temp\ccWEnOCw.s:1351   .debug_info:0000000000000000 .Ldebug_info0
C:\Users\liukai\AppData\Local\Temp\ccWEnOCw.s:573    .text.spi_get_fifo_depth:0000000000000000 .LBB2
C:\Users\liukai\AppData\Local\Temp\ccWEnOCw.s:576    .text.spi_get_fifo_depth:0000000000000002 .LBE2
C:\Users\liukai\AppData\Local\Temp\ccWEnOCw.s:580    .text.spi_get_fifo_depth:0000000000000004 .LBB3
C:\Users\liukai\AppData\Local\Temp\ccWEnOCw.s:589    .text.spi_get_fifo_depth:0000000000000010 .LBE3
C:\Users\liukai\AppData\Local\Temp\ccWEnOCw.s:976    .text.spi_flash_write:000000000000003a .LBB5
C:\Users\liukai\AppData\Local\Temp\ccWEnOCw.s:979    .text.spi_flash_write:000000000000003c .LBE5
C:\Users\liukai\AppData\Local\Temp\ccWEnOCw.s:984    .text.spi_flash_write:0000000000000040 .LBB6
C:\Users\liukai\AppData\Local\Temp\ccWEnOCw.s:991    .text.spi_flash_write:000000000000004a .LBE6
C:\Users\liukai\AppData\Local\Temp\ccWEnOCw.s:1016   .text.spi_flash_write:0000000000000070 .LBB7
C:\Users\liukai\AppData\Local\Temp\ccWEnOCw.s:1031   .text.spi_flash_write:0000000000000088 .LBE7
C:\Users\liukai\AppData\Local\Temp\ccWEnOCw.s:4713   .debug_macro:0000000000000000 .Ldebug_macro2
C:\Users\liukai\AppData\Local\Temp\ccWEnOCw.s:9081   .debug_str:00000000000037f3 .LASF311
C:\Users\liukai\AppData\Local\Temp\ccWEnOCw.s:5651   .debug_macro:0000000000000000 .Ldebug_macro3
C:\Users\liukai\AppData\Local\Temp\ccWEnOCw.s:9459   .debug_str:0000000000004acb .LASF317
C:\Users\liukai\AppData\Local\Temp\ccWEnOCw.s:8641   .debug_str:0000000000001fd2 .LASF318
C:\Users\liukai\AppData\Local\Temp\ccWEnOCw.s:9659   .debug_str:000000000000548e .LASF319
C:\Users\liukai\AppData\Local\Temp\ccWEnOCw.s:8737   .debug_str:00000000000025a4 .LASF320
C:\Users\liukai\AppData\Local\Temp\ccWEnOCw.s:5671   .debug_macro:0000000000000000 .Ldebug_macro4
C:\Users\liukai\AppData\Local\Temp\ccWEnOCw.s:5691   .debug_macro:0000000000000000 .Ldebug_macro5
C:\Users\liukai\AppData\Local\Temp\ccWEnOCw.s:5756   .debug_macro:0000000000000000 .Ldebug_macro6
C:\Users\liukai\AppData\Local\Temp\ccWEnOCw.s:5797   .debug_macro:0000000000000000 .Ldebug_macro7
C:\Users\liukai\AppData\Local\Temp\ccWEnOCw.s:5913   .debug_macro:0000000000000000 .Ldebug_macro8
C:\Users\liukai\AppData\Local\Temp\ccWEnOCw.s:5969   .debug_macro:0000000000000000 .Ldebug_macro9
C:\Users\liukai\AppData\Local\Temp\ccWEnOCw.s:9937   .debug_str:0000000000006395 .LASF473
C:\Users\liukai\AppData\Local\Temp\ccWEnOCw.s:9995   .debug_str:000000000000669b .LASF474
C:\Users\liukai\AppData\Local\Temp\ccWEnOCw.s:6181   .debug_macro:0000000000000000 .Ldebug_macro10
C:\Users\liukai\AppData\Local\Temp\ccWEnOCw.s:9347   .debug_str:00000000000044a4 .LASF489
C:\Users\liukai\AppData\Local\Temp\ccWEnOCw.s:6228   .debug_macro:0000000000000000 .Ldebug_macro11
C:\Users\liukai\AppData\Local\Temp\ccWEnOCw.s:6242   .debug_macro:0000000000000000 .Ldebug_macro12
C:\Users\liukai\AppData\Local\Temp\ccWEnOCw.s:6268   .debug_macro:0000000000000000 .Ldebug_macro13
C:\Users\liukai\AppData\Local\Temp\ccWEnOCw.s:6297   .debug_macro:0000000000000000 .Ldebug_macro14
C:\Users\liukai\AppData\Local\Temp\ccWEnOCw.s:8301   .debug_str:0000000000000d6f .LASF511
C:\Users\liukai\AppData\Local\Temp\ccWEnOCw.s:6311   .debug_macro:0000000000000000 .Ldebug_macro15
C:\Users\liukai\AppData\Local\Temp\ccWEnOCw.s:6379   .debug_macro:0000000000000000 .Ldebug_macro16
C:\Users\liukai\AppData\Local\Temp\ccWEnOCw.s:6744   .debug_macro:0000000000000000 .Ldebug_macro17
C:\Users\liukai\AppData\Local\Temp\ccWEnOCw.s:8805   .debug_str:000000000000289b .LASF685
C:\Users\liukai\AppData\Local\Temp\ccWEnOCw.s:6857   .debug_macro:0000000000000000 .Ldebug_macro18
C:\Users\liukai\AppData\Local\Temp\ccWEnOCw.s:10051  .debug_str:00000000000069bc .LASF688
C:\Users\liukai\AppData\Local\Temp\ccWEnOCw.s:9511   .debug_str:0000000000004d1b .LASF689
C:\Users\liukai\AppData\Local\Temp\ccWEnOCw.s:10271  .debug_str:0000000000007628 .LASF690
C:\Users\liukai\AppData\Local\Temp\ccWEnOCw.s:10269  .debug_str:0000000000007615 .LASF691
C:\Users\liukai\AppData\Local\Temp\ccWEnOCw.s:6868   .debug_macro:0000000000000000 .Ldebug_macro19
C:\Users\liukai\AppData\Local\Temp\ccWEnOCw.s:6915   .debug_macro:0000000000000000 .Ldebug_macro20
C:\Users\liukai\AppData\Local\Temp\ccWEnOCw.s:6932   .debug_macro:0000000000000000 .Ldebug_macro21
C:\Users\liukai\AppData\Local\Temp\ccWEnOCw.s:6964   .debug_macro:0000000000000000 .Ldebug_macro22
C:\Users\liukai\AppData\Local\Temp\ccWEnOCw.s:6981   .debug_macro:0000000000000000 .Ldebug_macro23
C:\Users\liukai\AppData\Local\Temp\ccWEnOCw.s:7157   .debug_macro:0000000000000000 .Ldebug_macro24
C:\Users\liukai\AppData\Local\Temp\ccWEnOCw.s:9875   .debug_str:0000000000005fbf .LASF774
C:\Users\liukai\AppData\Local\Temp\ccWEnOCw.s:7168   .debug_macro:0000000000000000 .Ldebug_macro25
C:\Users\liukai\AppData\Local\Temp\ccWEnOCw.s:7185   .debug_macro:0000000000000000 .Ldebug_macro26
C:\Users\liukai\AppData\Local\Temp\ccWEnOCw.s:9335   .debug_str:0000000000004402 .LASF792
C:\Users\liukai\AppData\Local\Temp\ccWEnOCw.s:10069  .debug_str:0000000000006a9e .LASF793
C:\Users\liukai\AppData\Local\Temp\ccWEnOCw.s:7229   .debug_macro:0000000000000000 .Ldebug_macro27
C:\Users\liukai\AppData\Local\Temp\ccWEnOCw.s:8335   .debug_str:0000000000000ebd .LASF804
C:\Users\liukai\AppData\Local\Temp\ccWEnOCw.s:8057   .debug_str:000000000000007f .LASF805
C:\Users\liukai\AppData\Local\Temp\ccWEnOCw.s:7264   .debug_macro:0000000000000000 .Ldebug_macro28
C:\Users\liukai\AppData\Local\Temp\ccWEnOCw.s:7275   .debug_macro:0000000000000000 .Ldebug_macro29
C:\Users\liukai\AppData\Local\Temp\ccWEnOCw.s:7310   .debug_macro:0000000000000000 .Ldebug_macro30
C:\Users\liukai\AppData\Local\Temp\ccWEnOCw.s:10485  .debug_str:0000000000008119 .LASF850
C:\Users\liukai\AppData\Local\Temp\ccWEnOCw.s:7411   .debug_macro:0000000000000000 .Ldebug_macro31
C:\Users\liukai\AppData\Local\Temp\ccWEnOCw.s:7428   .debug_macro:0000000000000000 .Ldebug_macro32
C:\Users\liukai\AppData\Local\Temp\ccWEnOCw.s:10457  .debug_str:0000000000007f61 .LASF864
C:\Users\liukai\AppData\Local\Temp\ccWEnOCw.s:8723   .debug_str:00000000000024f1 .LASF865
C:\Users\liukai\AppData\Local\Temp\ccWEnOCw.s:7460   .debug_macro:0000000000000000 .Ldebug_macro33
C:\Users\liukai\AppData\Local\Temp\ccWEnOCw.s:7474   .debug_macro:0000000000000000 .Ldebug_macro34
C:\Users\liukai\AppData\Local\Temp\ccWEnOCw.s:7644   .debug_macro:0000000000000000 .Ldebug_macro35
C:\Users\liukai\AppData\Local\Temp\ccWEnOCw.s:7664   .debug_macro:0000000000000000 .Ldebug_macro36
C:\Users\liukai\AppData\Local\Temp\ccWEnOCw.s:7741   .debug_macro:0000000000000000 .Ldebug_macro37
C:\Users\liukai\AppData\Local\Temp\ccWEnOCw.s:9547   .debug_str:0000000000004f09 .LASF0
C:\Users\liukai\AppData\Local\Temp\ccWEnOCw.s:9043   .debug_str:00000000000035a5 .LASF1
C:\Users\liukai\AppData\Local\Temp\ccWEnOCw.s:8197   .debug_str:00000000000007a3 .LASF2
C:\Users\liukai\AppData\Local\Temp\ccWEnOCw.s:8665   .debug_str:0000000000002102 .LASF3
C:\Users\liukai\AppData\Local\Temp\ccWEnOCw.s:9743   .debug_str:00000000000058f2 .LASF4
C:\Users\liukai\AppData\Local\Temp\ccWEnOCw.s:9111   .debug_str:0000000000003916 .LASF5
C:\Users\liukai\AppData\Local\Temp\ccWEnOCw.s:9991   .debug_str:0000000000006676 .LASF6
C:\Users\liukai\AppData\Local\Temp\ccWEnOCw.s:8623   .debug_str:0000000000001e92 .LASF7
C:\Users\liukai\AppData\Local\Temp\ccWEnOCw.s:9455   .debug_str:0000000000004aa9 .LASF8
C:\Users\liukai\AppData\Local\Temp\ccWEnOCw.s:10141  .debug_str:0000000000006f32 .LASF9
C:\Users\liukai\AppData\Local\Temp\ccWEnOCw.s:8685   .debug_str:000000000000224e .LASF10
C:\Users\liukai\AppData\Local\Temp\ccWEnOCw.s:9797   .debug_str:0000000000005baf .LASF11
C:\Users\liukai\AppData\Local\Temp\ccWEnOCw.s:9199   .debug_str:0000000000003dc7 .LASF12
C:\Users\liukai\AppData\Local\Temp\ccWEnOCw.s:10506  .debug_str:000000000000840f .LASF13
C:\Users\liukai\AppData\Local\Temp\ccWEnOCw.s:8131   .debug_str:00000000000003e6 .LASF14
C:\Users\liukai\AppData\Local\Temp\ccWEnOCw.s:9877   .debug_str:0000000000005fd5 .LASF15
C:\Users\liukai\AppData\Local\Temp\ccWEnOCw.s:10331  .debug_str:00000000000078e8 .LASF16
C:\Users\liukai\AppData\Local\Temp\ccWEnOCw.s:8653   .debug_str:0000000000002092 .LASF17
C:\Users\liukai\AppData\Local\Temp\ccWEnOCw.s:8153   .debug_str:000000000000053d .LASF18
C:\Users\liukai\AppData\Local\Temp\ccWEnOCw.s:8725   .debug_str:0000000000002501 .LASF19
C:\Users\liukai\AppData\Local\Temp\ccWEnOCw.s:10163  .debug_str:00000000000070bb .LASF20
C:\Users\liukai\AppData\Local\Temp\ccWEnOCw.s:8561   .debug_str:0000000000001ae3 .LASF21
C:\Users\liukai\AppData\Local\Temp\ccWEnOCw.s:10283  .debug_str:0000000000007694 .LASF22
C:\Users\liukai\AppData\Local\Temp\ccWEnOCw.s:10071  .debug_str:0000000000006aaf .LASF23
C:\Users\liukai\AppData\Local\Temp\ccWEnOCw.s:9509   .debug_str:0000000000004d0c .LASF24
C:\Users\liukai\AppData\Local\Temp\ccWEnOCw.s:8789   .debug_str:00000000000027d5 .LASF25
C:\Users\liukai\AppData\Local\Temp\ccWEnOCw.s:10253  .debug_str:0000000000007549 .LASF26
C:\Users\liukai\AppData\Local\Temp\ccWEnOCw.s:8337   .debug_str:0000000000000ecf .LASF27
C:\Users\liukai\AppData\Local\Temp\ccWEnOCw.s:8179   .debug_str:00000000000006a7 .LASF28
C:\Users\liukai\AppData\Local\Temp\ccWEnOCw.s:9421   .debug_str:0000000000004848 .LASF29
C:\Users\liukai\AppData\Local\Temp\ccWEnOCw.s:9559   .debug_str:0000000000004fb3 .LASF30
C:\Users\liukai\AppData\Local\Temp\ccWEnOCw.s:8499   .debug_str:00000000000017bb .LASF31
C:\Users\liukai\AppData\Local\Temp\ccWEnOCw.s:8181   .debug_str:00000000000006c1 .LASF32
C:\Users\liukai\AppData\Local\Temp\ccWEnOCw.s:9823   .debug_str:0000000000005d28 .LASF33
C:\Users\liukai\AppData\Local\Temp\ccWEnOCw.s:9425   .debug_str:0000000000004874 .LASF34
C:\Users\liukai\AppData\Local\Temp\ccWEnOCw.s:9443   .debug_str:00000000000049f0 .LASF35
C:\Users\liukai\AppData\Local\Temp\ccWEnOCw.s:10005  .debug_str:0000000000006756 .LASF36
C:\Users\liukai\AppData\Local\Temp\ccWEnOCw.s:9503   .debug_str:0000000000004cba .LASF37
C:\Users\liukai\AppData\Local\Temp\ccWEnOCw.s:9861   .debug_str:0000000000005ef2 .LASF38
C:\Users\liukai\AppData\Local\Temp\ccWEnOCw.s:8537   .debug_str:00000000000019bf .LASF39
C:\Users\liukai\AppData\Local\Temp\ccWEnOCw.s:9959   .debug_str:00000000000064e1 .LASF40
C:\Users\liukai\AppData\Local\Temp\ccWEnOCw.s:8933   .debug_str:0000000000002f76 .LASF41
C:\Users\liukai\AppData\Local\Temp\ccWEnOCw.s:8213   .debug_str:0000000000000817 .LASF42
C:\Users\liukai\AppData\Local\Temp\ccWEnOCw.s:10510  .debug_str:0000000000008442 .LASF43
C:\Users\liukai\AppData\Local\Temp\ccWEnOCw.s:9363   .debug_str:000000000000454a .LASF44
C:\Users\liukai\AppData\Local\Temp\ccWEnOCw.s:9561   .debug_str:0000000000004fe0 .LASF45
C:\Users\liukai\AppData\Local\Temp\ccWEnOCw.s:9113   .debug_str:0000000000003921 .LASF46
C:\Users\liukai\AppData\Local\Temp\ccWEnOCw.s:10295  .debug_str:000000000000772a .LASF47
C:\Users\liukai\AppData\Local\Temp\ccWEnOCw.s:8601   .debug_str:0000000000001d22 .LASF48
C:\Users\liukai\AppData\Local\Temp\ccWEnOCw.s:10508  .debug_str:0000000000008422 .LASF49
C:\Users\liukai\AppData\Local\Temp\ccWEnOCw.s:10397  .debug_str:0000000000007bed .LASF50
C:\Users\liukai\AppData\Local\Temp\ccWEnOCw.s:9779   .debug_str:0000000000005ac7 .LASF51
C:\Users\liukai\AppData\Local\Temp\ccWEnOCw.s:8383   .debug_str:00000000000010fc .LASF52
C:\Users\liukai\AppData\Local\Temp\ccWEnOCw.s:8445   .debug_str:0000000000001406 .LASF53
C:\Users\liukai\AppData\Local\Temp\ccWEnOCw.s:9855   .debug_str:0000000000005ea5 .LASF54
C:\Users\liukai\AppData\Local\Temp\ccWEnOCw.s:9997   .debug_str:00000000000066a9 .LASF55
C:\Users\liukai\AppData\Local\Temp\ccWEnOCw.s:9183   .debug_str:0000000000003cf9 .LASF56
C:\Users\liukai\AppData\Local\Temp\ccWEnOCw.s:8483   .debug_str:00000000000016cb .LASF57
C:\Users\liukai\AppData\Local\Temp\ccWEnOCw.s:9845   .debug_str:0000000000005e37 .LASF58
C:\Users\liukai\AppData\Local\Temp\ccWEnOCw.s:9211   .debug_str:0000000000003e41 .LASF59
C:\Users\liukai\AppData\Local\Temp\ccWEnOCw.s:8253   .debug_str:0000000000000ae4 .LASF60
C:\Users\liukai\AppData\Local\Temp\ccWEnOCw.s:9145   .debug_str:0000000000003a87 .LASF61
C:\Users\liukai\AppData\Local\Temp\ccWEnOCw.s:10363  .debug_str:0000000000007a5a .LASF62
C:\Users\liukai\AppData\Local\Temp\ccWEnOCw.s:9837   .debug_str:0000000000005dbb .LASF63
C:\Users\liukai\AppData\Local\Temp\ccWEnOCw.s:8773   .debug_str:000000000000271b .LASF64
C:\Users\liukai\AppData\Local\Temp\ccWEnOCw.s:10049  .debug_str:00000000000069a8 .LASF65
C:\Users\liukai\AppData\Local\Temp\ccWEnOCw.s:10053  .debug_str:00000000000069ce .LASF66
C:\Users\liukai\AppData\Local\Temp\ccWEnOCw.s:9067   .debug_str:000000000000371f .LASF67
C:\Users\liukai\AppData\Local\Temp\ccWEnOCw.s:8877   .debug_str:0000000000002cf5 .LASF68
C:\Users\liukai\AppData\Local\Temp\ccWEnOCw.s:8853   .debug_str:0000000000002b68 .LASF69
C:\Users\liukai\AppData\Local\Temp\ccWEnOCw.s:9519   .debug_str:0000000000004d8c .LASF70
C:\Users\liukai\AppData\Local\Temp\ccWEnOCw.s:9819   .debug_str:0000000000005cd2 .LASF71
C:\Users\liukai\AppData\Local\Temp\ccWEnOCw.s:10552  .debug_str:0000000000008664 .LASF72
C:\Users\liukai\AppData\Local\Temp\ccWEnOCw.s:10447  .debug_str:0000000000007eb6 .LASF73
C:\Users\liukai\AppData\Local\Temp\ccWEnOCw.s:9691   .debug_str:00000000000055ee .LASF74
C:\Users\liukai\AppData\Local\Temp\ccWEnOCw.s:8769   .debug_str:00000000000026f4 .LASF75
C:\Users\liukai\AppData\Local\Temp\ccWEnOCw.s:8935   .debug_str:0000000000002f90 .LASF76
C:\Users\liukai\AppData\Local\Temp\ccWEnOCw.s:9827   .debug_str:0000000000005d4e .LASF77
C:\Users\liukai\AppData\Local\Temp\ccWEnOCw.s:10377  .debug_str:0000000000007af0 .LASF78
C:\Users\liukai\AppData\Local\Temp\ccWEnOCw.s:8099   .debug_str:0000000000000253 .LASF79
C:\Users\liukai\AppData\Local\Temp\ccWEnOCw.s:10439  .debug_str:0000000000007e5d .LASF80
C:\Users\liukai\AppData\Local\Temp\ccWEnOCw.s:8391   .debug_str:0000000000001177 .LASF81
C:\Users\liukai\AppData\Local\Temp\ccWEnOCw.s:9579   .debug_str:000000000000508a .LASF82
C:\Users\liukai\AppData\Local\Temp\ccWEnOCw.s:10203  .debug_str:00000000000072eb .LASF83
C:\Users\liukai\AppData\Local\Temp\ccWEnOCw.s:9265   .debug_str:000000000000407f .LASF84
C:\Users\liukai\AppData\Local\Temp\ccWEnOCw.s:9315   .debug_str:000000000000430c .LASF85
C:\Users\liukai\AppData\Local\Temp\ccWEnOCw.s:10477  .debug_str:00000000000080c7 .LASF86
C:\Users\liukai\AppData\Local\Temp\ccWEnOCw.s:9361   .debug_str:0000000000004538 .LASF87
C:\Users\liukai\AppData\Local\Temp\ccWEnOCw.s:8365   .debug_str:0000000000001006 .LASF88
C:\Users\liukai\AppData\Local\Temp\ccWEnOCw.s:10371  .debug_str:0000000000007ab7 .LASF89
C:\Users\liukai\AppData\Local\Temp\ccWEnOCw.s:8109   .debug_str:00000000000002ca .LASF90
C:\Users\liukai\AppData\Local\Temp\ccWEnOCw.s:8089   .debug_str:0000000000000201 .LASF91
C:\Users\liukai\AppData\Local\Temp\ccWEnOCw.s:10540  .debug_str:00000000000085c8 .LASF92
C:\Users\liukai\AppData\Local\Temp\ccWEnOCw.s:8497   .debug_str:00000000000017a3 .LASF93
C:\Users\liukai\AppData\Local\Temp\ccWEnOCw.s:8173   .debug_str:0000000000000669 .LASF94
C:\Users\liukai\AppData\Local\Temp\ccWEnOCw.s:10149  .debug_str:0000000000006f9e .LASF95
C:\Users\liukai\AppData\Local\Temp\ccWEnOCw.s:8959   .debug_str:00000000000030dc .LASF96
C:\Users\liukai\AppData\Local\Temp\ccWEnOCw.s:10223  .debug_str:000000000000740c .LASF97
C:\Users\liukai\AppData\Local\Temp\ccWEnOCw.s:9089   .debug_str:0000000000003833 .LASF98
C:\Users\liukai\AppData\Local\Temp\ccWEnOCw.s:10193  .debug_str:000000000000721e .LASF99
C:\Users\liukai\AppData\Local\Temp\ccWEnOCw.s:9155   .debug_str:0000000000003b7f .LASF100
C:\Users\liukai\AppData\Local\Temp\ccWEnOCw.s:9235   .debug_str:0000000000003f58 .LASF101
C:\Users\liukai\AppData\Local\Temp\ccWEnOCw.s:8823   .debug_str:00000000000029c8 .LASF102
C:\Users\liukai\AppData\Local\Temp\ccWEnOCw.s:10554  .debug_str:000000000000867b .LASF103
C:\Users\liukai\AppData\Local\Temp\ccWEnOCw.s:9209   .debug_str:0000000000003e25 .LASF104
C:\Users\liukai\AppData\Local\Temp\ccWEnOCw.s:9031   .debug_str:0000000000003519 .LASF105
C:\Users\liukai\AppData\Local\Temp\ccWEnOCw.s:9049   .debug_str:0000000000003645 .LASF106
C:\Users\liukai\AppData\Local\Temp\ccWEnOCw.s:9713   .debug_str:0000000000005715 .LASF107
C:\Users\liukai\AppData\Local\Temp\ccWEnOCw.s:10393  .debug_str:0000000000007bba .LASF108
C:\Users\liukai\AppData\Local\Temp\ccWEnOCw.s:8857   .debug_str:0000000000002b8c .LASF109
C:\Users\liukai\AppData\Local\Temp\ccWEnOCw.s:10487  .debug_str:0000000000008130 .LASF110
C:\Users\liukai\AppData\Local\Temp\ccWEnOCw.s:8991   .debug_str:0000000000003265 .LASF111
C:\Users\liukai\AppData\Local\Temp\ccWEnOCw.s:9407   .debug_str:000000000000478d .LASF112
C:\Users\liukai\AppData\Local\Temp\ccWEnOCw.s:8333   .debug_str:0000000000000ea9 .LASF113
C:\Users\liukai\AppData\Local\Temp\ccWEnOCw.s:8563   .debug_str:0000000000001af7 .LASF114
C:\Users\liukai\AppData\Local\Temp\ccWEnOCw.s:9165   .debug_str:0000000000003bf4 .LASF115
C:\Users\liukai\AppData\Local\Temp\ccWEnOCw.s:10077  .debug_str:0000000000006af3 .LASF116
C:\Users\liukai\AppData\Local\Temp\ccWEnOCw.s:9079   .debug_str:00000000000037da .LASF117
C:\Users\liukai\AppData\Local\Temp\ccWEnOCw.s:8961   .debug_str:0000000000003109 .LASF118
C:\Users\liukai\AppData\Local\Temp\ccWEnOCw.s:8209   .debug_str:00000000000007fb .LASF119
C:\Users\liukai\AppData\Local\Temp\ccWEnOCw.s:8631   .debug_str:0000000000001f2d .LASF120
C:\Users\liukai\AppData\Local\Temp\ccWEnOCw.s:10117  .debug_str:0000000000006da1 .LASF121
C:\Users\liukai\AppData\Local\Temp\ccWEnOCw.s:9069   .debug_str:0000000000003747 .LASF122
C:\Users\liukai\AppData\Local\Temp\ccWEnOCw.s:8883   .debug_str:0000000000002d5d .LASF123
C:\Users\liukai\AppData\Local\Temp\ccWEnOCw.s:9791   .debug_str:0000000000005b40 .LASF124
C:\Users\liukai\AppData\Local\Temp\ccWEnOCw.s:9771   .debug_str:0000000000005a4e .LASF125
C:\Users\liukai\AppData\Local\Temp\ccWEnOCw.s:10261  .debug_str:00000000000075c8 .LASF126
C:\Users\liukai\AppData\Local\Temp\ccWEnOCw.s:9523   .debug_str:0000000000004db7 .LASF127
C:\Users\liukai\AppData\Local\Temp\ccWEnOCw.s:9879   .debug_str:0000000000005fec .LASF128
C:\Users\liukai\AppData\Local\Temp\ccWEnOCw.s:8395   .debug_str:0000000000001198 .LASF129
C:\Users\liukai\AppData\Local\Temp\ccWEnOCw.s:8683   .debug_str:0000000000002230 .LASF130
C:\Users\liukai\AppData\Local\Temp\ccWEnOCw.s:10273  .debug_str:0000000000007637 .LASF131
C:\Users\liukai\AppData\Local\Temp\ccWEnOCw.s:8469   .debug_str:0000000000001600 .LASF132
C:\Users\liukai\AppData\Local\Temp\ccWEnOCw.s:8319   .debug_str:0000000000000e28 .LASF133
C:\Users\liukai\AppData\Local\Temp\ccWEnOCw.s:8371   .debug_str:0000000000001080 .LASF134
C:\Users\liukai\AppData\Local\Temp\ccWEnOCw.s:8409   .debug_str:0000000000001252 .LASF135
C:\Users\liukai\AppData\Local\Temp\ccWEnOCw.s:8545   .debug_str:0000000000001a2c .LASF136
C:\Users\liukai\AppData\Local\Temp\ccWEnOCw.s:9795   .debug_str:0000000000005b85 .LASF137
C:\Users\liukai\AppData\Local\Temp\ccWEnOCw.s:8417   .debug_str:00000000000012c4 .LASF138
C:\Users\liukai\AppData\Local\Temp\ccWEnOCw.s:9331   .debug_str:00000000000043cf .LASF139
C:\Users\liukai\AppData\Local\Temp\ccWEnOCw.s:8285   .debug_str:0000000000000c96 .LASF140
C:\Users\liukai\AppData\Local\Temp\ccWEnOCw.s:9539   .debug_str:0000000000004eb5 .LASF141
C:\Users\liukai\AppData\Local\Temp\ccWEnOCw.s:9107   .debug_str:00000000000038d3 .LASF142
C:\Users\liukai\AppData\Local\Temp\ccWEnOCw.s:9513   .debug_str:0000000000004d2a .LASF143
C:\Users\liukai\AppData\Local\Temp\ccWEnOCw.s:9133   .debug_str:00000000000039f9 .LASF144
C:\Users\liukai\AppData\Local\Temp\ccWEnOCw.s:8995   .debug_str:0000000000003298 .LASF145
C:\Users\liukai\AppData\Local\Temp\ccWEnOCw.s:9293   .debug_str:0000000000004211 .LASF146
C:\Users\liukai\AppData\Local\Temp\ccWEnOCw.s:9205   .debug_str:0000000000003dfe .LASF147
C:\Users\liukai\AppData\Local\Temp\ccWEnOCw.s:9501   .debug_str:0000000000004cac .LASF148
C:\Users\liukai\AppData\Local\Temp\ccWEnOCw.s:9479   .debug_str:0000000000004b97 .LASF149
C:\Users\liukai\AppData\Local\Temp\ccWEnOCw.s:8589   .debug_str:0000000000001bf6 .LASF150
C:\Users\liukai\AppData\Local\Temp\ccWEnOCw.s:8549   .debug_str:0000000000001a55 .LASF151
C:\Users\liukai\AppData\Local\Temp\ccWEnOCw.s:8673   .debug_str:0000000000002179 .LASF152
C:\Users\liukai\AppData\Local\Temp\ccWEnOCw.s:8593   .debug_str:0000000000001c1c .LASF153
C:\Users\liukai\AppData\Local\Temp\ccWEnOCw.s:9517   .debug_str:0000000000004d55 .LASF154
C:\Users\liukai\AppData\Local\Temp\ccWEnOCw.s:10389  .debug_str:0000000000007b6a .LASF155
C:\Users\liukai\AppData\Local\Temp\ccWEnOCw.s:8827   .debug_str:00000000000029f0 .LASF156
C:\Users\liukai\AppData\Local\Temp\ccWEnOCw.s:9651   .debug_str:00000000000053ef .LASF157
C:\Users\liukai\AppData\Local\Temp\ccWEnOCw.s:8187   .debug_str:000000000000070b .LASF158
C:\Users\liukai\AppData\Local\Temp\ccWEnOCw.s:8691   .debug_str:00000000000022cb .LASF159
C:\Users\liukai\AppData\Local\Temp\ccWEnOCw.s:8621   .debug_str:0000000000001e7a .LASF160
C:\Users\liukai\AppData\Local\Temp\ccWEnOCw.s:10542  .debug_str:00000000000085ee .LASF161
C:\Users\liukai\AppData\Local\Temp\ccWEnOCw.s:10061  .debug_str:0000000000006a51 .LASF162
C:\Users\liukai\AppData\Local\Temp\ccWEnOCw.s:9723   .debug_str:000000000000580d .LASF163
C:\Users\liukai\AppData\Local\Temp\ccWEnOCw.s:10514  .debug_str:000000000000847f .LASF164
C:\Users\liukai\AppData\Local\Temp\ccWEnOCw.s:8711   .debug_str:0000000000002436 .LASF165
C:\Users\liukai\AppData\Local\Temp\ccWEnOCw.s:8157   .debug_str:0000000000000561 .LASF166
C:\Users\liukai\AppData\Local\Temp\ccWEnOCw.s:10171  .debug_str:000000000000710e .LASF167
C:\Users\liukai\AppData\Local\Temp\ccWEnOCw.s:8979   .debug_str:00000000000031d8 .LASF168
C:\Users\liukai\AppData\Local\Temp\ccWEnOCw.s:9975   .debug_str:000000000000658b .LASF169
C:\Users\liukai\AppData\Local\Temp\ccWEnOCw.s:9633   .debug_str:00000000000052f3 .LASF170
C:\Users\liukai\AppData\Local\Temp\ccWEnOCw.s:10518  .debug_str:00000000000084c0 .LASF171
C:\Users\liukai\AppData\Local\Temp\ccWEnOCw.s:8841   .debug_str:0000000000002aa5 .LASF172
C:\Users\liukai\AppData\Local\Temp\ccWEnOCw.s:10147  .debug_str:0000000000006f87 .LASF173
C:\Users\liukai\AppData\Local\Temp\ccWEnOCw.s:10021  .debug_str:0000000000006812 .LASF174
C:\Users\liukai\AppData\Local\Temp\ccWEnOCw.s:9665   .debug_str:00000000000054d6 .LASF175
C:\Users\liukai\AppData\Local\Temp\ccWEnOCw.s:10522  .debug_str:0000000000008511 .LASF176
C:\Users\liukai\AppData\Local\Temp\ccWEnOCw.s:8697   .debug_str:0000000000002315 .LASF177
C:\Users\liukai\AppData\Local\Temp\ccWEnOCw.s:9999   .debug_str:00000000000066d1 .LASF178
C:\Users\liukai\AppData\Local\Temp\ccWEnOCw.s:8721   .debug_str:00000000000024da .LASF179
C:\Users\liukai\AppData\Local\Temp\ccWEnOCw.s:8569   .debug_str:0000000000001b41 .LASF180
C:\Users\liukai\AppData\Local\Temp\ccWEnOCw.s:8231   .debug_str:00000000000009a3 .LASF181
C:\Users\liukai\AppData\Local\Temp\ccWEnOCw.s:8047   .debug_str:0000000000000017 .LASF182
C:\Users\liukai\AppData\Local\Temp\ccWEnOCw.s:9761   .debug_str:0000000000005994 .LASF183
C:\Users\liukai\AppData\Local\Temp\ccWEnOCw.s:10361  .debug_str:0000000000007a20 .LASF184
C:\Users\liukai\AppData\Local\Temp\ccWEnOCw.s:10449  .debug_str:0000000000007ecf .LASF185
C:\Users\liukai\AppData\Local\Temp\ccWEnOCw.s:8525   .debug_str:00000000000018c4 .LASF186
C:\Users\liukai\AppData\Local\Temp\ccWEnOCw.s:9757   .debug_str:0000000000005977 .LASF187
C:\Users\liukai\AppData\Local\Temp\ccWEnOCw.s:8943   .debug_str:0000000000003019 .LASF188
C:\Users\liukai\AppData\Local\Temp\ccWEnOCw.s:9309   .debug_str:00000000000042cb .LASF189
C:\Users\liukai\AppData\Local\Temp\ccWEnOCw.s:9175   .debug_str:0000000000003c79 .LASF190
C:\Users\liukai\AppData\Local\Temp\ccWEnOCw.s:9739   .debug_str:00000000000058dc .LASF191
C:\Users\liukai\AppData\Local\Temp\ccWEnOCw.s:8291   .debug_str:0000000000000cda .LASF192
C:\Users\liukai\AppData\Local\Temp\ccWEnOCw.s:9637   .debug_str:0000000000005342 .LASF193
C:\Users\liukai\AppData\Local\Temp\ccWEnOCw.s:8517   .debug_str:0000000000001886 .LASF194
C:\Users\liukai\AppData\Local\Temp\ccWEnOCw.s:8271   .debug_str:0000000000000be6 .LASF195
C:\Users\liukai\AppData\Local\Temp\ccWEnOCw.s:8193   .debug_str:0000000000000771 .LASF196
C:\Users\liukai\AppData\Local\Temp\ccWEnOCw.s:9717   .debug_str:0000000000005780 .LASF197
C:\Users\liukai\AppData\Local\Temp\ccWEnOCw.s:8265   .debug_str:0000000000000b61 .LASF198
C:\Users\liukai\AppData\Local\Temp\ccWEnOCw.s:8669   .debug_str:000000000000211b .LASF199
C:\Users\liukai\AppData\Local\Temp\ccWEnOCw.s:8609   .debug_str:0000000000001d87 .LASF200
C:\Users\liukai\AppData\Local\Temp\ccWEnOCw.s:10263  .debug_str:00000000000075e5 .LASF201
C:\Users\liukai\AppData\Local\Temp\ccWEnOCw.s:9295   .debug_str:0000000000004221 .LASF202
C:\Users\liukai\AppData\Local\Temp\ccWEnOCw.s:8937   .debug_str:0000000000002fb3 .LASF203
C:\Users\liukai\AppData\Local\Temp\ccWEnOCw.s:10151  .debug_str:0000000000006fbc .LASF204
C:\Users\liukai\AppData\Local\Temp\ccWEnOCw.s:10383  .debug_str:0000000000007b2a .LASF205
C:\Users\liukai\AppData\Local\Temp\ccWEnOCw.s:8363   .debug_str:0000000000000fec .LASF206
C:\Users\liukai\AppData\Local\Temp\ccWEnOCw.s:8311   .debug_str:0000000000000dde .LASF207
C:\Users\liukai\AppData\Local\Temp\ccWEnOCw.s:9341   .debug_str:000000000000444f .LASF208
C:\Users\liukai\AppData\Local\Temp\ccWEnOCw.s:8651   .debug_str:0000000000002079 .LASF209
C:\Users\liukai\AppData\Local\Temp\ccWEnOCw.s:8119   .debug_str:000000000000034c .LASF210
C:\Users\liukai\AppData\Local\Temp\ccWEnOCw.s:9803   .debug_str:0000000000005c0d .LASF211
C:\Users\liukai\AppData\Local\Temp\ccWEnOCw.s:9227   .debug_str:0000000000003ee8 .LASF212
C:\Users\liukai\AppData\Local\Temp\ccWEnOCw.s:10081  .debug_str:0000000000006b1e .LASF213
C:\Users\liukai\AppData\Local\Temp\ccWEnOCw.s:10431  .debug_str:0000000000007dc1 .LASF214
C:\Users\liukai\AppData\Local\Temp\ccWEnOCw.s:9499   .debug_str:0000000000004c95 .LASF215
C:\Users\liukai\AppData\Local\Temp\ccWEnOCw.s:9461   .debug_str:0000000000004ad7 .LASF216
C:\Users\liukai\AppData\Local\Temp\ccWEnOCw.s:9481   .debug_str:0000000000004bae .LASF217
C:\Users\liukai\AppData\Local\Temp\ccWEnOCw.s:10211  .debug_str:0000000000007350 .LASF218
C:\Users\liukai\AppData\Local\Temp\ccWEnOCw.s:9711   .debug_str:0000000000005703 .LASF219
C:\Users\liukai\AppData\Local\Temp\ccWEnOCw.s:8491   .debug_str:0000000000001724 .LASF220
C:\Users\liukai\AppData\Local\Temp\ccWEnOCw.s:8061   .debug_str:000000000000009c .LASF221
C:\Users\liukai\AppData\Local\Temp\ccWEnOCw.s:8861   .debug_str:0000000000002beb .LASF222
C:\Users\liukai\AppData\Local\Temp\ccWEnOCw.s:9537   .debug_str:0000000000004e9a .LASF223
C:\Users\liukai\AppData\Local\Temp\ccWEnOCw.s:8085   .debug_str:00000000000001dc .LASF224
C:\Users\liukai\AppData\Local\Temp\ccWEnOCw.s:10293  .debug_str:00000000000076eb .LASF225
C:\Users\liukai\AppData\Local\Temp\ccWEnOCw.s:8751   .debug_str:00000000000025f7 .LASF226
C:\Users\liukai\AppData\Local\Temp\ccWEnOCw.s:9527   .debug_str:0000000000004dda .LASF227
C:\Users\liukai\AppData\Local\Temp\ccWEnOCw.s:10043  .debug_str:0000000000006947 .LASF228
C:\Users\liukai\AppData\Local\Temp\ccWEnOCw.s:9261   .debug_str:0000000000004059 .LASF229
C:\Users\liukai\AppData\Local\Temp\ccWEnOCw.s:9793   .debug_str:0000000000005b6b .LASF230
C:\Users\liukai\AppData\Local\Temp\ccWEnOCw.s:8217   .debug_str:0000000000000847 .LASF231
C:\Users\liukai\AppData\Local\Temp\ccWEnOCw.s:10475  .debug_str:00000000000080b0 .LASF232
C:\Users\liukai\AppData\Local\Temp\ccWEnOCw.s:9867   .debug_str:0000000000005f55 .LASF233
C:\Users\liukai\AppData\Local\Temp\ccWEnOCw.s:9599   .debug_str:000000000000517f .LASF234
C:\Users\liukai\AppData\Local\Temp\ccWEnOCw.s:9241   .debug_str:0000000000003fa1 .LASF235
C:\Users\liukai\AppData\Local\Temp\ccWEnOCw.s:9065   .debug_str:0000000000003707 .LASF236
C:\Users\liukai\AppData\Local\Temp\ccWEnOCw.s:8947   .debug_str:0000000000003047 .LASF237
C:\Users\liukai\AppData\Local\Temp\ccWEnOCw.s:8471   .debug_str:0000000000001628 .LASF238
C:\Users\liukai\AppData\Local\Temp\ccWEnOCw.s:9497   .debug_str:0000000000004c57 .LASF239
C:\Users\liukai\AppData\Local\Temp\ccWEnOCw.s:9765   .debug_str:00000000000059f9 .LASF240
C:\Users\liukai\AppData\Local\Temp\ccWEnOCw.s:10011  .debug_str:0000000000006797 .LASF241
C:\Users\liukai\AppData\Local\Temp\ccWEnOCw.s:8649   .debug_str:0000000000002034 .LASF242
C:\Users\liukai\AppData\Local\Temp\ccWEnOCw.s:9203   .debug_str:0000000000003de6 .LASF243
C:\Users\liukai\AppData\Local\Temp\ccWEnOCw.s:8437   .debug_str:000000000000137c .LASF244
C:\Users\liukai\AppData\Local\Temp\ccWEnOCw.s:8475   .debug_str:000000000000164c .LASF245
C:\Users\liukai\AppData\Local\Temp\ccWEnOCw.s:9187   .debug_str:0000000000003d34 .LASF246
C:\Users\liukai\AppData\Local\Temp\ccWEnOCw.s:9431   .debug_str:00000000000048c7 .LASF247
C:\Users\liukai\AppData\Local\Temp\ccWEnOCw.s:9737   .debug_str:00000000000058c0 .LASF248
C:\Users\liukai\AppData\Local\Temp\ccWEnOCw.s:9121   .debug_str:0000000000003992 .LASF249
C:\Users\liukai\AppData\Local\Temp\ccWEnOCw.s:10137  .debug_str:0000000000006f05 .LASF250
C:\Users\liukai\AppData\Local\Temp\ccWEnOCw.s:8329   .debug_str:0000000000000e85 .LASF251
C:\Users\liukai\AppData\Local\Temp\ccWEnOCw.s:8195   .debug_str:0000000000000789 .LASF252
C:\Users\liukai\AppData\Local\Temp\ccWEnOCw.s:9683   .debug_str:0000000000005579 .LASF253
C:\Users\liukai\AppData\Local\Temp\ccWEnOCw.s:9979   .debug_str:00000000000065e0 .LASF254
C:\Users\liukai\AppData\Local\Temp\ccWEnOCw.s:8143   .debug_str:0000000000000483 .LASF255
C:\Users\liukai\AppData\Local\Temp\ccWEnOCw.s:9721   .debug_str:00000000000057c7 .LASF256
C:\Users\liukai\AppData\Local\Temp\ccWEnOCw.s:8509   .debug_str:000000000000183b .LASF257
C:\Users\liukai\AppData\Local\Temp\ccWEnOCw.s:8973   .debug_str:000000000000318a .LASF258
C:\Users\liukai\AppData\Local\Temp\ccWEnOCw.s:9709   .debug_str:00000000000056e8 .LASF259
C:\Users\liukai\AppData\Local\Temp\ccWEnOCw.s:9653   .debug_str:000000000000542d .LASF260
C:\Users\liukai\AppData\Local\Temp\ccWEnOCw.s:8801   .debug_str:000000000000287c .LASF261
C:\Users\liukai\AppData\Local\Temp\ccWEnOCw.s:9129   .debug_str:00000000000039da .LASF262
C:\Users\liukai\AppData\Local\Temp\ccWEnOCw.s:8171   .debug_str:0000000000000653 .LASF263
C:\Users\liukai\AppData\Local\Temp\ccWEnOCw.s:8425   .debug_str:000000000000130b .LASF264
C:\Users\liukai\AppData\Local\Temp\ccWEnOCw.s:8375   .debug_str:00000000000010a9 .LASF265
C:\Users\liukai\AppData\Local\Temp\ccWEnOCw.s:8113   .debug_str:00000000000002fe .LASF266
C:\Users\liukai\AppData\Local\Temp\ccWEnOCw.s:9811   .debug_str:0000000000005c76 .LASF267
C:\Users\liukai\AppData\Local\Temp\ccWEnOCw.s:8965   .debug_str:0000000000003140 .LASF268
C:\Users\liukai\AppData\Local\Temp\ccWEnOCw.s:8183   .debug_str:00000000000006dc .LASF269
C:\Users\liukai\AppData\Local\Temp\ccWEnOCw.s:10167  .debug_str:00000000000070e6 .LASF270
C:\Users\liukai\AppData\Local\Temp\ccWEnOCw.s:8579   .debug_str:0000000000001b93 .LASF271
C:\Users\liukai\AppData\Local\Temp\ccWEnOCw.s:10385  .debug_str:0000000000007b3b .LASF272
C:\Users\liukai\AppData\Local\Temp\ccWEnOCw.s:9007   .debug_str:0000000000003349 .LASF273
C:\Users\liukai\AppData\Local\Temp\ccWEnOCw.s:9585   .debug_str:0000000000005116 .LASF274
C:\Users\liukai\AppData\Local\Temp\ccWEnOCw.s:8481   .debug_str:00000000000016b0 .LASF275
C:\Users\liukai\AppData\Local\Temp\ccWEnOCw.s:8679   .debug_str:00000000000021da .LASF276
C:\Users\liukai\AppData\Local\Temp\ccWEnOCw.s:10075  .debug_str:0000000000006ada .LASF277
C:\Users\liukai\AppData\Local\Temp\ccWEnOCw.s:8677   .debug_str:00000000000021a0 .LASF278
C:\Users\liukai\AppData\Local\Temp\ccWEnOCw.s:8063   .debug_str:00000000000000ba .LASF279
C:\Users\liukai\AppData\Local\Temp\ccWEnOCw.s:10059  .debug_str:0000000000006a0c .LASF280
C:\Users\liukai\AppData\Local\Temp\ccWEnOCw.s:10057  .debug_str:00000000000069f7 .LASF281
C:\Users\liukai\AppData\Local\Temp\ccWEnOCw.s:9439   .debug_str:0000000000004909 .LASF282
C:\Users\liukai\AppData\Local\Temp\ccWEnOCw.s:10365  .debug_str:0000000000007a7c .LASF283
C:\Users\liukai\AppData\Local\Temp\ccWEnOCw.s:8343   .debug_str:0000000000000f17 .LASF284
C:\Users\liukai\AppData\Local\Temp\ccWEnOCw.s:8075   .debug_str:000000000000015f .LASF285
C:\Users\liukai\AppData\Local\Temp\ccWEnOCw.s:8505   .debug_str:0000000000001808 .LASF286
C:\Users\liukai\AppData\Local\Temp\ccWEnOCw.s:9603   .debug_str:00000000000051ae .LASF287
C:\Users\liukai\AppData\Local\Temp\ccWEnOCw.s:9189   .debug_str:0000000000003d4c .LASF288
C:\Users\liukai\AppData\Local\Temp\ccWEnOCw.s:8625   .debug_str:0000000000001ea8 .LASF289
C:\Users\liukai\AppData\Local\Temp\ccWEnOCw.s:8069   .debug_str:00000000000000f6 .LASF290
C:\Users\liukai\AppData\Local\Temp\ccWEnOCw.s:8893   .debug_str:0000000000002db2 .LASF291
C:\Users\liukai\AppData\Local\Temp\ccWEnOCw.s:10007  .debug_str:0000000000006774 .LASF292
C:\Users\liukai\AppData\Local\Temp\ccWEnOCw.s:8963   .debug_str:0000000000003122 .LASF293
C:\Users\liukai\AppData\Local\Temp\ccWEnOCw.s:9333   .debug_str:00000000000043e3 .LASF294
C:\Users\liukai\AppData\Local\Temp\ccWEnOCw.s:10219  .debug_str:00000000000073de .LASF295
C:\Users\liukai\AppData\Local\Temp\ccWEnOCw.s:8403   .debug_str:0000000000001210 .LASF296
C:\Users\liukai\AppData\Local\Temp\ccWEnOCw.s:9097   .debug_str:0000000000003885 .LASF297
C:\Users\liukai\AppData\Local\Temp\ccWEnOCw.s:8753   .debug_str:0000000000002636 .LASF298
C:\Users\liukai\AppData\Local\Temp\ccWEnOCw.s:9369   .debug_str:0000000000004588 .LASF299
C:\Users\liukai\AppData\Local\Temp\ccWEnOCw.s:10247  .debug_str:000000000000751c .LASF300
C:\Users\liukai\AppData\Local\Temp\ccWEnOCw.s:9545   .debug_str:0000000000004ef2 .LASF301
C:\Users\liukai\AppData\Local\Temp\ccWEnOCw.s:8059   .debug_str:0000000000000092 .LASF302
C:\Users\liukai\AppData\Local\Temp\ccWEnOCw.s:10421  .debug_str:0000000000007d0d .LASF303
C:\Users\liukai\AppData\Local\Temp\ccWEnOCw.s:8629   .debug_str:0000000000001f1f .LASF304
C:\Users\liukai\AppData\Local\Temp\ccWEnOCw.s:8583   .debug_str:0000000000001bc6 .LASF305
C:\Users\liukai\AppData\Local\Temp\ccWEnOCw.s:8135   .debug_str:000000000000041f .LASF306
C:\Users\liukai\AppData\Local\Temp\ccWEnOCw.s:9893   .debug_str:0000000000006071 .LASF307
C:\Users\liukai\AppData\Local\Temp\ccWEnOCw.s:9891   .debug_str:0000000000006058 .LASF308
C:\Users\liukai\AppData\Local\Temp\ccWEnOCw.s:8357   .debug_str:0000000000000f9e .LASF309
C:\Users\liukai\AppData\Local\Temp\ccWEnOCw.s:8081   .debug_str:00000000000001a2 .LASF310
C:\Users\liukai\AppData\Local\Temp\ccWEnOCw.s:8245   .debug_str:0000000000000a65 .LASF312
C:\Users\liukai\AppData\Local\Temp\ccWEnOCw.s:9847   .debug_str:0000000000005e4f .LASF313
C:\Users\liukai\AppData\Local\Temp\ccWEnOCw.s:10403  .debug_str:0000000000007c6c .LASF314
C:\Users\liukai\AppData\Local\Temp\ccWEnOCw.s:8587   .debug_str:0000000000001bea .LASF315
C:\Users\liukai\AppData\Local\Temp\ccWEnOCw.s:8585   .debug_str:0000000000001bd4 .LASF316
C:\Users\liukai\AppData\Local\Temp\ccWEnOCw.s:9279   .debug_str:0000000000004181 .LASF321
C:\Users\liukai\AppData\Local\Temp\ccWEnOCw.s:9001   .debug_str:00000000000032f0 .LASF322
C:\Users\liukai\AppData\Local\Temp\ccWEnOCw.s:8581   .debug_str:0000000000001bb9 .LASF323
C:\Users\liukai\AppData\Local\Temp\ccWEnOCw.s:9475   .debug_str:0000000000004b7c .LASF324
C:\Users\liukai\AppData\Local\Temp\ccWEnOCw.s:9799   .debug_str:0000000000005bc2 .LASF325
C:\Users\liukai\AppData\Local\Temp\ccWEnOCw.s:8453   .debug_str:00000000000014fa .LASF326
C:\Users\liukai\AppData\Local\Temp\ccWEnOCw.s:10227  .debug_str:000000000000743b .LASF327
C:\Users\liukai\AppData\Local\Temp\ccWEnOCw.s:10307  .debug_str:00000000000077b6 .LASF328
C:\Users\liukai\AppData\Local\Temp\ccWEnOCw.s:9173   .debug_str:0000000000003c67 .LASF329
C:\Users\liukai\AppData\Local\Temp\ccWEnOCw.s:9115   .debug_str:0000000000003944 .LASF330
C:\Users\liukai\AppData\Local\Temp\ccWEnOCw.s:10359  .debug_str:0000000000007a10 .LASF331
C:\Users\liukai\AppData\Local\Temp\ccWEnOCw.s:10538  .debug_str:00000000000085b8 .LASF332
C:\Users\liukai\AppData\Local\Temp\ccWEnOCw.s:8541   .debug_str:00000000000019f1 .LASF333
C:\Users\liukai\AppData\Local\Temp\ccWEnOCw.s:9039   .debug_str:000000000000356d .LASF334
C:\Users\liukai\AppData\Local\Temp\ccWEnOCw.s:9413   .debug_str:00000000000047e7 .LASF335
C:\Users\liukai\AppData\Local\Temp\ccWEnOCw.s:9605   .debug_str:00000000000051cc .LASF336
C:\Users\liukai\AppData\Local\Temp\ccWEnOCw.s:9375   .debug_str:00000000000045c1 .LASF337
C:\Users\liukai\AppData\Local\Temp\ccWEnOCw.s:9829   .debug_str:0000000000005d67 .LASF338
C:\Users\liukai\AppData\Local\Temp\ccWEnOCw.s:9643   .debug_str:0000000000005394 .LASF339
C:\Users\liukai\AppData\Local\Temp\ccWEnOCw.s:10181  .debug_str:0000000000007190 .LASF340
C:\Users\liukai\AppData\Local\Temp\ccWEnOCw.s:8931   .debug_str:0000000000002f65 .LASF341
C:\Users\liukai\AppData\Local\Temp\ccWEnOCw.s:8167   .debug_str:00000000000005d9 .LASF342
C:\Users\liukai\AppData\Local\Temp\ccWEnOCw.s:8055   .debug_str:000000000000006e .LASF343
C:\Users\liukai\AppData\Local\Temp\ccWEnOCw.s:10209  .debug_str:0000000000007340 .LASF344
C:\Users\liukai\AppData\Local\Temp\ccWEnOCw.s:9223   .debug_str:0000000000003eca .LASF345
C:\Users\liukai\AppData\Local\Temp\ccWEnOCw.s:9417   .debug_str:0000000000004814 .LASF346
C:\Users\liukai\AppData\Local\Temp\ccWEnOCw.s:9881   .debug_str:000000000000600a .LASF347
C:\Users\liukai\AppData\Local\Temp\ccWEnOCw.s:10175  .debug_str:000000000000712d .LASF348
C:\Users\liukai\AppData\Local\Temp\ccWEnOCw.s:9099   .debug_str:00000000000038a1 .LASF349
C:\Users\liukai\AppData\Local\Temp\ccWEnOCw.s:8825   .debug_str:00000000000029db .LASF350
C:\Users\liukai\AppData\Local\Temp\ccWEnOCw.s:9353   .debug_str:00000000000044e3 .LASF351
C:\Users\liukai\AppData\Local\Temp\ccWEnOCw.s:8507   .debug_str:0000000000001826 .LASF352
C:\Users\liukai\AppData\Local\Temp\ccWEnOCw.s:9553   .debug_str:0000000000004f7d .LASF353
C:\Users\liukai\AppData\Local\Temp\ccWEnOCw.s:8479   .debug_str:0000000000001695 .LASF354
C:\Users\liukai\AppData\Local\Temp\ccWEnOCw.s:9019   .debug_str:000000000000348b .LASF355
C:\Users\liukai\AppData\Local\Temp\ccWEnOCw.s:9395   .debug_str:000000000000473e .LASF356
C:\Users\liukai\AppData\Local\Temp\ccWEnOCw.s:8389   .debug_str:0000000000001171 .LASF357
C:\Users\liukai\AppData\Local\Temp\ccWEnOCw.s:10345  .debug_str:000000000000796f .LASF358
C:\Users\liukai\AppData\Local\Temp\ccWEnOCw.s:9415   .debug_str:00000000000047f8 .LASF359
C:\Users\liukai\AppData\Local\Temp\ccWEnOCw.s:9105   .debug_str:00000000000038cc .LASF360
C:\Users\liukai\AppData\Local\Temp\ccWEnOCw.s:10097  .debug_str:0000000000006cb9 .LASF361
C:\Users\liukai\AppData\Local\Temp\ccWEnOCw.s:10009  .debug_str:0000000000006791 .LASF363
C:\Users\liukai\AppData\Local\Temp\ccWEnOCw.s:10524  .debug_str:0000000000008521 .LASF364
C:\Users\liukai\AppData\Local\Temp\ccWEnOCw.s:9697   .debug_str:0000000000005637 .LASF365
C:\Users\liukai\AppData\Local\Temp\ccWEnOCw.s:10259  .debug_str:00000000000075be .LASF366
C:\Users\liukai\AppData\Local\Temp\ccWEnOCw.s:9201   .debug_str:0000000000003dda .LASF367
C:\Users\liukai\AppData\Local\Temp\ccWEnOCw.s:10047  .debug_str:00000000000069a0 .LASF368
C:\Users\liukai\AppData\Local\Temp\ccWEnOCw.s:10491  .debug_str:0000000000008147 .LASF369
C:\Users\liukai\AppData\Local\Temp\ccWEnOCw.s:9229   .debug_str:0000000000003f24 .LASF370
C:\Users\liukai\AppData\Local\Temp\ccWEnOCw.s:9137   .debug_str:0000000000003a22 .LASF371
C:\Users\liukai\AppData\Local\Temp\ccWEnOCw.s:10455  .debug_str:0000000000007f59 .LASF372
C:\Users\liukai\AppData\Local\Temp\ccWEnOCw.s:9063   .debug_str:00000000000036f7 .LASF373
C:\Users\liukai\AppData\Local\Temp\ccWEnOCw.s:10433  .debug_str:0000000000007e04 .LASF374
C:\Users\liukai\AppData\Local\Temp\ccWEnOCw.s:8229   .debug_str:0000000000000997 .LASF375
C:\Users\liukai\AppData\Local\Temp\ccWEnOCw.s:9525   .debug_str:0000000000004dce .LASF376
C:\Users\liukai\AppData\Local\Temp\ccWEnOCw.s:10289  .debug_str:00000000000076cb .LASF377
C:\Users\liukai\AppData\Local\Temp\ccWEnOCw.s:8401   .debug_str:0000000000001203 .LASF378
C:\Users\liukai\AppData\Local\Temp\ccWEnOCw.s:10205  .debug_str:00000000000072fc .LASF379
C:\Users\liukai\AppData\Local\Temp\ccWEnOCw.s:8573   .debug_str:0000000000001b6f .LASF380
C:\Users\liukai\AppData\Local\Temp\ccWEnOCw.s:10221  .debug_str:0000000000007402 .LASF381
C:\Users\liukai\AppData\Local\Temp\ccWEnOCw.s:9197   .debug_str:0000000000003db9 .LASF382
C:\Users\liukai\AppData\Local\Temp\ccWEnOCw.s:8863   .debug_str:0000000000002c04 .LASF383
C:\Users\liukai\AppData\Local\Temp\ccWEnOCw.s:10125  .debug_str:0000000000006e26 .LASF384
C:\Users\liukai\AppData\Local\Temp\ccWEnOCw.s:8399   .debug_str:00000000000011f5 .LASF385
C:\Users\liukai\AppData\Local\Temp\ccWEnOCw.s:9669   .debug_str:000000000000551a .LASF386
C:\Users\liukai\AppData\Local\Temp\ccWEnOCw.s:8359   .debug_str:0000000000000fb6 .LASF387
C:\Users\liukai\AppData\Local\Temp\ccWEnOCw.s:10329  .debug_str:00000000000078d6 .LASF388
C:\Users\liukai\AppData\Local\Temp\ccWEnOCw.s:8597   .debug_str:0000000000001c3f .LASF389
C:\Users\liukai\AppData\Local\Temp\ccWEnOCw.s:8839   .debug_str:0000000000002a92 .LASF390
C:\Users\liukai\AppData\Local\Temp\ccWEnOCw.s:8981   .debug_str:000000000000321a .LASF391
C:\Users\liukai\AppData\Local\Temp\ccWEnOCw.s:10063  .debug_str:0000000000006a60 .LASF392
C:\Users\liukai\AppData\Local\Temp\ccWEnOCw.s:9239   .debug_str:0000000000003f8d .LASF393
C:\Users\liukai\AppData\Local\Temp\ccWEnOCw.s:9221   .debug_str:0000000000003eb7 .LASF394
C:\Users\liukai\AppData\Local\Temp\ccWEnOCw.s:8105   .debug_str:00000000000002b0 .LASF395
C:\Users\liukai\AppData\Local\Temp\ccWEnOCw.s:8463   .debug_str:00000000000015c6 .LASF396
C:\Users\liukai\AppData\Local\Temp\ccWEnOCw.s:10479  .debug_str:00000000000080da .LASF397
C:\Users\liukai\AppData\Local\Temp\ccWEnOCw.s:8533   .debug_str:0000000000001999 .LASF398
C:\Users\liukai\AppData\Local\Temp\ccWEnOCw.s:10191  .debug_str:000000000000720a .LASF399
C:\Users\liukai\AppData\Local\Temp\ccWEnOCw.s:9859   .debug_str:0000000000005ede .LASF400
C:\Users\liukai\AppData\Local\Temp\ccWEnOCw.s:9849   .debug_str:0000000000005e5c .LASF401
C:\Users\liukai\AppData\Local\Temp\ccWEnOCw.s:8431   .debug_str:000000000000133d .LASF402
C:\Users\liukai\AppData\Local\Temp\ccWEnOCw.s:9899   .debug_str:00000000000060b1 .LASF403
C:\Users\liukai\AppData\Local\Temp\ccWEnOCw.s:10453  .debug_str:0000000000007f40 .LASF404
C:\Users\liukai\AppData\Local\Temp\ccWEnOCw.s:8905   .debug_str:0000000000002e28 .LASF405
C:\Users\liukai\AppData\Local\Temp\ccWEnOCw.s:9027   .debug_str:00000000000034f6 .LASF406
C:\Users\liukai\AppData\Local\Temp\ccWEnOCw.s:8993   .debug_str:000000000000327e .LASF407
C:\Users\liukai\AppData\Local\Temp\ccWEnOCw.s:9567   .debug_str:000000000000501d .LASF408
C:\Users\liukai\AppData\Local\Temp\ccWEnOCw.s:9449   .debug_str:0000000000004a4b .LASF409
C:\Users\liukai\AppData\Local\Temp\ccWEnOCw.s:8317   .debug_str:0000000000000e0f .LASF410
C:\Users\liukai\AppData\Local\Temp\ccWEnOCw.s:8717   .debug_str:00000000000024b5 .LASF411
C:\Users\liukai\AppData\Local\Temp\ccWEnOCw.s:10532  .debug_str:000000000000856d .LASF412
C:\Users\liukai\AppData\Local\Temp\ccWEnOCw.s:10129  .debug_str:0000000000006e93 .LASF413
C:\Users\liukai\AppData\Local\Temp\ccWEnOCw.s:8515   .debug_str:0000000000001868 .LASF414
C:\Users\liukai\AppData\Local\Temp\ccWEnOCw.s:8345   .debug_str:0000000000000f27 .LASF415
C:\Users\liukai\AppData\Local\Temp\ccWEnOCw.s:8257   .debug_str:0000000000000b1e .LASF416
C:\Users\liukai\AppData\Local\Temp\ccWEnOCw.s:10445  .debug_str:0000000000007e9c .LASF417
C:\Users\liukai\AppData\Local\Temp\ccWEnOCw.s:8103   .debug_str:0000000000000287 .LASF418
C:\Users\liukai\AppData\Local\Temp\ccWEnOCw.s:8385   .debug_str:000000000000111f .LASF419
C:\Users\liukai\AppData\Local\Temp\ccWEnOCw.s:9989   .debug_str:0000000000006650 .LASF420
C:\Users\liukai\AppData\Local\Temp\ccWEnOCw.s:9645   .debug_str:00000000000053a9 .LASF421
C:\Users\liukai\AppData\Local\Temp\ccWEnOCw.s:8305   .debug_str:0000000000000d84 .LASF422
C:\Users\liukai\AppData\Local\Temp\ccWEnOCw.s:9367   .debug_str:000000000000456c .LASF423
C:\Users\liukai\AppData\Local\Temp\ccWEnOCw.s:9377   .debug_str:00000000000045d1 .LASF424
C:\Users\liukai\AppData\Local\Temp\ccWEnOCw.s:8233   .debug_str:00000000000009b6 .LASF425
C:\Users\liukai\AppData\Local\Temp\ccWEnOCw.s:8881   .debug_str:0000000000002d35 .LASF426
C:\Users\liukai\AppData\Local\Temp\ccWEnOCw.s:9055   .debug_str:00000000000036a2 .LASF427
C:\Users\liukai\AppData\Local\Temp\ccWEnOCw.s:8851   .debug_str:0000000000002b4e .LASF428
C:\Users\liukai\AppData\Local\Temp\ccWEnOCw.s:9301   .debug_str:0000000000004284 .LASF429
C:\Users\liukai\AppData\Local\Temp\ccWEnOCw.s:8913   .debug_str:0000000000002eaa .LASF430
C:\Users\liukai\AppData\Local\Temp\ccWEnOCw.s:8909   .debug_str:0000000000002e4c .LASF431
C:\Users\liukai\AppData\Local\Temp\ccWEnOCw.s:10037  .debug_str:00000000000068e5 .LASF432
C:\Users\liukai\AppData\Local\Temp\ccWEnOCw.s:10135  .debug_str:0000000000006ee6 .LASF433
C:\Users\liukai\AppData\Local\Temp\ccWEnOCw.s:9467   .debug_str:0000000000004b27 .LASF434
C:\Users\liukai\AppData\Local\Temp\ccWEnOCw.s:9469   .debug_str:0000000000004b41 .LASF435
C:\Users\liukai\AppData\Local\Temp\ccWEnOCw.s:8411   .debug_str:0000000000001272 .LASF436
C:\Users\liukai\AppData\Local\Temp\ccWEnOCw.s:8361   .debug_str:0000000000000fc6 .LASF437
C:\Users\liukai\AppData\Local\Temp\ccWEnOCw.s:9815   .debug_str:0000000000005ca3 .LASF438
C:\Users\liukai\AppData\Local\Temp\ccWEnOCw.s:10516  .debug_str:0000000000008499 .LASF439
C:\Users\liukai\AppData\Local\Temp\ccWEnOCw.s:8705   .debug_str:00000000000023b2 .LASF440
C:\Users\liukai\AppData\Local\Temp\ccWEnOCw.s:9491   .debug_str:0000000000004c22 .LASF441
C:\Users\liukai\AppData\Local\Temp\ccWEnOCw.s:9041   .debug_str:000000000000357c .LASF442
C:\Users\liukai\AppData\Local\Temp\ccWEnOCw.s:8237   .debug_str:00000000000009f0 .LASF443
C:\Users\liukai\AppData\Local\Temp\ccWEnOCw.s:8189   .debug_str:0000000000000720 .LASF444
C:\Users\liukai\AppData\Local\Temp\ccWEnOCw.s:8439   .debug_str:0000000000001396 .LASF445
C:\Users\liukai\AppData\Local\Temp\ccWEnOCw.s:10526  .debug_str:0000000000008529 .LASF446
C:\Users\liukai\AppData\Local\Temp\ccWEnOCw.s:8133   .debug_str:00000000000003f9 .LASF447
C:\Users\liukai\AppData\Local\Temp\ccWEnOCw.s:8501   .debug_str:00000000000017d0 .LASF448
C:\Users\liukai\AppData\Local\Temp\ccWEnOCw.s:10355  .debug_str:00000000000079c7 .LASF449
C:\Users\liukai\AppData\Local\Temp\ccWEnOCw.s:9323   .debug_str:0000000000004364 .LASF450
C:\Users\liukai\AppData\Local\Temp\ccWEnOCw.s:8849   .debug_str:0000000000002b32 .LASF451
C:\Users\liukai\AppData\Local\Temp\ccWEnOCw.s:8605   .debug_str:0000000000001d51 .LASF452
C:\Users\liukai\AppData\Local\Temp\ccWEnOCw.s:9213   .debug_str:0000000000003e59 .LASF453
C:\Users\liukai\AppData\Local\Temp\ccWEnOCw.s:8163   .debug_str:00000000000005a0 .LASF454
C:\Users\liukai\AppData\Local\Temp\ccWEnOCw.s:8975   .debug_str:00000000000031a4 .LASF455
C:\Users\liukai\AppData\Local\Temp\ccWEnOCw.s:8791   .debug_str:00000000000027ee .LASF456
C:\Users\liukai\AppData\Local\Temp\ccWEnOCw.s:8267   .debug_str:0000000000000b9c .LASF457
C:\Users\liukai\AppData\Local\Temp\ccWEnOCw.s:8763   .debug_str:000000000000269d .LASF458
C:\Users\liukai\AppData\Local\Temp\ccWEnOCw.s:8617   .debug_str:0000000000001e22 .LASF459
C:\Users\liukai\AppData\Local\Temp\ccWEnOCw.s:9273   .debug_str:0000000000004129 .LASF460
C:\Users\liukai\AppData\Local\Temp\ccWEnOCw.s:9319   .debug_str:000000000000432a .LASF461
C:\Users\liukai\AppData\Local\Temp\ccWEnOCw.s:8049   .debug_str:000000000000002f .LASF462
C:\Users\liukai\AppData\Local\Temp\ccWEnOCw.s:9139   .debug_str:0000000000003a29 .LASF463
C:\Users\liukai\AppData\Local\Temp\ccWEnOCw.s:10165  .debug_str:00000000000070ce .LASF464
C:\Users\liukai\AppData\Local\Temp\ccWEnOCw.s:8323   .debug_str:0000000000000e52 .LASF465
C:\Users\liukai\AppData\Local\Temp\ccWEnOCw.s:10339  .debug_str:0000000000007946 .LASF466
C:\Users\liukai\AppData\Local\Temp\ccWEnOCw.s:10025  .debug_str:0000000000006856 .LASF467
C:\Users\liukai\AppData\Local\Temp\ccWEnOCw.s:9483   .debug_str:0000000000004bc8 .LASF468
C:\Users\liukai\AppData\Local\Temp\ccWEnOCw.s:9037   .debug_str:0000000000003555 .LASF469
C:\Users\liukai\AppData\Local\Temp\ccWEnOCw.s:9985   .debug_str:0000000000006630 .LASF470
C:\Users\liukai\AppData\Local\Temp\ccWEnOCw.s:8761   .debug_str:0000000000002683 .LASF471
C:\Users\liukai\AppData\Local\Temp\ccWEnOCw.s:9747   .debug_str:000000000000592a .LASF472
C:\Users\liukai\AppData\Local\Temp\ccWEnOCw.s:8393   .debug_str:0000000000001189 .LASF475
C:\Users\liukai\AppData\Local\Temp\ccWEnOCw.s:9437   .debug_str:00000000000048f2 .LASF476
C:\Users\liukai\AppData\Local\Temp\ccWEnOCw.s:8433   .debug_str:0000000000001351 .LASF477
C:\Users\liukai\AppData\Local\Temp\ccWEnOCw.s:10195  .debug_str:0000000000007233 .LASF478
C:\Users\liukai\AppData\Local\Temp\ccWEnOCw.s:10073  .debug_str:0000000000006ac3 .LASF479
C:\Users\liukai\AppData\Local\Temp\ccWEnOCw.s:8847   .debug_str:0000000000002b24 .LASF480
C:\Users\liukai\AppData\Local\Temp\ccWEnOCw.s:10079  .debug_str:0000000000006b08 .LASF481
C:\Users\liukai\AppData\Local\Temp\ccWEnOCw.s:8613   .debug_str:0000000000001dd8 .LASF482
C:\Users\liukai\AppData\Local\Temp\ccWEnOCw.s:9357   .debug_str:0000000000004507 .LASF483
C:\Users\liukai\AppData\Local\Temp\ccWEnOCw.s:9505   .debug_str:0000000000004ce2 .LASF484
C:\Users\liukai\AppData\Local\Temp\ccWEnOCw.s:9693   .debug_str:0000000000005615 .LASF485
C:\Users\liukai\AppData\Local\Temp\ccWEnOCw.s:10265  .debug_str:00000000000075fc .LASF486
C:\Users\liukai\AppData\Local\Temp\ccWEnOCw.s:10251  .debug_str:0000000000007535 .LASF487
C:\Users\liukai\AppData\Local\Temp\ccWEnOCw.s:10153  .debug_str:0000000000006fd2 .LASF488
C:\Users\liukai\AppData\Local\Temp\ccWEnOCw.s:9597   .debug_str:0000000000005169 .LASF490
C:\Users\liukai\AppData\Local\Temp\ccWEnOCw.s:9573   .debug_str:000000000000504d .LASF491
C:\Users\liukai\AppData\Local\Temp\ccWEnOCw.s:8941   .debug_str:0000000000002ff1 .LASF492
C:\Users\liukai\AppData\Local\Temp\ccWEnOCw.s:10119  .debug_str:0000000000006db1 .LASF493
C:\Users\liukai\AppData\Local\Temp\ccWEnOCw.s:8239   .debug_str:0000000000000a14 .LASF494
C:\Users\liukai\AppData\Local\Temp\ccWEnOCw.s:8407   .debug_str:0000000000001247 .LASF495
C:\Users\liukai\AppData\Local\Temp\ccWEnOCw.s:8405   .debug_str:0000000000001231 .LASF496
C:\Users\liukai\AppData\Local\Temp\ccWEnOCw.s:9569   .debug_str:0000000000005035 .LASF497
C:\Users\liukai\AppData\Local\Temp\ccWEnOCw.s:9901   .debug_str:00000000000060c6 .LASF498
C:\Users\liukai\AppData\Local\Temp\ccWEnOCw.s:8557   .debug_str:0000000000001ab4 .LASF499
C:\Users\liukai\AppData\Local\Temp\ccWEnOCw.s:9613   .debug_str:0000000000005231 .LASF500
C:\Users\liukai\AppData\Local\Temp\ccWEnOCw.s:8871   .debug_str:0000000000002cb4 .LASF501
C:\Users\liukai\AppData\Local\Temp\ccWEnOCw.s:8373   .debug_str:000000000000109f .LASF502
C:\Users\liukai\AppData\Local\Temp\ccWEnOCw.s:8101   .debug_str:000000000000026e .LASF503
C:\Users\liukai\AppData\Local\Temp\ccWEnOCw.s:10143  .debug_str:0000000000006f45 .LASF504
C:\Users\liukai\AppData\Local\Temp\ccWEnOCw.s:8923   .debug_str:0000000000002f20 .LASF505
C:\Users\liukai\AppData\Local\Temp\ccWEnOCw.s:8485   .debug_str:00000000000016e2 .LASF506
C:\Users\liukai\AppData\Local\Temp\ccWEnOCw.s:10029  .debug_str:000000000000687a .LASF507
C:\Users\liukai\AppData\Local\Temp\ccWEnOCw.s:9631   .debug_str:00000000000052ea .LASF508
C:\Users\liukai\AppData\Local\Temp\ccWEnOCw.s:8785   .debug_str:00000000000027bd .LASF509
C:\Users\liukai\AppData\Local\Temp\ccWEnOCw.s:9171   .debug_str:0000000000003c5a .LASF510
C:\Users\liukai\AppData\Local\Temp\ccWEnOCw.s:8489   .debug_str:0000000000001718 .LASF512
C:\Users\liukai\AppData\Local\Temp\ccWEnOCw.s:8263   .debug_str:0000000000000b55 .LASF513
C:\Users\liukai\AppData\Local\Temp\ccWEnOCw.s:9671   .debug_str:0000000000005529 .LASF514
C:\Users\liukai\AppData\Local\Temp\ccWEnOCw.s:8441   .debug_str:00000000000013bf .LASF515
C:\Users\liukai\AppData\Local\Temp\ccWEnOCw.s:9131   .debug_str:00000000000039ef .LASF516
C:\Users\liukai\AppData\Local\Temp\ccWEnOCw.s:8331   .debug_str:0000000000000ea0 .LASF517
C:\Users\liukai\AppData\Local\Temp\ccWEnOCw.s:9725   .debug_str:0000000000005825 .LASF518
C:\Users\liukai\AppData\Local\Temp\ccWEnOCw.s:9287   .debug_str:00000000000041e5 .LASF519
C:\Users\liukai\AppData\Local\Temp\ccWEnOCw.s:9933   .debug_str:000000000000637d .LASF520
C:\Users\liukai\AppData\Local\Temp\ccWEnOCw.s:9473   .debug_str:0000000000004b6a .LASF521
C:\Users\liukai\AppData\Local\Temp\ccWEnOCw.s:9825   .debug_str:0000000000005d3d .LASF522
C:\Users\liukai\AppData\Local\Temp\ccWEnOCw.s:8657   .debug_str:00000000000020c7 .LASF523
C:\Users\liukai\AppData\Local\Temp\ccWEnOCw.s:8535   .debug_str:00000000000019ad .LASF524
C:\Users\liukai\AppData\Local\Temp\ccWEnOCw.s:8663   .debug_str:00000000000020f1 .LASF525
C:\Users\liukai\AppData\Local\Temp\ccWEnOCw.s:10311  .debug_str:00000000000077e4 .LASF526
C:\Users\liukai\AppData\Local\Temp\ccWEnOCw.s:10019  .debug_str:0000000000006809 .LASF527
C:\Users\liukai\AppData\Local\Temp\ccWEnOCw.s:8313   .debug_str:0000000000000dfa .LASF528
C:\Users\liukai\AppData\Local\Temp\ccWEnOCw.s:9283   .debug_str:00000000000041cc .LASF529
C:\Users\liukai\AppData\Local\Temp\ccWEnOCw.s:8739   .debug_str:00000000000025b5 .LASF530
C:\Users\liukai\AppData\Local\Temp\ccWEnOCw.s:9009   .debug_str:000000000000337a .LASF531
C:\Users\liukai\AppData\Local\Temp\ccWEnOCw.s:9021   .debug_str:00000000000034a6 .LASF532
C:\Users\liukai\AppData\Local\Temp\ccWEnOCw.s:8675   .debug_str:000000000000218f .LASF533
C:\Users\liukai\AppData\Local\Temp\ccWEnOCw.s:9809   .debug_str:0000000000005c69 .LASF534
C:\Users\liukai\AppData\Local\Temp\ccWEnOCw.s:9401   .debug_str:0000000000004778 .LASF535
C:\Users\liukai\AppData\Local\Temp\ccWEnOCw.s:9963   .debug_str:00000000000064fe .LASF536
C:\Users\liukai\AppData\Local\Temp\ccWEnOCw.s:8611   .debug_str:0000000000001dc9 .LASF537
C:\Users\liukai\AppData\Local\Temp\ccWEnOCw.s:10395  .debug_str:0000000000007bd1 .LASF538
C:\Users\liukai\AppData\Local\Temp\ccWEnOCw.s:8983   .debug_str:000000000000322d .LASF539
C:\Users\liukai\AppData\Local\Temp\ccWEnOCw.s:8895   .debug_str:0000000000002dd1 .LASF540
C:\Users\liukai\AppData\Local\Temp\ccWEnOCw.s:8655   .debug_str:00000000000020a4 .LASF541
C:\Users\liukai\AppData\Local\Temp\ccWEnOCw.s:10183  .debug_str:00000000000071a6 .LASF542
C:\Users\liukai\AppData\Local\Temp\ccWEnOCw.s:8315   .debug_str:0000000000000e04 .LASF543
C:\Users\liukai\AppData\Local\Temp\ccWEnOCw.s:8225   .debug_str:000000000000095a .LASF544
C:\Users\liukai\AppData\Local\Temp\ccWEnOCw.s:10027  .debug_str:000000000000686e .LASF545
C:\Users\liukai\AppData\Local\Temp\ccWEnOCw.s:8377   .debug_str:00000000000010c2 .LASF546
C:\Users\liukai\AppData\Local\Temp\ccWEnOCw.s:8831   .debug_str:0000000000002a3d .LASF547
C:\Users\liukai\AppData\Local\Temp\ccWEnOCw.s:10105  .debug_str:0000000000006cfd .LASF548
C:\Users\liukai\AppData\Local\Temp\ccWEnOCw.s:9769   .debug_str:0000000000005a3f .LASF549
C:\Users\liukai\AppData\Local\Temp\ccWEnOCw.s:9159   .debug_str:0000000000003bb2 .LASF550
C:\Users\liukai\AppData\Local\Temp\ccWEnOCw.s:10257  .debug_str:00000000000075ad .LASF551
C:\Users\liukai\AppData\Local\Temp\ccWEnOCw.s:10299  .debug_str:0000000000007753 .LASF552
C:\Users\liukai\AppData\Local\Temp\ccWEnOCw.s:8145   .debug_str:00000000000004c4 .LASF553
C:\Users\liukai\AppData\Local\Temp\ccWEnOCw.s:10115  .debug_str:0000000000006d89 .LASF554
C:\Users\liukai\AppData\Local\Temp\ccWEnOCw.s:8045   .debug_str:0000000000000000 .LASF555
C:\Users\liukai\AppData\Local\Temp\ccWEnOCw.s:8821   .debug_str:00000000000029a5 .LASF556
C:\Users\liukai\AppData\Local\Temp\ccWEnOCw.s:8419   .debug_str:00000000000012de .LASF557
C:\Users\liukai\AppData\Local\Temp\ccWEnOCw.s:9705   .debug_str:00000000000056b3 .LASF558
C:\Users\liukai\AppData\Local\Temp\ccWEnOCw.s:8283   .debug_str:0000000000000c7a .LASF559
C:\Users\liukai\AppData\Local\Temp\ccWEnOCw.s:10281  .debug_str:0000000000007677 .LASF560
C:\Users\liukai\AppData\Local\Temp\ccWEnOCw.s:9773   .debug_str:0000000000005a65 .LASF561
C:\Users\liukai\AppData\Local\Temp\ccWEnOCw.s:10427  .debug_str:0000000000007d4e .LASF562
C:\Users\liukai\AppData\Local\Temp\ccWEnOCw.s:10309  .debug_str:00000000000077c6 .LASF563
C:\Users\liukai\AppData\Local\Temp\ccWEnOCw.s:8671   .debug_str:0000000000002159 .LASF564
C:\Users\liukai\AppData\Local\Temp\ccWEnOCw.s:10349  .debug_str:0000000000007998 .LASF565
C:\Users\liukai\AppData\Local\Temp\ccWEnOCw.s:9807   .debug_str:0000000000005c52 .LASF566
C:\Users\liukai\AppData\Local\Temp\ccWEnOCw.s:10347  .debug_str:000000000000797f .LASF567
C:\Users\liukai\AppData\Local\Temp\ccWEnOCw.s:10121  .debug_str:0000000000006dd2 .LASF568
C:\Users\liukai\AppData\Local\Temp\ccWEnOCw.s:10391  .debug_str:0000000000007ba1 .LASF569
C:\Users\liukai\AppData\Local\Temp\ccWEnOCw.s:10313  .debug_str:00000000000077f1 .LASF570
C:\Users\liukai\AppData\Local\Temp\ccWEnOCw.s:9919   .debug_str:00000000000061e9 .LASF571
C:\Users\liukai\AppData\Local\Temp\ccWEnOCw.s:8543   .debug_str:0000000000001a09 .LASF572
C:\Users\liukai\AppData\Local\Temp\ccWEnOCw.s:8727   .debug_str:0000000000002514 .LASF573
C:\Users\liukai\AppData\Local\Temp\ccWEnOCw.s:8327   .debug_str:0000000000000e6f .LASF574
C:\Users\liukai\AppData\Local\Temp\ccWEnOCw.s:8139   .debug_str:000000000000045f .LASF575
C:\Users\liukai\AppData\Local\Temp\ccWEnOCw.s:9621   .debug_str:0000000000005282 .LASF576
C:\Users\liukai\AppData\Local\Temp\ccWEnOCw.s:9647   .debug_str:00000000000053c8 .LASF577
C:\Users\liukai\AppData\Local\Temp\ccWEnOCw.s:9263   .debug_str:0000000000004071 .LASF578
C:\Users\liukai\AppData\Local\Temp\ccWEnOCw.s:9869   .debug_str:0000000000005f67 .LASF579
C:\Users\liukai\AppData\Local\Temp\ccWEnOCw.s:9595   .debug_str:0000000000005155 .LASF580
C:\Users\liukai\AppData\Local\Temp\ccWEnOCw.s:8811   .debug_str:00000000000028d4 .LASF581
C:\Users\liukai\AppData\Local\Temp\ccWEnOCw.s:9745   .debug_str:0000000000005904 .LASF582
C:\Users\liukai\AppData\Local\Temp\ccWEnOCw.s:10229  .debug_str:0000000000007468 .LASF583
C:\Users\liukai\AppData\Local\Temp\ccWEnOCw.s:9379   .debug_str:00000000000045fc .LASF584
C:\Users\liukai\AppData\Local\Temp\ccWEnOCw.s:8815   .debug_str:000000000000291d .LASF585
C:\Users\liukai\AppData\Local\Temp\ccWEnOCw.s:10512  .debug_str:000000000000845a .LASF586
C:\Users\liukai\AppData\Local\Temp\ccWEnOCw.s:10093  .debug_str:0000000000006c77 .LASF587
C:\Users\liukai\AppData\Local\Temp\ccWEnOCw.s:9075   .debug_str:000000000000378e .LASF588
C:\Users\liukai\AppData\Local\Temp\ccWEnOCw.s:8241   .debug_str:0000000000000a26 .LASF589
C:\Users\liukai\AppData\Local\Temp\ccWEnOCw.s:10083  .debug_str:0000000000006b5d .LASF590
C:\Users\liukai\AppData\Local\Temp\ccWEnOCw.s:8817   .debug_str:000000000000293e .LASF591
C:\Users\liukai\AppData\Local\Temp\ccWEnOCw.s:9157   .debug_str:0000000000003b99 .LASF592
C:\Users\liukai\AppData\Local\Temp\ccWEnOCw.s:9617   .debug_str:000000000000524a .LASF593
C:\Users\liukai\AppData\Local\Temp\ccWEnOCw.s:8955   .debug_str:000000000000308e .LASF594
C:\Users\liukai\AppData\Local\Temp\ccWEnOCw.s:10564  .debug_str:00000000000088a6 .LASF595
C:\Users\liukai\AppData\Local\Temp\ccWEnOCw.s:8793   .debug_str:0000000000002815 .LASF596
C:\Users\liukai\AppData\Local\Temp\ccWEnOCw.s:10459  .debug_str:0000000000007f71 .LASF597
C:\Users\liukai\AppData\Local\Temp\ccWEnOCw.s:9109   .debug_str:00000000000038eb .LASF598
C:\Users\liukai\AppData\Local\Temp\ccWEnOCw.s:10131  .debug_str:0000000000006eaf .LASF599
C:\Users\liukai\AppData\Local\Temp\ccWEnOCw.s:10207  .debug_str:0000000000007305 .LASF600
C:\Users\liukai\AppData\Local\Temp\ccWEnOCw.s:8865   .debug_str:0000000000002c12 .LASF601
C:\Users\liukai\AppData\Local\Temp\ccWEnOCw.s:10239  .debug_str:00000000000074d6 .LASF602
C:\Users\liukai\AppData\Local\Temp\ccWEnOCw.s:9143   .debug_str:0000000000003a73 .LASF603
C:\Users\liukai\AppData\Local\Temp\ccWEnOCw.s:8643   .debug_str:0000000000001fdd .LASF604
C:\Users\liukai\AppData\Local\Temp\ccWEnOCw.s:9611   .debug_str:0000000000005201 .LASF605
C:\Users\liukai\AppData\Local\Temp\ccWEnOCw.s:8477   .debug_str:0000000000001667 .LASF606
C:\Users\liukai\AppData\Local\Temp\ccWEnOCw.s:8837   .debug_str:0000000000002a5c .LASF607
C:\Users\liukai\AppData\Local\Temp\ccWEnOCw.s:8765   .debug_str:00000000000026bc .LASF608
C:\Users\liukai\AppData\Local\Temp\ccWEnOCw.s:8957   .debug_str:00000000000030af .LASF609
C:\Users\liukai\AppData\Local\Temp\ccWEnOCw.s:10157  .debug_str:0000000000006ff8 .LASF610
C:\Users\liukai\AppData\Local\Temp\ccWEnOCw.s:9931   .debug_str:00000000000062f1 .LASF611
C:\Users\liukai\AppData\Local\Temp\ccWEnOCw.s:10127  .debug_str:0000000000006e34 .LASF612
C:\Users\liukai\AppData\Local\Temp\ccWEnOCw.s:9715   .debug_str:0000000000005723 .LASF613
C:\Users\liukai\AppData\Local\Temp\ccWEnOCw.s:8681   .debug_str:00000000000021f2 .LASF614
C:\Users\liukai\AppData\Local\Temp\ccWEnOCw.s:10215  .debug_str:0000000000007371 .LASF615
C:\Users\liukai\AppData\Local\Temp\ccWEnOCw.s:8447   .debug_str:0000000000001429 .LASF616
C:\Users\liukai\AppData\Local\Temp\ccWEnOCw.s:9733   .debug_str:0000000000005863 .LASF617
C:\Users\liukai\AppData\Local\Temp\ccWEnOCw.s:8169   .debug_str:00000000000005f0 .LASF618
C:\Users\liukai\AppData\Local\Temp\ccWEnOCw.s:8367   .debug_str:000000000000101b .LASF619
C:\Users\liukai\AppData\Local\Temp\ccWEnOCw.s:9269   .debug_str:000000000000409c .LASF620
C:\Users\liukai\AppData\Local\Temp\ccWEnOCw.s:10201  .debug_str:000000000000729f .LASF621
C:\Users\liukai\AppData\Local\Temp\ccWEnOCw.s:8699   .debug_str:000000000000232f .LASF622
C:\Users\liukai\AppData\Local\Temp\ccWEnOCw.s:10231  .debug_str:000000000000748b .LASF623
C:\Users\liukai\AppData\Local\Temp\ccWEnOCw.s:10065  .debug_str:0000000000006a74 .LASF624
C:\Users\liukai\AppData\Local\Temp\ccWEnOCw.s:8161   .debug_str:0000000000000580 .LASF625
C:\Users\liukai\AppData\Local\Temp\ccWEnOCw.s:9577   .debug_str:0000000000005070 .LASF626
C:\Users\liukai\AppData\Local\Temp\ccWEnOCw.s:10039  .debug_str:000000000000690d .LASF627
C:\Users\liukai\AppData\Local\Temp\ccWEnOCw.s:8735   .debug_str:0000000000002567 .LASF628
C:\Users\liukai\AppData\Local\Temp\ccWEnOCw.s:10199  .debug_str:000000000000725c .LASF629
C:\Users\liukai\AppData\Local\Temp\ccWEnOCw.s:10495  .debug_str:000000000000815b .LASF630
C:\Users\liukai\AppData\Local\Temp\ccWEnOCw.s:9257   .debug_str:0000000000004041 .LASF631
C:\Users\liukai\AppData\Local\Temp\ccWEnOCw.s:8273   .debug_str:0000000000000bfe .LASF632
C:\Users\liukai\AppData\Local\Temp\ccWEnOCw.s:8889   .debug_str:0000000000002d8d .LASF633
C:\Users\liukai\AppData\Local\Temp\ccWEnOCw.s:9193   .debug_str:0000000000003d92 .LASF634
C:\Users\liukai\AppData\Local\Temp\ccWEnOCw.s:9609   .debug_str:00000000000051e7 .LASF635
C:\Users\liukai\AppData\Local\Temp\ccWEnOCw.s:9927   .debug_str:00000000000062b3 .LASF636
C:\Users\liukai\AppData\Local\Temp\ccWEnOCw.s:10091  .debug_str:0000000000006c57 .LASF637
C:\Users\liukai\AppData\Local\Temp\ccWEnOCw.s:10291  .debug_str:00000000000076d7 .LASF638
C:\Users\liukai\AppData\Local\Temp\ccWEnOCw.s:10357  .debug_str:00000000000079eb .LASF639
C:\Users\liukai\AppData\Local\Temp\ccWEnOCw.s:8449   .debug_str:000000000000148c .LASF640
C:\Users\liukai\AppData\Local\Temp\ccWEnOCw.s:10255  .debug_str:0000000000007566 .LASF641
C:\Users\liukai\AppData\Local\Temp\ccWEnOCw.s:9907   .debug_str:000000000000610e .LASF642
C:\Users\liukai\AppData\Local\Temp\ccWEnOCw.s:9047   .debug_str:00000000000035f8 .LASF643
C:\Users\liukai\AppData\Local\Temp\ccWEnOCw.s:8635   .debug_str:0000000000001f51 .LASF644
C:\Users\liukai\AppData\Local\Temp\ccWEnOCw.s:9013   .debug_str:00000000000033c5 .LASF645
C:\Users\liukai\AppData\Local\Temp\ccWEnOCw.s:10325  .debug_str:0000000000007875 .LASF646
C:\Users\liukai\AppData\Local\Temp\ccWEnOCw.s:10001  .debug_str:00000000000066ed .LASF647
C:\Users\liukai\AppData\Local\Temp\ccWEnOCw.s:8869   .debug_str:0000000000002c69 .LASF648
C:\Users\liukai\AppData\Local\Temp\ccWEnOCw.s:9151   .debug_str:0000000000003b0b .LASF649
C:\Users\liukai\AppData\Local\Temp\ccWEnOCw.s:8619   .debug_str:0000000000001e3c .LASF650
C:\Users\liukai\AppData\Local\Temp\ccWEnOCw.s:10113  .debug_str:0000000000006d5a .LASF651
C:\Users\liukai\AppData\Local\Temp\ccWEnOCw.s:10111  .debug_str:0000000000006d25 .LASF652
C:\Users\liukai\AppData\Local\Temp\ccWEnOCw.s:10109  .debug_str:0000000000006d1a .LASF653
C:\Users\liukai\AppData\Local\Temp\ccWEnOCw.s:9719   .debug_str:00000000000057bb .LASF654
C:\Users\liukai\AppData\Local\Temp\ccWEnOCw.s:9433   .debug_str:00000000000048d9 .LASF655
C:\Users\liukai\AppData\Local\Temp\ccWEnOCw.s:9371   .debug_str:000000000000459d .LASF656
C:\Users\liukai\AppData\Local\Temp\ccWEnOCw.s:8855   .debug_str:0000000000002b7f .LASF657
C:\Users\liukai\AppData\Local\Temp\ccWEnOCw.s:9533   .debug_str:0000000000004e7f .LASF658
C:\Users\liukai\AppData\Local\Temp\ccWEnOCw.s:9835   .debug_str:0000000000005dae .LASF659
C:\Users\liukai\AppData\Local\Temp\ccWEnOCw.s:8487   .debug_str:000000000000170b .LASF660
C:\Users\liukai\AppData\Local\Temp\ccWEnOCw.s:9025   .debug_str:00000000000034e5 .LASF661
C:\Users\liukai\AppData\Local\Temp\ccWEnOCw.s:9217   .debug_str:0000000000003e92 .LASF662
C:\Users\liukai\AppData\Local\Temp\ccWEnOCw.s:9663   .debug_str:00000000000054c6 .LASF663
C:\Users\liukai\AppData\Local\Temp\ccWEnOCw.s:9593   .debug_str:0000000000005140 .LASF664
C:\Users\liukai\AppData\Local\Temp\ccWEnOCw.s:10169  .debug_str:00000000000070fd .LASF665
C:\Users\liukai\AppData\Local\Temp\ccWEnOCw.s:9307   .debug_str:00000000000042be .LASF666
C:\Users\liukai\AppData\Local\Temp\ccWEnOCw.s:9675   .debug_str:000000000000553e .LASF667
C:\Users\liukai\AppData\Local\Temp\ccWEnOCw.s:8925   .debug_str:0000000000002f43 .LASF668
C:\Users\liukai\AppData\Local\Temp\ccWEnOCw.s:9267   .debug_str:0000000000004091 .LASF669
C:\Users\liukai\AppData\Local\Temp\ccWEnOCw.s:8427   .debug_str:0000000000001327 .LASF670
C:\Users\liukai\AppData\Local\Temp\ccWEnOCw.s:9345   .debug_str:0000000000004499 .LASF671
C:\Users\liukai\AppData\Local\Temp\ccWEnOCw.s:9981   .debug_str:000000000000661f .LASF672
C:\Users\liukai\AppData\Local\Temp\ccWEnOCw.s:8967   .debug_str:0000000000003159 .LASF673
C:\Users\liukai\AppData\Local\Temp\ccWEnOCw.s:9751   .debug_str:0000000000005954 .LASF674
C:\Users\liukai\AppData\Local\Temp\ccWEnOCw.s:8293   .debug_str:0000000000000cf3 .LASF675
C:\Users\liukai\AppData\Local\Temp\ccWEnOCw.s:9673   .debug_str:0000000000005532 .LASF676
C:\Users\liukai\AppData\Local\Temp\ccWEnOCw.s:8321   .debug_str:0000000000000e40 .LASF677
C:\Users\liukai\AppData\Local\Temp\ccWEnOCw.s:9957   .debug_str:00000000000064d0 .LASF678
C:\Users\liukai\AppData\Local\Temp\ccWEnOCw.s:9967   .debug_str:0000000000006557 .LASF679
C:\Users\liukai\AppData\Local\Temp\ccWEnOCw.s:9507   .debug_str:0000000000004cf9 .LASF680
C:\Users\liukai\AppData\Local\Temp\ccWEnOCw.s:10333  .debug_str:00000000000078f9 .LASF681
C:\Users\liukai\AppData\Local\Temp\ccWEnOCw.s:8289   .debug_str:0000000000000ccb .LASF682
C:\Users\liukai\AppData\Local\Temp\ccWEnOCw.s:9179   .debug_str:0000000000003c96 .LASF683
C:\Users\liukai\AppData\Local\Temp\ccWEnOCw.s:10015  .debug_str:00000000000067eb .LASF684
C:\Users\liukai\AppData\Local\Temp\ccWEnOCw.s:10435  .debug_str:0000000000007e14 .LASF686
C:\Users\liukai\AppData\Local\Temp\ccWEnOCw.s:8949   .debug_str:0000000000003061 .LASF687
C:\Users\liukai\AppData\Local\Temp\ccWEnOCw.s:10546  .debug_str:000000000000861a .LASF692
C:\Users\liukai\AppData\Local\Temp\ccWEnOCw.s:8695   .debug_str:00000000000022fb .LASF693
C:\Users\liukai\AppData\Local\Temp\ccWEnOCw.s:9549   .debug_str:0000000000004f14 .LASF694
C:\Users\liukai\AppData\Local\Temp\ccWEnOCw.s:9011   .debug_str:000000000000338b .LASF695
C:\Users\liukai\AppData\Local\Temp\ccWEnOCw.s:8461   .debug_str:0000000000001598 .LASF696
C:\Users\liukai\AppData\Local\Temp\ccWEnOCw.s:10504  .debug_str:00000000000083cd .LASF697
C:\Users\liukai\AppData\Local\Temp\ccWEnOCw.s:10317  .debug_str:000000000000781b .LASF698
C:\Users\liukai\AppData\Local\Temp\ccWEnOCw.s:9149   .debug_str:0000000000003ac8 .LASF699
C:\Users\liukai\AppData\Local\Temp\ccWEnOCw.s:9801   .debug_str:0000000000005bda .LASF700
C:\Users\liukai\AppData\Local\Temp\ccWEnOCw.s:10467  .debug_str:000000000000801a .LASF701
C:\Users\liukai\AppData\Local\Temp\ccWEnOCw.s:10185  .debug_str:00000000000071b4 .LASF702
C:\Users\liukai\AppData\Local\Temp\ccWEnOCw.s:8843   .debug_str:0000000000002aba .LASF703
C:\Users\liukai\AppData\Local\Temp\ccWEnOCw.s:8455   .debug_str:000000000000154e .LASF704
C:\Users\liukai\AppData\Local\Temp\ccWEnOCw.s:10465  .debug_str:0000000000007fd3 .LASF705
C:\Users\liukai\AppData\Local\Temp\ccWEnOCw.s:9805   .debug_str:0000000000005c49 .LASF706
C:\Users\liukai\AppData\Local\Temp\ccWEnOCw.s:9061   .debug_str:00000000000036e7 .LASF707
C:\Users\liukai\AppData\Local\Temp\ccWEnOCw.s:10367  .debug_str:0000000000007a93 .LASF708
C:\Users\liukai\AppData\Local\Temp\ccWEnOCw.s:8781   .debug_str:00000000000027ad .LASF709
C:\Users\liukai\AppData\Local\Temp\ccWEnOCw.s:9247   .debug_str:0000000000003fee .LASF710
C:\Users\liukai\AppData\Local\Temp\ccWEnOCw.s:8565   .debug_str:0000000000001b10 .LASF711
C:\Users\liukai\AppData\Local\Temp\ccWEnOCw.s:8567   .debug_str:0000000000001b28 .LASF712
C:\Users\liukai\AppData\Local\Temp\ccWEnOCw.s:9947   .debug_str:0000000000006466 .LASF713
C:\Users\liukai\AppData\Local\Temp\ccWEnOCw.s:9707   .debug_str:00000000000056d0 .LASF714
C:\Users\liukai\AppData\Local\Temp\ccWEnOCw.s:10159  .debug_str:0000000000007044 .LASF715
C:\Users\liukai\AppData\Local\Temp\ccWEnOCw.s:10017  .debug_str:00000000000067fd .LASF716
C:\Users\liukai\AppData\Local\Temp\ccWEnOCw.s:10245  .debug_str:000000000000750c .LASF717
C:\Users\liukai\AppData\Local\Temp\ccWEnOCw.s:8997   .debug_str:00000000000032ae .LASF718
C:\Users\liukai\AppData\Local\Temp\ccWEnOCw.s:10548  .debug_str:000000000000862a .LASF719
C:\Users\liukai\AppData\Local\Temp\ccWEnOCw.s:9253   .debug_str:000000000000400f .LASF720
C:\Users\liukai\AppData\Local\Temp\ccWEnOCw.s:9373   .debug_str:00000000000045a9 .LASF721
C:\Users\liukai\AppData\Local\Temp\ccWEnOCw.s:9385   .debug_str:000000000000467e .LASF722
C:\Users\liukai\AppData\Local\Temp\ccWEnOCw.s:10544  .debug_str:0000000000008602 .LASF723
C:\Users\liukai\AppData\Local\Temp\ccWEnOCw.s:10275  .debug_str:000000000000764f .LASF724
C:\Users\liukai\AppData\Local\Temp\ccWEnOCw.s:10003  .debug_str:000000000000673e .LASF725
C:\Users\liukai\AppData\Local\Temp\ccWEnOCw.s:9677   .debug_str:000000000000554b .LASF726
C:\Users\liukai\AppData\Local\Temp\ccWEnOCw.s:10461  .debug_str:0000000000007f9d .LASF727
C:\Users\liukai\AppData\Local\Temp\ccWEnOCw.s:8551   .debug_str:0000000000001a69 .LASF728
C:\Users\liukai\AppData\Local\Temp\ccWEnOCw.s:10530  .debug_str:0000000000008556 .LASF729
C:\Users\liukai\AppData\Local\Temp\ccWEnOCw.s:8125   .debug_str:00000000000003a6 .LASF730
C:\Users\liukai\AppData\Local\Temp\ccWEnOCw.s:8429   .debug_str:0000000000001331 .LASF731
C:\Users\liukai\AppData\Local\Temp\ccWEnOCw.s:9941   .debug_str:00000000000063a9 .LASF732
C:\Users\liukai\AppData\Local\Temp\ccWEnOCw.s:10556  .debug_str:0000000000008691 .LASF733
C:\Users\liukai\AppData\Local\Temp\ccWEnOCw.s:10497  .debug_str:00000000000081a3 .LASF734
C:\Users\liukai\AppData\Local\Temp\ccWEnOCw.s:10327  .debug_str:00000000000078bc .LASF735
C:\Users\liukai\AppData\Local\Temp\ccWEnOCw.s:8381   .debug_str:00000000000010e6 .LASF736
C:\Users\liukai\AppData\Local\Temp\ccWEnOCw.s:9949   .debug_str:0000000000006480 .LASF737
C:\Users\liukai\AppData\Local\Temp\ccWEnOCw.s:9327   .debug_str:000000000000439d .LASF738
C:\Users\liukai\AppData\Local\Temp\ccWEnOCw.s:10041  .debug_str:000000000000692a .LASF739
C:\Users\liukai\AppData\Local\Temp\ccWEnOCw.s:9565   .debug_str:0000000000005005 .LASF740
C:\Users\liukai\AppData\Local\Temp\ccWEnOCw.s:9245   .debug_str:0000000000003fd0 .LASF741
C:\Users\liukai\AppData\Local\Temp\ccWEnOCw.s:8911   .debug_str:0000000000002e72 .LASF742
C:\Users\liukai\AppData\Local\Temp\ccWEnOCw.s:8495   .debug_str:000000000000176d .LASF743
C:\Users\liukai\AppData\Local\Temp\ccWEnOCw.s:8443   .debug_str:00000000000013ce .LASF744
C:\Users\liukai\AppData\Local\Temp\ccWEnOCw.s:9297   .debug_str:000000000000423a .LASF745
C:\Users\liukai\AppData\Local\Temp\ccWEnOCw.s:8615   .debug_str:0000000000001dec .LASF746
C:\Users\liukai\AppData\Local\Temp\ccWEnOCw.s:8251   .debug_str:0000000000000abd .LASF747
C:\Users\liukai\AppData\Local\Temp\ccWEnOCw.s:10035  .debug_str:00000000000068ba .LASF748
C:\Users\liukai\AppData\Local\Temp\ccWEnOCw.s:9895   .debug_str:0000000000006081 .LASF749
C:\Users\liukai\AppData\Local\Temp\ccWEnOCw.s:8281   .debug_str:0000000000000c4f .LASF750
C:\Users\liukai\AppData\Local\Temp\ccWEnOCw.s:9873   .debug_str:0000000000005f85 .LASF751
C:\Users\liukai\AppData\Local\Temp\ccWEnOCw.s:9921   .debug_str:0000000000006205 .LASF752
C:\Users\liukai\AppData\Local\Temp\ccWEnOCw.s:8819   .debug_str:000000000000297b .LASF753
C:\Users\liukai\AppData\Local\Temp\ccWEnOCw.s:10429  .debug_str:0000000000007d87 .LASF754
C:\Users\liukai\AppData\Local\Temp\ccWEnOCw.s:9045   .debug_str:00000000000035be .LASF755
C:\Users\liukai\AppData\Local\Temp\ccWEnOCw.s:9923   .debug_str:0000000000006239 .LASF756
C:\Users\liukai\AppData\Local\Temp\ccWEnOCw.s:9839   .debug_str:0000000000005ddd .LASF757
C:\Users\liukai\AppData\Local\Temp\ccWEnOCw.s:9393   .debug_str:0000000000004702 .LASF758
C:\Users\liukai\AppData\Local\Temp\ccWEnOCw.s:8779   .debug_str:000000000000276f .LASF759
C:\Users\liukai\AppData\Local\Temp\ccWEnOCw.s:9381   .debug_str:0000000000004621 .LASF760
C:\Users\liukai\AppData\Local\Temp\ccWEnOCw.s:9925   .debug_str:0000000000006275 .LASF761
C:\Users\liukai\AppData\Local\Temp\ccWEnOCw.s:9821   .debug_str:0000000000005ce6 .LASF762
C:\Users\liukai\AppData\Local\Temp\ccWEnOCw.s:9141   .debug_str:0000000000003a3f .LASF763
C:\Users\liukai\AppData\Local\Temp\ccWEnOCw.s:10437  .debug_str:0000000000007e25 .LASF764
C:\Users\liukai\AppData\Local\Temp\ccWEnOCw.s:8071   .debug_str:0000000000000117 .LASF765
C:\Users\liukai\AppData\Local\Temp\ccWEnOCw.s:9703   .debug_str:000000000000565b .LASF766
C:\Users\liukai\AppData\Local\Temp\ccWEnOCw.s:9913   .debug_str:00000000000061b6 .LASF767
C:\Users\liukai\AppData\Local\Temp\ccWEnOCw.s:10145  .debug_str:0000000000006f6d .LASF768
C:\Users\liukai\AppData\Local\Temp\ccWEnOCw.s:8829   .debug_str:0000000000002a2a .LASF769
C:\Users\liukai\AppData\Local\Temp\ccWEnOCw.s:10179  .debug_str:000000000000716f .LASF770
C:\Users\liukai\AppData\Local\Temp\ccWEnOCw.s:8077   .debug_str:0000000000000173 .LASF771
C:\Users\liukai\AppData\Local\Temp\ccWEnOCw.s:8255   .debug_str:0000000000000b06 .LASF772
C:\Users\liukai\AppData\Local\Temp\ccWEnOCw.s:8879   .debug_str:0000000000002d27 .LASF773
C:\Users\liukai\AppData\Local\Temp\ccWEnOCw.s:9255   .debug_str:000000000000402d .LASF775
C:\Users\liukai\AppData\Local\Temp\ccWEnOCw.s:10417  .debug_str:0000000000007cee .LASF776
C:\Users\liukai\AppData\Local\Temp\ccWEnOCw.s:9033   .debug_str:000000000000353e .LASF777
C:\Users\liukai\AppData\Local\Temp\ccWEnOCw.s:8845   .debug_str:0000000000002b09 .LASF778
C:\Users\liukai\AppData\Local\Temp\ccWEnOCw.s:9627   .debug_str:00000000000052b9 .LASF779
C:\Users\liukai\AppData\Local\Temp\ccWEnOCw.s:8111   .debug_str:00000000000002ee .LASF780
C:\Users\liukai\AppData\Local\Temp\ccWEnOCw.s:9661   .debug_str:00000000000054a9 .LASF781
C:\Users\liukai\AppData\Local\Temp\ccWEnOCw.s:8519   .debug_str:000000000000189c .LASF782
C:\Users\liukai\AppData\Local\Temp\ccWEnOCw.s:10471  .debug_str:000000000000808e .LASF783
C:\Users\liukai\AppData\Local\Temp\ccWEnOCw.s:9053   .debug_str:000000000000368b .LASF784
C:\Users\liukai\AppData\Local\Temp\ccWEnOCw.s:9191   .debug_str:0000000000003d6e .LASF785
C:\Users\liukai\AppData\Local\Temp\ccWEnOCw.s:8867   .debug_str:0000000000002c45 .LASF786
C:\Users\liukai\AppData\Local\Temp\ccWEnOCw.s:10099  .debug_str:0000000000006cc2 .LASF787
C:\Users\liukai\AppData\Local\Temp\ccWEnOCw.s:8067   .debug_str:00000000000000dc .LASF788
C:\Users\liukai\AppData\Local\Temp\ccWEnOCw.s:9911   .debug_str:000000000000619c .LASF789
C:\Users\liukai\AppData\Local\Temp\ccWEnOCw.s:8355   .debug_str:0000000000000f84 .LASF790
C:\Users\liukai\AppData\Local\Temp\ccWEnOCw.s:9655   .debug_str:0000000000005442 .LASF791
C:\Users\liukai\AppData\Local\Temp\ccWEnOCw.s:8919   .debug_str:0000000000002ef7 .LASF794
C:\Users\liukai\AppData\Local\Temp\ccWEnOCw.s:10225  .debug_str:0000000000007424 .LASF795
C:\Users\liukai\AppData\Local\Temp\ccWEnOCw.s:10089  .debug_str:0000000000006c45 .LASF796
C:\Users\liukai\AppData\Local\Temp\ccWEnOCw.s:9397   .debug_str:0000000000004759 .LASF797
C:\Users\liukai\AppData\Local\Temp\ccWEnOCw.s:8891   .debug_str:0000000000002da0 .LASF798
C:\Users\liukai\AppData\Local\Temp\ccWEnOCw.s:9337   .debug_str:0000000000004411 .LASF799
C:\Users\liukai\AppData\Local\Temp\ccWEnOCw.s:9657   .debug_str:000000000000545c .LASF800
C:\Users\liukai\AppData\Local\Temp\ccWEnOCw.s:9945   .debug_str:00000000000063e3 .LASF801
C:\Users\liukai\AppData\Local\Temp\ccWEnOCw.s:8223   .debug_str:0000000000000883 .LASF802
C:\Users\liukai\AppData\Local\Temp\ccWEnOCw.s:9441   .debug_str:0000000000004920 .LASF803
C:\Users\liukai\AppData\Local\Temp\ccWEnOCw.s:9581   .debug_str:000000000000509c .LASF806
C:\Users\liukai\AppData\Local\Temp\ccWEnOCw.s:10161  .debug_str:000000000000704c .LASF807
C:\Users\liukai\AppData\Local\Temp\ccWEnOCw.s:8235   .debug_str:00000000000009dc .LASF808
C:\Users\liukai\AppData\Local\Temp\ccWEnOCw.s:8799   .debug_str:0000000000002869 .LASF809
C:\Users\liukai\AppData\Local\Temp\ccWEnOCw.s:10133  .debug_str:0000000000006ed8 .LASF810
C:\Users\liukai\AppData\Local\Temp\ccWEnOCw.s:10305  .debug_str:0000000000007797 .LASF811
C:\Users\liukai\AppData\Local\Temp\ccWEnOCw.s:8297   .debug_str:0000000000000d38 .LASF812
C:\Users\liukai\AppData\Local\Temp\ccWEnOCw.s:10095  .debug_str:0000000000006ca4 .LASF813
C:\Users\liukai\AppData\Local\Temp\ccWEnOCw.s:8859   .debug_str:0000000000002ba7 .LASF814
C:\Users\liukai\AppData\Local\Temp\ccWEnOCw.s:8397   .debug_str:00000000000011b0 .LASF815
C:\Users\liukai\AppData\Local\Temp\ccWEnOCw.s:8247   .debug_str:0000000000000a70 .LASF816
C:\Users\liukai\AppData\Local\Temp\ccWEnOCw.s:10085  .debug_str:0000000000006b91 .LASF817
C:\Users\liukai\AppData\Local\Temp\ccWEnOCw.s:9843   .debug_str:0000000000005e25 .LASF818
C:\Users\liukai\AppData\Local\Temp\ccWEnOCw.s:8719   .debug_str:00000000000024ce .LASF819
C:\Users\liukai\AppData\Local\Temp\ccWEnOCw.s:10443  .debug_str:0000000000007e87 .LASF820
C:\Users\liukai\AppData\Local\Temp\ccWEnOCw.s:8177   .debug_str:0000000000000692 .LASF821
C:\Users\liukai\AppData\Local\Temp\ccWEnOCw.s:9237   .debug_str:0000000000003f7b .LASF822
C:\Users\liukai\AppData\Local\Temp\ccWEnOCw.s:8897   .debug_str:0000000000002de5 .LASF823
C:\Users\liukai\AppData\Local\Temp\ccWEnOCw.s:9219   .debug_str:0000000000003ea6 .LASF824
C:\Users\liukai\AppData\Local\Temp\ccWEnOCw.s:10550  .debug_str:0000000000008652 .LASF825
C:\Users\liukai\AppData\Local\Temp\ccWEnOCw.s:9325   .debug_str:000000000000438a .LASF826
C:\Users\liukai\AppData\Local\Temp\ccWEnOCw.s:8575   .debug_str:0000000000001b79 .LASF827
C:\Users\liukai\AppData\Local\Temp\ccWEnOCw.s:8969   .debug_str:0000000000003168 .LASF828
C:\Users\liukai\AppData\Local\Temp\ccWEnOCw.s:9977   .debug_str:00000000000065cd .LASF829
C:\Users\liukai\AppData\Local\Temp\ccWEnOCw.s:8093   .debug_str:000000000000021f .LASF830
C:\Users\liukai\AppData\Local\Temp\ccWEnOCw.s:8279   .debug_str:0000000000000c3c .LASF831
C:\Users\liukai\AppData\Local\Temp\ccWEnOCw.s:8929   .debug_str:0000000000002f52 .LASF832
C:\Users\liukai\AppData\Local\Temp\ccWEnOCw.s:8985   .debug_str:0000000000003243 .LASF833
C:\Users\liukai\AppData\Local\Temp\ccWEnOCw.s:9857   .debug_str:0000000000005ece .LASF834
C:\Users\liukai\AppData\Local\Temp\ccWEnOCw.s:10189  .debug_str:00000000000071f9 .LASF835
C:\Users\liukai\AppData\Local\Temp\ccWEnOCw.s:9017   .debug_str:000000000000347a .LASF836
C:\Users\liukai\AppData\Local\Temp\ccWEnOCw.s:8689   .debug_str:00000000000022ba .LASF837
C:\Users\liukai\AppData\Local\Temp\ccWEnOCw.s:8777   .debug_str:000000000000275e .LASF838
C:\Users\liukai\AppData\Local\Temp\ccWEnOCw.s:9951   .debug_str:0000000000006496 .LASF839
C:\Users\liukai\AppData\Local\Temp\ccWEnOCw.s:9351   .debug_str:00000000000044d2 .LASF840
C:\Users\liukai\AppData\Local\Temp\ccWEnOCw.s:8353   .debug_str:0000000000000f73 .LASF841
C:\Users\liukai\AppData\Local\Temp\ccWEnOCw.s:10013  .debug_str:00000000000067d8 .LASF842
C:\Users\liukai\AppData\Local\Temp\ccWEnOCw.s:8307   .debug_str:0000000000000d9e .LASF843
C:\Users\liukai\AppData\Local\Temp\ccWEnOCw.s:8275   .debug_str:0000000000000c09 .LASF844
C:\Users\liukai\AppData\Local\Temp\ccWEnOCw.s:8749   .debug_str:00000000000025e2 .LASF845
C:\Users\liukai\AppData\Local\Temp\ccWEnOCw.s:10387  .debug_str:0000000000007b55 .LASF846
C:\Users\liukai\AppData\Local\Temp\ccWEnOCw.s:9329   .debug_str:00000000000043bc .LASF847
C:\Users\liukai\AppData\Local\Temp\ccWEnOCw.s:8703   .debug_str:000000000000239f .LASF848
C:\Users\liukai\AppData\Local\Temp\ccWEnOCw.s:8795   .debug_str:000000000000283f .LASF849
C:\Users\liukai\AppData\Local\Temp\ccWEnOCw.s:9679   .debug_str:0000000000005563 .LASF851
C:\Users\liukai\AppData\Local\Temp\ccWEnOCw.s:9727   .debug_str:000000000000582f .LASF852
C:\Users\liukai\AppData\Local\Temp\ccWEnOCw.s:9231   .debug_str:0000000000003f2f .LASF853
C:\Users\liukai\AppData\Local\Temp\ccWEnOCw.s:10473  .debug_str:00000000000080a5 .LASF854
C:\Users\liukai\AppData\Local\Temp\ccWEnOCw.s:8733   .debug_str:000000000000254f .LASF855
C:\Users\liukai\AppData\Local\Temp\ccWEnOCw.s:8921   .debug_str:0000000000002f09 .LASF856
C:\Users\liukai\AppData\Local\Temp\ccWEnOCw.s:8127   .debug_str:00000000000003bc .LASF857
C:\Users\liukai\AppData\Local\Temp\ccWEnOCw.s:8607   .debug_str:0000000000001d6e .LASF858
C:\Users\liukai\AppData\Local\Temp\ccWEnOCw.s:9625   .debug_str:000000000000529f .LASF859
C:\Users\liukai\AppData\Local\Temp\ccWEnOCw.s:9085   .debug_str:0000000000003812 .LASF860
C:\Users\liukai\AppData\Local\Temp\ccWEnOCw.s:9735   .debug_str:0000000000005886 .LASF861
C:\Users\liukai\AppData\Local\Temp\ccWEnOCw.s:9905   .debug_str:00000000000060d6 .LASF862
C:\Users\liukai\AppData\Local\Temp\ccWEnOCw.s:8053   .debug_str:0000000000000052 .LASF863
C:\Users\liukai\AppData\Local\Temp\ccWEnOCw.s:10067  .debug_str:0000000000006a8d .LASF866
C:\Users\liukai\AppData\Local\Temp\ccWEnOCw.s:8627   .debug_str:0000000000001eca .LASF867
C:\Users\liukai\AppData\Local\Temp\ccWEnOCw.s:8713   .debug_str:000000000000244b .LASF868
C:\Users\liukai\AppData\Local\Temp\ccWEnOCw.s:8513   .debug_str:000000000000185a .LASF869
C:\Users\liukai\AppData\Local\Temp\ccWEnOCw.s:9749   .debug_str:0000000000005946 .LASF870
C:\Users\liukai\AppData\Local\Temp\ccWEnOCw.s:8369   .debug_str:0000000000001073 .LASF871
C:\Users\liukai\AppData\Local\Temp\ccWEnOCw.s:10301  .debug_str:0000000000007776 .LASF872
C:\Users\liukai\AppData\Local\Temp\ccWEnOCw.s:9451   .debug_str:0000000000004a64 .LASF873
C:\Users\liukai\AppData\Local\Temp\ccWEnOCw.s:9457   .debug_str:0000000000004abd .LASF874
C:\Users\liukai\AppData\Local\Temp\ccWEnOCw.s:9359   .debug_str:000000000000452a .LASF875
C:\Users\liukai\AppData\Local\Temp\ccWEnOCw.s:8351   .debug_str:0000000000000f65 .LASF876
C:\Users\liukai\AppData\Local\Temp\ccWEnOCw.s:9619   .debug_str:0000000000005274 .LASF877
C:\Users\liukai\AppData\Local\Temp\ccWEnOCw.s:8347   .debug_str:0000000000000f44 .LASF878
C:\Users\liukai\AppData\Local\Temp\ccWEnOCw.s:9885   .debug_str:0000000000006036 .LASF879
C:\Users\liukai\AppData\Local\Temp\ccWEnOCw.s:8903   .debug_str:0000000000002e1a .LASF880
C:\Users\liukai\AppData\Local\Temp\ccWEnOCw.s:8771   .debug_str:000000000000270d .LASF881
C:\Users\liukai\AppData\Local\Temp\ccWEnOCw.s:9649   .debug_str:00000000000053e1 .LASF882
C:\Users\liukai\AppData\Local\Temp\ccWEnOCw.s:8875   .debug_str:0000000000002ce7 .LASF883
C:\Users\liukai\AppData\Local\Temp\ccWEnOCw.s:9871   .debug_str:0000000000005f77 .LASF884
C:\Users\liukai\AppData\Local\Temp\ccWEnOCw.s:9185   .debug_str:0000000000003d26 .LASF885
C:\Users\liukai\AppData\Local\Temp\ccWEnOCw.s:9291   .debug_str:0000000000004208 .LASF886
C:\Users\liukai\AppData\Local\Temp\ccWEnOCw.s:10213  .debug_str:0000000000007368 .LASF887
C:\Users\liukai\AppData\Local\Temp\ccWEnOCw.s:9689   .debug_str:00000000000055e5 .LASF888
C:\Users\liukai\AppData\Local\Temp\ccWEnOCw.s:9435   .debug_str:00000000000048e9 .LASF889
C:\Users\liukai\AppData\Local\Temp\ccWEnOCw.s:10217  .debug_str:00000000000073d2 .LASF890
C:\Users\liukai\AppData\Local\Temp\ccWEnOCw.s:8591   .debug_str:0000000000001c0f .LASF891
C:\Users\liukai\AppData\Local\Temp\ccWEnOCw.s:9305   .debug_str:00000000000042ac .LASF892
C:\Users\liukai\AppData\Local\Temp\ccWEnOCw.s:8755   .debug_str:0000000000002652 .LASF893
C:\Users\liukai\AppData\Local\Temp\ccWEnOCw.s:9313   .debug_str:00000000000042fc .LASF894
C:\Users\liukai\AppData\Local\Temp\ccWEnOCw.s:8117   .debug_str:0000000000000341 .LASF895
C:\Users\liukai\AppData\Local\Temp\ccWEnOCw.s:8555   .debug_str:0000000000001aa9 .LASF896
C:\Users\liukai\AppData\Local\Temp\ccWEnOCw.s:9889   .debug_str:000000000000604d .LASF897
C:\Users\liukai\AppData\Local\Temp\ccWEnOCw.s:9493   .debug_str:0000000000004c46 .LASF898
C:\Users\liukai\AppData\Local\Temp\ccWEnOCw.s:8221   .debug_str:000000000000086c .LASF899
C:\Users\liukai\AppData\Local\Temp\ccWEnOCw.s:8415   .debug_str:00000000000012ab .LASF900
C:\Users\liukai\AppData\Local\Temp\ccWEnOCw.s:8287   .debug_str:0000000000000cb2 .LASF901
C:\Users\liukai\AppData\Local\Temp\ccWEnOCw.s:8917   .debug_str:0000000000002edd .LASF902
C:\Users\liukai\AppData\Local\Temp\ccWEnOCw.s:9233   .debug_str:0000000000003f3c .LASF903
C:\Users\liukai\AppData\Local\Temp\ccWEnOCw.s:8115   .debug_str:0000000000000325 .LASF904
C:\Users\liukai\AppData\Local\Temp\ccWEnOCw.s:9311   .debug_str:00000000000042e4 .LASF905
C:\Users\liukai\AppData\Local\Temp\ccWEnOCw.s:10401  .debug_str:0000000000007c11 .LASF906
C:\Users\liukai\AppData\Local\Temp\ccWEnOCw.s:8707   .debug_str:00000000000023d4 .LASF907
C:\Users\liukai\AppData\Local\Temp\ccWEnOCw.s:8687   .debug_str:0000000000002261 .LASF908
C:\Users\liukai\AppData\Local\Temp\ccWEnOCw.s:8137   .debug_str:0000000000000430 .LASF909
C:\Users\liukai\AppData\Local\Temp\ccWEnOCw.s:9427   .debug_str:0000000000004887 .LASF910
C:\Users\liukai\AppData\Local\Temp\ccWEnOCw.s:10177  .debug_str:000000000000713d .LASF911
C:\Users\liukai\AppData\Local\Temp\ccWEnOCw.s:10123  .debug_str:0000000000006ded .LASF912
C:\Users\liukai\AppData\Local\Temp\ccWEnOCw.s:10373  .debug_str:0000000000007ac9 .LASF913
C:\Users\liukai\AppData\Local\Temp\ccWEnOCw.s:9059   .debug_str:00000000000036d4 .LASF914
C:\Users\liukai\AppData\Local\Temp\ccWEnOCw.s:9071   .debug_str:0000000000003769 .LASF915
C:\Users\liukai\AppData\Local\Temp\ccWEnOCw.s:10319  .debug_str:000000000000784a .LASF916
C:\Users\liukai\AppData\Local\Temp\ccWEnOCw.s:8097   .debug_str:0000000000000237 .LASF917
C:\Users\liukai\AppData\Local\Temp\ccWEnOCw.s:9865   .debug_str:0000000000005f35 .LASF918
C:\Users\liukai\AppData\Local\Temp\ccWEnOCw.s:10483  .debug_str:00000000000080f5 .LASF919
C:\Users\liukai\AppData\Local\Temp\ccWEnOCw.s:8873   .debug_str:0000000000002cc0 .LASF920
C:\Users\liukai\AppData\Local\Temp\ccWEnOCw.s:10562  .debug_str:000000000000887b .LASF921
C:\Users\liukai\AppData\Local\Temp\ccWEnOCw.s:9015   .debug_str:0000000000003412 .LASF922
C:\Users\liukai\AppData\Local\Temp\ccWEnOCw.s:8901   .debug_str:0000000000002e0d .LASF923
C:\Users\liukai\AppData\Local\Temp\ccWEnOCw.s:8647   .debug_str:0000000000002028 .LASF924
C:\Users\liukai\AppData\Local\Temp\ccWEnOCw.s:8953   .debug_str:0000000000003083 .LASF925
C:\Users\liukai\AppData\Local\Temp\ccWEnOCw.s:8803   .debug_str:0000000000002894 .LASF926
C:\Users\liukai\AppData\Local\Temp\ccWEnOCw.s:8915   .debug_str:0000000000002ed5 .LASF927
C:\Users\liukai\AppData\Local\Temp\ccWEnOCw.s:9729   .debug_str:000000000000583d .LASF928
C:\Users\liukai\AppData\Local\Temp\ccWEnOCw.s:10197  .debug_str:0000000000007249 .LASF929
C:\Users\liukai\AppData\Local\Temp\ccWEnOCw.s:8971   .debug_str:000000000000317d .LASF930
C:\Users\liukai\AppData\Local\Temp\ccWEnOCw.s:10155  .debug_str:0000000000006fea .LASF931
C:\Users\liukai\AppData\Local\Temp\ccWEnOCw.s:9487   .debug_str:0000000000004bf7 .LASF932
C:\Users\liukai\AppData\Local\Temp\ccWEnOCw.s:9073   .debug_str:0000000000003780 .LASF933
C:\Users\liukai\AppData\Local\Temp\ccWEnOCw.s:8759   .debug_str:000000000000266d .LASF934
C:\Users\liukai\AppData\Local\Temp\ccWEnOCw.s:8887   .debug_str:0000000000002d81 .LASF935
C:\Users\liukai\AppData\Local\Temp\ccWEnOCw.s:9789   .debug_str:0000000000005b2e .LASF936
C:\Users\liukai\AppData\Local\Temp\ccWEnOCw.s:8165   .debug_str:00000000000005b8 .LASF937
C:\Users\liukai\AppData\Local\Temp\ccWEnOCw.s:9277   .debug_str:0000000000004164 .LASF938
C:\Users\liukai\AppData\Local\Temp\ccWEnOCw.s:10536  .debug_str:000000000000859b .LASF939
C:\Users\liukai\AppData\Local\Temp\ccWEnOCw.s:10379  .debug_str:0000000000007b00 .LASF940
C:\Users\liukai\AppData\Local\Temp\ccWEnOCw.s:9321   .debug_str:0000000000004342 .LASF941
C:\Users\liukai\AppData\Local\Temp\ccWEnOCw.s:8701   .debug_str:000000000000237d .LASF942
C:\Users\liukai\AppData\Local\Temp\ccWEnOCw.s:9349   .debug_str:00000000000044b6 .LASF943
C:\Users\liukai\AppData\Local\Temp\ccWEnOCw.s:9953   .debug_str:00000000000064a7 .LASF944
C:\Users\liukai\AppData\Local\Temp\ccWEnOCw.s:9419   .debug_str:0000000000004829 .LASF945
C:\Users\liukai\AppData\Local\Temp\ccWEnOCw.s:9777   .debug_str:0000000000005a8e .LASF946
C:\Users\liukai\AppData\Local\Temp\ccWEnOCw.s:10469  .debug_str:0000000000008061 .LASF947
C:\Users\liukai\AppData\Local\Temp\ccWEnOCw.s:8493   .debug_str:0000000000001740 .LASF948
C:\Users\liukai\AppData\Local\Temp\ccWEnOCw.s:9453   .debug_str:0000000000004a71 .LASF949
C:\Users\liukai\AppData\Local\Temp\ccWEnOCw.s:8527   .debug_str:0000000000001905 .LASF950
C:\Users\liukai\AppData\Local\Temp\ccWEnOCw.s:9909   .debug_str:0000000000006161 .LASF951
C:\Users\liukai\AppData\Local\Temp\ccWEnOCw.s:10087  .debug_str:0000000000006c15 .LASF952
C:\Users\liukai\AppData\Local\Temp\ccWEnOCw.s:8341   .debug_str:0000000000000f05 .LASF953
C:\Users\liukai\AppData\Local\Temp\ccWEnOCw.s:9851   .debug_str:0000000000005e71 .LASF954
C:\Users\liukai\AppData\Local\Temp\ccWEnOCw.s:9153   .debug_str:0000000000003b51 .LASF955
C:\Users\liukai\AppData\Local\Temp\ccWEnOCw.s:10023  .debug_str:000000000000682a .LASF956
C:\Users\liukai\AppData\Local\Temp\ccWEnOCw.s:8191   .debug_str:0000000000000746 .LASF957
C:\Users\liukai\AppData\Local\Temp\ccWEnOCw.s:9391   .debug_str:00000000000046ce .LASF958
C:\Users\liukai\AppData\Local\Temp\ccWEnOCw.s:9023   .debug_str:00000000000034b2 .LASF959
C:\Users\liukai\AppData\Local\Temp\ccWEnOCw.s:9123   .debug_str:00000000000039b0 .LASF960
C:\Users\liukai\AppData\Local\Temp\ccWEnOCw.s:8295   .debug_str:0000000000000d05 .LASF961
C:\Users\liukai\AppData\Local\Temp\ccWEnOCw.s:9447   .debug_str:0000000000004a1d .LASF962
C:\Users\liukai\AppData\Local\Temp\ccWEnOCw.s:9389   .debug_str:00000000000046a0 .LASF963
C:\Users\liukai\AppData\Local\Temp\ccWEnOCw.s:8387   .debug_str:0000000000001143 .LASF964
C:\Users\liukai\AppData\Local\Temp\ccWEnOCw.s:9667   .debug_str:00000000000054ec .LASF965
C:\Users\liukai\AppData\Local\Temp\ccWEnOCw.s:8529   .debug_str:000000000000193b .LASF966
C:\Users\liukai\AppData\Local\Temp\ccWEnOCw.s:8269   .debug_str:0000000000000bba .LASF967
C:\Users\liukai\AppData\Local\Temp\ccWEnOCw.s:10033  .debug_str:00000000000068a5 .LASF968
C:\Users\liukai\AppData\Local\Temp\ccWEnOCw.s:8083   .debug_str:00000000000001ac .LASF969
C:\Users\liukai\AppData\Local\Temp\ccWEnOCw.s:9117   .debug_str:0000000000003952 .LASF970
C:\Users\liukai\AppData\Local\Temp\ccWEnOCw.s:9515   .debug_str:0000000000004d40 .LASF971
C:\Users\liukai\AppData\Local\Temp\ccWEnOCw.s:8637   .debug_str:0000000000001f8e .LASF972
C:\Users\liukai\AppData\Local\Temp\ccWEnOCw.s:8151   .debug_str:0000000000000516 .LASF973
C:\Users\liukai\AppData\Local\Temp\ccWEnOCw.s:8553   .debug_str:0000000000001a82 .LASF974
C:\Users\liukai\AppData\Local\Temp\ccWEnOCw.s:9161   .debug_str:0000000000003bbf .LASF975
C:\Users\liukai\AppData\Local\Temp\ccWEnOCw.s:9169   .debug_str:0000000000003c23 .LASF976
C:\Users\liukai\AppData\Local\Temp\ccWEnOCw.s:9281   .debug_str:0000000000004197 .LASF977
C:\Users\liukai\AppData\Local\Temp\ccWEnOCw.s:10335  .debug_str:0000000000007907 .LASF978
C:\Users\liukai\AppData\Local\Temp\ccWEnOCw.s:9529   .debug_str:0000000000004e1b .LASF979
C:\Users\liukai\AppData\Local\Temp\ccWEnOCw.s:9003   .debug_str:0000000000003308 .LASF980
C:\Users\liukai\AppData\Local\Temp\ccWEnOCw.s:9289   .debug_str:00000000000041ef .LASF981
C:\Users\liukai\AppData\Local\Temp\ccWEnOCw.s:8531   .debug_str:0000000000001964 .LASF982
C:\Users\liukai\AppData\Local\Temp\ccWEnOCw.s:9641   .debug_str:0000000000005365 .LASF983
C:\Users\liukai\AppData\Local\Temp\ccWEnOCw.s:9465   .debug_str:0000000000004af8 .LASF984
C:\Users\liukai\AppData\Local\Temp\ccWEnOCw.s:8309   .debug_str:0000000000000db0 .LASF985
C:\Users\liukai\AppData\Local\Temp\ccWEnOCw.s:9051   .debug_str:000000000000365d .LASF986
C:\Users\liukai\AppData\Local\Temp\ccWEnOCw.s:10451  .debug_str:0000000000007f0b .LASF987
C:\Users\liukai\AppData\Local\Temp\ccWEnOCw.s:9763   .debug_str:00000000000059ce .LASF988
C:\Users\liukai\AppData\Local\Temp\ccWEnOCw.s:9093   .debug_str:000000000000384e .LASF989
C:\Users\liukai\AppData\Local\Temp\ccWEnOCw.s:9243   .debug_str:0000000000003fbe .LASF990
C:\Users\liukai\AppData\Local\Temp\ccWEnOCw.s:8539   .debug_str:00000000000019e1 .LASF991
C:\Users\liukai\AppData\Local\Temp\ccWEnOCw.s:9181   .debug_str:0000000000003cce .LASF992
C:\Users\liukai\AppData\Local\Temp\ccWEnOCw.s:9343   .debug_str:0000000000004466 .LASF993
C:\Users\liukai\AppData\Local\Temp\ccWEnOCw.s:8227   .debug_str:0000000000000967 .LASF994
C:\Users\liukai\AppData\Local\Temp\ccWEnOCw.s:8147   .debug_str:00000000000004da .LASF995
C:\Users\liukai\AppData\Local\Temp\ccWEnOCw.s:8123   .debug_str:0000000000000378 .LASF996
C:\Users\liukai\AppData\Local\Temp\ccWEnOCw.s:9993   .debug_str:0000000000006687 .LASF997
C:\Users\liukai\AppData\Local\Temp\ccWEnOCw.s:9601   .debug_str:000000000000519a .LASF998
C:\Users\liukai\AppData\Local\Temp\ccWEnOCw.s:8899   .debug_str:0000000000002df8 .LASF999
C:\Users\liukai\AppData\Local\Temp\ccWEnOCw.s:10285  .debug_str:00000000000076ae .LASF1000
C:\Users\liukai\AppData\Local\Temp\ccWEnOCw.s:9057   .debug_str:00000000000036c1 .LASF1001
C:\Users\liukai\AppData\Local\Temp\ccWEnOCw.s:8809   .debug_str:00000000000028c1 .LASF1002
C:\Users\liukai\AppData\Local\Temp\ccWEnOCw.s:8259   .debug_str:0000000000000b36 .LASF1003
C:\Users\liukai\AppData\Local\Temp\ccWEnOCw.s:8465   .debug_str:00000000000015da .LASF1004
C:\Users\liukai\AppData\Local\Temp\ccWEnOCw.s:9485   .debug_str:0000000000004be2 .LASF1005
C:\Users\liukai\AppData\Local\Temp\ccWEnOCw.s:9531   .debug_str:0000000000004e53 .LASF1006
C:\Users\liukai\AppData\Local\Temp\ccWEnOCw.s:8277   .debug_str:0000000000000c1c .LASF1007
C:\Users\liukai\AppData\Local\Temp\ccWEnOCw.s:9489   .debug_str:0000000000004c02 .LASF1008
C:\Users\liukai\AppData\Local\Temp\ccWEnOCw.s:9965   .debug_str:0000000000006537 .LASF1009
C:\Users\liukai\AppData\Local\Temp\ccWEnOCw.s:9147   .debug_str:0000000000003aa8 .LASF1010
C:\Users\liukai\AppData\Local\Temp\ccWEnOCw.s:8199   .debug_str:00000000000007b5 .LASF1011
C:\Users\liukai\AppData\Local\Temp\ccWEnOCw.s:10423  .debug_str:0000000000007d22 .LASF1012
C:\Users\liukai\AppData\Local\Temp\ccWEnOCw.s:9863   .debug_str:0000000000005f15 .LASF1013
C:\Users\liukai\AppData\Local\Temp\ccWEnOCw.s:10463  .debug_str:0000000000007fb2 .LASF1014
C:\Users\liukai\AppData\Local\Temp\ccWEnOCw.s:9275   .debug_str:0000000000004143 .LASF1015
C:\Users\liukai\AppData\Local\Temp\ccWEnOCw.s:9629   .debug_str:00000000000052ca .LASF1016
C:\Users\liukai\AppData\Local\Temp\ccWEnOCw.s:8729   .debug_str:0000000000002527 .LASF1017
C:\Users\liukai\AppData\Local\Temp\ccWEnOCw.s:9831   .debug_str:0000000000005d77 .LASF1018
C:\Users\liukai\AppData\Local\Temp\ccWEnOCw.s:8939   .debug_str:0000000000002fcd .LASF1019
C:\Users\liukai\AppData\Local\Temp\ccWEnOCw.s:9541   .debug_str:0000000000004ec5 .LASF1020
C:\Users\liukai\AppData\Local\Temp\ccWEnOCw.s:8451   .debug_str:00000000000014d9 .LASF1021
C:\Users\liukai\AppData\Local\Temp\ccWEnOCw.s:8813   .debug_str:00000000000028fc .LASF1022
C:\Users\liukai\AppData\Local\Temp\ccWEnOCw.s:8945   .debug_str:0000000000003031 .LASF1023
C:\Users\liukai\AppData\Local\Temp\ccWEnOCw.s:8775   .debug_str:0000000000002747 .LASF1024
C:\Users\liukai\AppData\Local\Temp\ccWEnOCw.s:8645   .debug_str:000000000000200c .LASF1025
C:\Users\liukai\AppData\Local\Temp\ccWEnOCw.s:9215   .debug_str:0000000000003e77 .LASF1026
C:\Users\liukai\AppData\Local\Temp\ccWEnOCw.s:9521   .debug_str:0000000000004d9f .LASF1027
C:\Users\liukai\AppData\Local\Temp\ccWEnOCw.s:8571   .debug_str:0000000000001b5a .LASF1028
C:\Users\liukai\AppData\Local\Temp\ccWEnOCw.s:9687   .debug_str:00000000000055d0 .LASF1029
C:\Users\liukai\AppData\Local\Temp\ccWEnOCw.s:9163   .debug_str:0000000000003bd9 .LASF1030
C:\Users\liukai\AppData\Local\Temp\ccWEnOCw.s:9383   .debug_str:0000000000004663 .LASF1031
C:\Users\liukai\AppData\Local\Temp\ccWEnOCw.s:9077   .debug_str:00000000000037bb .LASF1032
C:\Users\liukai\AppData\Local\Temp\ccWEnOCw.s:8951   .debug_str:0000000000003071 .LASF1033
C:\Users\liukai\AppData\Local\Temp\ccWEnOCw.s:10233  .debug_str:00000000000074a5 .LASF1034
C:\Users\liukai\AppData\Local\Temp\ccWEnOCw.s:9409   .debug_str:00000000000047ad .LASF1035
C:\Users\liukai\AppData\Local\Temp\ccWEnOCw.s:9207   .debug_str:0000000000003e12 .LASF1036
C:\Users\liukai\AppData\Local\Temp\ccWEnOCw.s:8121   .debug_str:0000000000000365 .LASF1037
C:\Users\liukai\AppData\Local\Temp\ccWEnOCw.s:9883   .debug_str:000000000000601e .LASF1038
C:\Users\liukai\AppData\Local\Temp\ccWEnOCw.s:9969   .debug_str:0000000000006565 .LASF1039
C:\Users\liukai\AppData\Local\Temp\ccWEnOCw.s:9445   .debug_str:0000000000004a0b .LASF1040
C:\Users\liukai\AppData\Local\Temp\ccWEnOCw.s:8349   .debug_str:0000000000000f52 .LASF1041
C:\Users\liukai\AppData\Local\Temp\ccWEnOCw.s:10303  .debug_str:0000000000007783 .LASF1042
C:\Users\liukai\AppData\Local\Temp\ccWEnOCw.s:8339   .debug_str:0000000000000ee9 .LASF1043
C:\Users\liukai\AppData\Local\Temp\ccWEnOCw.s:9781   .debug_str:0000000000005ae5 .LASF1044
C:\Users\liukai\AppData\Local\Temp\ccWEnOCw.s:8185   .debug_str:00000000000006f2 .LASF1045
C:\Users\liukai\AppData\Local\Temp\ccWEnOCw.s:10415  .debug_str:0000000000007cd5 .LASF1046
C:\Users\liukai\AppData\Local\Temp\ccWEnOCw.s:9555   .debug_str:0000000000004f97 .LASF1047
C:\Users\liukai\AppData\Local\Temp\ccWEnOCw.s:8435   .debug_str:0000000000001366 .LASF1048
C:\Users\liukai\AppData\Local\Temp\ccWEnOCw.s:9429   .debug_str:00000000000048b7 .LASF1049
C:\Users\liukai\AppData\Local\Temp\ccWEnOCw.s:10407  .debug_str:0000000000007c91 .LASF1050
C:\Users\liukai\AppData\Local\Temp\ccWEnOCw.s:8299   .debug_str:0000000000000d5a .LASF1051
                           .group:0000000000000000 wm4.0.37aa6d340f8b0e49c613fc152d20c88a
                           .group:0000000000000000 wm4.config.h.15.8a43118bb129bb57a6209f6e7e39cd57
                           .group:0000000000000000 wm4._newlib_version.h.4.875b979a44719054cd750d0952ad3fd6
                           .group:0000000000000000 wm4.features.h.33.318b64d71e0957639cfb30f1db1f7ec8
                           .group:0000000000000000 wm4._default_types.h.15.247e5cd201eca3442cbf5404108c4935
                           .group:0000000000000000 wm4._intsup.h.10.cce27fed8484c08a33f522034c30d2b5
                           .group:0000000000000000 wm4._stdint.h.10.c24fa3af3bc1706662bb5593a907e841
                           .group:0000000000000000 wm4.stdint.h.23.d53047a68f4a85177f80b422d52785ed
                           .group:0000000000000000 wm4.newlib.h.8.9957ed579b08d5b19580d9fda2a8f437
                           .group:0000000000000000 wm4.ieeefp.h.193.a04996ad6548b0579a40a1f708027f95
                           .group:0000000000000000 wm4.config.h.79.b548f69d9f69fceadec535dc005f68c6
                           .group:0000000000000000 wm4._ansi.h.31.de524f58584151836e90d8620a16f8e8
                           .group:0000000000000000 wm4.stdio.h.31.7c0e28c411445f3f9c5b11accf882760
                           .group:0000000000000000 wm4.stddef.h.187.2ff233552538c6ff9b8575ca8ea52cb3
                           .group:0000000000000000 wm4.cdefs.h.47.9b1aff81ebf9fd459c1248694f70fc96
                           .group:0000000000000000 wm4.stddef.h.39.ec95e8feac892e292b69dc7ae75b0d64
                           .group:0000000000000000 wm4.stdarg.h.34.3a23a216c0c293b3d2ea2e89281481e6
                           .group:0000000000000000 wm4.lock.h.2.1461d1fff82dffe8bfddc23307f6484f
                           .group:0000000000000000 wm4._types.h.125.5cf8a495f1f7ef36777ad868a1e32068
                           .group:0000000000000000 wm4.stddef.h.161.5349cb105733e8777bfb0cf53c4e3f34
                           .group:0000000000000000 wm4._types.h.184.7120b8bb2e0149e2359704f4e2251b68
                           .group:0000000000000000 wm4.reent.h.17.87376802c2b370b32a762f0a30482d9e
                           .group:0000000000000000 wm4.types.h.40.e8c16e7ec36ba55f133d0616070e25fc
                           .group:0000000000000000 wm4._endian.h.18.1bf9649e8e5bbc91042012680270b9ed
                           .group:0000000000000000 wm4.endian.h.9.49f3a4695c1b61e8a0808de3c4a106cb
                           .group:0000000000000000 wm4._timeval.h.30.0e8bfd94e85db17dda3286ee81496fe6
                           .group:0000000000000000 wm4.timespec.h.41.d855182eb0e690443ab8651bcedca6e1
                           .group:0000000000000000 wm4.select.h.30.bbece7fa40993a78092dcc5805132560
                           .group:0000000000000000 wm4.types.h.69.ed3eae3cf73030a737515151ebcab7a1
                           .group:0000000000000000 wm4.sched.h.22.c60982713a5c428609783c78f9c78d95
                           .group:0000000000000000 wm4._pthreadtypes.h.36.fcee9961c35163dde6267ef772ad1972
                           .group:0000000000000000 wm4.stdio.h.2.4aa87247282eca6c8f36f9de33d8df1a
                           .group:0000000000000000 wm4.stdio.h.81.932d0c162786b883f622b8d05c120c78
                           .group:0000000000000000 wm4.stdbool.h.29.07dce69c3b78884144b7f7bd19483461
                           .group:0000000000000000 wm4.picorv32.h.23.1beb83b07770a1ba2f5d16665d13d6c4
                           .group:0000000000000000 wm4.wbspiflash.h.23.effd5d4951dc2747de9981b1fe3eb86a

UNDEFINED SYMBOLS
printf
__riscv_save_3
__riscv_restore_3
__riscv_save_2
__riscv_restore_2
