   1              		.file	"wbspiflash.c"
   2              		.option nopic
   3              		.text
   4              	.Ltext0:
   5              		.cfi_sections	.debug_frame
   6              		.section	.text.SPI_reset,"ax",@progbits
   7              		.align	1
   8              		.globl	SPI_reset
  10              	SPI_reset:
  11              	.LFB3:
  12              		.file 1 "../src/bsp/wbspiflash.c"
   1:../src/bsp/wbspiflash.c **** /*
   2:../src/bsp/wbspiflash.c ****  * *****************************************************************************************
   3:../src/bsp/wbspiflash.c ****  *
   4:../src/bsp/wbspiflash.c ****  * 		Copyright (C) 2014-2022 Gowin Semiconductor Technology Co.,Ltd.
   5:../src/bsp/wbspiflash.c ****  *
   6:../src/bsp/wbspiflash.c ****  * @file		wbspiflash.c
   7:../src/bsp/wbspiflash.c ****  * @author		Embedded Development Team
   8:../src/bsp/wbspiflash.c ****  * @version		V1.2.x
   9:../src/bsp/wbspiflash.c ****  * @date		2022-01-01 09:00:00
  10:../src/bsp/wbspiflash.c ****  * @brief		Wishbone SPI_Flash Peripheral.
  11:../src/bsp/wbspiflash.c ****  ******************************************************************************************
  12:../src/bsp/wbspiflash.c ****  */
  13:../src/bsp/wbspiflash.c **** 
  14:../src/bsp/wbspiflash.c **** /* Includes --------------------------------------------------------------------- */
  15:../src/bsp/wbspiflash.c **** #include "wbspiflash.h"
  16:../src/bsp/wbspiflash.c **** #include <stdio.h>
  17:../src/bsp/wbspiflash.c **** 
  18:../src/bsp/wbspiflash.c **** /* Functions --------------------------------------------------------------------- */
  19:../src/bsp/wbspiflash.c **** void SPI_reset(void)
  20:../src/bsp/wbspiflash.c **** {
  13              		.loc 1 20 1
  14              		.cfi_startproc
  15 0000 4111     		addi	sp,sp,-16
  16              		.cfi_def_cfa_offset 16
  17 0002 22C6     		sw	s0,12(sp)
  18              		.cfi_offset 8, -4
  19 0004 0008     		addi	s0,sp,16
  20              		.cfi_def_cfa 8, 0
  21:../src/bsp/wbspiflash.c **** 	PICO_WBSPI_FLASH->CTRL |= 0x01;         //reset spi
  21              		.loc 1 21 25
  22 0006 B7470011 		li	a5,285229056
  23 000a 985B     		lw	a4,48(a5)
  24 000c B7470011 		li	a5,285229056
  25 0010 13671700 		ori	a4,a4,1
  26 0014 98DB     		sw	a4,48(a5)
  22:../src/bsp/wbspiflash.c **** 	while((PICO_WBSPI_FLASH->CTRL & 0x01)); //wait until spi reset complete
  27              		.loc 1 22 7
  28 0016 0100     		nop
  29              	.L2:
  30              		.loc 1 22 25 discriminator 1
  31 0018 B7470011 		li	a5,285229056
  32 001c 9C5B     		lw	a5,48(a5)
  33              		.loc 1 22 32 discriminator 1
  34 001e 858B     		andi	a5,a5,1
  35              		.loc 1 22 7 discriminator 1
  36 0020 E5FF     		bnez	a5,.L2
  23:../src/bsp/wbspiflash.c **** 	return;
  37              		.loc 1 23 2
  38 0022 0100     		nop
  24:../src/bsp/wbspiflash.c **** }
  39              		.loc 1 24 1
  40 0024 3244     		lw	s0,12(sp)
  41              		.cfi_restore 8
  42 0026 4101     		addi	sp,sp,16
  43              		.cfi_def_cfa_register 2
  44 0028 8280     		jr	ra
  45              		.cfi_endproc
  46              	.LFE3:
  48              		.section	.text.SPI_set_mode,"ax",@progbits
  49              		.align	1
  50              		.globl	SPI_set_mode
  52              	SPI_set_mode:
  53              	.LFB4:
  25:../src/bsp/wbspiflash.c **** 
  26:../src/bsp/wbspiflash.c **** //select the slave mode or master mode
  27:../src/bsp/wbspiflash.c **** //but need the hardware support
  28:../src/bsp/wbspiflash.c **** void SPI_set_mode(uint32_t spi_mode)
  29:../src/bsp/wbspiflash.c **** {
  54              		.loc 1 29 1
  55              		.cfi_startproc
  56 0000 7971     		addi	sp,sp,-48
  57              		.cfi_def_cfa_offset 48
  58 0002 22D6     		sw	s0,44(sp)
  59              		.cfi_offset 8, -4
  60 0004 0018     		addi	s0,sp,48
  61              		.cfi_def_cfa 8, 0
  62 0006 232EA4FC 		sw	a0,-36(s0)
  30:../src/bsp/wbspiflash.c **** 	uint32_t buff = PICO_WBSPI_FLASH->TRANSFMT;
  63              		.loc 1 30 34
  64 000a B7470011 		li	a5,285229056
  65              		.loc 1 30 11
  66 000e 9C4B     		lw	a5,16(a5)
  67 0010 2326F4FE 		sw	a5,-20(s0)
  31:../src/bsp/wbspiflash.c **** 	PICO_WBSPI_FLASH->TRANSFMT = (buff & (~(1UL << 2))) + spi_mode;
  68              		.loc 1 31 37
  69 0014 8327C4FE 		lw	a5,-20(s0)
  70 0018 93F6B7FF 		andi	a3,a5,-5
  71              		.loc 1 31 18
  72 001c B7470011 		li	a5,285229056
  73              		.loc 1 31 54
  74 0020 0327C4FD 		lw	a4,-36(s0)
  75 0024 3697     		add	a4,a3,a4
  76              		.loc 1 31 29
  77 0026 98CB     		sw	a4,16(a5)
  32:../src/bsp/wbspiflash.c **** 	return;
  78              		.loc 1 32 2
  79 0028 0100     		nop
  33:../src/bsp/wbspiflash.c **** }
  80              		.loc 1 33 1
  81 002a 3254     		lw	s0,44(sp)
  82              		.cfi_restore 8
  83 002c 4561     		addi	sp,sp,48
  84              		.cfi_def_cfa_register 2
  85 002e 8280     		jr	ra
  86              		.cfi_endproc
  87              	.LFE4:
  89              		.section	.text.SPI_set_addr_format,"ax",@progbits
  90              		.align	1
  91              		.globl	SPI_set_addr_format
  93              	SPI_set_addr_format:
  94              	.LFB5:
  34:../src/bsp/wbspiflash.c **** 
  35:../src/bsp/wbspiflash.c **** //addrLen = SPI_ADDR_LEN_1_BYTE / SPI_ADDR_LEN_2_BYTE / SPI_ADDR_LEN_3_BYTE / SPI_ADDR_LEN_4_BYTE
  36:../src/bsp/wbspiflash.c **** //addrFmt = ADDRFMT_REGULAR / ADDRFMT_ASDATA
  37:../src/bsp/wbspiflash.c **** void SPI_set_addr_format(uint8_t addrEn, uint32_t addrLen, uint32_t addrFmt)
  38:../src/bsp/wbspiflash.c **** {
  95              		.loc 1 38 1
  96              		.cfi_startproc
  97 0000 7971     		addi	sp,sp,-48
  98              		.cfi_def_cfa_offset 48
  99 0002 22D6     		sw	s0,44(sp)
 100              		.cfi_offset 8, -4
 101 0004 0018     		addi	s0,sp,48
 102              		.cfi_def_cfa 8, 0
 103 0006 AA87     		mv	a5,a0
 104 0008 232CB4FC 		sw	a1,-40(s0)
 105 000c 232AC4FC 		sw	a2,-44(s0)
 106 0010 A30FF4FC 		sb	a5,-33(s0)
  39:../src/bsp/wbspiflash.c **** 	uint32_t buff;
  40:../src/bsp/wbspiflash.c **** 	if(0 == addrEn)
 107              		.loc 1 40 4
 108 0014 8347F4FD 		lbu	a5,-33(s0)
 109 0018 B1CB     		beqz	a5,.L9
  41:../src/bsp/wbspiflash.c **** 	{
  42:../src/bsp/wbspiflash.c **** 		return;
  43:../src/bsp/wbspiflash.c **** 	}
  44:../src/bsp/wbspiflash.c **** 	else
  45:../src/bsp/wbspiflash.c **** 	{
  46:../src/bsp/wbspiflash.c **** 		//set the addr enable && addr fomat
  47:../src/bsp/wbspiflash.c **** 		buff = PICO_WBSPI_FLASH->TRANSCTRL;
 110              		.loc 1 47 26
 111 001a B7470011 		li	a5,285229056
 112              		.loc 1 47 8
 113 001e 9C53     		lw	a5,32(a5)
 114 0020 2326F4FE 		sw	a5,-20(s0)
  48:../src/bsp/wbspiflash.c **** 		PICO_WBSPI_FLASH->TRANSCTRL = (buff & (~(3UL << 28))) + addrFmt + SPI_ADDREN;
 115              		.loc 1 48 39
 116 0024 0327C4FE 		lw	a4,-20(s0)
 117 0028 B70700D0 		li	a5,-805306368
 118 002c FD17     		addi	a5,a5,-1
 119 002e 7D8F     		and	a4,a4,a5
 120              		.loc 1 48 57
 121 0030 832744FD 		lw	a5,-44(s0)
 122 0034 B306F700 		add	a3,a4,a5
 123              		.loc 1 48 19
 124 0038 B7470011 		li	a5,285229056
 125              		.loc 1 48 67
 126 003c 37070020 		li	a4,536870912
 127 0040 3697     		add	a4,a3,a4
 128              		.loc 1 48 31
 129 0042 98D3     		sw	a4,32(a5)
  49:../src/bsp/wbspiflash.c **** 		//set the width of the addr length
  50:../src/bsp/wbspiflash.c **** 		buff = PICO_WBSPI_FLASH->TRANSFMT;
 130              		.loc 1 50 26
 131 0044 B7470011 		li	a5,285229056
 132              		.loc 1 50 8
 133 0048 9C4B     		lw	a5,16(a5)
 134 004a 2326F4FE 		sw	a5,-20(s0)
  51:../src/bsp/wbspiflash.c **** 		PICO_WBSPI_FLASH->TRANSFMT  = (buff & (~(3UL << 16))) + addrLen;
 135              		.loc 1 51 39
 136 004e 0327C4FE 		lw	a4,-20(s0)
 137 0052 B707FDFF 		li	a5,-196608
 138 0056 FD17     		addi	a5,a5,-1
 139 0058 B376F700 		and	a3,a4,a5
 140              		.loc 1 51 19
 141 005c B7470011 		li	a5,285229056
 142              		.loc 1 51 57
 143 0060 032784FD 		lw	a4,-40(s0)
 144 0064 3697     		add	a4,a3,a4
 145              		.loc 1 51 31
 146 0066 98CB     		sw	a4,16(a5)
  52:../src/bsp/wbspiflash.c **** 	}
  53:../src/bsp/wbspiflash.c **** 	return;
 147              		.loc 1 53 2
 148 0068 0100     		nop
 149 006a 11A0     		j	.L6
 150              	.L9:
  42:../src/bsp/wbspiflash.c **** 	}
 151              		.loc 1 42 3
 152 006c 0100     		nop
 153              	.L6:
  54:../src/bsp/wbspiflash.c **** }
 154              		.loc 1 54 1
 155 006e 3254     		lw	s0,44(sp)
 156              		.cfi_restore 8
 157 0070 4561     		addi	sp,sp,48
 158              		.cfi_def_cfa_register 2
 159 0072 8280     		jr	ra
 160              		.cfi_endproc
 161              	.LFE5:
 163              		.section	.text.SPI_set_cmd_format,"ax",@progbits
 164              		.align	1
 165              		.globl	SPI_set_cmd_format
 167              	SPI_set_cmd_format:
 168              	.LFB6:
  55:../src/bsp/wbspiflash.c **** 
  56:../src/bsp/wbspiflash.c **** void SPI_set_cmd_format(uint8_t cmdEn)
  57:../src/bsp/wbspiflash.c **** {
 169              		.loc 1 57 1
 170              		.cfi_startproc
 171 0000 7971     		addi	sp,sp,-48
 172              		.cfi_def_cfa_offset 48
 173 0002 22D6     		sw	s0,44(sp)
 174              		.cfi_offset 8, -4
 175 0004 0018     		addi	s0,sp,48
 176              		.cfi_def_cfa 8, 0
 177 0006 AA87     		mv	a5,a0
 178 0008 A30FF4FC 		sb	a5,-33(s0)
  58:../src/bsp/wbspiflash.c **** 	uint32_t buff;
  59:../src/bsp/wbspiflash.c **** 	if(0 == cmdEn)
 179              		.loc 1 59 4
 180 000c 8347F4FD 		lbu	a5,-33(s0)
 181 0010 8DC7     		beqz	a5,.L13
  60:../src/bsp/wbspiflash.c **** 	{
  61:../src/bsp/wbspiflash.c **** 		return;
  62:../src/bsp/wbspiflash.c **** 	}
  63:../src/bsp/wbspiflash.c **** 
  64:../src/bsp/wbspiflash.c **** 	else
  65:../src/bsp/wbspiflash.c **** 	{
  66:../src/bsp/wbspiflash.c **** 		//open the spi cmd phase
  67:../src/bsp/wbspiflash.c **** 		buff = PICO_WBSPI_FLASH->TRANSCTRL;
 182              		.loc 1 67 26
 183 0012 B7470011 		li	a5,285229056
 184              		.loc 1 67 8
 185 0016 9C53     		lw	a5,32(a5)
 186 0018 2326F4FE 		sw	a5,-20(s0)
  68:../src/bsp/wbspiflash.c **** 		PICO_WBSPI_FLASH->TRANSCTRL = (buff & (~(1UL << 30))) + SPI_CMDEN;
 187              		.loc 1 68 39
 188 001c 0327C4FE 		lw	a4,-20(s0)
 189 0020 B70700C0 		li	a5,-1073741824
 190 0024 FD17     		addi	a5,a5,-1
 191 0026 B376F700 		and	a3,a4,a5
 192              		.loc 1 68 19
 193 002a B7470011 		li	a5,285229056
 194              		.loc 1 68 57
 195 002e 37070040 		li	a4,1073741824
 196 0032 3697     		add	a4,a3,a4
 197              		.loc 1 68 31
 198 0034 98D3     		sw	a4,32(a5)
  69:../src/bsp/wbspiflash.c **** 	}
  70:../src/bsp/wbspiflash.c **** 	return;
 199              		.loc 1 70 2
 200 0036 0100     		nop
 201 0038 11A0     		j	.L10
 202              	.L13:
  61:../src/bsp/wbspiflash.c **** 	}
 203              		.loc 1 61 3
 204 003a 0100     		nop
 205              	.L10:
  71:../src/bsp/wbspiflash.c **** }
 206              		.loc 1 71 1
 207 003c 3254     		lw	s0,44(sp)
 208              		.cfi_restore 8
 209 003e 4561     		addi	sp,sp,48
 210              		.cfi_def_cfa_register 2
 211 0040 8280     		jr	ra
 212              		.cfi_endproc
 213              	.LFE6:
 215              		.section	.text.SPI_set_data_format,"ax",@progbits
 216              		.align	1
 217              		.globl	SPI_set_data_format
 219              	SPI_set_data_format:
 220              	.LFB7:
  72:../src/bsp/wbspiflash.c **** 
  73:../src/bsp/wbspiflash.c **** //dataMerge takes effect only when data length is 8
  74:../src/bsp/wbspiflash.c **** void SPI_set_data_format(uint8_t dataBits, uint8_t dataMerge)
  75:../src/bsp/wbspiflash.c **** {
 221              		.loc 1 75 1
 222              		.cfi_startproc
 223 0000 7971     		addi	sp,sp,-48
 224              		.cfi_def_cfa_offset 48
 225 0002 22D6     		sw	s0,44(sp)
 226              		.cfi_offset 8, -4
 227 0004 0018     		addi	s0,sp,48
 228              		.cfi_def_cfa 8, 0
 229 0006 AA87     		mv	a5,a0
 230 0008 2E87     		mv	a4,a1
 231 000a A30FF4FC 		sb	a5,-33(s0)
 232 000e BA87     		mv	a5,a4
 233 0010 230FF4FC 		sb	a5,-34(s0)
  76:../src/bsp/wbspiflash.c **** 	uint32_t buff;
  77:../src/bsp/wbspiflash.c **** 	buff = PICO_WBSPI_FLASH->TRANSFMT;
 234              		.loc 1 77 25
 235 0014 B7470011 		li	a5,285229056
 236              		.loc 1 77 7
 237 0018 9C4B     		lw	a5,16(a5)
 238 001a 2326F4FE 		sw	a5,-20(s0)
  78:../src/bsp/wbspiflash.c **** 	PICO_WBSPI_FLASH->TRANSFMT = (buff &(~(0xf << 8))) + (((dataBits - 1) & 0xf) << 8);
 239              		.loc 1 78 37
 240 001e 0327C4FE 		lw	a4,-20(s0)
 241 0022 FD77     		li	a5,-4096
 242 0024 9387F70F 		addi	a5,a5,255
 243 0028 B376F700 		and	a3,a4,a5
 244              		.loc 1 78 67
 245 002c 8347F4FD 		lbu	a5,-33(s0)
 246 0030 FD17     		addi	a5,a5,-1
 247              		.loc 1 78 79
 248 0032 A207     		slli	a5,a5,8
 249 0034 3E87     		mv	a4,a5
 250 0036 8567     		li	a5,4096
 251 0038 938707F0 		addi	a5,a5,-256
 252 003c 7D8F     		and	a4,a4,a5
 253              		.loc 1 78 18
 254 003e B7470011 		li	a5,285229056
 255              		.loc 1 78 53
 256 0042 558F     		or	a4,a3,a4
 257              		.loc 1 78 29
 258 0044 98CB     		sw	a4,16(a5)
  79:../src/bsp/wbspiflash.c **** 	if(8 == dataBits)
 259              		.loc 1 79 4
 260 0046 0347F4FD 		lbu	a4,-33(s0)
 261 004a A147     		li	a5,8
 262 004c 6315F702 		bne	a4,a5,.L17
  80:../src/bsp/wbspiflash.c **** 	{
  81:../src/bsp/wbspiflash.c **** 		buff = PICO_WBSPI_FLASH->TRANSFMT;
 263              		.loc 1 81 26
 264 0050 B7470011 		li	a5,285229056
 265              		.loc 1 81 8
 266 0054 9C4B     		lw	a5,16(a5)
 267 0056 2326F4FE 		sw	a5,-20(s0)
  82:../src/bsp/wbspiflash.c **** 		PICO_WBSPI_FLASH->TRANSFMT = (buff &(~(0x1 << 7))) + ((dataMerge & 0x1) << 8);
 268              		.loc 1 82 38
 269 005a 8327C4FE 		lw	a5,-20(s0)
 270 005e 93F6F7F7 		andi	a3,a5,-129
 271              		.loc 1 82 75
 272 0062 8347E4FD 		lbu	a5,-34(s0)
 273 0066 A207     		slli	a5,a5,8
 274 0068 13F70710 		andi	a4,a5,256
 275              		.loc 1 82 19
 276 006c B7470011 		li	a5,285229056
 277              		.loc 1 82 54
 278 0070 3697     		add	a4,a3,a4
 279              		.loc 1 82 30
 280 0072 98CB     		sw	a4,16(a5)
  83:../src/bsp/wbspiflash.c **** 	}
  84:../src/bsp/wbspiflash.c **** 	return;
 281              		.loc 1 84 2
 282 0074 0100     		nop
 283              	.L17:
 284 0076 0100     		nop
  85:../src/bsp/wbspiflash.c **** }
 285              		.loc 1 85 1
 286 0078 3254     		lw	s0,44(sp)
 287              		.cfi_restore 8
 288 007a 4561     		addi	sp,sp,48
 289              		.cfi_def_cfa_register 2
 290 007c 8280     		jr	ra
 291              		.cfi_endproc
 292              	.LFE7:
 294              		.section	.text.SPI_set_transfer_format,"ax",@progbits
 295              		.align	1
 296              		.globl	SPI_set_transfer_format
 298              	SPI_set_transfer_format:
 299              	.LFB8:
  86:../src/bsp/wbspiflash.c **** 
  87:../src/bsp/wbspiflash.c **** //mosiDir = SPI_MOSIBIDIR / SPI_MOSIUINDIR
  88:../src/bsp/wbspiflash.c **** //lsbmsb  = SPI_LSB / SPI_MSB
  89:../src/bsp/wbspiflash.c **** //cpol    = 0 / 1
  90:../src/bsp/wbspiflash.c **** //cpha    = 0 / 1
  91:../src/bsp/wbspiflash.c **** void SPI_set_transfer_format(uint32_t mosiDir, uint32_t lsbmsb, uint32_t cpol, uint32_t cpha)
  92:../src/bsp/wbspiflash.c **** {
 300              		.loc 1 92 1
 301              		.cfi_startproc
 302 0000 7971     		addi	sp,sp,-48
 303              		.cfi_def_cfa_offset 48
 304 0002 22D6     		sw	s0,44(sp)
 305              		.cfi_offset 8, -4
 306 0004 0018     		addi	s0,sp,48
 307              		.cfi_def_cfa 8, 0
 308 0006 232EA4FC 		sw	a0,-36(s0)
 309 000a 232CB4FC 		sw	a1,-40(s0)
 310 000e 232AC4FC 		sw	a2,-44(s0)
 311 0012 2328D4FC 		sw	a3,-48(s0)
  93:../src/bsp/wbspiflash.c **** 	uint32_t buff;
  94:../src/bsp/wbspiflash.c **** 	uint32_t tmp;
  95:../src/bsp/wbspiflash.c **** 	buff = PICO_WBSPI_FLASH->TRANSFMT;
 312              		.loc 1 95 25
 313 0016 B7470011 		li	a5,285229056
 314              		.loc 1 95 7
 315 001a 9C4B     		lw	a5,16(a5)
 316 001c 2326F4FE 		sw	a5,-20(s0)
  96:../src/bsp/wbspiflash.c **** 	tmp = mosiDir + lsbmsb + ((cpol & 0x1) << 1) + (cpha & 0x1);
 317              		.loc 1 96 16
 318 0020 0327C4FD 		lw	a4,-36(s0)
 319 0024 832784FD 		lw	a5,-40(s0)
 320 0028 3E97     		add	a4,a4,a5
 321              		.loc 1 96 41
 322 002a 832744FD 		lw	a5,-44(s0)
 323 002e 8607     		slli	a5,a5,1
 324 0030 898B     		andi	a5,a5,2
 325              		.loc 1 96 25
 326 0032 3E97     		add	a4,a4,a5
 327              		.loc 1 96 55
 328 0034 832704FD 		lw	a5,-48(s0)
 329 0038 858B     		andi	a5,a5,1
 330              		.loc 1 96 6
 331 003a BA97     		add	a5,a4,a5
 332 003c 2324F4FE 		sw	a5,-24(s0)
  97:../src/bsp/wbspiflash.c **** 	PICO_WBSPI_FLASH->TRANSFMT = (buff & (~(0x1b))) + tmp;
 333              		.loc 1 97 37
 334 0040 8327C4FE 		lw	a5,-20(s0)
 335 0044 93F647FE 		andi	a3,a5,-28
 336              		.loc 1 97 18
 337 0048 B7470011 		li	a5,285229056
 338              		.loc 1 97 50
 339 004c 032784FE 		lw	a4,-24(s0)
 340 0050 3697     		add	a4,a3,a4
 341              		.loc 1 97 29
 342 0052 98CB     		sw	a4,16(a5)
  98:../src/bsp/wbspiflash.c **** 	return;
 343              		.loc 1 98 2
 344 0054 0100     		nop
  99:../src/bsp/wbspiflash.c **** }
 345              		.loc 1 99 1
 346 0056 3254     		lw	s0,44(sp)
 347              		.cfi_restore 8
 348 0058 4561     		addi	sp,sp,48
 349              		.cfi_def_cfa_register 2
 350 005a 8280     		jr	ra
 351              		.cfi_endproc
 352              	.LFE8:
 354              		.section	.text.SPI_set_trans_ctrl,"ax",@progbits
 355              		.align	1
 356              		.globl	SPI_set_trans_ctrl
 358              	SPI_set_trans_ctrl:
 359              	.LFB9:
 100:../src/bsp/wbspiflash.c **** 
 101:../src/bsp/wbspiflash.c **** //transMode = SPI_TRANSMODE_WRnRD     / SPI_TRANSMODE_WRONLY   / SPI_TRANSMODE_RDONLY    /
 102:../src/bsp/wbspiflash.c **** //            SPI_TRANSMODE_WR_RD     / SPI_TRANSMODE_RD_WR    / SPI_TRANSMODE_WR_DMY_RD /
 103:../src/bsp/wbspiflash.c **** //            SPI_TRANSMODE_RD_DMY_WR / SPI_TRANSMODE_NONEDATA / SPI_TRANSMODE_DMY_WR    /
 104:../src/bsp/wbspiflash.c **** //            SPI_TRANSMODE_DMY_RD
 105:../src/bsp/wbspiflash.c **** //dualQuad  = SPI_REGULAR / SPI_DUAL / SPI_QUAD
 106:../src/bsp/wbspiflash.c **** //dummyCnt  = 1 / 2 / 3 / 4
 107:../src/bsp/wbspiflash.c **** void SPI_set_trans_ctrl(uint32_t transMode, uint32_t dualQuad, uint32_t dummyCnt)
 108:../src/bsp/wbspiflash.c **** {
 360              		.loc 1 108 1
 361              		.cfi_startproc
 362 0000 7971     		addi	sp,sp,-48
 363              		.cfi_def_cfa_offset 48
 364 0002 22D6     		sw	s0,44(sp)
 365              		.cfi_offset 8, -4
 366 0004 0018     		addi	s0,sp,48
 367              		.cfi_def_cfa 8, 0
 368 0006 232EA4FC 		sw	a0,-36(s0)
 369 000a 232CB4FC 		sw	a1,-40(s0)
 370 000e 232AC4FC 		sw	a2,-44(s0)
 109:../src/bsp/wbspiflash.c **** 	uint32_t buff = PICO_WBSPI_FLASH->TRANSCTRL;
 371              		.loc 1 109 34
 372 0012 B7470011 		li	a5,285229056
 373              		.loc 1 109 11
 374 0016 9C53     		lw	a5,32(a5)
 375 0018 2326F4FE 		sw	a5,-20(s0)
 110:../src/bsp/wbspiflash.c **** 	PICO_WBSPI_FLASH->TRANSCTRL = buff & (~((0xf << 24) + (0x3 << 22) + (0x3 << 9)));
 376              		.loc 1 110 18
 377 001c B7470011 		li	a5,285229056
 378              		.loc 1 110 37
 379 0020 8326C4FE 		lw	a3,-20(s0)
 380 0024 370740F0 		li	a4,-264241152
 381 0028 1307F79F 		addi	a4,a4,-1537
 382 002c 758F     		and	a4,a3,a4
 383              		.loc 1 110 30
 384 002e 98D3     		sw	a4,32(a5)
 111:../src/bsp/wbspiflash.c **** 	PICO_WBSPI_FLASH->TRANSCTRL += transMode;
 385              		.loc 1 111 30
 386 0030 B7470011 		li	a5,285229056
 387 0034 9453     		lw	a3,32(a5)
 388 0036 B7470011 		li	a5,285229056
 389 003a 0327C4FD 		lw	a4,-36(s0)
 390 003e 3697     		add	a4,a3,a4
 391 0040 98D3     		sw	a4,32(a5)
 112:../src/bsp/wbspiflash.c **** 	PICO_WBSPI_FLASH->TRANSCTRL += dualQuad;
 392              		.loc 1 112 30
 393 0042 B7470011 		li	a5,285229056
 394 0046 9453     		lw	a3,32(a5)
 395 0048 B7470011 		li	a5,285229056
 396 004c 032784FD 		lw	a4,-40(s0)
 397 0050 3697     		add	a4,a3,a4
 398 0052 98D3     		sw	a4,32(a5)
 113:../src/bsp/wbspiflash.c **** 	PICO_WBSPI_FLASH->TRANSCTRL += (((dummyCnt - 1) & 0x3) << 9);
 399              		.loc 1 113 30
 400 0054 B7470011 		li	a5,285229056
 401 0058 9453     		lw	a3,32(a5)
 402              		.loc 1 113 45
 403 005a 832744FD 		lw	a5,-44(s0)
 404 005e FD17     		addi	a5,a5,-1
 405              		.loc 1 113 57
 406 0060 A607     		slli	a5,a5,9
 407 0062 13F70760 		andi	a4,a5,1536
 408              		.loc 1 113 30
 409 0066 B7470011 		li	a5,285229056
 410 006a 3697     		add	a4,a3,a4
 411 006c 98D3     		sw	a4,32(a5)
 114:../src/bsp/wbspiflash.c **** 	return;
 412              		.loc 1 114 2
 413 006e 0100     		nop
 115:../src/bsp/wbspiflash.c **** }
 414              		.loc 1 115 1
 415 0070 3254     		lw	s0,44(sp)
 416              		.cfi_restore 8
 417 0072 4561     		addi	sp,sp,48
 418              		.cfi_def_cfa_register 2
 419 0074 8280     		jr	ra
 420              		.cfi_endproc
 421              	.LFE9:
 423              		.section	.text.SPI_set_token,"ax",@progbits
 424              		.align	1
 425              		.globl	SPI_set_token
 427              	SPI_set_token:
 428              	.LFB10:
 116:../src/bsp/wbspiflash.c **** 
 117:../src/bsp/wbspiflash.c **** void SPI_set_token(uint8_t tokenEn, uint8_t tokenValue)
 118:../src/bsp/wbspiflash.c **** {
 429              		.loc 1 118 1
 430              		.cfi_startproc
 431 0000 7971     		addi	sp,sp,-48
 432              		.cfi_def_cfa_offset 48
 433 0002 22D6     		sw	s0,44(sp)
 434              		.cfi_offset 8, -4
 435 0004 0018     		addi	s0,sp,48
 436              		.cfi_def_cfa 8, 0
 437 0006 AA87     		mv	a5,a0
 438 0008 2E87     		mv	a4,a1
 439 000a A30FF4FC 		sb	a5,-33(s0)
 440 000e BA87     		mv	a5,a4
 441 0010 230FF4FC 		sb	a5,-34(s0)
 119:../src/bsp/wbspiflash.c **** 	uint32_t buff = PICO_WBSPI_FLASH->TRANSCTRL;
 442              		.loc 1 119 34
 443 0014 B7470011 		li	a5,285229056
 444              		.loc 1 119 11
 445 0018 9C53     		lw	a5,32(a5)
 446 001a 2326F4FE 		sw	a5,-20(s0)
 120:../src/bsp/wbspiflash.c **** 	if(0 == tokenEn)
 447              		.loc 1 120 4
 448 001e 8347F4FD 		lbu	a5,-33(s0)
 449 0022 8DCB     		beqz	a5,.L25
 121:../src/bsp/wbspiflash.c **** 	{
 122:../src/bsp/wbspiflash.c **** 		return;
 123:../src/bsp/wbspiflash.c **** 	}
 124:../src/bsp/wbspiflash.c **** 	else
 125:../src/bsp/wbspiflash.c **** 	{
 126:../src/bsp/wbspiflash.c **** 		PICO_WBSPI_FLASH->TRANSCTRL = (buff & (~((1 << 21) + (1 << 11)))) + (1 << 21) + ((tokenValue & 0x
 450              		.loc 1 126 39
 451 0024 0327C4FE 		lw	a4,-20(s0)
 452 0028 B7F7DFFF 		li	a5,-2101248
 453 002c 9387F77F 		addi	a5,a5,2047
 454 0030 7D8F     		and	a4,a4,a5
 455              		.loc 1 126 103
 456 0032 8347E4FD 		lbu	a5,-34(s0)
 457 0036 AE07     		slli	a5,a5,11
 458 0038 BE86     		mv	a3,a5
 459 003a 8567     		li	a5,4096
 460 003c 93870780 		addi	a5,a5,-2048
 461 0040 F58F     		and	a5,a3,a5
 462              		.loc 1 126 81
 463 0042 B366F700 		or	a3,a4,a5
 464              		.loc 1 126 19
 465 0046 B7470011 		li	a5,285229056
 466              		.loc 1 126 81
 467 004a 37072000 		li	a4,2097152
 468 004e 3697     		add	a4,a3,a4
 469              		.loc 1 126 31
 470 0050 98D3     		sw	a4,32(a5)
 471 0052 11A0     		j	.L22
 472              	.L25:
 122:../src/bsp/wbspiflash.c **** 	}
 473              		.loc 1 122 3
 474 0054 0100     		nop
 475              	.L22:
 127:../src/bsp/wbspiflash.c **** 	}
 128:../src/bsp/wbspiflash.c **** }
 476              		.loc 1 128 1
 477 0056 3254     		lw	s0,44(sp)
 478              		.cfi_restore 8
 479 0058 4561     		addi	sp,sp,48
 480              		.cfi_def_cfa_register 2
 481 005a 8280     		jr	ra
 482              		.cfi_endproc
 483              	.LFE10:
 485              		.section	.text.SPI_tx_fifo_reset,"ax",@progbits
 486              		.align	1
 487              		.globl	SPI_tx_fifo_reset
 489              	SPI_tx_fifo_reset:
 490              	.LFB11:
 129:../src/bsp/wbspiflash.c **** 
 130:../src/bsp/wbspiflash.c **** void SPI_tx_fifo_reset(void)
 131:../src/bsp/wbspiflash.c **** {
 491              		.loc 1 131 1
 492              		.cfi_startproc
 493 0000 4111     		addi	sp,sp,-16
 494              		.cfi_def_cfa_offset 16
 495 0002 22C6     		sw	s0,12(sp)
 496              		.cfi_offset 8, -4
 497 0004 0008     		addi	s0,sp,16
 498              		.cfi_def_cfa 8, 0
 132:../src/bsp/wbspiflash.c **** 	PICO_WBSPI_FLASH->CTRL |= (0x1 << 2);    //reset tx fifo
 499              		.loc 1 132 25
 500 0006 B7470011 		li	a5,285229056
 501 000a 985B     		lw	a4,48(a5)
 502 000c B7470011 		li	a5,285229056
 503 0010 13674700 		ori	a4,a4,4
 504 0014 98DB     		sw	a4,48(a5)
 133:../src/bsp/wbspiflash.c **** 	while((PICO_WBSPI_FLASH->CTRL & 0x2)) ;  //wait tx fifo reset complete
 505              		.loc 1 133 7
 506 0016 0100     		nop
 507              	.L27:
 508              		.loc 1 133 25 discriminator 1
 509 0018 B7470011 		li	a5,285229056
 510 001c 9C5B     		lw	a5,48(a5)
 511              		.loc 1 133 32 discriminator 1
 512 001e 898B     		andi	a5,a5,2
 513              		.loc 1 133 7 discriminator 1
 514 0020 E5FF     		bnez	a5,.L27
 134:../src/bsp/wbspiflash.c **** }
 515              		.loc 1 134 1
 516 0022 0100     		nop
 517 0024 3244     		lw	s0,12(sp)
 518              		.cfi_restore 8
 519 0026 4101     		addi	sp,sp,16
 520              		.cfi_def_cfa_register 2
 521 0028 8280     		jr	ra
 522              		.cfi_endproc
 523              	.LFE11:
 525              		.section	.text.SPI_rx_fifo_reset,"ax",@progbits
 526              		.align	1
 527              		.globl	SPI_rx_fifo_reset
 529              	SPI_rx_fifo_reset:
 530              	.LFB12:
 135:../src/bsp/wbspiflash.c **** 
 136:../src/bsp/wbspiflash.c **** void SPI_rx_fifo_reset(void)
 137:../src/bsp/wbspiflash.c **** {
 531              		.loc 1 137 1
 532              		.cfi_startproc
 533 0000 4111     		addi	sp,sp,-16
 534              		.cfi_def_cfa_offset 16
 535 0002 22C6     		sw	s0,12(sp)
 536              		.cfi_offset 8, -4
 537 0004 0008     		addi	s0,sp,16
 538              		.cfi_def_cfa 8, 0
 138:../src/bsp/wbspiflash.c **** 	PICO_WBSPI_FLASH->CTRL |= (0x1 << 1);    //reset rx fifo
 539              		.loc 1 138 25
 540 0006 B7470011 		li	a5,285229056
 541 000a 985B     		lw	a4,48(a5)
 542 000c B7470011 		li	a5,285229056
 543 0010 13672700 		ori	a4,a4,2
 544 0014 98DB     		sw	a4,48(a5)
 139:../src/bsp/wbspiflash.c **** 	while((PICO_WBSPI_FLASH->CTRL & 0x1)) ;  //wait rx fifo reset complete
 545              		.loc 1 139 7
 546 0016 0100     		nop
 547              	.L29:
 548              		.loc 1 139 25 discriminator 1
 549 0018 B7470011 		li	a5,285229056
 550 001c 9C5B     		lw	a5,48(a5)
 551              		.loc 1 139 32 discriminator 1
 552 001e 858B     		andi	a5,a5,1
 553              		.loc 1 139 7 discriminator 1
 554 0020 E5FF     		bnez	a5,.L29
 140:../src/bsp/wbspiflash.c **** }
 555              		.loc 1 140 1
 556 0022 0100     		nop
 557 0024 3244     		lw	s0,12(sp)
 558              		.cfi_restore 8
 559 0026 4101     		addi	sp,sp,16
 560              		.cfi_def_cfa_register 2
 561 0028 8280     		jr	ra
 562              		.cfi_endproc
 563              	.LFE12:
 565              		.section	.text.spi_get_fifo_depth,"ax",@progbits
 566              		.align	1
 567              		.globl	spi_get_fifo_depth
 569              	spi_get_fifo_depth:
 570              	.LFB13:
 141:../src/bsp/wbspiflash.c **** 
 142:../src/bsp/wbspiflash.c **** uint8_t spi_get_fifo_depth(uint8_t fifo_depth_config)
 143:../src/bsp/wbspiflash.c **** {
 571              		.loc 1 143 1
 572              		.cfi_startproc
 573              	.LBB2:
 144:../src/bsp/wbspiflash.c **** 	uint8_t fifo_depth = 1;
 145:../src/bsp/wbspiflash.c **** 	for(int i = 0; i < fifo_depth_config+1; i++)
 574              		.loc 1 145 10
 575 0000 0147     		li	a4,0
 576              	.LBE2:
 144:../src/bsp/wbspiflash.c **** 	uint8_t fifo_depth = 1;
 577              		.loc 1 144 10
 578 0002 8547     		li	a5,1
 579              	.L31:
 580              	.LBB3:
 146:../src/bsp/wbspiflash.c **** 	{
 147:../src/bsp/wbspiflash.c **** 		fifo_depth *= 2;
 581              		.loc 1 147 14 discriminator 3
 582 0004 8607     		slli	a5,a5,1
 145:../src/bsp/wbspiflash.c **** 	{
 583              		.loc 1 145 43 discriminator 3
 584 0006 0507     		addi	a4,a4,1
 585              		.loc 1 147 14 discriminator 3
 586 0008 93F7F70F 		andi	a5,a5,0xff
 145:../src/bsp/wbspiflash.c **** 	{
 587              		.loc 1 145 2 discriminator 3
 588 000c E35CE5FE 		bge	a0,a4,.L31
 589              	.LBE3:
 148:../src/bsp/wbspiflash.c **** 	}
 149:../src/bsp/wbspiflash.c **** 	return fifo_depth;
 150:../src/bsp/wbspiflash.c **** }
 590              		.loc 1 150 1
 591 0010 3E85     		mv	a0,a5
 592 0012 8280     		ret
 593              		.cfi_endproc
 594              	.LFE13:
 596              		.section	.rodata.SPI_set_tx_threshold.str1.4,"aMS",@progbits,1
 597              		.align	2
 598              	.LC0:
 599 0000 4572726F 		.string	"Error : TX threshold should not be set larger than TX fifo depth!\r\n"
 599      72203A20 
 599      54582074 
 599      68726573 
 599      686F6C64 
 600              		.section	.text.SPI_set_tx_threshold,"ax",@progbits
 601              		.align	1
 602              		.globl	SPI_set_tx_threshold
 604              	SPI_set_tx_threshold:
 605              	.LFB14:
 151:../src/bsp/wbspiflash.c **** 
 152:../src/bsp/wbspiflash.c **** void SPI_set_tx_threshold(uint8_t tx_threshold)
 153:../src/bsp/wbspiflash.c **** {
 606              		.loc 1 153 1
 607              		.cfi_startproc
 608 0000 7971     		addi	sp,sp,-48
 609              		.cfi_def_cfa_offset 48
 610 0002 06D6     		sw	ra,44(sp)
 611 0004 22D4     		sw	s0,40(sp)
 612              		.cfi_offset 1, -4
 613              		.cfi_offset 8, -8
 614 0006 0018     		addi	s0,sp,48
 615              		.cfi_def_cfa 8, 0
 616 0008 AA87     		mv	a5,a0
 617 000a A30FF4FC 		sb	a5,-33(s0)
 154:../src/bsp/wbspiflash.c **** 	uint32_t buff;
 155:../src/bsp/wbspiflash.c **** 	buff = PICO_WBSPI_FLASH->CONFIG;
 618              		.loc 1 155 25
 619 000e B7470011 		li	a5,285229056
 620              		.loc 1 155 7
 621 0012 FC5F     		lw	a5,124(a5)
 622 0014 2326F4FE 		sw	a5,-20(s0)
 156:../src/bsp/wbspiflash.c **** 	uint8_t tx_fifo_depth_config = (buff & 0x3f) >> 4;
 623              		.loc 1 156 47
 624 0018 8327C4FE 		lw	a5,-20(s0)
 625 001c 9183     		srli	a5,a5,4
 626 001e 93F7F70F 		andi	a5,a5,0xff
 627              		.loc 1 156 10
 628 0022 8D8B     		andi	a5,a5,3
 629 0024 A305F4FE 		sb	a5,-21(s0)
 157:../src/bsp/wbspiflash.c **** 	uint8_t tx_fifo_depth = spi_get_fifo_depth(tx_fifo_depth_config);
 630              		.loc 1 157 26
 631 0028 8347B4FE 		lbu	a5,-21(s0)
 632 002c 3E85     		mv	a0,a5
 633 002e 97000000 		call	spi_get_fifo_depth
 633      E7800000 
 634 0036 AA87     		mv	a5,a0
 635 0038 2305F4FE 		sb	a5,-22(s0)
 158:../src/bsp/wbspiflash.c **** 	if(tx_threshold > tx_fifo_depth)
 636              		.loc 1 158 4
 637 003c 0347F4FD 		lbu	a4,-33(s0)
 638 0040 8347A4FE 		lbu	a5,-22(s0)
 639 0044 63FBE700 		bleu	a4,a5,.L34
 159:../src/bsp/wbspiflash.c **** 	{
 160:../src/bsp/wbspiflash.c **** 		printf("Error : TX threshold should not be set larger than TX fifo depth!\r\n");
 640              		.loc 1 160 3
 641 0048 17050000 		lla	a0,.LC0
 641      13050500 
 642 0050 97000000 		call	printf
 642      E7800000 
 161:../src/bsp/wbspiflash.c **** 	}
 162:../src/bsp/wbspiflash.c **** 	else
 163:../src/bsp/wbspiflash.c **** 	{
 164:../src/bsp/wbspiflash.c **** 		PICO_WBSPI_FLASH->CTRL &= (~(0x1f << 16));
 165:../src/bsp/wbspiflash.c **** 		PICO_WBSPI_FLASH->CTRL |= ((tx_threshold) << 16);
 166:../src/bsp/wbspiflash.c **** 	}
 167:../src/bsp/wbspiflash.c **** 	return;
 643              		.loc 1 167 2
 644 0058 3DA0     		j	.L33
 645              	.L34:
 164:../src/bsp/wbspiflash.c **** 		PICO_WBSPI_FLASH->CTRL |= ((tx_threshold) << 16);
 646              		.loc 1 164 26
 647 005a B7470011 		li	a5,285229056
 648 005e 945B     		lw	a3,48(a5)
 649 0060 B7470011 		li	a5,285229056
 650 0064 3707E1FF 		li	a4,-2031616
 651 0068 7D17     		addi	a4,a4,-1
 652 006a 758F     		and	a4,a3,a4
 653 006c 98DB     		sw	a4,48(a5)
 165:../src/bsp/wbspiflash.c **** 	}
 654              		.loc 1 165 26
 655 006e B7470011 		li	a5,285229056
 656 0072 985B     		lw	a4,48(a5)
 165:../src/bsp/wbspiflash.c **** 	}
 657              		.loc 1 165 45
 658 0074 8347F4FD 		lbu	a5,-33(s0)
 659 0078 C207     		slli	a5,a5,16
 660 007a BE86     		mv	a3,a5
 165:../src/bsp/wbspiflash.c **** 	}
 661              		.loc 1 165 26
 662 007c B7470011 		li	a5,285229056
 663 0080 558F     		or	a4,a4,a3
 664 0082 98DB     		sw	a4,48(a5)
 665              		.loc 1 167 2
 666 0084 0100     		nop
 667              	.L33:
 168:../src/bsp/wbspiflash.c **** }
 668              		.loc 1 168 1
 669 0086 B250     		lw	ra,44(sp)
 670              		.cfi_restore 1
 671 0088 2254     		lw	s0,40(sp)
 672              		.cfi_restore 8
 673 008a 4561     		addi	sp,sp,48
 674              		.cfi_def_cfa_register 2
 675 008c 8280     		jr	ra
 676              		.cfi_endproc
 677              	.LFE14:
 679              		.section	.rodata.SPI_set_rx_threshold.str1.4,"aMS",@progbits,1
 680              		.align	2
 681              	.LC1:
 682 0000 72782074 		.string	"rx threshold should not be set larger than rx fifo depth!\r\n"
 682      68726573 
 682      686F6C64 
 682      2073686F 
 682      756C6420 
 683              		.section	.text.SPI_set_rx_threshold,"ax",@progbits
 684              		.align	1
 685              		.globl	SPI_set_rx_threshold
 687              	SPI_set_rx_threshold:
 688              	.LFB15:
 169:../src/bsp/wbspiflash.c **** 
 170:../src/bsp/wbspiflash.c **** void SPI_set_rx_threshold(uint8_t rx_threshold)
 171:../src/bsp/wbspiflash.c **** {
 689              		.loc 1 171 1
 690              		.cfi_startproc
 691 0000 7971     		addi	sp,sp,-48
 692              		.cfi_def_cfa_offset 48
 693 0002 06D6     		sw	ra,44(sp)
 694 0004 22D4     		sw	s0,40(sp)
 695              		.cfi_offset 1, -4
 696              		.cfi_offset 8, -8
 697 0006 0018     		addi	s0,sp,48
 698              		.cfi_def_cfa 8, 0
 699 0008 AA87     		mv	a5,a0
 700 000a A30FF4FC 		sb	a5,-33(s0)
 172:../src/bsp/wbspiflash.c **** 	uint32_t buff;
 173:../src/bsp/wbspiflash.c **** 	buff = PICO_WBSPI_FLASH->CONFIG;
 701              		.loc 1 173 25
 702 000e B7470011 		li	a5,285229056
 703              		.loc 1 173 7
 704 0012 FC5F     		lw	a5,124(a5)
 705 0014 2326F4FE 		sw	a5,-20(s0)
 174:../src/bsp/wbspiflash.c **** 	uint8_t rx_fifo_depth_config = (buff & 0x03);
 706              		.loc 1 174 39
 707 0018 8327C4FE 		lw	a5,-20(s0)
 708 001c 93F7F70F 		andi	a5,a5,0xff
 709              		.loc 1 174 10
 710 0020 8D8B     		andi	a5,a5,3
 711 0022 A305F4FE 		sb	a5,-21(s0)
 175:../src/bsp/wbspiflash.c **** 	uint8_t rx_fifo_depth = spi_get_fifo_depth(rx_fifo_depth_config);
 712              		.loc 1 175 26
 713 0026 8347B4FE 		lbu	a5,-21(s0)
 714 002a 3E85     		mv	a0,a5
 715 002c 97000000 		call	spi_get_fifo_depth
 715      E7800000 
 716 0034 AA87     		mv	a5,a0
 717 0036 2305F4FE 		sb	a5,-22(s0)
 176:../src/bsp/wbspiflash.c **** 	if(rx_threshold > rx_fifo_depth)
 718              		.loc 1 176 4
 719 003a 0347F4FD 		lbu	a4,-33(s0)
 720 003e 8347A4FE 		lbu	a5,-22(s0)
 721 0042 63FBE700 		bleu	a4,a5,.L38
 177:../src/bsp/wbspiflash.c **** 	{
 178:../src/bsp/wbspiflash.c **** 		printf("rx threshold should not be set larger than rx fifo depth!\r\n");
 722              		.loc 1 178 3
 723 0046 17050000 		lla	a0,.LC1
 723      13050500 
 724 004e 97000000 		call	printf
 724      E7800000 
 179:../src/bsp/wbspiflash.c **** 	}
 180:../src/bsp/wbspiflash.c **** 	else
 181:../src/bsp/wbspiflash.c **** 	{
 182:../src/bsp/wbspiflash.c **** 		PICO_WBSPI_FLASH->CTRL &= (~(0x1f << 8));
 183:../src/bsp/wbspiflash.c **** 		PICO_WBSPI_FLASH->CTRL |= ((rx_threshold) << 8);
 184:../src/bsp/wbspiflash.c **** 	}
 185:../src/bsp/wbspiflash.c **** 	return;
 725              		.loc 1 185 2
 726 0056 3DA0     		j	.L37
 727              	.L38:
 182:../src/bsp/wbspiflash.c **** 		PICO_WBSPI_FLASH->CTRL |= ((rx_threshold) << 8);
 728              		.loc 1 182 26
 729 0058 B7470011 		li	a5,285229056
 730 005c 945B     		lw	a3,48(a5)
 731 005e B7470011 		li	a5,285229056
 732 0062 7977     		li	a4,-8192
 733 0064 1307F70F 		addi	a4,a4,255
 734 0068 758F     		and	a4,a3,a4
 735 006a 98DB     		sw	a4,48(a5)
 183:../src/bsp/wbspiflash.c **** 	}
 736              		.loc 1 183 26
 737 006c B7470011 		li	a5,285229056
 738 0070 985B     		lw	a4,48(a5)
 183:../src/bsp/wbspiflash.c **** 	}
 739              		.loc 1 183 45
 740 0072 8347F4FD 		lbu	a5,-33(s0)
 741 0076 A207     		slli	a5,a5,8
 742 0078 BE86     		mv	a3,a5
 183:../src/bsp/wbspiflash.c **** 	}
 743              		.loc 1 183 26
 744 007a B7470011 		li	a5,285229056
 745 007e 558F     		or	a4,a4,a3
 746 0080 98DB     		sw	a4,48(a5)
 747              		.loc 1 185 2
 748 0082 0100     		nop
 749              	.L37:
 186:../src/bsp/wbspiflash.c **** }
 750              		.loc 1 186 1
 751 0084 B250     		lw	ra,44(sp)
 752              		.cfi_restore 1
 753 0086 2254     		lw	s0,40(sp)
 754              		.cfi_restore 8
 755 0088 4561     		addi	sp,sp,48
 756              		.cfi_def_cfa_register 2
 757 008a 8280     		jr	ra
 758              		.cfi_endproc
 759              	.LFE15:
 761              		.section	.text.spi_flash_init,"ax",@progbits
 762              		.align	1
 763              		.globl	spi_flash_init
 765              	spi_flash_init:
 766              	.LFB16:
 187:../src/bsp/wbspiflash.c **** 
 188:../src/bsp/wbspiflash.c **** void spi_flash_init(void)
 189:../src/bsp/wbspiflash.c **** {
 767              		.loc 1 189 1
 768              		.cfi_startproc
 769 0000 17030000 		call	t0,__riscv_save_3
 769      E7020300 
 770              		.cfi_offset 18, -16
 771              		.cfi_offset 9, -12
 772              		.cfi_offset 1, -4
 773              		.cfi_def_cfa_offset 16
 190:../src/bsp/wbspiflash.c **** 	uint32_t buff;
 191:../src/bsp/wbspiflash.c **** 
 192:../src/bsp/wbspiflash.c **** 	PICO_WBSPI_FLASH->CTRL |= 0x01;         //reset spi
 774              		.loc 1 192 25
 775 0008 37470011 		li	a4,285229056
 776 000c 1C5B     		lw	a5,48(a4)
 777 000e 93E71700 		ori	a5,a5,1
 778 0012 1CDB     		sw	a5,48(a4)
 779              	.L42:
 193:../src/bsp/wbspiflash.c **** 	while((PICO_WBSPI_FLASH->CTRL & 0x01)); //wait until spi reset complete
 780              		.loc 1 193 25 discriminator 1
 781 0014 1C5B     		lw	a5,48(a4)
 782              		.loc 1 193 32 discriminator 1
 783 0016 858B     		andi	a5,a5,1
 784              		.loc 1 193 7 discriminator 1
 785 0018 F5FF     		bnez	a5,.L42
 194:../src/bsp/wbspiflash.c **** 
 195:../src/bsp/wbspiflash.c **** 	buff = PICO_WBSPI_FLASH->CONFIG;
 786              		.loc 1 195 7
 787 001a 0329C707 		lw	s2,124(a4)
 196:../src/bsp/wbspiflash.c **** 	uint8_t tx_fifo_depth_config = (buff & 0x3f) >> 4;
 788              		.loc 1 196 47
 789 001e 13554900 		srli	a0,s2,4
 197:../src/bsp/wbspiflash.c **** 	uint8_t tx_fifo_depth = spi_get_fifo_depth(tx_fifo_depth_config);
 790              		.loc 1 197 26
 791 0022 0D89     		andi	a0,a0,3
 792 0024 97000000 		call	spi_get_fifo_depth
 792      E7800000 
 793 002c AA84     		mv	s1,a0
 198:../src/bsp/wbspiflash.c **** 	uint8_t rx_fifo_depth_config = (buff & 0x03);
 199:../src/bsp/wbspiflash.c **** 	uint8_t rx_fifo_depth = spi_get_fifo_depth(rx_fifo_depth_config);
 794              		.loc 1 199 26
 795 002e 13753900 		andi	a0,s2,3
 796 0032 97000000 		call	spi_get_fifo_depth
 796      E7800000 
 200:../src/bsp/wbspiflash.c **** 
 201:../src/bsp/wbspiflash.c **** 	while((PICO_WBSPI_FLASH->STATUS & 0x01)); //wait until SPI2 active finish
 797              		.loc 1 201 25
 798 003a B7470011 		li	a5,285229056
 799              	.L43:
 800              		.loc 1 201 25 is_stmt 0 discriminator 1
 801 003e D85B     		lw	a4,52(a5)
 802              		.loc 1 201 34 is_stmt 1 discriminator 1
 803 0040 058B     		andi	a4,a4,1
 804              		.loc 1 201 7 discriminator 1
 805 0042 75FF     		bnez	a4,.L43
 202:../src/bsp/wbspiflash.c **** 
 203:../src/bsp/wbspiflash.c **** 
 204:../src/bsp/wbspiflash.c **** 
 205:../src/bsp/wbspiflash.c **** 	buff = (2 << 16) +(7 << 8) + (0 << 7);
 206:../src/bsp/wbspiflash.c **** 	//AddrLen = 3; DataLen = 8 DataMerge = 0
 207:../src/bsp/wbspiflash.c **** 	//other fields reset to 0 while spi_default_modes connected to 0
 208:../src/bsp/wbspiflash.c **** 	PICO_WBSPI_FLASH->TRANSFMT = buff;
 806              		.loc 1 208 29
 807 0044 37070200 		li	a4,131072
 808 0048 13070770 		addi	a4,a4,1792
 809 004c 98CB     		sw	a4,16(a5)
 209:../src/bsp/wbspiflash.c **** 
 210:../src/bsp/wbspiflash.c **** 
 211:../src/bsp/wbspiflash.c **** 	PICO_WBSPI_FLASH->CTRL |= (0x1 << 2);    //reset tx fifo
 810              		.loc 1 211 25
 811 004e 985B     		lw	a4,48(a5)
 812 0050 13674700 		ori	a4,a4,4
 813 0054 98DB     		sw	a4,48(a5)
 212:../src/bsp/wbspiflash.c **** 	while((PICO_WBSPI_FLASH->CTRL & 0x2)) ;  //wait tx fifo reset complete
 814              		.loc 1 212 25
 815 0056 B7470011 		li	a5,285229056
 816              	.L44:
 817              		.loc 1 212 25 is_stmt 0 discriminator 1
 818 005a 985B     		lw	a4,48(a5)
 819              		.loc 1 212 32 is_stmt 1 discriminator 1
 820 005c 098B     		andi	a4,a4,2
 821              		.loc 1 212 7 discriminator 1
 822 005e 75FF     		bnez	a4,.L44
 213:../src/bsp/wbspiflash.c **** 	PICO_WBSPI_FLASH->CTRL  |= ((tx_fifo_depth/2) << 16);  //set tx threshold as half of txfifo depth
 823              		.loc 1 213 26
 824 0060 985B     		lw	a4,48(a5)
 825              		.loc 1 213 44
 826 0062 8580     		srli	s1,s1,1
 827 0064 93F4F40F 		andi	s1,s1,0xff
 828              		.loc 1 213 48
 829 0068 C204     		slli	s1,s1,16
 830              		.loc 1 213 26
 831 006a D98C     		or	s1,s1,a4
 832 006c 84DB     		sw	s1,48(a5)
 214:../src/bsp/wbspiflash.c **** 
 215:../src/bsp/wbspiflash.c **** 	PICO_WBSPI_FLASH->CTRL |= (0x1 << 1);    //reset rx fifo
 833              		.loc 1 215 25
 834 006e 985B     		lw	a4,48(a5)
 835 0070 13672700 		ori	a4,a4,2
 836 0074 98DB     		sw	a4,48(a5)
 216:../src/bsp/wbspiflash.c **** 	while((PICO_WBSPI_FLASH->CTRL & 0x1)) ;  //wait rx fifo reset complete
 837              		.loc 1 216 25
 838 0076 B7470011 		li	a5,285229056
 839              	.L45:
 840              		.loc 1 216 25 is_stmt 0 discriminator 1
 841 007a 985B     		lw	a4,48(a5)
 842              		.loc 1 216 32 is_stmt 1 discriminator 1
 843 007c 058B     		andi	a4,a4,1
 844              		.loc 1 216 7 discriminator 1
 845 007e 75FF     		bnez	a4,.L45
 217:../src/bsp/wbspiflash.c **** 	PICO_WBSPI_FLASH->CTRL  |= ((rx_fifo_depth/2) << 8);  //set rx threshold as half of rxfifo depth
 846              		.loc 1 217 26
 847 0080 945B     		lw	a3,48(a5)
 848              		.loc 1 217 44
 849 0082 13571500 		srli	a4,a0,1
 850 0086 1377F70F 		andi	a4,a4,0xff
 851              		.loc 1 217 48
 852 008a 2207     		slli	a4,a4,8
 853              		.loc 1 217 26
 854 008c 558F     		or	a4,a4,a3
 855 008e 98DB     		sw	a4,48(a5)
 218:../src/bsp/wbspiflash.c **** 
 219:../src/bsp/wbspiflash.c **** 	//PICO_WBSPI_FLASH->INTREN |= (0x1 << 4);  //Do not support Interupt signal
 220:../src/bsp/wbspiflash.c **** 	PICO_WBSPI_FLASH->INTREN &= 0x00000000;    //close all the interrupt
 856              		.loc 1 220 27
 857 0090 985F     		lw	a4,56(a5)
 858 0092 23AC0702 		sw	zero,56(a5)
 221:../src/bsp/wbspiflash.c **** 	PICO_WBSPI_FLASH->TIMING &= (~(0xff));
 859              		.loc 1 221 27
 860 0096 B843     		lw	a4,64(a5)
 861 0098 137707F0 		andi	a4,a4,-256
 862 009c B8C3     		sw	a4,64(a5)
 222:../src/bsp/wbspiflash.c **** 	PICO_WBSPI_FLASH->TIMING |= (0x3);       //Set the SPI Interface Timing Register (0x40)
 863              		.loc 1 222 27
 864 009e B843     		lw	a4,64(a5)
 865 00a0 13673700 		ori	a4,a4,3
 866 00a4 B8C3     		sw	a4,64(a5)
 223:../src/bsp/wbspiflash.c **** 	                                   //to set SCLK_DIV to 4, which divide the spi_clk into
 224:../src/bsp/wbspiflash.c **** 	                                   //((4+1)*2) = 10 as SCLK
 225:../src/bsp/wbspiflash.c **** 	return;
 226:../src/bsp/wbspiflash.c **** }
 867              		.loc 1 226 1
 868 00a6 17030000 		tail	__riscv_restore_3
 868      67000300 
 869              		.cfi_restore 18
 870              		.cfi_restore 9
 871              		.cfi_restore 1
 872              		.cfi_def_cfa_offset 0
 873              		.cfi_endproc
 874              	.LFE16:
 876              		.section	.text.spi_flash_read,"ax",@progbits
 877              		.align	1
 878              		.globl	spi_flash_read
 880              	spi_flash_read:
 881              	.LFB17:
 227:../src/bsp/wbspiflash.c **** 
 228:../src/bsp/wbspiflash.c **** //cmd -> address -> data
 229:../src/bsp/wbspiflash.c **** void spi_flash_read(uint8_t rd_len, uint32_t cmd, uint32_t address,uint8_t *read_buffer)
 230:../src/bsp/wbspiflash.c **** {
 882              		.loc 1 230 1
 883              		.cfi_startproc
 231:../src/bsp/wbspiflash.c **** 	PICO_WBSPI_FLASH->TRANSCTRL = (1 << 30) +     //enable cmd
 232:../src/bsp/wbspiflash.c **** 							(1 << 29) +        //Open the address
 233:../src/bsp/wbspiflash.c **** 			                (2 << 24) +        //trans mode = 2 (read only)
 234:../src/bsp/wbspiflash.c **** 							(0 << 22) +        //dual mode 0 regular mode
 884              		.loc 1 234 18
 885 0000 B7070062 		li	a5,1644167168
 886 0004 FD17     		addi	a5,a5,-1
 231:../src/bsp/wbspiflash.c **** 	PICO_WBSPI_FLASH->TRANSCTRL = (1 << 30) +     //enable cmd
 887              		.loc 1 231 30
 888 0006 37470011 		li	a4,285229056
 889              		.loc 1 234 18
 890 000a AA97     		add	a5,a0,a5
 231:../src/bsp/wbspiflash.c **** 	PICO_WBSPI_FLASH->TRANSCTRL = (1 << 30) +     //enable cmd
 891              		.loc 1 231 30
 892 000c 1CD3     		sw	a5,32(a4)
 235:../src/bsp/wbspiflash.c **** 							((rd_len-1) << 0); //set read trans byte count
 236:../src/bsp/wbspiflash.c **** 	//printf("%08x\n", PICO_WBSPI_FLASH->TRANSCTRL);
 237:../src/bsp/wbspiflash.c **** 	PICO_WBSPI_FLASH->ADDR = address;
 893              		.loc 1 237 25
 894 000e 10D7     		sw	a2,40(a4)
 238:../src/bsp/wbspiflash.c **** 	//printf("%08x\n", PICO_WBSPI_FLASH->ADDR);
 239:../src/bsp/wbspiflash.c **** 	PICO_WBSPI_FLASH->CMD  = cmd;
 895              		.loc 1 239 25
 896 0010 4CD3     		sw	a1,36(a4)
 897              	.LBB4:
 240:../src/bsp/wbspiflash.c **** 	//printf("%08x\n", PICO_WBSPI_FLASH->CMD);
 241:../src/bsp/wbspiflash.c **** 
 242:../src/bsp/wbspiflash.c **** 	for(uint8_t i = 0; i < rd_len; i++)
 898              		.loc 1 242 2
 899 0012 15C1     		beqz	a0,.L52
 900 0014 1306F5FF 		addi	a2,a0,-1
 901 0018 1376F60F 		andi	a2,a2,0xff
 902 001c 0506     		addi	a2,a2,1
 903 001e 3696     		add	a2,a3,a2
 904              	.L54:
 243:../src/bsp/wbspiflash.c **** 	{
 244:../src/bsp/wbspiflash.c **** 		*read_buffer = PICO_WBSPI_FLASH->DATA;
 905              		.loc 1 244 34
 906 0020 5C57     		lw	a5,44(a4)
 245:../src/bsp/wbspiflash.c **** 		read_buffer++;
 907              		.loc 1 245 14
 908 0022 8506     		addi	a3,a3,1
 244:../src/bsp/wbspiflash.c **** 		read_buffer++;
 909              		.loc 1 244 16
 910 0024 A38FF6FE 		sb	a5,-1(a3)
 911              	.L53:
 246:../src/bsp/wbspiflash.c **** 		while(PICO_WBSPI_FLASH ->STATUS & (0x1 <<15));
 912              		.loc 1 246 26 discriminator 1
 913 0028 5C5B     		lw	a5,52(a4)
 914              		.loc 1 246 8 discriminator 1
 915 002a 93950701 		slli	a1,a5,16
 916 002e E3CD05FE 		bltz	a1,.L53
 242:../src/bsp/wbspiflash.c **** 	{
 917              		.loc 1 242 2 discriminator 2
 918 0032 E397C6FE 		bne	a3,a2,.L54
 919              	.L52:
 920              	.LBE4:
 247:../src/bsp/wbspiflash.c **** 	}
 248:../src/bsp/wbspiflash.c **** 	while((PICO_WBSPI_FLASH->STATUS & 0x01)); //wait until SPI_Ctroller active finish
 921              		.loc 1 248 25
 922 0036 37470011 		li	a4,285229056
 923              	.L55:
 924              		.loc 1 248 25 is_stmt 0 discriminator 1
 925 003a 5C5B     		lw	a5,52(a4)
 926              		.loc 1 248 34 is_stmt 1 discriminator 1
 927 003c 858B     		andi	a5,a5,1
 928              		.loc 1 248 7 discriminator 1
 929 003e F5FF     		bnez	a5,.L55
 249:../src/bsp/wbspiflash.c **** }
 930              		.loc 1 249 1
 931 0040 8280     		ret
 932              		.cfi_endproc
 933              	.LFE17:
 935              		.section	.text.spi_flash_write,"ax",@progbits
 936              		.align	1
 937              		.globl	spi_flash_write
 939              	spi_flash_write:
 940              	.LFB18:
 250:../src/bsp/wbspiflash.c **** 
 251:../src/bsp/wbspiflash.c **** //the consequence of sending
 252:../src/bsp/wbspiflash.c **** //cmd -> address -> data
 253:../src/bsp/wbspiflash.c **** void spi_flash_write(uint8_t wr_len, uint32_t cmd, uint32_t address,uint8_t *write_buffer)
 254:../src/bsp/wbspiflash.c **** {
 941              		.loc 1 254 1
 942              		.cfi_startproc
 943 0000 17030000 		call	t0,__riscv_save_2
 943      E7020300 
 944              		.cfi_offset 9, -12
 945              		.cfi_offset 1, -4
 946              		.cfi_def_cfa_offset 16
 947 0008 4111     		addi	sp,sp,-16
 948              		.cfi_def_cfa_offset 32
 949              		.loc 1 254 1
 950 000a AA84     		mv	s1,a0
 255:../src/bsp/wbspiflash.c **** 	spi_flash_write_cmd(WRITE_ENABLE);
 951              		.loc 1 255 2
 952 000c 1945     		li	a0,6
 254:../src/bsp/wbspiflash.c **** 	spi_flash_write_cmd(WRITE_ENABLE);
 953              		.loc 1 254 1
 954 000e 2EC6     		sw	a1,12(sp)
 955 0010 32C4     		sw	a2,8(sp)
 956 0012 36C2     		sw	a3,4(sp)
 957              		.loc 1 255 2
 958 0014 97000000 		call	spi_flash_write_cmd
 958      E7800000 
 256:../src/bsp/wbspiflash.c **** 	spi_flash_read_status();
 959              		.loc 1 256 2
 960 001c 97000000 		call	spi_flash_read_status
 960      E7800000 
 257:../src/bsp/wbspiflash.c **** 
 258:../src/bsp/wbspiflash.c **** 	PICO_WBSPI_FLASH->TRANSCTRL = (1 << 30) +        //enable cmd
 259:../src/bsp/wbspiflash.c **** 							(1 << 29) + //enable address
 260:../src/bsp/wbspiflash.c **** 			                (1 << 24) +        //trans mode = 1 (write only)
 261:../src/bsp/wbspiflash.c **** 							(0 << 22) +         //dual mode
 262:../src/bsp/wbspiflash.c **** 							((wr_len-1) << 12); //set read trans byte count
 961              		.loc 1 262 16
 962 0024 9387F4FF 		addi	a5,s1,-1
 261:../src/bsp/wbspiflash.c **** 							((wr_len-1) << 12); //set read trans byte count
 963              		.loc 1 261 18
 964 0028 37070061 		li	a4,1627389952
 263:../src/bsp/wbspiflash.c **** 
 264:../src/bsp/wbspiflash.c **** 	PICO_WBSPI_FLASH->ADDR = address;
 965              		.loc 1 264 25
 966 002c 2246     		lw	a2,8(sp)
 262:../src/bsp/wbspiflash.c **** 
 967              		.loc 1 262 20
 968 002e B207     		slli	a5,a5,12
 261:../src/bsp/wbspiflash.c **** 							((wr_len-1) << 12); //set read trans byte count
 969              		.loc 1 261 18
 970 0030 BA97     		add	a5,a5,a4
 265:../src/bsp/wbspiflash.c **** 	PICO_WBSPI_FLASH->CMD  = cmd;
 971              		.loc 1 265 25
 972 0032 B245     		lw	a1,12(sp)
 258:../src/bsp/wbspiflash.c **** 							(1 << 29) + //enable address
 973              		.loc 1 258 30
 974 0034 37470011 		li	a4,285229056
 975 0038 1CD3     		sw	a5,32(a4)
 976              	.LBB5:
 266:../src/bsp/wbspiflash.c **** 	for(uint8_t i = 0; i < wr_len; i++)
 977              		.loc 1 266 2
 978 003a 9246     		lw	a3,4(sp)
 979              	.LBE5:
 264:../src/bsp/wbspiflash.c **** 	PICO_WBSPI_FLASH->CMD  = cmd;
 980              		.loc 1 264 25
 981 003c 10D7     		sw	a2,40(a4)
 265:../src/bsp/wbspiflash.c **** 	for(uint8_t i = 0; i < wr_len; i++)
 982              		.loc 1 265 25
 983 003e 4CD3     		sw	a1,36(a4)
 984              	.LBB6:
 985              		.loc 1 266 2
 986 0040 8147     		li	a5,0
 987              	.L64:
 988              		.loc 1 266 2 is_stmt 0 discriminator 1
 989 0042 13F6F70F 		andi	a2,a5,0xff
 990 0046 63659602 		bgtu	s1,a2,.L66
 991              	.LBE6:
 267:../src/bsp/wbspiflash.c **** 	{
 268:../src/bsp/wbspiflash.c **** 		PICO_WBSPI_FLASH->DATA = (uint32_t)(*write_buffer);
 269:../src/bsp/wbspiflash.c **** 		write_buffer++;
 270:../src/bsp/wbspiflash.c **** 		//check the status of txfifo
 271:../src/bsp/wbspiflash.c **** 		while(PICO_WBSPI_FLASH ->STATUS & (0x1 <<23));
 272:../src/bsp/wbspiflash.c **** 	}
 273:../src/bsp/wbspiflash.c **** 
 274:../src/bsp/wbspiflash.c **** 	while((PICO_WBSPI_FLASH->STATUS & 0x01)); //wait until SPI_ctroller active finish
 992              		.loc 1 274 25 is_stmt 1
 993 004a 37470011 		li	a4,285229056
 994              	.L67:
 995              		.loc 1 274 25 is_stmt 0 discriminator 1
 996 004e 5C5B     		lw	a5,52(a4)
 997              		.loc 1 274 34 is_stmt 1 discriminator 1
 998 0050 858B     		andi	a5,a5,1
 999              		.loc 1 274 7 discriminator 1
 1000 0052 F5FF     		bnez	a5,.L67
 275:../src/bsp/wbspiflash.c **** 	spi_flash_write_cmd(WRITE_DISENABLE);
 1001              		.loc 1 275 2
 1002 0054 1145     		li	a0,4
 1003 0056 97000000 		call	spi_flash_write_cmd
 1003      E7800000 
 276:../src/bsp/wbspiflash.c **** 	spi_flash_read_status();
 1004              		.loc 1 276 2
 1005 005e 97000000 		call	spi_flash_read_status
 1005      E7800000 
 277:../src/bsp/wbspiflash.c **** }
 1006              		.loc 1 277 1
 1007 0066 4101     		addi	sp,sp,16
 1008              		.cfi_remember_state
 1009              		.cfi_def_cfa_offset 0
 1010 0068 17030000 		tail	__riscv_restore_2
 1010      67000300 
 1011              		.cfi_restore 9
 1012              		.cfi_restore 1
 1013              		.cfi_def_cfa_offset -16
 1014              	.L66:
 1015              		.cfi_restore_state
 1016              	.LBB7:
 268:../src/bsp/wbspiflash.c **** 		write_buffer++;
 1017              		.loc 1 268 39
 1018 0070 3386F600 		add	a2,a3,a5
 268:../src/bsp/wbspiflash.c **** 		write_buffer++;
 1019              		.loc 1 268 28
 1020 0074 03460600 		lbu	a2,0(a2)
 268:../src/bsp/wbspiflash.c **** 		write_buffer++;
 1021              		.loc 1 268 26
 1022 0078 50D7     		sw	a2,44(a4)
 1023              	.L65:
 271:../src/bsp/wbspiflash.c **** 	}
 1024              		.loc 1 271 26 discriminator 1
 1025 007a 505B     		lw	a2,52(a4)
 271:../src/bsp/wbspiflash.c **** 	}
 1026              		.loc 1 271 8 discriminator 1
 1027 007c 93158600 		slli	a1,a2,8
 1028 0080 E3CD05FE 		bltz	a1,.L65
 1029 0084 8507     		addi	a5,a5,1
 1030 0086 75BF     		j	.L64
 1031              	.LBE7:
 1032              		.cfi_endproc
 1033              	.LFE18:
 1035              		.section	.text.change_mode_spi_flash,"ax",@progbits
 1036              		.align	1
 1037              		.globl	change_mode_spi_flash
 1039              	change_mode_spi_flash:
 1040              	.LFB19:
 278:../src/bsp/wbspiflash.c **** 
 279:../src/bsp/wbspiflash.c **** //change the mode of spi flash
 280:../src/bsp/wbspiflash.c **** void change_mode_spi_flash()
 281:../src/bsp/wbspiflash.c **** {
 1041              		.loc 1 281 1
 1042              		.cfi_startproc
 282:../src/bsp/wbspiflash.c **** 	uint32_t i;
 283:../src/bsp/wbspiflash.c **** 	//read spi memory access register 0x50
 284:../src/bsp/wbspiflash.c **** 	i = PICO_WBSPI_FLASH ->MEMCTRL;
 1043              		.loc 1 284 4
 1044 0000 B7470011 		li	a5,285229056
 1045 0004 B84B     		lw	a4,80(a5)
 285:../src/bsp/wbspiflash.c **** 	//write back to spi flash reg
 286:../src/bsp/wbspiflash.c **** 	PICO_WBSPI_FLASH ->MEMCTRL = i;
 1046              		.loc 1 286 29
 1047 0006 B8CB     		sw	a4,80(a5)
 287:../src/bsp/wbspiflash.c **** 	//wait the memCtrlChg become 0
 288:../src/bsp/wbspiflash.c **** 	while(PICO_WBSPI_FLASH ->MEMCTRL & (0x01 <<8 ));
 1048              		.loc 1 288 25
 1049 0008 37470011 		li	a4,285229056
 1050              	.L72:
 1051              		.loc 1 288 25 is_stmt 0 discriminator 1
 1052 000c 3C4B     		lw	a5,80(a4)
 1053              		.loc 1 288 35 is_stmt 1 discriminator 1
 1054 000e 93F70710 		andi	a5,a5,256
 1055              		.loc 1 288 7 discriminator 1
 1056 0012 EDFF     		bnez	a5,.L72
 289:../src/bsp/wbspiflash.c **** 
 290:../src/bsp/wbspiflash.c **** }
 1057              		.loc 1 290 1
 1058 0014 8280     		ret
 1059              		.cfi_endproc
 1060              	.LFE19:
 1062              		.section	.text.spi_flash_write_cmd,"ax",@progbits
 1063              		.align	1
 1064              		.globl	spi_flash_write_cmd
 1066              	spi_flash_write_cmd:
 1067              	.LFB20:
 291:../src/bsp/wbspiflash.c **** 
 292:../src/bsp/wbspiflash.c **** //write cmd to spi flash
 293:../src/bsp/wbspiflash.c **** //accord different spi flash
 294:../src/bsp/wbspiflash.c **** void spi_flash_write_cmd(uint32_t cmd)
 295:../src/bsp/wbspiflash.c **** {
 1068              		.loc 1 295 1
 1069              		.cfi_startproc
 1070 0000 17030000 		call	t0,__riscv_save_2
 1070      E7020300 
 1071              		.cfi_offset 9, -12
 1072              		.cfi_offset 1, -4
 1073              		.cfi_def_cfa_offset 16
 296:../src/bsp/wbspiflash.c **** 	PICO_WBSPI_FLASH->TRANSCTRL = (0 << 30) +        //Disenable cmd
 1074              		.loc 1 296 30
 1075 0008 B7470011 		li	a5,285229056
 1076 000c 37070001 		li	a4,16777216
 1077 0010 98D3     		sw	a4,32(a5)
 297:../src/bsp/wbspiflash.c **** 			                (1 << 24) + //trans mode = 1 (write only)
 298:../src/bsp/wbspiflash.c **** 							(0 << 22) +//regular mode
 299:../src/bsp/wbspiflash.c **** 							(0 << 12); //set trans byte count is 1
 300:../src/bsp/wbspiflash.c **** 	PICO_WBSPI_FLASH->CMD  = 0x01;//Start to transfer
 1078              		.loc 1 300 25
 1079 0012 0547     		li	a4,1
 1080 0014 D8D3     		sw	a4,36(a5)
 301:../src/bsp/wbspiflash.c **** 	if(cmd == CHIP_ERASE)
 1081              		.loc 1 301 4
 1082 0016 93070006 		li	a5,96
 295:../src/bsp/wbspiflash.c **** 	PICO_WBSPI_FLASH->TRANSCTRL = (0 << 30) +        //Disenable cmd
 1083              		.loc 1 295 1
 1084 001a AA84     		mv	s1,a0
 1085              		.loc 1 301 4
 1086 001c 6305F502 		beq	a0,a5,.L81
 1087              	.L75:
 302:../src/bsp/wbspiflash.c **** 	{
 303:../src/bsp/wbspiflash.c **** 		spi_flash_write_cmd(WRITE_ENABLE);
 304:../src/bsp/wbspiflash.c **** 		spi_flash_read_status();
 305:../src/bsp/wbspiflash.c **** 	}
 306:../src/bsp/wbspiflash.c **** 	PICO_WBSPI_FLASH->DATA = cmd;
 1088              		.loc 1 306 25
 1089 0020 B7470011 		li	a5,285229056
 1090 0024 C4D7     		sw	s1,44(a5)
 307:../src/bsp/wbspiflash.c **** 	//Check the status of tx_FIFO
 308:../src/bsp/wbspiflash.c **** 	while(PICO_WBSPI_FLASH ->STATUS & (0x1 <<23));
 1091              		.loc 1 308 25
 1092 0026 37470011 		li	a4,285229056
 1093              	.L76:
 1094              		.loc 1 308 25 is_stmt 0 discriminator 1
 1095 002a 5C5B     		lw	a5,52(a4)
 1096              		.loc 1 308 7 is_stmt 1 discriminator 1
 1097 002c 93968700 		slli	a3,a5,8
 1098 0030 E3CD06FE 		bltz	a3,.L76
 309:../src/bsp/wbspiflash.c **** 	//Check the status of Transfer
 310:../src/bsp/wbspiflash.c **** 	while((PICO_WBSPI_FLASH->STATUS & 0x01));
 1099              		.loc 1 310 25
 1100 0034 37470011 		li	a4,285229056
 1101              	.L77:
 1102              		.loc 1 310 25 is_stmt 0 discriminator 1
 1103 0038 5C5B     		lw	a5,52(a4)
 1104              		.loc 1 310 34 is_stmt 1 discriminator 1
 1105 003a 858B     		andi	a5,a5,1
 1106              		.loc 1 310 7 discriminator 1
 1107 003c F5FF     		bnez	a5,.L77
 311:../src/bsp/wbspiflash.c **** }
 1108              		.loc 1 311 1
 1109 003e 17030000 		tail	__riscv_restore_2
 1109      67000300 
 1110              		.cfi_remember_state
 1111              		.cfi_restore 9
 1112              		.cfi_restore 1
 1113              		.cfi_def_cfa_offset 0
 1114              	.L81:
 1115              		.cfi_restore_state
 303:../src/bsp/wbspiflash.c **** 		spi_flash_read_status();
 1116              		.loc 1 303 3
 1117 0046 1945     		li	a0,6
 1118 0048 97000000 		call	spi_flash_write_cmd
 1118      E7800000 
 304:../src/bsp/wbspiflash.c **** 	}
 1119              		.loc 1 304 3
 1120 0050 97000000 		call	spi_flash_read_status
 1120      E7800000 
 1121 0058 E1B7     		j	.L75
 1122              		.cfi_endproc
 1123              	.LFE20:
 1125              		.section	.text.spi_flash_page_program,"ax",@progbits
 1126              		.align	1
 1127              		.globl	spi_flash_page_program
 1129              	spi_flash_page_program:
 1130              	.LFB21:
 312:../src/bsp/wbspiflash.c **** 
 313:../src/bsp/wbspiflash.c **** //Page program
 314:../src/bsp/wbspiflash.c **** void spi_flash_page_program(uint8_t wr_len,uint32_t address,uint8_t *write_buffer)
 315:../src/bsp/wbspiflash.c **** {
 1131              		.loc 1 315 1
 1132              		.cfi_startproc
 1133 0000 17030000 		call	t0,__riscv_save_2
 1133      E7020300 
 1134              		.cfi_offset 9, -12
 1135              		.cfi_offset 1, -4
 1136              		.cfi_def_cfa_offset 16
 1137 0008 4111     		addi	sp,sp,-16
 1138              		.cfi_def_cfa_offset 32
 1139              		.loc 1 315 1
 1140 000a AA84     		mv	s1,a0
 316:../src/bsp/wbspiflash.c **** 	spi_flash_write_cmd(WRITE_ENABLE);
 1141              		.loc 1 316 2
 1142 000c 1945     		li	a0,6
 315:../src/bsp/wbspiflash.c **** 	spi_flash_write_cmd(WRITE_ENABLE);
 1143              		.loc 1 315 1
 1144 000e 2EC4     		sw	a1,8(sp)
 1145 0010 32C6     		sw	a2,12(sp)
 1146              		.loc 1 316 2
 1147 0012 97000000 		call	spi_flash_write_cmd
 1147      E7800000 
 317:../src/bsp/wbspiflash.c **** 	spi_flash_read_status();
 1148              		.loc 1 317 2
 1149 001a 97000000 		call	spi_flash_read_status
 1149      E7800000 
 318:../src/bsp/wbspiflash.c **** 
 319:../src/bsp/wbspiflash.c **** 	PICO_WBSPI_FLASH->TRANSCTRL = (1 << 30) + //enable cmd
 320:../src/bsp/wbspiflash.c **** 							(1 << 29) + //enable address
 321:../src/bsp/wbspiflash.c **** 			                (1 << 24) +        //trans mode = 1 (write only)
 322:../src/bsp/wbspiflash.c **** 							(0 << 22) +         //dual mode
 323:../src/bsp/wbspiflash.c **** 							((wr_len-1) << 12); //set read trans byte count
 1150              		.loc 1 323 16
 1151 0022 9387F4FF 		addi	a5,s1,-1
 324:../src/bsp/wbspiflash.c **** 
 325:../src/bsp/wbspiflash.c **** 	PICO_WBSPI_FLASH->ADDR = address;
 1152              		.loc 1 325 25
 1153 0026 A245     		lw	a1,8(sp)
 323:../src/bsp/wbspiflash.c **** 
 1154              		.loc 1 323 20
 1155 0028 9396C700 		slli	a3,a5,12
 322:../src/bsp/wbspiflash.c **** 							((wr_len-1) << 12); //set read trans byte count
 1156              		.loc 1 322 18
 1157 002c 37050061 		li	a0,1627389952
 319:../src/bsp/wbspiflash.c **** 							(1 << 29) + //enable address
 1158              		.loc 1 319 30
 1159 0030 37470011 		li	a4,285229056
 322:../src/bsp/wbspiflash.c **** 							((wr_len-1) << 12); //set read trans byte count
 1160              		.loc 1 322 18
 1161 0034 AA96     		add	a3,a3,a0
 319:../src/bsp/wbspiflash.c **** 							(1 << 29) + //enable address
 1162              		.loc 1 319 30
 1163 0036 14D3     		sw	a3,32(a4)
 1164              		.loc 1 325 25
 1165 0038 0CD7     		sw	a1,40(a4)
 326:../src/bsp/wbspiflash.c **** 	PICO_WBSPI_FLASH->CMD  = 0x02;//page program cmd
 1166              		.loc 1 326 25
 1167 003a 8946     		li	a3,2
 1168 003c 54D3     		sw	a3,36(a4)
 1169              	.LBB8:
 327:../src/bsp/wbspiflash.c **** 	for(uint8_t i = 0; i < wr_len; i++)
 1170              		.loc 1 327 2
 1171 003e 8DC0     		beqz	s1,.L83
 1172 0040 3246     		lw	a2,12(sp)
 1173 0042 93F6F70F 		andi	a3,a5,0xff
 1174 0046 8506     		addi	a3,a3,1
 1175 0048 B296     		add	a3,a2,a3
 1176              	.L85:
 328:../src/bsp/wbspiflash.c **** 	{
 329:../src/bsp/wbspiflash.c **** 		PICO_WBSPI_FLASH->DATA = (uint32_t)(*write_buffer);
 1177              		.loc 1 329 28
 1178 004a 83470600 		lbu	a5,0(a2)
 330:../src/bsp/wbspiflash.c **** 		write_buffer++;
 1179              		.loc 1 330 15
 1180 004e 0506     		addi	a2,a2,1
 329:../src/bsp/wbspiflash.c **** 		write_buffer++;
 1181              		.loc 1 329 26
 1182 0050 5CD7     		sw	a5,44(a4)
 1183              	.L84:
 331:../src/bsp/wbspiflash.c **** 		//check the status of txfifo
 332:../src/bsp/wbspiflash.c **** 		while(PICO_WBSPI_FLASH ->STATUS & (0x1 <<23));
 1184              		.loc 1 332 26 discriminator 1
 1185 0052 5C5B     		lw	a5,52(a4)
 1186              		.loc 1 332 8 discriminator 1
 1187 0054 93958700 		slli	a1,a5,8
 1188 0058 E3CD05FE 		bltz	a1,.L84
 327:../src/bsp/wbspiflash.c **** 	{
 1189              		.loc 1 327 2 discriminator 2
 1190 005c E397C6FE 		bne	a3,a2,.L85
 1191              	.L83:
 1192              	.LBE8:
 333:../src/bsp/wbspiflash.c **** 	}
 334:../src/bsp/wbspiflash.c **** 
 335:../src/bsp/wbspiflash.c **** 	while((PICO_WBSPI_FLASH->STATUS & 0x01)); //wait until SPI_ctroller active finish
 1193              		.loc 1 335 25
 1194 0060 37470011 		li	a4,285229056
 1195              	.L86:
 1196              		.loc 1 335 25 is_stmt 0 discriminator 1
 1197 0064 5C5B     		lw	a5,52(a4)
 1198              		.loc 1 335 34 is_stmt 1 discriminator 1
 1199 0066 858B     		andi	a5,a5,1
 1200              		.loc 1 335 7 discriminator 1
 1201 0068 F5FF     		bnez	a5,.L86
 336:../src/bsp/wbspiflash.c **** 	spi_flash_write_cmd(WRITE_DISENABLE);
 1202              		.loc 1 336 2
 1203 006a 1145     		li	a0,4
 1204 006c 97000000 		call	spi_flash_write_cmd
 1204      E7800000 
 337:../src/bsp/wbspiflash.c **** 	spi_flash_read_status();    //wait spi flash free
 1205              		.loc 1 337 2
 1206 0074 97000000 		call	spi_flash_read_status
 1206      E7800000 
 338:../src/bsp/wbspiflash.c **** }
 1207              		.loc 1 338 1
 1208 007c 4101     		addi	sp,sp,16
 1209              		.cfi_def_cfa_offset 0
 1210 007e 17030000 		tail	__riscv_restore_2
 1210      67000300 
 1211              		.cfi_restore 9
 1212              		.cfi_restore 1
 1213              		.cfi_def_cfa_offset -16
 1214              		.cfi_endproc
 1215              	.LFE21:
 1217              		.section	.text.spi_flash_sector_erase,"ax",@progbits
 1218              		.align	1
 1219              		.globl	spi_flash_sector_erase
 1221              	spi_flash_sector_erase:
 1222              	.LFB22:
 339:../src/bsp/wbspiflash.c **** 
 340:../src/bsp/wbspiflash.c **** //Sector Erase
 341:../src/bsp/wbspiflash.c **** void spi_flash_sector_erase(uint32_t address)
 342:../src/bsp/wbspiflash.c **** {
 1223              		.loc 1 342 1
 1224              		.cfi_startproc
 1225 0000 17030000 		call	t0,__riscv_save_2
 1225      E7020300 
 1226              		.cfi_offset 9, -12
 1227              		.cfi_offset 1, -4
 1228              		.cfi_def_cfa_offset 16
 1229              		.loc 1 342 1
 1230 0008 AA84     		mv	s1,a0
 343:../src/bsp/wbspiflash.c **** 	spi_flash_write_cmd(WRITE_ENABLE);
 1231              		.loc 1 343 2
 1232 000a 1945     		li	a0,6
 1233 000c 97000000 		call	spi_flash_write_cmd
 1233      E7800000 
 344:../src/bsp/wbspiflash.c **** 	spi_flash_read_status();
 1234              		.loc 1 344 2
 1235 0014 97000000 		call	spi_flash_read_status
 1235      E7800000 
 345:../src/bsp/wbspiflash.c **** 	//litter endian and the range of address
 346:../src/bsp/wbspiflash.c **** 	//uint8_t temp[3];
 347:../src/bsp/wbspiflash.c **** 	uint8_t temp0;
 348:../src/bsp/wbspiflash.c **** 	uint8_t temp1;
 349:../src/bsp/wbspiflash.c **** 	uint8_t temp2;
 350:../src/bsp/wbspiflash.c **** 	PICO_WBSPI_FLASH->TRANSCTRL = (1 << 30) + //enable cmd
 1236              		.loc 1 350 30
 1237 001c B7470011 		li	a5,285229056
 1238 0020 37270041 		li	a4,1090527232
 1239 0024 98D3     		sw	a4,32(a5)
 351:../src/bsp/wbspiflash.c **** 			                (1 << 24) +        //trans mode = 1 (write only)
 352:../src/bsp/wbspiflash.c **** 							(0 << 22) +         //dual mode
 353:../src/bsp/wbspiflash.c **** 							(2 << 12); //set address - 3bytes
 354:../src/bsp/wbspiflash.c **** 
 355:../src/bsp/wbspiflash.c **** 	temp0 = (address >> 16 &0xFF);//The address High byte
 356:../src/bsp/wbspiflash.c **** 	temp1 = (address >> 8  &0xFF);//The address middle byte
 357:../src/bsp/wbspiflash.c **** 	temp2 = (address       &0xFF);//The address low   byte
 358:../src/bsp/wbspiflash.c **** 
 359:../src/bsp/wbspiflash.c **** 	PICO_WBSPI_FLASH->CMD  = 0x20; //Sector Erase cmd
 1240              		.loc 1 359 25
 1241 0026 93060002 		li	a3,32
 355:../src/bsp/wbspiflash.c **** 	temp1 = (address >> 8  &0xFF);//The address middle byte
 1242              		.loc 1 355 19
 1243 002a 13D70401 		srli	a4,s1,16
 1244              		.loc 1 359 25
 1245 002e D4D3     		sw	a3,36(a5)
 1246 0030 1377F70F 		andi	a4,a4,255
 360:../src/bsp/wbspiflash.c **** 
 361:../src/bsp/wbspiflash.c **** 	PICO_WBSPI_FLASH->DATA = temp0;
 1247              		.loc 1 361 25
 1248 0034 D8D7     		sw	a4,44(a5)
 356:../src/bsp/wbspiflash.c **** 	temp2 = (address       &0xFF);//The address low   byte
 1249              		.loc 1 356 19
 1250 0036 93D68400 		srli	a3,s1,8
 362:../src/bsp/wbspiflash.c **** 	//check the status of txfifo
 363:../src/bsp/wbspiflash.c **** 	while(PICO_WBSPI_FLASH ->STATUS & (0x1 <<23));
 1251              		.loc 1 363 25
 1252 003a 37470011 		li	a4,285229056
 1253              	.L95:
 1254              		.loc 1 363 25 is_stmt 0 discriminator 1
 1255 003e 5C5B     		lw	a5,52(a4)
 1256              		.loc 1 363 7 is_stmt 1 discriminator 1
 1257 0040 13968700 		slli	a2,a5,8
 1258 0044 E34D06FE 		bltz	a2,.L95
 1259 0048 93F7F60F 		andi	a5,a3,255
 364:../src/bsp/wbspiflash.c **** 
 365:../src/bsp/wbspiflash.c **** 	PICO_WBSPI_FLASH->DATA = temp1;
 1260              		.loc 1 365 25
 1261 004c 5CD7     		sw	a5,44(a4)
 366:../src/bsp/wbspiflash.c **** 	//check the status of txfifo
 367:../src/bsp/wbspiflash.c **** 	while(PICO_WBSPI_FLASH ->STATUS & (0x1 <<23));
 1262              		.loc 1 367 25
 1263 004e 37470011 		li	a4,285229056
 1264              	.L96:
 1265              		.loc 1 367 25 is_stmt 0 discriminator 1
 1266 0052 5C5B     		lw	a5,52(a4)
 1267              		.loc 1 367 7 is_stmt 1 discriminator 1
 1268 0054 93968700 		slli	a3,a5,8
 1269 0058 E3CD06FE 		bltz	a3,.L96
 1270 005c 93F4F40F 		andi	s1,s1,255
 368:../src/bsp/wbspiflash.c **** 
 369:../src/bsp/wbspiflash.c **** 	PICO_WBSPI_FLASH->DATA = temp2;
 1271              		.loc 1 369 25
 1272 0060 44D7     		sw	s1,44(a4)
 370:../src/bsp/wbspiflash.c **** 	//check the status of txfifo
 371:../src/bsp/wbspiflash.c **** 	while(PICO_WBSPI_FLASH ->STATUS & (0x1 <<23));
 1273              		.loc 1 371 25
 1274 0062 37470011 		li	a4,285229056
 1275              	.L97:
 1276              		.loc 1 371 25 is_stmt 0 discriminator 1
 1277 0066 5C5B     		lw	a5,52(a4)
 1278              		.loc 1 371 7 is_stmt 1 discriminator 1
 1279 0068 93968700 		slli	a3,a5,8
 1280 006c E3CD06FE 		bltz	a3,.L97
 372:../src/bsp/wbspiflash.c **** 
 373:../src/bsp/wbspiflash.c **** 	while((PICO_WBSPI_FLASH->STATUS & 0x01)); //wait until SPI_ctroller active finish
 1281              		.loc 1 373 25
 1282 0070 37470011 		li	a4,285229056
 1283              	.L98:
 1284              		.loc 1 373 25 is_stmt 0 discriminator 1
 1285 0074 5C5B     		lw	a5,52(a4)
 1286              		.loc 1 373 34 is_stmt 1 discriminator 1
 1287 0076 858B     		andi	a5,a5,1
 1288              		.loc 1 373 7 discriminator 1
 1289 0078 F5FF     		bnez	a5,.L98
 374:../src/bsp/wbspiflash.c **** 	spi_flash_write_cmd(WRITE_DISENABLE);
 1290              		.loc 1 374 2
 1291 007a 1145     		li	a0,4
 1292 007c 97000000 		call	spi_flash_write_cmd
 1292      E7800000 
 375:../src/bsp/wbspiflash.c **** 	spi_flash_read_status();    //wait spi flash free
 1293              		.loc 1 375 2
 1294 0084 97000000 		call	spi_flash_read_status
 1294      E7800000 
 376:../src/bsp/wbspiflash.c **** }
 1295              		.loc 1 376 1
 1296 008c 17030000 		tail	__riscv_restore_2
 1296      67000300 
 1297              		.cfi_restore 9
 1298              		.cfi_restore 1
 1299              		.cfi_def_cfa_offset 0
 1300              		.cfi_endproc
 1301              	.LFE22:
 1303              		.section	.text.spi_flash_read_status,"ax",@progbits
 1304              		.align	1
 1305              		.globl	spi_flash_read_status
 1307              	spi_flash_read_status:
 1308              	.LFB23:
 377:../src/bsp/wbspiflash.c **** 
 378:../src/bsp/wbspiflash.c **** void spi_flash_read_status()
 379:../src/bsp/wbspiflash.c **** {
 1309              		.loc 1 379 1
 1310              		.cfi_startproc
 380:../src/bsp/wbspiflash.c **** 	uint8_t temp_first;
 381:../src/bsp/wbspiflash.c **** 	PICO_WBSPI_FLASH->TRANSCTRL = (1 << 30) +     //enable cmd
 1311              		.loc 1 381 30
 1312 0000 37070042 		li	a4,1107296256
 1313 0004 B7470011 		li	a5,285229056
 1314 0008 98D3     		sw	a4,32(a5)
 382:../src/bsp/wbspiflash.c **** 			                (2 << 24) +        //trans mode = 2 (read only)
 383:../src/bsp/wbspiflash.c **** 							(0 << 22) +        //dual mode 0 regular mode
 384:../src/bsp/wbspiflash.c **** 							(0 << 0); //set read 1 byte
 385:../src/bsp/wbspiflash.c ****    do
 386:../src/bsp/wbspiflash.c ****    {
 387:../src/bsp/wbspiflash.c **** 	   	PICO_WBSPI_FLASH->CMD  = 0x05;//read status
 1315              		.loc 1 387 29
 1316 000a 9546     		li	a3,5
 1317 000c 37470011 		li	a4,285229056
 1318              	.L105:
 1319              		.loc 1 387 29 is_stmt 0 discriminator 1
 1320 0010 54D3     		sw	a3,36(a4)
 388:../src/bsp/wbspiflash.c **** 		temp_first  = PICO_WBSPI_FLASH->DATA;
 1321              		.loc 1 388 33 is_stmt 1 discriminator 1
 1322 0012 5C57     		lw	a5,44(a4)
 389:../src/bsp/wbspiflash.c **** 		//printf("The spi  read status is %x\r\n",temp_first);
 390:../src/bsp/wbspiflash.c ****    }
 391:../src/bsp/wbspiflash.c ****    while(temp_first & 0x01 );//Select the low bit and wait become 0
 1323              		.loc 1 391 21 discriminator 1
 1324 0014 858B     		andi	a5,a5,1
 1325              		.loc 1 391 4 discriminator 1
 1326 0016 EDFF     		bnez	a5,.L105
 392:../src/bsp/wbspiflash.c **** 
 393:../src/bsp/wbspiflash.c ****    while((PICO_WBSPI_FLASH->STATUS & 0x03)) ; //wait until SPI_Ctroller active finish
 1327              		.loc 1 393 27
 1328 0018 37470011 		li	a4,285229056
 1329              	.L106:
 1330              		.loc 1 393 27 is_stmt 0 discriminator 1
 1331 001c 5C5B     		lw	a5,52(a4)
 1332              		.loc 1 393 36 is_stmt 1 discriminator 1
 1333 001e 8D8B     		andi	a5,a5,3
 1334              		.loc 1 393 9 discriminator 1
 1335 0020 F5FF     		bnez	a5,.L106
 394:../src/bsp/wbspiflash.c **** }
 1336              		.loc 1 394 1
 1337 0022 8280     		ret
 1338              		.cfi_endproc
 1339              	.LFE23:
 1341              		.text
 1342              	.Letext0:
 1343              		.file 2 "c:\\gmd\\toolchain\\risc-v_toolchain\\riscv-none-embed\\include\\machine\\_default_types.
 1344              		.file 3 "c:\\gmd\\toolchain\\risc-v_toolchain\\riscv-none-embed\\include\\sys\\_stdint.h"
 1345              		.file 4 "c:\\gmd\\toolchain\\risc-v_toolchain\\riscv-none-embed\\include\\sys\\lock.h"
 1346              		.file 5 "c:\\gmd\\toolchain\\risc-v_toolchain\\riscv-none-embed\\include\\sys\\_types.h"
 1347              		.file 6 "c:\\gmd\\toolchain\\risc-v_toolchain\\lib\\gcc\\riscv-none-embed\\8.2.0\\include\\stddef.
 1348              		.file 7 "c:\\gmd\\toolchain\\risc-v_toolchain\\riscv-none-embed\\include\\sys\\reent.h"
 1349              		.file 8 "E:\\GMD\\workspace\\picorv32_demo\\src/picorv32.h"