   1              		.file	"irq.c"
   2              		.option nopic
   3              		.text
   4              	.Ltext0:
   5              		.cfi_sections	.debug_frame
   6              		.globl	tmp
   7              		.section	.sbss.tmp,"aw",@nobits
   8              		.align	2
  11              	tmp:
  12 0000 00000000 		.zero	4
  13              		.globl	val
  14              		.section	.sbss.val,"aw",@nobits
  15              		.align	2
  18              	val:
  19 0000 00000000 		.zero	4
  20              		.section	.rodata
  21              		.align	2
  22              	.LC0:
  23 0000 496C6C65 		.string	"Illegal Ins at 0x"
  23      67616C20 
  23      496E7320 
  23      61742030 
  23      7800
  24 0012 0000     		.align	2
  25              	.LC1:
  26 0014 25780D0A 		.string	"%x\r\n"
  26      00
  27 0019 000000   		.align	2
  28              	.LC2:
  29 001c 3A203078 		.string	": 0x"
  29      00
  30 0021 000000   		.align	2
  31              	.LC3:
  32 0024 42757320 		.string	"Bus error at 0x"
  32      6572726F 
  32      72206174 
  32      20307800 
  33              		.section	.text.irq,"ax",@progbits
  34              		.align	1
  35              		.globl	irq
  37              	irq:
  38              	.LFB3:
  39              		.file 1 "../src/irq.c"
   1:../src/irq.c  **** /*
   2:../src/irq.c  ****  * *****************************************************************************************
   3:../src/irq.c  ****  *
   4:../src/irq.c  ****  * 		Copyright (C) 2014-2022 Gowin Semiconductor Technology Co.,Ltd.
   5:../src/irq.c  ****  *
   6:../src/irq.c  ****  * @file		irq.c
   7:../src/irq.c  ****  * @author		Embedded Development Team
   8:../src/irq.c  ****  * @version		V1.2.x
   9:../src/irq.c  ****  * @date		2022-01-01 09:00:00
  10:../src/irq.c  ****  * @brief		Interrupt request.
  11:../src/irq.c  ****  ******************************************************************************************
  12:../src/irq.c  ****  */
  13:../src/irq.c  **** 
  14:../src/irq.c  **** /* Includes --------------------------------------------------------------------- */
  15:../src/irq.c  **** #include <stdio.h>
  16:../src/irq.c  **** #include "firmware.h"
  17:../src/irq.c  **** #include "simpleuart.h"
  18:../src/irq.c  **** #include "picorv32.h"
  19:../src/irq.c  **** #include "wbuart.h"
  20:../src/irq.c  **** #include "irq.h"
  21:../src/irq.c  **** #include "config.h"
  22:../src/irq.c  **** 
  23:../src/irq.c  **** /* Variables --------------------------------------------------------------------- */
  24:../src/irq.c  **** uint32_t tmp = 0;
  25:../src/irq.c  **** uint32_t val = 0;
  26:../src/irq.c  **** 
  27:../src/irq.c  **** extern uint8_t irq00_flag;
  28:../src/irq.c  **** extern uint8_t irq13_flag;
  29:../src/irq.c  **** extern uint8_t irq20_flag;
  30:../src/irq.c  **** extern uint8_t irq21_flag;
  31:../src/irq.c  **** //can add other interrupt by user's need
  32:../src/irq.c  **** 
  33:../src/irq.c  **** #ifdef USE_WBUART
  34:../src/irq.c  **** #define get_char()  wbuart_getc()
  35:../src/irq.c  **** #define put_char(c)  wbuart_putc(c)
  36:../src/irq.c  **** #else
  37:../src/irq.c  **** #define get_char()  uart_getchar()
  38:../src/irq.c  **** #define put_char(c)  uart_putchar(c)
  39:../src/irq.c  **** #endif
  40:../src/irq.c  **** 
  41:../src/irq.c  **** /* Functions --------------------------------------------------------------------- */
  42:../src/irq.c  **** uint32_t *irq(uint32_t *regs, uint32_t irqs)
  43:../src/irq.c  **** {
  40              		.loc 1 43 1
  41              		.cfi_startproc
  42 0000 7971     		addi	sp,sp,-48
  43              		.cfi_def_cfa_offset 48
  44 0002 06D6     		sw	ra,44(sp)
  45 0004 22D4     		sw	s0,40(sp)
  46              		.cfi_offset 1, -4
  47              		.cfi_offset 8, -8
  48 0006 0018     		addi	s0,sp,48
  49              		.cfi_def_cfa 8, 0
  50 0008 232EA4FC 		sw	a0,-36(s0)
  51 000c 232CB4FC 		sw	a1,-40(s0)
  44:../src/irq.c  **** 	volatile uint32_t mask = mask_irq(0xffffffff) | irqs;
  52              		.loc 1 44 27
  53 0010 7D55     		li	a0,-1
  54 0012 97000000 		call	mask_irq
  54      E7800000 
  55 001a 2A87     		mv	a4,a0
  56              		.loc 1 44 48
  57 001c 832784FD 		lw	a5,-40(s0)
  58 0020 D98F     		or	a5,a4,a5
  59              		.loc 1 44 20
  60 0022 2322F4FE 		sw	a5,-28(s0)
  45:../src/irq.c  **** 	mask_irq(mask);
  61              		.loc 1 45 2
  62 0026 832744FE 		lw	a5,-28(s0)
  63 002a 3E85     		mv	a0,a5
  64 002c 97000000 		call	mask_irq
  64      E7800000 
  46:../src/irq.c  **** 
  47:../src/irq.c  **** 	if ((irqs & 1) != 0)
  65              		.loc 1 47 12
  66 0034 832784FD 		lw	a5,-40(s0)
  67 0038 858B     		andi	a5,a5,1
  68              		.loc 1 47 5
  69 003a 81CB     		beqz	a5,.L2
  48:../src/irq.c  **** 	{
  49:../src/irq.c  **** 		irq00_flag = 1;
  70              		.loc 1 49 14
  71 003c 97070000 		lla	a5,irq00_flag
  71      93870700 
  72 0044 0547     		li	a4,1
  73 0046 2380E700 		sb	a4,0(a5)
  74              	.L2:
  50:../src/irq.c  **** 	}
  51:../src/irq.c  **** 
  52:../src/irq.c  **** 	if ((irqs & (1<<13)) != 0)
  75              		.loc 1 52 12
  76 004a 032784FD 		lw	a4,-40(s0)
  77 004e 8967     		li	a5,8192
  78 0050 F98F     		and	a5,a4,a5
  79              		.loc 1 52 5
  80 0052 81CB     		beqz	a5,.L3
  53:../src/irq.c  **** 	{
  54:../src/irq.c  **** 		irq13_flag = 1;
  81              		.loc 1 54 14
  82 0054 97070000 		lla	a5,irq13_flag
  82      93870700 
  83 005c 0547     		li	a4,1
  84 005e 2380E700 		sb	a4,0(a5)
  85              	.L3:
  55:../src/irq.c  **** 	}
  56:../src/irq.c  **** 
  57:../src/irq.c  **** 	if ((irqs & (1<<20)) != 0)
  86              		.loc 1 57 12
  87 0062 032784FD 		lw	a4,-40(s0)
  88 0066 B7071000 		li	a5,1048576
  89 006a F98F     		and	a5,a4,a5
  90              		.loc 1 57 5
  91 006c 81CB     		beqz	a5,.L4
  58:../src/irq.c  **** 	{
  59:../src/irq.c  **** 		irq20_flag = 1;
  92              		.loc 1 59 14
  93 006e 97070000 		lla	a5,irq20_flag
  93      93870700 
  94 0076 0547     		li	a4,1
  95 0078 2380E700 		sb	a4,0(a5)
  96              	.L4:
  60:../src/irq.c  **** 	}
  61:../src/irq.c  **** 
  62:../src/irq.c  **** 	if ((irqs & (1<<21)) != 0)
  97              		.loc 1 62 12
  98 007c 032784FD 		lw	a4,-40(s0)
  99 0080 B7072000 		li	a5,2097152
 100 0084 F98F     		and	a5,a4,a5
 101              		.loc 1 62 5
 102 0086 81CB     		beqz	a5,.L5
  63:../src/irq.c  **** 	{
  64:../src/irq.c  **** 		irq21_flag = 1;
 103              		.loc 1 64 14
 104 0088 97070000 		lla	a5,irq21_flag
 104      93870700 
 105 0090 0547     		li	a4,1
 106 0092 2380E700 		sb	a4,0(a5)
 107              	.L5:
  65:../src/irq.c  **** 	}
  66:../src/irq.c  **** 
  67:../src/irq.c  **** 
  68:../src/irq.c  **** 	if ((irqs & 14) != 0)
 108              		.loc 1 68 12
 109 0096 832784FD 		lw	a5,-40(s0)
 110 009a B98B     		andi	a5,a5,14
 111              		.loc 1 68 5
 112 009c F5CB     		beqz	a5,.L6
 113              	.LBB2:
  69:../src/irq.c  **** 	{
  70:../src/irq.c  **** 		uint32_t pc = (regs[0] & 1) ? regs[0] - 3 : regs[0] - 4;
 114              		.loc 1 70 22
 115 009e 8327C4FD 		lw	a5,-36(s0)
 116 00a2 9C43     		lw	a5,0(a5)
 117              		.loc 1 70 26
 118 00a4 858B     		andi	a5,a5,1
 119              		.loc 1 70 45
 120 00a6 91C7     		beqz	a5,.L7
 121              		.loc 1 70 37 discriminator 1
 122 00a8 8327C4FD 		lw	a5,-36(s0)
 123 00ac 9C43     		lw	a5,0(a5)
 124              		.loc 1 70 45 discriminator 1
 125 00ae F517     		addi	a5,a5,-3
 126 00b0 29A0     		j	.L8
 127              	.L7:
 128              		.loc 1 70 51 discriminator 2
 129 00b2 8327C4FD 		lw	a5,-36(s0)
 130 00b6 9C43     		lw	a5,0(a5)
 131              		.loc 1 70 45 discriminator 2
 132 00b8 F117     		addi	a5,a5,-4
 133              	.L8:
 134              		.loc 1 70 12 discriminator 4
 135 00ba 2324F4FE 		sw	a5,-24(s0)
  71:../src/irq.c  **** 		uint32_t instr = *(uint16_t*)pc;
 136              		.loc 1 71 21 discriminator 4
 137 00be 832784FE 		lw	a5,-24(s0)
 138              		.loc 1 71 20 discriminator 4
 139 00c2 83D70700 		lhu	a5,0(a5)
 140              		.loc 1 71 12 discriminator 4
 141 00c6 2326F4FE 		sw	a5,-20(s0)
  72:../src/irq.c  **** 
  73:../src/irq.c  **** 		if ((instr & 3) == 3)
 142              		.loc 1 73 14 discriminator 4
 143 00ca 8327C4FE 		lw	a5,-20(s0)
 144 00ce 13F73700 		andi	a4,a5,3
 145              		.loc 1 73 6 discriminator 4
 146 00d2 8D47     		li	a5,3
 147 00d4 631EF700 		bne	a4,a5,.L9
  74:../src/irq.c  **** 		{
  75:../src/irq.c  **** 			instr = instr | (*(uint16_t*)(pc + 2)) << 16;
 148              		.loc 1 75 37
 149 00d8 832784FE 		lw	a5,-24(s0)
 150 00dc 8907     		addi	a5,a5,2
 151              		.loc 1 75 21
 152 00de 83D70700 		lhu	a5,0(a5)
 153              		.loc 1 75 43
 154 00e2 C207     		slli	a5,a5,16
 155 00e4 3E87     		mv	a4,a5
 156              		.loc 1 75 10
 157 00e6 8327C4FE 		lw	a5,-20(s0)
 158 00ea D98F     		or	a5,a5,a4
 159 00ec 2326F4FE 		sw	a5,-20(s0)
 160              	.L9:
  76:../src/irq.c  **** 		}
  77:../src/irq.c  **** 
  78:../src/irq.c  **** 		if ((irqs & 8) != 0)
 161              		.loc 1 78 13
 162 00f0 832784FD 		lw	a5,-40(s0)
 163 00f4 A18B     		andi	a5,a5,8
 164              		.loc 1 78 6
 165 00f6 A9C7     		beqz	a5,.L10
  79:../src/irq.c  **** 		{
  80:../src/irq.c  **** 			printf("Illegal Ins at 0x");
 166              		.loc 1 80 4
 167 00f8 17050000 		lla	a0,.LC0
 167      13050500 
 168 0100 97000000 		call	printf
 168      E7800000 
  81:../src/irq.c  **** 			printf("%x\r\n", pc);
 169              		.loc 1 81 4
 170 0108 832584FE 		lw	a1,-24(s0)
 171 010c 17050000 		lla	a0,.LC1
 171      13050500 
 172 0114 97000000 		call	printf
 172      E7800000 
  82:../src/irq.c  **** 			printf(": 0x");
 173              		.loc 1 82 4
 174 011c 17050000 		lla	a0,.LC2
 174      13050500 
 175 0124 97000000 		call	printf
 175      E7800000 
  83:../src/irq.c  **** 			printf("%x\r\n", instr);
 176              		.loc 1 83 4
 177 012c 8325C4FE 		lw	a1,-20(s0)
 178 0130 17050000 		lla	a0,.LC1
 178      13050500 
 179 0138 97000000 		call	printf
 179      E7800000 
 180              	.L10:
  84:../src/irq.c  **** 		}
  85:../src/irq.c  **** 
  86:../src/irq.c  **** 		if ((irqs & 4) != 0)
 181              		.loc 1 86 13
 182 0140 832784FD 		lw	a5,-40(s0)
 183 0144 918B     		andi	a5,a5,4
 184              		.loc 1 86 6
 185 0146 A9C7     		beqz	a5,.L6
  87:../src/irq.c  **** 		{
  88:../src/irq.c  **** 			printf("Bus error at 0x");
 186              		.loc 1 88 4
 187 0148 17050000 		lla	a0,.LC3
 187      13050500 
 188 0150 97000000 		call	printf
 188      E7800000 
  89:../src/irq.c  **** 			printf("%x\r\n", pc);
 189              		.loc 1 89 4
 190 0158 832584FE 		lw	a1,-24(s0)
 191 015c 17050000 		lla	a0,.LC1
 191      13050500 
 192 0164 97000000 		call	printf
 192      E7800000 
  90:../src/irq.c  **** 			printf(": 0x");
 193              		.loc 1 90 4
 194 016c 17050000 		lla	a0,.LC2
 194      13050500 
 195 0174 97000000 		call	printf
 195      E7800000 
  91:../src/irq.c  **** 			printf("%x\r\n", instr);
 196              		.loc 1 91 4
 197 017c 8325C4FE 		lw	a1,-20(s0)
 198 0180 17050000 		lla	a0,.LC1
 198      13050500 
 199 0188 97000000 		call	printf
 199      E7800000 
 200              	.L6:
 201              	.LBE2:
  92:../src/irq.c  **** 		}
  93:../src/irq.c  **** 	}
  94:../src/irq.c  **** 
  95:../src/irq.c  **** 	return regs;
 202              		.loc 1 95 9
 203 0190 8327C4FD 		lw	a5,-36(s0)
  96:../src/irq.c  **** }
 204              		.loc 1 96 1
 205 0194 3E85     		mv	a0,a5
 206 0196 B250     		lw	ra,44(sp)
 207              		.cfi_restore 1
 208 0198 2254     		lw	s0,40(sp)
 209              		.cfi_restore 8
 210 019a 4561     		addi	sp,sp,48
 211              		.cfi_def_cfa_register 2
 212 019c 8280     		jr	ra
 213              		.cfi_endproc
 214              	.LFE3:
 216              		.section	.text.return_from_irq,"ax",@progbits
 217              		.align	1
 218              		.globl	return_from_irq
 220              	return_from_irq:
 221              	.LFB4:
  97:../src/irq.c  **** 
  98:../src/irq.c  **** void __attribute__((naked, optimize("O0"))) return_from_irq (void)
  99:../src/irq.c  **** {
 222              		.loc 1 99 1
 223              		.cfi_startproc
 100:../src/irq.c  **** 	__asm__ __volatile__(".word(0x0000c08b)");
 224              		.loc 1 100 2
 225              	 #APP
 226              	# 100 "../src/irq.c" 1
 101              		__asm__ __volatile__(".word(0x0001410b)");
 227              		.word(0x0000c08b)
 228              	# 0 "" 2
 229              		.loc 1 101 2
 230              	# 101 "../src/irq.c" 1
 102              		__asm__ __volatile__(".word(0x0400000b)");
 231              		.word(0x0001410b)
 232              	# 0 "" 2
 233              		.loc 1 102 2
 234              	# 102 "../src/irq.c" 1
 103              	}
 235              		.word(0x0400000b)
 236              	# 0 "" 2
 237              		.loc 1 103 1
 238              	 #NO_APP
 239 000c 0100     		nop
 240              		.cfi_endproc
 241              	.LFE4:
 243              		.section	.text.mask_irq,"ax",@progbits
 244              		.align	1
 245              		.globl	mask_irq
 247              	mask_irq:
 248              	.LFB5:
 104:../src/irq.c  **** 
 105:../src/irq.c  **** //mask irq
 106:../src/irq.c  **** inline uint32_t mask_irq(uint32_t mask)
 107:../src/irq.c  **** {
 249              		.loc 1 107 1
 250              		.cfi_startproc
 251 0000 7971     		addi	sp,sp,-48
 252              		.cfi_def_cfa_offset 48
 253 0002 22D6     		sw	s0,44(sp)
 254              		.cfi_offset 8, -4
 255 0004 0018     		addi	s0,sp,48
 256              		.cfi_def_cfa 8, 0
 257 0006 232EA4FC 		sw	a0,-36(s0)
 108:../src/irq.c  **** 	uint32_t old_mask;
 109:../src/irq.c  **** 	__asm__ __volatile__("mv a4, a0");
 258              		.loc 1 109 2
 259              	 #APP
 260              	# 109 "../src/irq.c" 1
 110              		__asm__ __volatile__(".word(0x0607678b)");
 261              		mv a4, a0
 262              	# 0 "" 2
 263              		.loc 1 110 2
 264              	# 110 "../src/irq.c" 1
 111              		__asm__ __volatile__("add %[dest], x0, a5" :[dest]"=r"(old_mask));
 265              		.word(0x0607678b)
 266              	# 0 "" 2
 267              		.loc 1 111 2
 268              	# 111 "../src/irq.c" 1
 112              		return old_mask;
 269              		add a5, x0, a5
 270              	# 0 "" 2
 271              	 #NO_APP
 272 0014 2326F4FE 		sw	a5,-20(s0)
 273              		.loc 1 112 9
 274 0018 8327C4FE 		lw	a5,-20(s0)
 113:../src/irq.c  **** }
 275              		.loc 1 113 1
 276 001c 3E85     		mv	a0,a5
 277 001e 3254     		lw	s0,44(sp)
 278              		.cfi_restore 8
 279 0020 4561     		addi	sp,sp,48
 280              		.cfi_def_cfa_register 2
 281 0022 8280     		jr	ra
 282              		.cfi_endproc
 283              	.LFE5:
 285              		.section	.text.irq_enable_one_bit,"ax",@progbits
 286              		.align	1
 287              		.globl	irq_enable_one_bit
 289              	irq_enable_one_bit:
 290              	.LFB6:
 114:../src/irq.c  **** 
 115:../src/irq.c  **** //enable a local interrupt
 116:../src/irq.c  **** inline void irq_enable_one_bit(uint32_t irq_num)
 117:../src/irq.c  **** {
 291              		.loc 1 117 1
 292              		.cfi_startproc
 293 0000 7971     		addi	sp,sp,-48
 294              		.cfi_def_cfa_offset 48
 295 0002 06D6     		sw	ra,44(sp)
 296 0004 22D4     		sw	s0,40(sp)
 297              		.cfi_offset 1, -4
 298              		.cfi_offset 8, -8
 299 0006 0018     		addi	s0,sp,48
 300              		.cfi_def_cfa 8, 0
 301 0008 232EA4FC 		sw	a0,-36(s0)
 118:../src/irq.c  **** 	uint32_t mask = 0;
 302              		.loc 1 118 11
 303 000c 232604FE 		sw	zero,-20(s0)
 119:../src/irq.c  **** 	mask = mask_irq(0xffffffff);
 304              		.loc 1 119 9
 305 0010 7D55     		li	a0,-1
 306 0012 97000000 		call	mask_irq
 306      E7800000 
 307 001a 2326A4FE 		sw	a0,-20(s0)
 120:../src/irq.c  **** 	mask = mask & (~(1 << irq_num));
 308              		.loc 1 120 21
 309 001e 8327C4FD 		lw	a5,-36(s0)
 310 0022 0547     		li	a4,1
 311 0024 B317F700 		sll	a5,a4,a5
 312              		.loc 1 120 17
 313 0028 93C7F7FF 		not	a5,a5
 314 002c 3E87     		mv	a4,a5
 315              		.loc 1 120 7
 316 002e 8327C4FE 		lw	a5,-20(s0)
 317 0032 F98F     		and	a5,a5,a4
 318 0034 2326F4FE 		sw	a5,-20(s0)
 121:../src/irq.c  **** 	mask_irq(mask);
 319              		.loc 1 121 2
 320 0038 0325C4FE 		lw	a0,-20(s0)
 321 003c 97000000 		call	mask_irq
 321      E7800000 
 122:../src/irq.c  **** 	return;
 322              		.loc 1 122 2
 323 0044 0100     		nop
 123:../src/irq.c  **** }
 324              		.loc 1 123 1
 325 0046 B250     		lw	ra,44(sp)
 326              		.cfi_restore 1
 327 0048 2254     		lw	s0,40(sp)
 328              		.cfi_restore 8
 329 004a 4561     		addi	sp,sp,48
 330              		.cfi_def_cfa_register 2
 331 004c 8280     		jr	ra
 332              		.cfi_endproc
 333              	.LFE6:
 335              		.section	.text.irq_disable_one_bit,"ax",@progbits
 336              		.align	1
 337              		.globl	irq_disable_one_bit
 339              	irq_disable_one_bit:
 340              	.LFB7:
 124:../src/irq.c  **** 
 125:../src/irq.c  **** //disable a local interrupt
 126:../src/irq.c  **** inline void irq_disable_one_bit(uint32_t irq_num)
 127:../src/irq.c  **** {
 341              		.loc 1 127 1
 342              		.cfi_startproc
 343 0000 7971     		addi	sp,sp,-48
 344              		.cfi_def_cfa_offset 48
 345 0002 06D6     		sw	ra,44(sp)
 346 0004 22D4     		sw	s0,40(sp)
 347              		.cfi_offset 1, -4
 348              		.cfi_offset 8, -8
 349 0006 0018     		addi	s0,sp,48
 350              		.cfi_def_cfa 8, 0
 351 0008 232EA4FC 		sw	a0,-36(s0)
 128:../src/irq.c  **** 	uint32_t mask = 0;
 352              		.loc 1 128 11
 353 000c 232604FE 		sw	zero,-20(s0)
 129:../src/irq.c  **** 	mask = mask_irq(0xffffffff);
 354              		.loc 1 129 9
 355 0010 7D55     		li	a0,-1
 356 0012 97000000 		call	mask_irq
 356      E7800000 
 357 001a 2326A4FE 		sw	a0,-20(s0)
 130:../src/irq.c  **** 	mask = mask | (1 << irq_num);
 358              		.loc 1 130 19
 359 001e 8327C4FD 		lw	a5,-36(s0)
 360 0022 0547     		li	a4,1
 361 0024 B317F700 		sll	a5,a4,a5
 362 0028 3E87     		mv	a4,a5
 363              		.loc 1 130 7
 364 002a 8327C4FE 		lw	a5,-20(s0)
 365 002e D98F     		or	a5,a5,a4
 366 0030 2326F4FE 		sw	a5,-20(s0)
 131:../src/irq.c  **** 	mask_irq(mask);
 367              		.loc 1 131 2
 368 0034 0325C4FE 		lw	a0,-20(s0)
 369 0038 97000000 		call	mask_irq
 369      E7800000 
 132:../src/irq.c  **** 	return;
 370              		.loc 1 132 2
 371 0040 0100     		nop
 133:../src/irq.c  **** }
 372              		.loc 1 133 1
 373 0042 B250     		lw	ra,44(sp)
 374              		.cfi_restore 1
 375 0044 2254     		lw	s0,40(sp)
 376              		.cfi_restore 8
 377 0046 4561     		addi	sp,sp,48
 378              		.cfi_def_cfa_register 2
 379 0048 8280     		jr	ra
 380              		.cfi_endproc
 381              	.LFE7:
 383              		.section	.text.enable_external_interrupt,"ax",@progbits
 384              		.align	1
 385              		.globl	enable_external_interrupt
 387              	enable_external_interrupt:
 388              	.LFB8:
 134:../src/irq.c  **** 
 135:../src/irq.c  **** //enable external interrupts
 136:../src/irq.c  **** //register 'mie' 's external interrupt bit
 137:../src/irq.c  **** inline void enable_external_interrupt(void)
 138:../src/irq.c  **** {
 389              		.loc 1 138 1
 390              		.cfi_startproc
 391 0000 4111     		addi	sp,sp,-16
 392              		.cfi_def_cfa_offset 16
 393 0002 22C6     		sw	s0,12(sp)
 394              		.cfi_offset 8, -4
 395 0004 0008     		addi	s0,sp,16
 396              		.cfi_def_cfa 8, 0
 139:../src/irq.c  **** 	__asm__ __volatile__("csrr   t4, mie");
 397              		.loc 1 139 2
 398              	 #APP
 399              	# 139 "../src/irq.c" 1
 140              		__asm__ __volatile__("li     t5, 0x800");
 400              		csrr   t4, mie
 401              	# 0 "" 2
 402              		.loc 1 140 2
 403              	# 140 "../src/irq.c" 1
 141              		__asm__ __volatile__("or    t4, t4, t5");
 404              		li     t5, 0x800
 405              	# 0 "" 2
 406              		.loc 1 141 2
 407              	# 141 "../src/irq.c" 1
 142              		__asm__ __volatile__("csrrw  t5, mie, t4");
 408              		or    t4, t4, t5
 409              	# 0 "" 2
 410              		.loc 1 142 2
 411              	# 142 "../src/irq.c" 1
 143              	}
 412              		csrrw  t5, mie, t4
 413              	# 0 "" 2
 414              		.loc 1 143 1
 415              	 #NO_APP
 416 001a 0100     		nop
 417 001c 3244     		lw	s0,12(sp)
 418              		.cfi_restore 8
 419 001e 4101     		addi	sp,sp,16
 420              		.cfi_def_cfa_register 2
 421 0020 8280     		jr	ra
 422              		.cfi_endproc
 423              	.LFE8:
 425              		.section	.text.disable_external_interrupt,"ax",@progbits
 426              		.align	1
 427              		.globl	disable_external_interrupt
 429              	disable_external_interrupt:
 430              	.LFB9:
 144:../src/irq.c  **** 
 145:../src/irq.c  **** //disable external interrupts
 146:../src/irq.c  **** //register 'mie' 's external interrupt bit
 147:../src/irq.c  **** inline void disable_external_interrupt(void)
 148:../src/irq.c  **** {
 431              		.loc 1 148 1
 432              		.cfi_startproc
 433 0000 4111     		addi	sp,sp,-16
 434              		.cfi_def_cfa_offset 16
 435 0002 22C6     		sw	s0,12(sp)
 436              		.cfi_offset 8, -4
 437 0004 0008     		addi	s0,sp,16
 438              		.cfi_def_cfa 8, 0
 149:../src/irq.c  **** 	__asm__ __volatile__("csrr   t4, mie");
 439              		.loc 1 149 2
 440              	 #APP
 441              	# 149 "../src/irq.c" 1
 150              		__asm__ __volatile__("li     t5, 0xfffff7ff");
 442              		csrr   t4, mie
 443              	# 0 "" 2
 444              		.loc 1 150 2
 445              	# 150 "../src/irq.c" 1
 151              		__asm__ __volatile__("and    t4, t4, t5");
 446              		li     t5, 0xfffff7ff
 447              	# 0 "" 2
 448              		.loc 1 151 2
 449              	# 151 "../src/irq.c" 1
 152              		__asm__ __volatile__("csrrw  t5, mie, t4");
 450              		and    t4, t4, t5
 451              	# 0 "" 2
 452              		.loc 1 152 2
 453              	# 152 "../src/irq.c" 1
 153              	}
 454              		csrrw  t5, mie, t4
 455              	# 0 "" 2
 456              		.loc 1 153 1
 457              	 #NO_APP
 458 001a 0100     		nop
 459 001c 3244     		lw	s0,12(sp)
 460              		.cfi_restore 8
 461 001e 4101     		addi	sp,sp,16
 462              		.cfi_def_cfa_register 2
 463 0020 8280     		jr	ra
 464              		.cfi_endproc
 465              	.LFE9:
 467              		.section	.text.enable_timer_interrupt,"ax",@progbits
 468              		.align	1
 469              		.globl	enable_timer_interrupt
 471              	enable_timer_interrupt:
 472              	.LFB10:
 154:../src/irq.c  **** 
 155:../src/irq.c  **** //enable timer interrupt
 156:../src/irq.c  **** //register 'mie' 's timer interrupt bit
 157:../src/irq.c  **** inline void enable_timer_interrupt(void)
 158:../src/irq.c  **** {
 473              		.loc 1 158 1
 474              		.cfi_startproc
 475 0000 4111     		addi	sp,sp,-16
 476              		.cfi_def_cfa_offset 16
 477 0002 22C6     		sw	s0,12(sp)
 478              		.cfi_offset 8, -4
 479 0004 0008     		addi	s0,sp,16
 480              		.cfi_def_cfa 8, 0
 159:../src/irq.c  **** 	__asm__ __volatile__("csrr   t4, mie");
 481              		.loc 1 159 2
 482              	 #APP
 483              	# 159 "../src/irq.c" 1
 160              		__asm__ __volatile__("li     t5, 0x80");
 484              		csrr   t4, mie
 485              	# 0 "" 2
 486              		.loc 1 160 2
 487              	# 160 "../src/irq.c" 1
 161              		__asm__ __volatile__("or     t4, t4, t5");
 488              		li     t5, 0x80
 489              	# 0 "" 2
 490              		.loc 1 161 2
 491              	# 161 "../src/irq.c" 1
 162              		__asm__ __volatile__("csrrw  t5, mie, t4");
 492              		or     t4, t4, t5
 493              	# 0 "" 2
 494              		.loc 1 162 2
 495              	# 162 "../src/irq.c" 1
 163              	}
 496              		csrrw  t5, mie, t4
 497              	# 0 "" 2
 498              		.loc 1 163 1
 499              	 #NO_APP
 500 0016 0100     		nop
 501 0018 3244     		lw	s0,12(sp)
 502              		.cfi_restore 8
 503 001a 4101     		addi	sp,sp,16
 504              		.cfi_def_cfa_register 2
 505 001c 8280     		jr	ra
 506              		.cfi_endproc
 507              	.LFE10:
 509              		.section	.text.disable_timer_interrupt,"ax",@progbits
 510              		.align	1
 511              		.globl	disable_timer_interrupt
 513              	disable_timer_interrupt:
 514              	.LFB11:
 164:../src/irq.c  **** 
 165:../src/irq.c  **** //disable timer interrupt
 166:../src/irq.c  **** //register 'mie' 's mie interrupt bit
 167:../src/irq.c  **** inline void disable_timer_interrupt(void)
 168:../src/irq.c  **** {
 515              		.loc 1 168 1
 516              		.cfi_startproc
 517 0000 4111     		addi	sp,sp,-16
 518              		.cfi_def_cfa_offset 16
 519 0002 22C6     		sw	s0,12(sp)
 520              		.cfi_offset 8, -4
 521 0004 0008     		addi	s0,sp,16
 522              		.cfi_def_cfa 8, 0
 169:../src/irq.c  **** 	__asm__ __volatile__("csrr   t4, mie");
 523              		.loc 1 169 2
 524              	 #APP
 525              	# 169 "../src/irq.c" 1
 170              		__asm__ __volatile__("li     t5, 0xffffff7f");
 526              		csrr   t4, mie
 527              	# 0 "" 2
 528              		.loc 1 170 2
 529              	# 170 "../src/irq.c" 1
 171              		__asm__ __volatile__("and    t4, t4, t5");
 530              		li     t5, 0xffffff7f
 531              	# 0 "" 2
 532              		.loc 1 171 2
 533              	# 171 "../src/irq.c" 1
 172              		__asm__ __volatile__("csrrw  t5, mie, t4");
 534              		and    t4, t4, t5
 535              	# 0 "" 2
 536              		.loc 1 172 2
 537              	# 172 "../src/irq.c" 1
 173              	}
 538              		csrrw  t5, mie, t4
 539              	# 0 "" 2
 540              		.loc 1 173 1
 541              	 #NO_APP
 542 0016 0100     		nop
 543 0018 3244     		lw	s0,12(sp)
 544              		.cfi_restore 8
 545 001a 4101     		addi	sp,sp,16
 546              		.cfi_def_cfa_register 2
 547 001c 8280     		jr	ra
 548              		.cfi_endproc
 549              	.LFE11:
 551              		.section	.text.enable_interrupt_global,"ax",@progbits
 552              		.align	1
 553              		.globl	enable_interrupt_global
 555              	enable_interrupt_global:
 556              	.LFB12:
 174:../src/irq.c  **** 
 175:../src/irq.c  **** //enable global interrupt
 176:../src/irq.c  **** //register 'mstatus' 's 'MIE' bit (global interrupt)
 177:../src/irq.c  **** inline void enable_interrupt_global(void)
 178:../src/irq.c  **** {
 557              		.loc 1 178 1
 558              		.cfi_startproc
 559 0000 4111     		addi	sp,sp,-16
 560              		.cfi_def_cfa_offset 16
 561 0002 22C6     		sw	s0,12(sp)
 562              		.cfi_offset 8, -4
 563 0004 0008     		addi	s0,sp,16
 564              		.cfi_def_cfa 8, 0
 179:../src/irq.c  **** 	__asm__ __volatile__("csrrwi t5, mstatus, 8");
 565              		.loc 1 179 2
 566              	 #APP
 567              	# 179 "../src/irq.c" 1
 180              	}
 568              		csrrwi t5, mstatus, 8
 569              	# 0 "" 2
 570              		.loc 1 180 1
 571              	 #NO_APP
 572 000a 0100     		nop
 573 000c 3244     		lw	s0,12(sp)
 574              		.cfi_restore 8
 575 000e 4101     		addi	sp,sp,16
 576              		.cfi_def_cfa_register 2
 577 0010 8280     		jr	ra
 578              		.cfi_endproc
 579              	.LFE12:
 581              		.section	.text.disable_interrupt_global,"ax",@progbits
 582              		.align	1
 583              		.globl	disable_interrupt_global
 585              	disable_interrupt_global:
 586              	.LFB13:
 181:../src/irq.c  **** 
 182:../src/irq.c  **** //disable global interrupt
 183:../src/irq.c  **** //register 'mstatus' 's 'MIE' bit (global interrupt)
 184:../src/irq.c  **** inline void disable_interrupt_global(void)
 185:../src/irq.c  **** {
 587              		.loc 1 185 1
 588              		.cfi_startproc
 589 0000 4111     		addi	sp,sp,-16
 590              		.cfi_def_cfa_offset 16
 591 0002 22C6     		sw	s0,12(sp)
 592              		.cfi_offset 8, -4
 593 0004 0008     		addi	s0,sp,16
 594              		.cfi_def_cfa 8, 0
 186:../src/irq.c  **** 	__asm__ __volatile__("csrrwi t5, mstatus, 0");
 595              		.loc 1 186 2
 596              	 #APP
 597              	# 186 "../src/irq.c" 1
 187              	}
 598              		csrrwi t5, mstatus, 0
 599              	# 0 "" 2
 600              		.loc 1 187 1
 601              	 #NO_APP
 602 000a 0100     		nop
 603 000c 3244     		lw	s0,12(sp)
 604              		.cfi_restore 8
 605 000e 4101     		addi	sp,sp,16
 606              		.cfi_def_cfa_register 2
 607 0010 8280     		jr	ra
 608              		.cfi_endproc
 609              	.LFE13:
 611              		.section	.text.set_timer,"ax",@progbits
 612              		.align	1
 613              		.globl	set_timer
 615              	set_timer:
 616              	.LFB14:
 188:../src/irq.c  **** 
 189:../src/irq.c  **** //set timer
 190:../src/irq.c  **** uint32_t set_timer(uint32_t timer_val)
 191:../src/irq.c  **** {
 617              		.loc 1 191 1
 618              		.cfi_startproc
 619 0000 7971     		addi	sp,sp,-48
 620              		.cfi_def_cfa_offset 48
 621 0002 22D6     		sw	s0,44(sp)
 622              		.cfi_offset 8, -4
 623 0004 0018     		addi	s0,sp,48
 624              		.cfi_def_cfa 8, 0
 625 0006 232EA4FC 		sw	a0,-36(s0)
 192:../src/irq.c  **** 	uint32_t old_val = 0;
 626              		.loc 1 192 11
 627 000a 232604FE 		sw	zero,-20(s0)
 193:../src/irq.c  **** 	__asm__ __volatile__("mv a4, a0");
 628              		.loc 1 193 2
 629              	 #APP
 630              	# 193 "../src/irq.c" 1
 194              		__asm__ __volatile__(".word(0x0a07078b)");
 631              		mv a4, a0
 632              	# 0 "" 2
 633              		.loc 1 194 2
 634              	# 194 "../src/irq.c" 1
 195              		__asm__ __volatile__("mv %[dest], a5"  :[dest]"=r"(old_val));
 635              		.word(0x0a07078b)
 636              	# 0 "" 2
 637              		.loc 1 195 2
 638              	# 195 "../src/irq.c" 1
 196              		return old_val;
 639              		mv a5, a5
 640              	# 0 "" 2
 641              	 #NO_APP
 642 0016 2326F4FE 		sw	a5,-20(s0)
 643              		.loc 1 196 9
 644 001a 8327C4FE 		lw	a5,-20(s0)
 197:../src/irq.c  **** }
 645              		.loc 1 197 1
 646 001e 3E85     		mv	a0,a5
 647 0020 3254     		lw	s0,44(sp)
 648              		.cfi_restore 8
 649 0022 4561     		addi	sp,sp,48
 650              		.cfi_def_cfa_register 2
 651 0024 8280     		jr	ra
 652              		.cfi_endproc
 653              	.LFE14:
 655              		.text
 656              	.Letext0:
 657              		.file 2 "c:\\gmd\\toolchain\\risc-v_toolchain\\riscv-none-embed\\include\\machine\\_default_types.
 658              		.file 3 "c:\\gmd\\toolchain\\risc-v_toolchain\\riscv-none-embed\\include\\sys\\lock.h"
 659              		.file 4 "c:\\gmd\\toolchain\\risc-v_toolchain\\riscv-none-embed\\include\\sys\\_types.h"
 660              		.file 5 "c:\\gmd\\toolchain\\risc-v_toolchain\\lib\\gcc\\riscv-none-embed\\8.2.0\\include\\stddef.
 661              		.file 6 "c:\\gmd\\toolchain\\risc-v_toolchain\\riscv-none-embed\\include\\sys\\reent.h"
 662              		.file 7 "c:\\gmd\\toolchain\\risc-v_toolchain\\riscv-none-embed\\include\\sys\\_stdint.h"
DEFINED SYMBOLS
                            *ABS*:0000000000000000 irq.c
C:\Users\liukai\AppData\Local\Temp\cc4ezZAc.s:11     .sbss.tmp:0000000000000000 tmp
C:\Users\liukai\AppData\Local\Temp\cc4ezZAc.s:18     .sbss.val:0000000000000000 val
C:\Users\liukai\AppData\Local\Temp\cc4ezZAc.s:37     .text.irq:0000000000000000 irq
C:\Users\liukai\AppData\Local\Temp\cc4ezZAc.s:41     .text.irq:0000000000000000 .L0 
C:\Users\liukai\AppData\Local\Temp\cc4ezZAc.s:42     .text.irq:0000000000000000 .L0 
C:\Users\liukai\AppData\Local\Temp\cc4ezZAc.s:43     .text.irq:0000000000000002 .L0 
C:\Users\liukai\AppData\Local\Temp\cc4ezZAc.s:46     .text.irq:0000000000000006 .L0 
C:\Users\liukai\AppData\Local\Temp\cc4ezZAc.s:47     .text.irq:0000000000000006 .L0 
C:\Users\liukai\AppData\Local\Temp\cc4ezZAc.s:49     .text.irq:0000000000000008 .L0 
C:\Users\liukai\AppData\Local\Temp\cc4ezZAc.s:53     .text.irq:0000000000000010 .L0 
C:\Users\liukai\AppData\Local\Temp\cc4ezZAc.s:247    .text.mask_irq:0000000000000000 mask_irq
C:\Users\liukai\AppData\Local\Temp\cc4ezZAc.s:57     .text.irq:000000000000001c .L0 
C:\Users\liukai\AppData\Local\Temp\cc4ezZAc.s:60     .text.irq:0000000000000022 .L0 
C:\Users\liukai\AppData\Local\Temp\cc4ezZAc.s:62     .text.irq:0000000000000026 .L0 
C:\Users\liukai\AppData\Local\Temp\cc4ezZAc.s:66     .text.irq:0000000000000034 .L0 
C:\Users\liukai\AppData\Local\Temp\cc4ezZAc.s:69     .text.irq:000000000000003a .L0 
C:\Users\liukai\AppData\Local\Temp\cc4ezZAc.s:71     .text.irq:000000000000003c .L0 
C:\Users\liukai\AppData\Local\Temp\cc4ezZAc.s:76     .text.irq:000000000000004a .L0 
C:\Users\liukai\AppData\Local\Temp\cc4ezZAc.s:80     .text.irq:0000000000000052 .L0 
C:\Users\liukai\AppData\Local\Temp\cc4ezZAc.s:82     .text.irq:0000000000000054 .L0 
C:\Users\liukai\AppData\Local\Temp\cc4ezZAc.s:87     .text.irq:0000000000000062 .L0 
C:\Users\liukai\AppData\Local\Temp\cc4ezZAc.s:91     .text.irq:000000000000006c .L0 
C:\Users\liukai\AppData\Local\Temp\cc4ezZAc.s:93     .text.irq:000000000000006e .L0 
C:\Users\liukai\AppData\Local\Temp\cc4ezZAc.s:98     .text.irq:000000000000007c .L0 
C:\Users\liukai\AppData\Local\Temp\cc4ezZAc.s:102    .text.irq:0000000000000086 .L0 
C:\Users\liukai\AppData\Local\Temp\cc4ezZAc.s:104    .text.irq:0000000000000088 .L0 
C:\Users\liukai\AppData\Local\Temp\cc4ezZAc.s:109    .text.irq:0000000000000096 .L0 
C:\Users\liukai\AppData\Local\Temp\cc4ezZAc.s:112    .text.irq:000000000000009c .L0 
C:\Users\liukai\AppData\Local\Temp\cc4ezZAc.s:115    .text.irq:000000000000009e .L0 
C:\Users\liukai\AppData\Local\Temp\cc4ezZAc.s:118    .text.irq:00000000000000a4 .L0 
C:\Users\liukai\AppData\Local\Temp\cc4ezZAc.s:120    .text.irq:00000000000000a6 .L0 
C:\Users\liukai\AppData\Local\Temp\cc4ezZAc.s:122    .text.irq:00000000000000a8 .L0 
C:\Users\liukai\AppData\Local\Temp\cc4ezZAc.s:125    .text.irq:00000000000000ae .L0 
C:\Users\liukai\AppData\Local\Temp\cc4ezZAc.s:129    .text.irq:00000000000000b2 .L0 
C:\Users\liukai\AppData\Local\Temp\cc4ezZAc.s:132    .text.irq:00000000000000b8 .L0 
C:\Users\liukai\AppData\Local\Temp\cc4ezZAc.s:135    .text.irq:00000000000000ba .L0 
C:\Users\liukai\AppData\Local\Temp\cc4ezZAc.s:137    .text.irq:00000000000000be .L0 
C:\Users\liukai\AppData\Local\Temp\cc4ezZAc.s:139    .text.irq:00000000000000c2 .L0 
C:\Users\liukai\AppData\Local\Temp\cc4ezZAc.s:141    .text.irq:00000000000000c6 .L0 
C:\Users\liukai\AppData\Local\Temp\cc4ezZAc.s:143    .text.irq:00000000000000ca .L0 
C:\Users\liukai\AppData\Local\Temp\cc4ezZAc.s:146    .text.irq:00000000000000d2 .L0 
C:\Users\liukai\AppData\Local\Temp\cc4ezZAc.s:149    .text.irq:00000000000000d8 .L0 
C:\Users\liukai\AppData\Local\Temp\cc4ezZAc.s:152    .text.irq:00000000000000de .L0 
C:\Users\liukai\AppData\Local\Temp\cc4ezZAc.s:154    .text.irq:00000000000000e2 .L0 
C:\Users\liukai\AppData\Local\Temp\cc4ezZAc.s:157    .text.irq:00000000000000e6 .L0 
C:\Users\liukai\AppData\Local\Temp\cc4ezZAc.s:162    .text.irq:00000000000000f0 .L0 
C:\Users\liukai\AppData\Local\Temp\cc4ezZAc.s:165    .text.irq:00000000000000f6 .L0 
C:\Users\liukai\AppData\Local\Temp\cc4ezZAc.s:167    .text.irq:00000000000000f8 .L0 
C:\Users\liukai\AppData\Local\Temp\cc4ezZAc.s:170    .text.irq:0000000000000108 .L0 
C:\Users\liukai\AppData\Local\Temp\cc4ezZAc.s:174    .text.irq:000000000000011c .L0 
C:\Users\liukai\AppData\Local\Temp\cc4ezZAc.s:177    .text.irq:000000000000012c .L0 
C:\Users\liukai\AppData\Local\Temp\cc4ezZAc.s:182    .text.irq:0000000000000140 .L0 
C:\Users\liukai\AppData\Local\Temp\cc4ezZAc.s:185    .text.irq:0000000000000146 .L0 
C:\Users\liukai\AppData\Local\Temp\cc4ezZAc.s:187    .text.irq:0000000000000148 .L0 
C:\Users\liukai\AppData\Local\Temp\cc4ezZAc.s:190    .text.irq:0000000000000158 .L0 
C:\Users\liukai\AppData\Local\Temp\cc4ezZAc.s:194    .text.irq:000000000000016c .L0 
C:\Users\liukai\AppData\Local\Temp\cc4ezZAc.s:197    .text.irq:000000000000017c .L0 
C:\Users\liukai\AppData\Local\Temp\cc4ezZAc.s:203    .text.irq:0000000000000190 .L0 
C:\Users\liukai\AppData\Local\Temp\cc4ezZAc.s:205    .text.irq:0000000000000194 .L0 
C:\Users\liukai\AppData\Local\Temp\cc4ezZAc.s:207    .text.irq:0000000000000198 .L0 
C:\Users\liukai\AppData\Local\Temp\cc4ezZAc.s:209    .text.irq:000000000000019a .L0 
C:\Users\liukai\AppData\Local\Temp\cc4ezZAc.s:211    .text.irq:000000000000019c .L0 
C:\Users\liukai\AppData\Local\Temp\cc4ezZAc.s:213    .text.irq:000000000000019e .L0 
C:\Users\liukai\AppData\Local\Temp\cc4ezZAc.s:220    .text.return_from_irq:0000000000000000 return_from_irq
C:\Users\liukai\AppData\Local\Temp\cc4ezZAc.s:223    .text.return_from_irq:0000000000000000 .L0 
C:\Users\liukai\AppData\Local\Temp\cc4ezZAc.s:224    .text.return_from_irq:0000000000000000 .L0 
C:\Users\liukai\AppData\Local\Temp\cc4ezZAc.s:229    .text.return_from_irq:0000000000000004 .L0 
C:\Users\liukai\AppData\Local\Temp\cc4ezZAc.s:233    .text.return_from_irq:0000000000000008 .L0 
C:\Users\liukai\AppData\Local\Temp\cc4ezZAc.s:237    .text.return_from_irq:000000000000000c .L0 
C:\Users\liukai\AppData\Local\Temp\cc4ezZAc.s:239    .text.return_from_irq:000000000000000c .L0 
C:\Users\liukai\AppData\Local\Temp\cc4ezZAc.s:240    .text.return_from_irq:000000000000000e .L0 
C:\Users\liukai\AppData\Local\Temp\cc4ezZAc.s:250    .text.mask_irq:0000000000000000 .L0 
C:\Users\liukai\AppData\Local\Temp\cc4ezZAc.s:251    .text.mask_irq:0000000000000000 .L0 
C:\Users\liukai\AppData\Local\Temp\cc4ezZAc.s:252    .text.mask_irq:0000000000000002 .L0 
C:\Users\liukai\AppData\Local\Temp\cc4ezZAc.s:254    .text.mask_irq:0000000000000004 .L0 
C:\Users\liukai\AppData\Local\Temp\cc4ezZAc.s:256    .text.mask_irq:0000000000000006 .L0 
        ../src/irq.c:109    .text.mask_irq:000000000000000a .L0 
C:\Users\liukai\AppData\Local\Temp\cc4ezZAc.s:267    .text.mask_irq:0000000000000010 .L0 
        ../src/irq.c:111    .text.mask_irq:0000000000000010 .L0 
C:\Users\liukai\AppData\Local\Temp\cc4ezZAc.s:274    .text.mask_irq:0000000000000018 .L0 
C:\Users\liukai\AppData\Local\Temp\cc4ezZAc.s:276    .text.mask_irq:000000000000001c .L0 
C:\Users\liukai\AppData\Local\Temp\cc4ezZAc.s:278    .text.mask_irq:0000000000000020 .L0 
C:\Users\liukai\AppData\Local\Temp\cc4ezZAc.s:280    .text.mask_irq:0000000000000022 .L0 
C:\Users\liukai\AppData\Local\Temp\cc4ezZAc.s:282    .text.mask_irq:0000000000000024 .L0 
C:\Users\liukai\AppData\Local\Temp\cc4ezZAc.s:289    .text.irq_enable_one_bit:0000000000000000 irq_enable_one_bit
C:\Users\liukai\AppData\Local\Temp\cc4ezZAc.s:292    .text.irq_enable_one_bit:0000000000000000 .L0 
C:\Users\liukai\AppData\Local\Temp\cc4ezZAc.s:293    .text.irq_enable_one_bit:0000000000000000 .L0 
C:\Users\liukai\AppData\Local\Temp\cc4ezZAc.s:294    .text.irq_enable_one_bit:0000000000000002 .L0 
C:\Users\liukai\AppData\Local\Temp\cc4ezZAc.s:297    .text.irq_enable_one_bit:0000000000000006 .L0 
C:\Users\liukai\AppData\Local\Temp\cc4ezZAc.s:298    .text.irq_enable_one_bit:0000000000000006 .L0 
C:\Users\liukai\AppData\Local\Temp\cc4ezZAc.s:300    .text.irq_enable_one_bit:0000000000000008 .L0 
C:\Users\liukai\AppData\Local\Temp\cc4ezZAc.s:303    .text.irq_enable_one_bit:000000000000000c .L0 
C:\Users\liukai\AppData\Local\Temp\cc4ezZAc.s:305    .text.irq_enable_one_bit:0000000000000010 .L0 
C:\Users\liukai\AppData\Local\Temp\cc4ezZAc.s:309    .text.irq_enable_one_bit:000000000000001e .L0 
C:\Users\liukai\AppData\Local\Temp\cc4ezZAc.s:313    .text.irq_enable_one_bit:0000000000000028 .L0 
C:\Users\liukai\AppData\Local\Temp\cc4ezZAc.s:316    .text.irq_enable_one_bit:000000000000002e .L0 
C:\Users\liukai\AppData\Local\Temp\cc4ezZAc.s:320    .text.irq_enable_one_bit:0000000000000038 .L0 
C:\Users\liukai\AppData\Local\Temp\cc4ezZAc.s:323    .text.irq_enable_one_bit:0000000000000044 .L0 
C:\Users\liukai\AppData\Local\Temp\cc4ezZAc.s:325    .text.irq_enable_one_bit:0000000000000046 .L0 
C:\Users\liukai\AppData\Local\Temp\cc4ezZAc.s:326    .text.irq_enable_one_bit:0000000000000048 .L0 
C:\Users\liukai\AppData\Local\Temp\cc4ezZAc.s:328    .text.irq_enable_one_bit:000000000000004a .L0 
C:\Users\liukai\AppData\Local\Temp\cc4ezZAc.s:330    .text.irq_enable_one_bit:000000000000004c .L0 
C:\Users\liukai\AppData\Local\Temp\cc4ezZAc.s:332    .text.irq_enable_one_bit:000000000000004e .L0 
C:\Users\liukai\AppData\Local\Temp\cc4ezZAc.s:339    .text.irq_disable_one_bit:0000000000000000 irq_disable_one_bit
C:\Users\liukai\AppData\Local\Temp\cc4ezZAc.s:342    .text.irq_disable_one_bit:0000000000000000 .L0 
C:\Users\liukai\AppData\Local\Temp\cc4ezZAc.s:343    .text.irq_disable_one_bit:0000000000000000 .L0 
C:\Users\liukai\AppData\Local\Temp\cc4ezZAc.s:344    .text.irq_disable_one_bit:0000000000000002 .L0 
C:\Users\liukai\AppData\Local\Temp\cc4ezZAc.s:347    .text.irq_disable_one_bit:0000000000000006 .L0 
C:\Users\liukai\AppData\Local\Temp\cc4ezZAc.s:348    .text.irq_disable_one_bit:0000000000000006 .L0 
C:\Users\liukai\AppData\Local\Temp\cc4ezZAc.s:350    .text.irq_disable_one_bit:0000000000000008 .L0 
C:\Users\liukai\AppData\Local\Temp\cc4ezZAc.s:353    .text.irq_disable_one_bit:000000000000000c .L0 
C:\Users\liukai\AppData\Local\Temp\cc4ezZAc.s:355    .text.irq_disable_one_bit:0000000000000010 .L0 
C:\Users\liukai\AppData\Local\Temp\cc4ezZAc.s:359    .text.irq_disable_one_bit:000000000000001e .L0 
C:\Users\liukai\AppData\Local\Temp\cc4ezZAc.s:364    .text.irq_disable_one_bit:000000000000002a .L0 
C:\Users\liukai\AppData\Local\Temp\cc4ezZAc.s:368    .text.irq_disable_one_bit:0000000000000034 .L0 
C:\Users\liukai\AppData\Local\Temp\cc4ezZAc.s:371    .text.irq_disable_one_bit:0000000000000040 .L0 
C:\Users\liukai\AppData\Local\Temp\cc4ezZAc.s:373    .text.irq_disable_one_bit:0000000000000042 .L0 
C:\Users\liukai\AppData\Local\Temp\cc4ezZAc.s:374    .text.irq_disable_one_bit:0000000000000044 .L0 
C:\Users\liukai\AppData\Local\Temp\cc4ezZAc.s:376    .text.irq_disable_one_bit:0000000000000046 .L0 
C:\Users\liukai\AppData\Local\Temp\cc4ezZAc.s:378    .text.irq_disable_one_bit:0000000000000048 .L0 
C:\Users\liukai\AppData\Local\Temp\cc4ezZAc.s:380    .text.irq_disable_one_bit:000000000000004a .L0 
C:\Users\liukai\AppData\Local\Temp\cc4ezZAc.s:387    .text.enable_external_interrupt:0000000000000000 enable_external_interrupt
C:\Users\liukai\AppData\Local\Temp\cc4ezZAc.s:390    .text.enable_external_interrupt:0000000000000000 .L0 
C:\Users\liukai\AppData\Local\Temp\cc4ezZAc.s:391    .text.enable_external_interrupt:0000000000000000 .L0 
C:\Users\liukai\AppData\Local\Temp\cc4ezZAc.s:392    .text.enable_external_interrupt:0000000000000002 .L0 
C:\Users\liukai\AppData\Local\Temp\cc4ezZAc.s:394    .text.enable_external_interrupt:0000000000000004 .L0 
C:\Users\liukai\AppData\Local\Temp\cc4ezZAc.s:396    .text.enable_external_interrupt:0000000000000006 .L0 
        ../src/irq.c:139    .text.enable_external_interrupt:0000000000000006 .L0 
        ../src/irq.c:140    .text.enable_external_interrupt:000000000000000a .L0 
        ../src/irq.c:141    .text.enable_external_interrupt:0000000000000012 .L0 
        ../src/irq.c:142    .text.enable_external_interrupt:0000000000000016 .L0 
C:\Users\liukai\AppData\Local\Temp\cc4ezZAc.s:416    .text.enable_external_interrupt:000000000000001a .L0 
C:\Users\liukai\AppData\Local\Temp\cc4ezZAc.s:418    .text.enable_external_interrupt:000000000000001e .L0 
C:\Users\liukai\AppData\Local\Temp\cc4ezZAc.s:420    .text.enable_external_interrupt:0000000000000020 .L0 
C:\Users\liukai\AppData\Local\Temp\cc4ezZAc.s:422    .text.enable_external_interrupt:0000000000000022 .L0 
C:\Users\liukai\AppData\Local\Temp\cc4ezZAc.s:429    .text.disable_external_interrupt:0000000000000000 disable_external_interrupt
C:\Users\liukai\AppData\Local\Temp\cc4ezZAc.s:432    .text.disable_external_interrupt:0000000000000000 .L0 
C:\Users\liukai\AppData\Local\Temp\cc4ezZAc.s:433    .text.disable_external_interrupt:0000000000000000 .L0 
C:\Users\liukai\AppData\Local\Temp\cc4ezZAc.s:434    .text.disable_external_interrupt:0000000000000002 .L0 
C:\Users\liukai\AppData\Local\Temp\cc4ezZAc.s:436    .text.disable_external_interrupt:0000000000000004 .L0 
C:\Users\liukai\AppData\Local\Temp\cc4ezZAc.s:438    .text.disable_external_interrupt:0000000000000006 .L0 
        ../src/irq.c:149    .text.disable_external_interrupt:0000000000000006 .L0 
        ../src/irq.c:150    .text.disable_external_interrupt:000000000000000a .L0 
        ../src/irq.c:151    .text.disable_external_interrupt:0000000000000012 .L0 
        ../src/irq.c:152    .text.disable_external_interrupt:0000000000000016 .L0 
C:\Users\liukai\AppData\Local\Temp\cc4ezZAc.s:458    .text.disable_external_interrupt:000000000000001a .L0 
C:\Users\liukai\AppData\Local\Temp\cc4ezZAc.s:460    .text.disable_external_interrupt:000000000000001e .L0 
C:\Users\liukai\AppData\Local\Temp\cc4ezZAc.s:462    .text.disable_external_interrupt:0000000000000020 .L0 
C:\Users\liukai\AppData\Local\Temp\cc4ezZAc.s:464    .text.disable_external_interrupt:0000000000000022 .L0 
C:\Users\liukai\AppData\Local\Temp\cc4ezZAc.s:471    .text.enable_timer_interrupt:0000000000000000 enable_timer_interrupt
C:\Users\liukai\AppData\Local\Temp\cc4ezZAc.s:474    .text.enable_timer_interrupt:0000000000000000 .L0 
C:\Users\liukai\AppData\Local\Temp\cc4ezZAc.s:475    .text.enable_timer_interrupt:0000000000000000 .L0 
C:\Users\liukai\AppData\Local\Temp\cc4ezZAc.s:476    .text.enable_timer_interrupt:0000000000000002 .L0 
C:\Users\liukai\AppData\Local\Temp\cc4ezZAc.s:478    .text.enable_timer_interrupt:0000000000000004 .L0 
C:\Users\liukai\AppData\Local\Temp\cc4ezZAc.s:480    .text.enable_timer_interrupt:0000000000000006 .L0 
        ../src/irq.c:159    .text.enable_timer_interrupt:0000000000000006 .L0 
        ../src/irq.c:160    .text.enable_timer_interrupt:000000000000000a .L0 
        ../src/irq.c:161    .text.enable_timer_interrupt:000000000000000e .L0 
        ../src/irq.c:162    .text.enable_timer_interrupt:0000000000000012 .L0 
C:\Users\liukai\AppData\Local\Temp\cc4ezZAc.s:500    .text.enable_timer_interrupt:0000000000000016 .L0 
C:\Users\liukai\AppData\Local\Temp\cc4ezZAc.s:502    .text.enable_timer_interrupt:000000000000001a .L0 
C:\Users\liukai\AppData\Local\Temp\cc4ezZAc.s:504    .text.enable_timer_interrupt:000000000000001c .L0 
C:\Users\liukai\AppData\Local\Temp\cc4ezZAc.s:506    .text.enable_timer_interrupt:000000000000001e .L0 
C:\Users\liukai\AppData\Local\Temp\cc4ezZAc.s:513    .text.disable_timer_interrupt:0000000000000000 disable_timer_interrupt
C:\Users\liukai\AppData\Local\Temp\cc4ezZAc.s:516    .text.disable_timer_interrupt:0000000000000000 .L0 
C:\Users\liukai\AppData\Local\Temp\cc4ezZAc.s:517    .text.disable_timer_interrupt:0000000000000000 .L0 
C:\Users\liukai\AppData\Local\Temp\cc4ezZAc.s:518    .text.disable_timer_interrupt:0000000000000002 .L0 
C:\Users\liukai\AppData\Local\Temp\cc4ezZAc.s:520    .text.disable_timer_interrupt:0000000000000004 .L0 
C:\Users\liukai\AppData\Local\Temp\cc4ezZAc.s:522    .text.disable_timer_interrupt:0000000000000006 .L0 
        ../src/irq.c:169    .text.disable_timer_interrupt:0000000000000006 .L0 
        ../src/irq.c:170    .text.disable_timer_interrupt:000000000000000a .L0 
        ../src/irq.c:171    .text.disable_timer_interrupt:000000000000000e .L0 
        ../src/irq.c:172    .text.disable_timer_interrupt:0000000000000012 .L0 
C:\Users\liukai\AppData\Local\Temp\cc4ezZAc.s:542    .text.disable_timer_interrupt:0000000000000016 .L0 
C:\Users\liukai\AppData\Local\Temp\cc4ezZAc.s:544    .text.disable_timer_interrupt:000000000000001a .L0 
C:\Users\liukai\AppData\Local\Temp\cc4ezZAc.s:546    .text.disable_timer_interrupt:000000000000001c .L0 
C:\Users\liukai\AppData\Local\Temp\cc4ezZAc.s:548    .text.disable_timer_interrupt:000000000000001e .L0 
C:\Users\liukai\AppData\Local\Temp\cc4ezZAc.s:555    .text.enable_interrupt_global:0000000000000000 enable_interrupt_global
C:\Users\liukai\AppData\Local\Temp\cc4ezZAc.s:558    .text.enable_interrupt_global:0000000000000000 .L0 
C:\Users\liukai\AppData\Local\Temp\cc4ezZAc.s:559    .text.enable_interrupt_global:0000000000000000 .L0 
C:\Users\liukai\AppData\Local\Temp\cc4ezZAc.s:560    .text.enable_interrupt_global:0000000000000002 .L0 
C:\Users\liukai\AppData\Local\Temp\cc4ezZAc.s:562    .text.enable_interrupt_global:0000000000000004 .L0 
C:\Users\liukai\AppData\Local\Temp\cc4ezZAc.s:564    .text.enable_interrupt_global:0000000000000006 .L0 
        ../src/irq.c:179    .text.enable_interrupt_global:0000000000000006 .L0 
C:\Users\liukai\AppData\Local\Temp\cc4ezZAc.s:572    .text.enable_interrupt_global:000000000000000a .L0 
C:\Users\liukai\AppData\Local\Temp\cc4ezZAc.s:574    .text.enable_interrupt_global:000000000000000e .L0 
C:\Users\liukai\AppData\Local\Temp\cc4ezZAc.s:576    .text.enable_interrupt_global:0000000000000010 .L0 
C:\Users\liukai\AppData\Local\Temp\cc4ezZAc.s:578    .text.enable_interrupt_global:0000000000000012 .L0 
C:\Users\liukai\AppData\Local\Temp\cc4ezZAc.s:585    .text.disable_interrupt_global:0000000000000000 disable_interrupt_global
C:\Users\liukai\AppData\Local\Temp\cc4ezZAc.s:588    .text.disable_interrupt_global:0000000000000000 .L0 
C:\Users\liukai\AppData\Local\Temp\cc4ezZAc.s:589    .text.disable_interrupt_global:0000000000000000 .L0 
C:\Users\liukai\AppData\Local\Temp\cc4ezZAc.s:590    .text.disable_interrupt_global:0000000000000002 .L0 
C:\Users\liukai\AppData\Local\Temp\cc4ezZAc.s:592    .text.disable_interrupt_global:0000000000000004 .L0 
C:\Users\liukai\AppData\Local\Temp\cc4ezZAc.s:594    .text.disable_interrupt_global:0000000000000006 .L0 
        ../src/irq.c:186    .text.disable_interrupt_global:0000000000000006 .L0 
C:\Users\liukai\AppData\Local\Temp\cc4ezZAc.s:602    .text.disable_interrupt_global:000000000000000a .L0 
C:\Users\liukai\AppData\Local\Temp\cc4ezZAc.s:604    .text.disable_interrupt_global:000000000000000e .L0 
C:\Users\liukai\AppData\Local\Temp\cc4ezZAc.s:606    .text.disable_interrupt_global:0000000000000010 .L0 
C:\Users\liukai\AppData\Local\Temp\cc4ezZAc.s:608    .text.disable_interrupt_global:0000000000000012 .L0 
C:\Users\liukai\AppData\Local\Temp\cc4ezZAc.s:615    .text.set_timer:0000000000000000 set_timer
C:\Users\liukai\AppData\Local\Temp\cc4ezZAc.s:618    .text.set_timer:0000000000000000 .L0 
C:\Users\liukai\AppData\Local\Temp\cc4ezZAc.s:619    .text.set_timer:0000000000000000 .L0 
C:\Users\liukai\AppData\Local\Temp\cc4ezZAc.s:620    .text.set_timer:0000000000000002 .L0 
C:\Users\liukai\AppData\Local\Temp\cc4ezZAc.s:622    .text.set_timer:0000000000000004 .L0 
C:\Users\liukai\AppData\Local\Temp\cc4ezZAc.s:624    .text.set_timer:0000000000000006 .L0 
C:\Users\liukai\AppData\Local\Temp\cc4ezZAc.s:627    .text.set_timer:000000000000000a .L0 
        ../src/irq.c:193    .text.set_timer:000000000000000e .L0 
C:\Users\liukai\AppData\Local\Temp\cc4ezZAc.s:637    .text.set_timer:0000000000000014 .L0 
        ../src/irq.c:195    .text.set_timer:0000000000000014 .L0 
C:\Users\liukai\AppData\Local\Temp\cc4ezZAc.s:644    .text.set_timer:000000000000001a .L0 
C:\Users\liukai\AppData\Local\Temp\cc4ezZAc.s:646    .text.set_timer:000000000000001e .L0 
C:\Users\liukai\AppData\Local\Temp\cc4ezZAc.s:648    .text.set_timer:0000000000000022 .L0 
C:\Users\liukai\AppData\Local\Temp\cc4ezZAc.s:650    .text.set_timer:0000000000000024 .L0 
C:\Users\liukai\AppData\Local\Temp\cc4ezZAc.s:652    .text.set_timer:0000000000000026 .L0 
C:\Users\liukai\AppData\Local\Temp\cc4ezZAc.s:216    .text.irq:000000000000019e .L0 
C:\Users\liukai\AppData\Local\Temp\cc4ezZAc.s:243    .text.return_from_irq:000000000000000e .L0 
C:\Users\liukai\AppData\Local\Temp\cc4ezZAc.s:285    .text.mask_irq:0000000000000024 .L0 
C:\Users\liukai\AppData\Local\Temp\cc4ezZAc.s:335    .text.irq_enable_one_bit:000000000000004e .L0 
C:\Users\liukai\AppData\Local\Temp\cc4ezZAc.s:383    .text.irq_disable_one_bit:000000000000004a .L0 
C:\Users\liukai\AppData\Local\Temp\cc4ezZAc.s:425    .text.enable_external_interrupt:0000000000000022 .L0 
C:\Users\liukai\AppData\Local\Temp\cc4ezZAc.s:467    .text.disable_external_interrupt:0000000000000022 .L0 
C:\Users\liukai\AppData\Local\Temp\cc4ezZAc.s:509    .text.enable_timer_interrupt:000000000000001e .L0 
C:\Users\liukai\AppData\Local\Temp\cc4ezZAc.s:551    .text.disable_timer_interrupt:000000000000001e .L0 
C:\Users\liukai\AppData\Local\Temp\cc4ezZAc.s:581    .text.enable_interrupt_global:0000000000000012 .L0 
C:\Users\liukai\AppData\Local\Temp\cc4ezZAc.s:611    .text.disable_interrupt_global:0000000000000012 .L0 
C:\Users\liukai\AppData\Local\Temp\cc4ezZAc.s:655    .text.set_timer:0000000000000026 .L0 
                     .debug_frame:0000000000000000 .L0 
C:\Users\liukai\AppData\Local\Temp\cc4ezZAc.s:71     .text.irq:000000000000003c .L0 
C:\Users\liukai\AppData\Local\Temp\cc4ezZAc.s:82     .text.irq:0000000000000054 .L0 
C:\Users\liukai\AppData\Local\Temp\cc4ezZAc.s:93     .text.irq:000000000000006e .L0 
C:\Users\liukai\AppData\Local\Temp\cc4ezZAc.s:104    .text.irq:0000000000000088 .L0 
C:\Users\liukai\AppData\Local\Temp\cc4ezZAc.s:22     .rodata:0000000000000000 .LC0
C:\Users\liukai\AppData\Local\Temp\cc4ezZAc.s:167    .text.irq:00000000000000f8 .L0 
C:\Users\liukai\AppData\Local\Temp\cc4ezZAc.s:25     .rodata:0000000000000014 .LC1
C:\Users\liukai\AppData\Local\Temp\cc4ezZAc.s:171    .text.irq:000000000000010c .L0 
C:\Users\liukai\AppData\Local\Temp\cc4ezZAc.s:28     .rodata:000000000000001c .LC2
C:\Users\liukai\AppData\Local\Temp\cc4ezZAc.s:174    .text.irq:000000000000011c .L0 
C:\Users\liukai\AppData\Local\Temp\cc4ezZAc.s:178    .text.irq:0000000000000130 .L0 
C:\Users\liukai\AppData\Local\Temp\cc4ezZAc.s:31     .rodata:0000000000000024 .LC3
C:\Users\liukai\AppData\Local\Temp\cc4ezZAc.s:187    .text.irq:0000000000000148 .L0 
C:\Users\liukai\AppData\Local\Temp\cc4ezZAc.s:191    .text.irq:000000000000015c .L0 
C:\Users\liukai\AppData\Local\Temp\cc4ezZAc.s:194    .text.irq:000000000000016c .L0 
C:\Users\liukai\AppData\Local\Temp\cc4ezZAc.s:198    .text.irq:0000000000000180 .L0 
C:\Users\liukai\AppData\Local\Temp\cc4ezZAc.s:74     .text.irq:000000000000004a .L2
C:\Users\liukai\AppData\Local\Temp\cc4ezZAc.s:85     .text.irq:0000000000000062 .L3
C:\Users\liukai\AppData\Local\Temp\cc4ezZAc.s:96     .text.irq:000000000000007c .L4
C:\Users\liukai\AppData\Local\Temp\cc4ezZAc.s:107    .text.irq:0000000000000096 .L5
C:\Users\liukai\AppData\Local\Temp\cc4ezZAc.s:200    .text.irq:0000000000000190 .L6
C:\Users\liukai\AppData\Local\Temp\cc4ezZAc.s:127    .text.irq:00000000000000b2 .L7
C:\Users\liukai\AppData\Local\Temp\cc4ezZAc.s:133    .text.irq:00000000000000ba .L8
C:\Users\liukai\AppData\Local\Temp\cc4ezZAc.s:160    .text.irq:00000000000000f0 .L9
C:\Users\liukai\AppData\Local\Temp\cc4ezZAc.s:180    .text.irq:0000000000000140 .L10
C:\Users\liukai\AppData\Local\Temp\cc4ezZAc.s:2170   .debug_abbrev:0000000000000000 .Ldebug_abbrev0
C:\Users\liukai\AppData\Local\Temp\cc4ezZAc.s:6754   .debug_str:0000000000001a3b .LASF1108
C:\Users\liukai\AppData\Local\Temp\cc4ezZAc.s:8122   .debug_str:000000000000641c .LASF1109
C:\Users\liukai\AppData\Local\Temp\cc4ezZAc.s:7470   .debug_str:0000000000004141 .LASF1110
C:\Users\liukai\AppData\Local\Temp\cc4ezZAc.s:2841   .debug_ranges:0000000000000000 .Ldebug_ranges0
C:\Users\liukai\AppData\Local\Temp\cc4ezZAc.s:6267   .debug_line:0000000000000000 .Ldebug_line0
C:\Users\liukai\AppData\Local\Temp\cc4ezZAc.s:2869   .debug_macro:0000000000000000 .Ldebug_macro0
C:\Users\liukai\AppData\Local\Temp\cc4ezZAc.s:6756   .debug_str:0000000000001b0b .LASF958
C:\Users\liukai\AppData\Local\Temp\cc4ezZAc.s:7926   .debug_str:0000000000005947 .LASF961
C:\Users\liukai\AppData\Local\Temp\cc4ezZAc.s:6287   .debug_str:00000000000000b3 .LASF959
C:\Users\liukai\AppData\Local\Temp\cc4ezZAc.s:8086   .debug_str:00000000000061b7 .LASF960
C:\Users\liukai\AppData\Local\Temp\cc4ezZAc.s:6942   .debug_str:0000000000002631 .LASF962
C:\Users\liukai\AppData\Local\Temp\cc4ezZAc.s:8362   .debug_str:00000000000070a2 .LASF963
C:\Users\liukai\AppData\Local\Temp\cc4ezZAc.s:6626   .debug_str:00000000000013f3 .LASF964
C:\Users\liukai\AppData\Local\Temp\cc4ezZAc.s:7214   .debug_str:00000000000034cc .LASF965
C:\Users\liukai\AppData\Local\Temp\cc4ezZAc.s:7198   .debug_str:00000000000033ec .LASF966
C:\Users\liukai\AppData\Local\Temp\cc4ezZAc.s:8294   .debug_str:0000000000006d42 .LASF967
C:\Users\liukai\AppData\Local\Temp\cc4ezZAc.s:7810   .debug_str:0000000000005295 .LASF968
C:\Users\liukai\AppData\Local\Temp\cc4ezZAc.s:7514   .debug_str:00000000000043e5 .LASF969
C:\Users\liukai\AppData\Local\Temp\cc4ezZAc.s:7708   .debug_str:0000000000004cd8 .LASF970
C:\Users\liukai\AppData\Local\Temp\cc4ezZAc.s:8244   .debug_str:0000000000006ae0 .LASF971
C:\Users\liukai\AppData\Local\Temp\cc4ezZAc.s:7110   .debug_str:0000000000002f76 .LASF1078
C:\Users\liukai\AppData\Local\Temp\cc4ezZAc.s:8340   .debug_str:0000000000006f65 .LASF972
C:\Users\liukai\AppData\Local\Temp\cc4ezZAc.s:6652   .debug_str:0000000000001534 .LASF973
C:\Users\liukai\AppData\Local\Temp\cc4ezZAc.s:6297   .debug_str:000000000000014c .LASF974
C:\Users\liukai\AppData\Local\Temp\cc4ezZAc.s:7962   .debug_str:0000000000005a9d .LASF975
C:\Users\liukai\AppData\Local\Temp\cc4ezZAc.s:6598   .debug_str:000000000000121f .LASF976
C:\Users\liukai\AppData\Local\Temp\cc4ezZAc.s:7768   .debug_str:0000000000005056 .LASF977
C:\Users\liukai\AppData\Local\Temp\cc4ezZAc.s:7662   .debug_str:0000000000004ac6 .LASF978
C:\Users\liukai\AppData\Local\Temp\cc4ezZAc.s:6311   .debug_str:00000000000001d9 .LASF979
C:\Users\liukai\AppData\Local\Temp\cc4ezZAc.s:7466   .debug_str:0000000000004130 .LASF980
C:\Users\liukai\AppData\Local\Temp\cc4ezZAc.s:7930   .debug_str:000000000000595c .LASF981
C:\Users\liukai\AppData\Local\Temp\cc4ezZAc.s:8282   .debug_str:0000000000006cdc .LASF982
C:\Users\liukai\AppData\Local\Temp\cc4ezZAc.s:7312   .debug_str:00000000000039a2 .LASF987
C:\Users\liukai\AppData\Local\Temp\cc4ezZAc.s:7974   .debug_str:0000000000005b53 .LASF983
C:\Users\liukai\AppData\Local\Temp\cc4ezZAc.s:8152   .debug_str:00000000000065f7 .LASF984
C:\Users\liukai\AppData\Local\Temp\cc4ezZAc.s:7468   .debug_str:000000000000413b .LASF985
C:\Users\liukai\AppData\Local\Temp\cc4ezZAc.s:7100   .debug_str:0000000000002eed .LASF986
C:\Users\liukai\AppData\Local\Temp\cc4ezZAc.s:6403   .debug_str:00000000000006a6 .LASF988
C:\Users\liukai\AppData\Local\Temp\cc4ezZAc.s:6409   .debug_str:00000000000006c2 .LASF989
C:\Users\liukai\AppData\Local\Temp\cc4ezZAc.s:8466   .debug_str:00000000000076cb .LASF990
C:\Users\liukai\AppData\Local\Temp\cc4ezZAc.s:8366   .debug_str:00000000000070c3 .LASF991
C:\Users\liukai\AppData\Local\Temp\cc4ezZAc.s:7136   .debug_str:00000000000030e0 .LASF992
C:\Users\liukai\AppData\Local\Temp\cc4ezZAc.s:6704   .debug_str:0000000000001813 .LASF993
C:\Users\liukai\AppData\Local\Temp\cc4ezZAc.s:7706   .debug_str:0000000000004cce .LASF994
C:\Users\liukai\AppData\Local\Temp\cc4ezZAc.s:8376   .debug_str:0000000000007124 .LASF995
C:\Users\liukai\AppData\Local\Temp\cc4ezZAc.s:7712   .debug_str:0000000000004d13 .LASF996
C:\Users\liukai\AppData\Local\Temp\cc4ezZAc.s:8442   .debug_str:000000000000753e .LASF997
C:\Users\liukai\AppData\Local\Temp\cc4ezZAc.s:6588   .debug_str:00000000000011b4 .LASF998
C:\Users\liukai\AppData\Local\Temp\cc4ezZAc.s:8438   .debug_str:00000000000074d3 .LASF999
C:\Users\liukai\AppData\Local\Temp\cc4ezZAc.s:7838   .debug_str:0000000000005443 .LASF1000
C:\Users\liukai\AppData\Local\Temp\cc4ezZAc.s:6684   .debug_str:00000000000016e3 .LASF1001
C:\Users\liukai\AppData\Local\Temp\cc4ezZAc.s:8242   .debug_str:0000000000006ad8 .LASF1002
C:\Users\liukai\AppData\Local\Temp\cc4ezZAc.s:7636   .debug_str:00000000000049bc .LASF1003
C:\Users\liukai\AppData\Local\Temp\cc4ezZAc.s:8212   .debug_str:0000000000006956 .LASF1004
C:\Users\liukai\AppData\Local\Temp\cc4ezZAc.s:6910   .debug_str:00000000000024c2 .LASF1005
C:\Users\liukai\AppData\Local\Temp\cc4ezZAc.s:6327   .debug_str:00000000000002dd .LASF1006
C:\Users\liukai\AppData\Local\Temp\cc4ezZAc.s:7896   .debug_str:00000000000056ef .LASF1007
C:\Users\liukai\AppData\Local\Temp\cc4ezZAc.s:6441   .debug_str:00000000000008f5 .LASF1008
C:\Users\liukai\AppData\Local\Temp\cc4ezZAc.s:8370   .debug_str:00000000000070f6 .LASF1009
C:\Users\liukai\AppData\Local\Temp\cc4ezZAc.s:7618   .debug_str:000000000000490d .LASF1010
C:\Users\liukai\AppData\Local\Temp\cc4ezZAc.s:6580   .debug_str:0000000000001158 .LASF1011
C:\Users\liukai\AppData\Local\Temp\cc4ezZAc.s:8208   .debug_str:0000000000006939 .LASF1012
C:\Users\liukai\AppData\Local\Temp\cc4ezZAc.s:7088   .debug_str:0000000000002e45 .LASF1013
C:\Users\liukai\AppData\Local\Temp\cc4ezZAc.s:6329   .debug_str:00000000000002e4 .LASF1014
C:\Users\liukai\AppData\Local\Temp\cc4ezZAc.s:6461   .debug_str:0000000000000a1f .LASF1015
C:\Users\liukai\AppData\Local\Temp\cc4ezZAc.s:7748   .debug_str:0000000000004f82 .LASF1016
C:\Users\liukai\AppData\Local\Temp\cc4ezZAc.s:6922   .debug_str:0000000000002556 .LASF1017
C:\Users\liukai\AppData\Local\Temp\cc4ezZAc.s:7588   .debug_str:0000000000004776 .LASF1018
C:\Users\liukai\AppData\Local\Temp\cc4ezZAc.s:6407   .debug_str:00000000000006bc .LASF1019
C:\Users\liukai\AppData\Local\Temp\cc4ezZAc.s:7880   .debug_str:000000000000562a .LASF1020
C:\Users\liukai\AppData\Local\Temp\cc4ezZAc.s:7130   .debug_str:00000000000030c2 .LASF1021
C:\Users\liukai\AppData\Local\Temp\cc4ezZAc.s:7978   .debug_str:0000000000005b72 .LASF1022
C:\Users\liukai\AppData\Local\Temp\cc4ezZAc.s:6453   .debug_str:00000000000009bd .LASF1023
C:\Users\liukai\AppData\Local\Temp\cc4ezZAc.s:7604   .debug_str:000000000000483a .LASF1024
C:\Users\liukai\AppData\Local\Temp\cc4ezZAc.s:7508   .debug_str:00000000000043b4 .LASF1025
C:\Users\liukai\AppData\Local\Temp\cc4ezZAc.s:6858   .debug_str:0000000000002216 .LASF1026
C:\Users\liukai\AppData\Local\Temp\cc4ezZAc.s:7262   .debug_str:000000000000376a .LASF1027
C:\Users\liukai\AppData\Local\Temp\cc4ezZAc.s:6960   .debug_str:0000000000002764 .LASF1028
C:\Users\liukai\AppData\Local\Temp\cc4ezZAc.s:6788   .debug_str:0000000000001d5c .LASF1029
C:\Users\liukai\AppData\Local\Temp\cc4ezZAc.s:7594   .debug_str:00000000000047c6 .LASF1030
C:\Users\liukai\AppData\Local\Temp\cc4ezZAc.s:7720   .debug_str:0000000000004dad .LASF1031
C:\Users\liukai\AppData\Local\Temp\cc4ezZAc.s:7360   .debug_str:0000000000003c20 .LASF1032
C:\Users\liukai\AppData\Local\Temp\cc4ezZAc.s:6842   .debug_str:00000000000020d5 .LASF1033
C:\Users\liukai\AppData\Local\Temp\cc4ezZAc.s:8280   .debug_str:0000000000006cd4 .LASF1034
C:\Users\liukai\AppData\Local\Temp\cc4ezZAc.s:7220   .debug_str:0000000000003511 .LASF1035
C:\Users\liukai\AppData\Local\Temp\cc4ezZAc.s:7332   .debug_str:0000000000003ab2 .LASF1036
C:\Users\liukai\AppData\Local\Temp\cc4ezZAc.s:8310   .debug_str:0000000000006dc8 .LASF1037
C:\Users\liukai\AppData\Local\Temp\cc4ezZAc.s:6638   .debug_str:000000000000148c .LASF1038
C:\Users\liukai\AppData\Local\Temp\cc4ezZAc.s:7196   .debug_str:00000000000033e7 .LASF1039
C:\Users\liukai\AppData\Local\Temp\cc4ezZAc.s:7454   .debug_str:00000000000040ae .LASF1040
C:\Users\liukai\AppData\Local\Temp\cc4ezZAc.s:6369   .debug_str:00000000000004e4 .LASF1041
C:\Users\liukai\AppData\Local\Temp\cc4ezZAc.s:7134   .debug_str:00000000000030d8 .LASF1042
C:\Users\liukai\AppData\Local\Temp\cc4ezZAc.s:7584   .debug_str:0000000000004757 .LASF1043
C:\Users\liukai\AppData\Local\Temp\cc4ezZAc.s:7334   .debug_str:0000000000003abc .LASF1044
C:\Users\liukai\AppData\Local\Temp\cc4ezZAc.s:7116   .debug_str:0000000000002fa8 .LASF1045
C:\Users\liukai\AppData\Local\Temp\cc4ezZAc.s:8428   .debug_str:0000000000007467 .LASF1046
C:\Users\liukai\AppData\Local\Temp\cc4ezZAc.s:7474   .debug_str:0000000000004177 .LASF1047
C:\Users\liukai\AppData\Local\Temp\cc4ezZAc.s:6900   .debug_str:000000000000243b .LASF829
C:\Users\liukai\AppData\Local\Temp\cc4ezZAc.s:7934   .debug_str:0000000000005998 .LASF1048
C:\Users\liukai\AppData\Local\Temp\cc4ezZAc.s:7464   .debug_str:000000000000412a .LASF1049
C:\Users\liukai\AppData\Local\Temp\cc4ezZAc.s:6976   .debug_str:0000000000002852 .LASF1050
C:\Users\liukai\AppData\Local\Temp\cc4ezZAc.s:7144   .debug_str:0000000000003137 .LASF1051
C:\Users\liukai\AppData\Local\Temp\cc4ezZAc.s:7848   .debug_str:000000000000549b .LASF1052
C:\Users\liukai\AppData\Local\Temp\cc4ezZAc.s:7738   .debug_str:0000000000004ef3 .LASF1053
C:\Users\liukai\AppData\Local\Temp\cc4ezZAc.s:6501   .debug_str:0000000000000bd0 .LASF1054
C:\Users\liukai\AppData\Local\Temp\cc4ezZAc.s:8356   .debug_str:0000000000007035 .LASF1055
C:\Users\liukai\AppData\Local\Temp\cc4ezZAc.s:6750   .debug_str:0000000000001a1b .LASF1056
C:\Users\liukai\AppData\Local\Temp\cc4ezZAc.s:7906   .debug_str:00000000000057b3 .LASF1057
C:\Users\liukai\AppData\Local\Temp\cc4ezZAc.s:6365   .debug_str:00000000000004c0 .LASF1058
C:\Users\liukai\AppData\Local\Temp\cc4ezZAc.s:6666   .debug_str:0000000000001608 .LASF1059
C:\Users\liukai\AppData\Local\Temp\cc4ezZAc.s:7426   .debug_str:0000000000003f14 .LASF1060
C:\Users\liukai\AppData\Local\Temp\cc4ezZAc.s:7614   .debug_str:00000000000048eb .LASF1061
C:\Users\liukai\AppData\Local\Temp\cc4ezZAc.s:7952   .debug_str:0000000000005a4f .LASF1062
C:\Users\liukai\AppData\Local\Temp\cc4ezZAc.s:8084   .debug_str:00000000000061aa .LASF1063
C:\Users\liukai\AppData\Local\Temp\cc4ezZAc.s:7784   .debug_str:000000000000514f .LASF1064
C:\Users\liukai\AppData\Local\Temp\cc4ezZAc.s:7600   .debug_str:0000000000004812 .LASF1065
C:\Users\liukai\AppData\Local\Temp\cc4ezZAc.s:6419   .debug_str:000000000000073b .LASF1066
C:\Users\liukai\AppData\Local\Temp\cc4ezZAc.s:7280   .debug_str:0000000000003860 .LASF1067
C:\Users\liukai\AppData\Local\Temp\cc4ezZAc.s:8474   .debug_str:0000000000007714 .LASF1068
C:\Users\liukai\AppData\Local\Temp\cc4ezZAc.s:6624   .debug_str:00000000000013e5 .LASF1069
C:\Users\liukai\AppData\Local\Temp\cc4ezZAc.s:7916   .debug_str:0000000000005872 .LASF1070
C:\Users\liukai\AppData\Local\Temp\cc4ezZAc.s:8394   .debug_str:000000000000727f .LASF1071
C:\Users\liukai\AppData\Local\Temp\cc4ezZAc.s:7570   .debug_str:0000000000004696 .LASF1072
C:\Users\liukai\AppData\Local\Temp\cc4ezZAc.s:6405   .debug_str:00000000000006ab .LASF1073
C:\Users\liukai\AppData\Local\Temp\cc4ezZAc.s:7540   .debug_str:0000000000004525 .LASF1074
C:\Users\liukai\AppData\Local\Temp\cc4ezZAc.s:8250   .debug_str:0000000000006b1f .LASF1075
C:\Users\liukai\AppData\Local\Temp\cc4ezZAc.s:7412   .debug_str:0000000000003e95 .LASF1076
C:\Users\liukai\AppData\Local\Temp\cc4ezZAc.s:6880   .debug_str:000000000000231e .LASF1077
C:\Users\liukai\AppData\Local\Temp\cc4ezZAc.s:6307   .debug_str:00000000000001b5 .LASF1079
C:\Users\liukai\AppData\Local\Temp\cc4ezZAc.s:6632   .debug_str:000000000000143e .LASF1080
C:\Users\liukai\AppData\Local\Temp\cc4ezZAc.s:6864   .debug_str:000000000000228a .LASF1081
C:\Users\liukai\AppData\Local\Temp\cc4ezZAc.s:7822   .debug_str:0000000000005397 .LASF1082
C:\Users\liukai\AppData\Local\Temp\cc4ezZAc.s:7830   .debug_str:00000000000053d9 .LASF1083
C:\Users\liukai\AppData\Local\Temp\cc4ezZAc.s:8300   .debug_str:0000000000006d76 .LASF1084
C:\Users\liukai\AppData\Local\Temp\cc4ezZAc.s:7024   .debug_str:0000000000002aff .LASF1085
C:\Users\liukai\AppData\Local\Temp\cc4ezZAc.s:7494   .debug_str:000000000000430c .LASF1086
C:\Users\liukai\AppData\Local\Temp\cc4ezZAc.s:7230   .debug_str:0000000000003598 .LASF1087
C:\Users\liukai\AppData\Local\Temp\cc4ezZAc.s:6383   .debug_str:00000000000005c8 .LASF1088
C:\Users\liukai\AppData\Local\Temp\cc4ezZAc.s:8298   .debug_str:0000000000006d6c .LASF1101
C:\Users\liukai\AppData\Local\Temp\cc4ezZAc.s:616    .text.set_timer:0000000000000000 .LFB14
C:\Users\liukai\AppData\Local\Temp\cc4ezZAc.s:653    .text.set_timer:0000000000000026 .LFE14
C:\Users\liukai\AppData\Local\Temp\cc4ezZAc.s:7608   .debug_str:0000000000004860 .LASF1095
C:\Users\liukai\AppData\Local\Temp\cc4ezZAc.s:8006   .debug_str:0000000000005d25 .LASF1097
C:\Users\liukai\AppData\Local\Temp\cc4ezZAc.s:6520   .debug_str:0000000000000e65 .LASF1089
C:\Users\liukai\AppData\Local\Temp\cc4ezZAc.s:586    .text.disable_interrupt_global:0000000000000000 .LFB13
C:\Users\liukai\AppData\Local\Temp\cc4ezZAc.s:609    .text.disable_interrupt_global:0000000000000012 .LFE13
C:\Users\liukai\AppData\Local\Temp\cc4ezZAc.s:6429   .debug_str:000000000000084c .LASF1090
C:\Users\liukai\AppData\Local\Temp\cc4ezZAc.s:556    .text.enable_interrupt_global:0000000000000000 .LFB12
C:\Users\liukai\AppData\Local\Temp\cc4ezZAc.s:579    .text.enable_interrupt_global:0000000000000012 .LFE12
C:\Users\liukai\AppData\Local\Temp\cc4ezZAc.s:7894   .debug_str:00000000000056d7 .LASF1091
C:\Users\liukai\AppData\Local\Temp\cc4ezZAc.s:514    .text.disable_timer_interrupt:0000000000000000 .LFB11
C:\Users\liukai\AppData\Local\Temp\cc4ezZAc.s:549    .text.disable_timer_interrupt:000000000000001e .LFE11
C:\Users\liukai\AppData\Local\Temp\cc4ezZAc.s:7274   .debug_str:000000000000381e .LASF1092
C:\Users\liukai\AppData\Local\Temp\cc4ezZAc.s:472    .text.enable_timer_interrupt:0000000000000000 .LFB10
C:\Users\liukai\AppData\Local\Temp\cc4ezZAc.s:507    .text.enable_timer_interrupt:000000000000001e .LFE10
C:\Users\liukai\AppData\Local\Temp\cc4ezZAc.s:6473   .debug_str:0000000000000a94 .LASF1093
C:\Users\liukai\AppData\Local\Temp\cc4ezZAc.s:430    .text.disable_external_interrupt:0000000000000000 .LFB9
C:\Users\liukai\AppData\Local\Temp\cc4ezZAc.s:465    .text.disable_external_interrupt:0000000000000022 .LFE9
C:\Users\liukai\AppData\Local\Temp\cc4ezZAc.s:8488   .debug_str:00000000000077a4 .LASF1094
C:\Users\liukai\AppData\Local\Temp\cc4ezZAc.s:388    .text.enable_external_interrupt:0000000000000000 .LFB8
C:\Users\liukai\AppData\Local\Temp\cc4ezZAc.s:423    .text.enable_external_interrupt:0000000000000022 .LFE8
C:\Users\liukai\AppData\Local\Temp\cc4ezZAc.s:7248   .debug_str:00000000000036ae .LASF1099
C:\Users\liukai\AppData\Local\Temp\cc4ezZAc.s:340    .text.irq_disable_one_bit:0000000000000000 .LFB7
C:\Users\liukai\AppData\Local\Temp\cc4ezZAc.s:381    .text.irq_disable_one_bit:000000000000004a .LFE7
C:\Users\liukai\AppData\Local\Temp\cc4ezZAc.s:8472   .debug_str:000000000000770c .LASF1096
C:\Users\liukai\AppData\Local\Temp\cc4ezZAc.s:7450   .debug_str:0000000000004067 .LASF1098
C:\Users\liukai\AppData\Local\Temp\cc4ezZAc.s:7114   .debug_str:0000000000002f95 .LASF1100
C:\Users\liukai\AppData\Local\Temp\cc4ezZAc.s:290    .text.irq_enable_one_bit:0000000000000000 .LFB6
C:\Users\liukai\AppData\Local\Temp\cc4ezZAc.s:333    .text.irq_enable_one_bit:000000000000004e .LFE6
C:\Users\liukai\AppData\Local\Temp\cc4ezZAc.s:6445   .debug_str:0000000000000940 .LASF1102
C:\Users\liukai\AppData\Local\Temp\cc4ezZAc.s:248    .text.mask_irq:0000000000000000 .LFB5
C:\Users\liukai\AppData\Local\Temp\cc4ezZAc.s:283    .text.mask_irq:0000000000000024 .LFE5
C:\Users\liukai\AppData\Local\Temp\cc4ezZAc.s:7308   .debug_str:0000000000003983 .LASF1103
C:\Users\liukai\AppData\Local\Temp\cc4ezZAc.s:7476   .debug_str:000000000000417c .LASF1104
C:\Users\liukai\AppData\Local\Temp\cc4ezZAc.s:221    .text.return_from_irq:0000000000000000 .LFB4
C:\Users\liukai\AppData\Local\Temp\cc4ezZAc.s:241    .text.return_from_irq:000000000000000e .LFE4
C:\Users\liukai\AppData\Local\Temp\cc4ezZAc.s:38     .text.irq:0000000000000000 .LFB3
C:\Users\liukai\AppData\Local\Temp\cc4ezZAc.s:214    .text.irq:000000000000019e .LFE3
C:\Users\liukai\AppData\Local\Temp\cc4ezZAc.s:7960   .debug_str:0000000000005a98 .LASF1105
C:\Users\liukai\AppData\Local\Temp\cc4ezZAc.s:7388   .debug_str:0000000000003d65 .LASF1106
C:\Users\liukai\AppData\Local\Temp\cc4ezZAc.s:113    .text.irq:000000000000009e .LBB2
C:\Users\liukai\AppData\Local\Temp\cc4ezZAc.s:201    .text.irq:0000000000000190 .LBE2
C:\Users\liukai\AppData\Local\Temp\cc4ezZAc.s:8304   .debug_str:0000000000006d8f .LASF1107
C:\Users\liukai\AppData\Local\Temp\cc4ezZAc.s:664    .debug_info:0000000000000000 .Ldebug_info0
C:\Users\liukai\AppData\Local\Temp\cc4ezZAc.s:3236   .debug_macro:0000000000000000 .Ldebug_macro2
C:\Users\liukai\AppData\Local\Temp\cc4ezZAc.s:7928   .debug_str:0000000000005951 .LASF311
C:\Users\liukai\AppData\Local\Temp\cc4ezZAc.s:7486   .debug_str:0000000000004215 .LASF312
C:\Users\liukai\AppData\Local\Temp\cc4ezZAc.s:6568   .debug_str:00000000000010b0 .LASF313
C:\Users\liukai\AppData\Local\Temp\cc4ezZAc.s:4174   .debug_macro:0000000000000000 .Ldebug_macro3
C:\Users\liukai\AppData\Local\Temp\cc4ezZAc.s:4194   .debug_macro:0000000000000000 .Ldebug_macro4
C:\Users\liukai\AppData\Local\Temp\cc4ezZAc.s:7418   .debug_str:0000000000003ec0 .LASF332
C:\Users\liukai\AppData\Local\Temp\cc4ezZAc.s:4238   .debug_macro:0000000000000000 .Ldebug_macro5
C:\Users\liukai\AppData\Local\Temp\cc4ezZAc.s:4252   .debug_macro:0000000000000000 .Ldebug_macro6
C:\Users\liukai\AppData\Local\Temp\cc4ezZAc.s:4320   .debug_macro:0000000000000000 .Ldebug_macro7
C:\Users\liukai\AppData\Local\Temp\cc4ezZAc.s:4346   .debug_macro:0000000000000000 .Ldebug_macro8
C:\Users\liukai\AppData\Local\Temp\cc4ezZAc.s:4375   .debug_macro:0000000000000000 .Ldebug_macro9
C:\Users\liukai\AppData\Local\Temp\cc4ezZAc.s:8238   .debug_str:0000000000006ab1 .LASF375
C:\Users\liukai\AppData\Local\Temp\cc4ezZAc.s:4389   .debug_macro:0000000000000000 .Ldebug_macro10
C:\Users\liukai\AppData\Local\Temp\cc4ezZAc.s:4433   .debug_macro:0000000000000000 .Ldebug_macro11
C:\Users\liukai\AppData\Local\Temp\cc4ezZAc.s:4501   .debug_macro:0000000000000000 .Ldebug_macro12
C:\Users\liukai\AppData\Local\Temp\cc4ezZAc.s:4866   .debug_macro:0000000000000000 .Ldebug_macro13
C:\Users\liukai\AppData\Local\Temp\cc4ezZAc.s:6463   .debug_str:0000000000000a26 .LASF562
C:\Users\liukai\AppData\Local\Temp\cc4ezZAc.s:4979   .debug_macro:0000000000000000 .Ldebug_macro14
C:\Users\liukai\AppData\Local\Temp\cc4ezZAc.s:7044   .debug_str:0000000000002c04 .LASF565
C:\Users\liukai\AppData\Local\Temp\cc4ezZAc.s:7548   .debug_str:000000000000457c .LASF566
C:\Users\liukai\AppData\Local\Temp\cc4ezZAc.s:7042   .debug_str:0000000000002bf5 .LASF567
C:\Users\liukai\AppData\Local\Temp\cc4ezZAc.s:8232   .debug_str:0000000000006a5e .LASF568
C:\Users\liukai\AppData\Local\Temp\cc4ezZAc.s:4990   .debug_macro:0000000000000000 .Ldebug_macro15
C:\Users\liukai\AppData\Local\Temp\cc4ezZAc.s:5037   .debug_macro:0000000000000000 .Ldebug_macro16
C:\Users\liukai\AppData\Local\Temp\cc4ezZAc.s:5054   .debug_macro:0000000000000000 .Ldebug_macro17
C:\Users\liukai\AppData\Local\Temp\cc4ezZAc.s:5086   .debug_macro:0000000000000000 .Ldebug_macro18
C:\Users\liukai\AppData\Local\Temp\cc4ezZAc.s:5103   .debug_macro:0000000000000000 .Ldebug_macro19
C:\Users\liukai\AppData\Local\Temp\cc4ezZAc.s:5279   .debug_macro:0000000000000000 .Ldebug_macro20
C:\Users\liukai\AppData\Local\Temp\cc4ezZAc.s:5290   .debug_macro:0000000000000000 .Ldebug_macro21
C:\Users\liukai\AppData\Local\Temp\cc4ezZAc.s:7868   .debug_str:0000000000005594 .LASF669
C:\Users\liukai\AppData\Local\Temp\cc4ezZAc.s:5346   .debug_macro:0000000000000000 .Ldebug_macro22
C:\Users\liukai\AppData\Local\Temp\cc4ezZAc.s:5363   .debug_macro:0000000000000000 .Ldebug_macro23
C:\Users\liukai\AppData\Local\Temp\cc4ezZAc.s:7408   .debug_str:0000000000003e51 .LASF687
C:\Users\liukai\AppData\Local\Temp\cc4ezZAc.s:8054   .debug_str:0000000000005f98 .LASF688
C:\Users\liukai\AppData\Local\Temp\cc4ezZAc.s:5407   .debug_macro:0000000000000000 .Ldebug_macro24
C:\Users\liukai\AppData\Local\Temp\cc4ezZAc.s:6516   .debug_str:0000000000000e39 .LASF699
C:\Users\liukai\AppData\Local\Temp\cc4ezZAc.s:7582   .debug_str:0000000000004744 .LASF700
C:\Users\liukai\AppData\Local\Temp\cc4ezZAc.s:5442   .debug_macro:0000000000000000 .Ldebug_macro25
C:\Users\liukai\AppData\Local\Temp\cc4ezZAc.s:5453   .debug_macro:0000000000000000 .Ldebug_macro26
C:\Users\liukai\AppData\Local\Temp\cc4ezZAc.s:5488   .debug_macro:0000000000000000 .Ldebug_macro27
C:\Users\liukai\AppData\Local\Temp\cc4ezZAc.s:8432   .debug_str:0000000000007493 .LASF745
C:\Users\liukai\AppData\Local\Temp\cc4ezZAc.s:5589   .debug_macro:0000000000000000 .Ldebug_macro28
C:\Users\liukai\AppData\Local\Temp\cc4ezZAc.s:5606   .debug_macro:0000000000000000 .Ldebug_macro29
C:\Users\liukai\AppData\Local\Temp\cc4ezZAc.s:8406   .debug_str:0000000000007362 .LASF759
C:\Users\liukai\AppData\Local\Temp\cc4ezZAc.s:6872   .debug_str:00000000000022d9 .LASF760
C:\Users\liukai\AppData\Local\Temp\cc4ezZAc.s:5638   .debug_macro:0000000000000000 .Ldebug_macro30
C:\Users\liukai\AppData\Local\Temp\cc4ezZAc.s:5652   .debug_macro:0000000000000000 .Ldebug_macro31
C:\Users\liukai\AppData\Local\Temp\cc4ezZAc.s:7786   .debug_str:000000000000515d .LASF819
C:\Users\liukai\AppData\Local\Temp\cc4ezZAc.s:5822   .debug_macro:0000000000000000 .Ldebug_macro32
C:\Users\liukai\AppData\Local\Temp\cc4ezZAc.s:6794   .debug_str:0000000000001dcc .LASF825
C:\Users\liukai\AppData\Local\Temp\cc4ezZAc.s:5842   .debug_macro:0000000000000000 .Ldebug_macro33
C:\Users\liukai\AppData\Local\Temp\cc4ezZAc.s:5958   .debug_macro:0000000000000000 .Ldebug_macro34
C:\Users\liukai\AppData\Local\Temp\cc4ezZAc.s:6874   .debug_str:00000000000022e9 .LASF923
C:\Users\liukai\AppData\Local\Temp\cc4ezZAc.s:7506   .debug_str:00000000000043a8 .LASF924
C:\Users\liukai\AppData\Local\Temp\cc4ezZAc.s:6170   .debug_macro:0000000000000000 .Ldebug_macro35
C:\Users\liukai\AppData\Local\Temp\cc4ezZAc.s:6190   .debug_macro:0000000000000000 .Ldebug_macro36
C:\Users\liukai\AppData\Local\Temp\cc4ezZAc.s:8328   .debug_str:0000000000006ee2 .LASF954
C:\Users\liukai\AppData\Local\Temp\cc4ezZAc.s:8026   .debug_str:0000000000005e23 .LASF955
C:\Users\liukai\AppData\Local\Temp\cc4ezZAc.s:6886   .debug_str:0000000000002362 .LASF956
C:\Users\liukai\AppData\Local\Temp\cc4ezZAc.s:8254   .debug_str:0000000000006b32 .LASF957
C:\Users\liukai\AppData\Local\Temp\cc4ezZAc.s:8218   .debug_str:000000000000698f .LASF0
C:\Users\liukai\AppData\Local\Temp\cc4ezZAc.s:7152   .debug_str:00000000000031a0 .LASF1
C:\Users\liukai\AppData\Local\Temp\cc4ezZAc.s:6401   .debug_str:0000000000000694 .LASF2
C:\Users\liukai\AppData\Local\Temp\cc4ezZAc.s:6814   .debug_str:0000000000001ef0 .LASF3
C:\Users\liukai\AppData\Local\Temp\cc4ezZAc.s:6437   .debug_str:00000000000008b1 .LASF4
C:\Users\liukai\AppData\Local\Temp\cc4ezZAc.s:7208   .debug_str:0000000000003490 .LASF5
C:\Users\liukai\AppData\Local\Temp\cc4ezZAc.s:7984   .debug_str:0000000000005bba .LASF6
C:\Users\liukai\AppData\Local\Temp\cc4ezZAc.s:6778   .debug_str:0000000000001ca5 .LASF7
C:\Users\liukai\AppData\Local\Temp\cc4ezZAc.s:7502   .debug_str:0000000000004386 .LASF8
C:\Users\liukai\AppData\Local\Temp\cc4ezZAc.s:8118   .debug_str:00000000000063e1 .LASF9
C:\Users\liukai\AppData\Local\Temp\cc4ezZAc.s:6836   .debug_str:0000000000002058 .LASF10
C:\Users\liukai\AppData\Local\Temp\cc4ezZAc.s:7160   .debug_str:0000000000003222 .LASF11
C:\Users\liukai\AppData\Local\Temp\cc4ezZAc.s:7286   .debug_str:000000000000388f .LASF12
C:\Users\liukai\AppData\Local\Temp\cc4ezZAc.s:8450   .debug_str:00000000000075e5 .LASF13
C:\Users\liukai\AppData\Local\Temp\cc4ezZAc.s:6349   .debug_str:00000000000003d0 .LASF14
C:\Users\liukai\AppData\Local\Temp\cc4ezZAc.s:7870   .debug_str:00000000000055aa .LASF15
C:\Users\liukai\AppData\Local\Temp\cc4ezZAc.s:8290   .debug_str:0000000000006d23 .LASF16
C:\Users\liukai\AppData\Local\Temp\cc4ezZAc.s:6804   .debug_str:0000000000001e72 .LASF17
C:\Users\liukai\AppData\Local\Temp\cc4ezZAc.s:6363   .debug_str:00000000000004a9 .LASF18
C:\Users\liukai\AppData\Local\Temp\cc4ezZAc.s:6876   .debug_str:00000000000022f8 .LASF19
C:\Users\liukai\AppData\Local\Temp\cc4ezZAc.s:6816   .debug_str:0000000000001f02 .LASF20
C:\Users\liukai\AppData\Local\Temp\cc4ezZAc.s:6714   .debug_str:0000000000001871 .LASF21
C:\Users\liukai\AppData\Local\Temp\cc4ezZAc.s:8248   .debug_str:0000000000006b05 .LASF22
C:\Users\liukai\AppData\Local\Temp\cc4ezZAc.s:8056   .debug_str:0000000000005fa9 .LASF23
C:\Users\liukai\AppData\Local\Temp\cc4ezZAc.s:7438   .debug_str:0000000000003fd6 .LASF24
C:\Users\liukai\AppData\Local\Temp\cc4ezZAc.s:6928   .debug_str:0000000000002576 .LASF25
C:\Users\liukai\AppData\Local\Temp\cc4ezZAc.s:7800   .debug_str:0000000000005235 .LASF26
C:\Users\liukai\AppData\Local\Temp\cc4ezZAc.s:6518   .debug_str:0000000000000e4b .LASF27
C:\Users\liukai\AppData\Local\Temp\cc4ezZAc.s:6387   .debug_str:00000000000005e8 .LASF28
C:\Users\liukai\AppData\Local\Temp\cc4ezZAc.s:7480   .debug_str:00000000000041ab .LASF29
C:\Users\liukai\AppData\Local\Temp\cc4ezZAc.s:7590   .debug_str:000000000000477c .LASF30
C:\Users\liukai\AppData\Local\Temp\cc4ezZAc.s:6662   .debug_str:00000000000015d3 .LASF31
C:\Users\liukai\AppData\Local\Temp\cc4ezZAc.s:6389   .debug_str:0000000000000602 .LASF32
C:\Users\liukai\AppData\Local\Temp\cc4ezZAc.s:7820   .debug_str:0000000000005382 .LASF33
C:\Users\liukai\AppData\Local\Temp\cc4ezZAc.s:7482   .debug_str:00000000000041d2 .LASF34
C:\Users\liukai\AppData\Local\Temp\cc4ezZAc.s:7496   .debug_str:0000000000004317 .LASF35
C:\Users\liukai\AppData\Local\Temp\cc4ezZAc.s:7996   .debug_str:0000000000005c90 .LASF36
C:\Users\liukai\AppData\Local\Temp\cc4ezZAc.s:6682   .debug_str:00000000000016bb .LASF37
C:\Users\liukai\AppData\Local\Temp\cc4ezZAc.s:7856   .debug_str:00000000000054f0 .LASF38
C:\Users\liukai\AppData\Local\Temp\cc4ezZAc.s:6696   .debug_str:0000000000001796 .LASF39
C:\Users\liukai\AppData\Local\Temp\cc4ezZAc.s:7950   .debug_str:0000000000005a37 .LASF40
C:\Users\liukai\AppData\Local\Temp\cc4ezZAc.s:6395   .debug_str:0000000000000648 .LASF41
C:\Users\liukai\AppData\Local\Temp\cc4ezZAc.s:6413   .debug_str:00000000000006da .LASF42
C:\Users\liukai\AppData\Local\Temp\cc4ezZAc.s:8452   .debug_str:00000000000075f8 .LASF43
C:\Users\liukai\AppData\Local\Temp\cc4ezZAc.s:7434   .debug_str:0000000000003f66 .LASF44
C:\Users\liukai\AppData\Local\Temp\cc4ezZAc.s:7592   .debug_str:00000000000047a9 .LASF45
C:\Users\liukai\AppData\Local\Temp\cc4ezZAc.s:7210   .debug_str:000000000000349b .LASF46
C:\Users\liukai\AppData\Local\Temp\cc4ezZAc.s:8258   .debug_str:0000000000006b8c .LASF47
C:\Users\liukai\AppData\Local\Temp\cc4ezZAc.s:7166   .debug_str:0000000000003258 .LASF48
C:\Users\liukai\AppData\Local\Temp\cc4ezZAc.s:6664   .debug_str:00000000000015e8 .LASF49
C:\Users\liukai\AppData\Local\Temp\cc4ezZAc.s:8354   .debug_str:0000000000007016 .LASF50
C:\Users\liukai\AppData\Local\Temp\cc4ezZAc.s:7782   .debug_str:0000000000005131 .LASF51
C:\Users\liukai\AppData\Local\Temp\cc4ezZAc.s:6560   .debug_str:000000000000103c .LASF52
C:\Users\liukai\AppData\Local\Temp\cc4ezZAc.s:6618   .debug_str:0000000000001342 .LASF53
C:\Users\liukai\AppData\Local\Temp\cc4ezZAc.s:7850   .debug_str:00000000000054a3 .LASF54
C:\Users\liukai\AppData\Local\Temp\cc4ezZAc.s:7988   .debug_str:0000000000005be3 .LASF55
C:\Users\liukai\AppData\Local\Temp\cc4ezZAc.s:7266   .debug_str:00000000000037a9 .LASF56
C:\Users\liukai\AppData\Local\Temp\cc4ezZAc.s:6646   .debug_str:00000000000014e7 .LASF57
C:\Users\liukai\AppData\Local\Temp\cc4ezZAc.s:7842   .debug_str:0000000000005461 .LASF58
C:\Users\liukai\AppData\Local\Temp\cc4ezZAc.s:7296   .debug_str:0000000000003908 .LASF59
C:\Users\liukai\AppData\Local\Temp\cc4ezZAc.s:6447   .debug_str:0000000000000949 .LASF60
C:\Users\liukai\AppData\Local\Temp\cc4ezZAc.s:7236   .debug_str:00000000000035ed .LASF61
C:\Users\liukai\AppData\Local\Temp\cc4ezZAc.s:7200   .debug_str:00000000000033fe .LASF62
C:\Users\liukai\AppData\Local\Temp\cc4ezZAc.s:6810   .debug_str:0000000000001ebd .LASF63
C:\Users\liukai\AppData\Local\Temp\cc4ezZAc.s:6914   .debug_str:00000000000024d5 .LASF64
C:\Users\liukai\AppData\Local\Temp\cc4ezZAc.s:8038   .debug_str:0000000000005ebf .LASF65
C:\Users\liukai\AppData\Local\Temp\cc4ezZAc.s:8040   .debug_str:0000000000005ed3 .LASF66
C:\Users\liukai\AppData\Local\Temp\cc4ezZAc.s:7172   .debug_str:00000000000032a7 .LASF67
C:\Users\liukai\AppData\Local\Temp\cc4ezZAc.s:7004   .debug_str:0000000000002a20 .LASF68
C:\Users\liukai\AppData\Local\Temp\cc4ezZAc.s:6980   .debug_str:0000000000002873 .LASF69
C:\Users\liukai\AppData\Local\Temp\cc4ezZAc.s:7556   .debug_str:00000000000045f1 .LASF70
C:\Users\liukai\AppData\Local\Temp\cc4ezZAc.s:7814   .debug_str:00000000000052d4 .LASF71
C:\Users\liukai\AppData\Local\Temp\cc4ezZAc.s:8486   .debug_str:000000000000778d .LASF72
C:\Users\liukai\AppData\Local\Temp\cc4ezZAc.s:8400   .debug_str:00000000000072be .LASF73
C:\Users\liukai\AppData\Local\Temp\cc4ezZAc.s:7702   .debug_str:0000000000004c91 .LASF74
C:\Users\liukai\AppData\Local\Temp\cc4ezZAc.s:7976   .debug_str:0000000000005b59 .LASF75
C:\Users\liukai\AppData\Local\Temp\cc4ezZAc.s:7046   .debug_str:0000000000002c16 .LASF76
C:\Users\liukai\AppData\Local\Temp\cc4ezZAc.s:7826   .debug_str:00000000000053b0 .LASF77
C:\Users\liukai\AppData\Local\Temp\cc4ezZAc.s:8336   .debug_str:0000000000006f32 .LASF78
C:\Users\liukai\AppData\Local\Temp\cc4ezZAc.s:6321   .debug_str:0000000000000293 .LASF79
C:\Users\liukai\AppData\Local\Temp\cc4ezZAc.s:8392   .debug_str:0000000000007266 .LASF80
C:\Users\liukai\AppData\Local\Temp\cc4ezZAc.s:6566   .debug_str:000000000000109e .LASF81
C:\Users\liukai\AppData\Local\Temp\cc4ezZAc.s:7610   .debug_str:000000000000486a .LASF82
C:\Users\liukai\AppData\Local\Temp\cc4ezZAc.s:8180   .debug_str:0000000000006785 .LASF83
C:\Users\liukai\AppData\Local\Temp\cc4ezZAc.s:7342   .debug_str:0000000000003b0f .LASF84
C:\Users\liukai\AppData\Local\Temp\cc4ezZAc.s:7390   .debug_str:0000000000003d6a .LASF85
C:\Users\liukai\AppData\Local\Temp\cc4ezZAc.s:8424   .debug_str:0000000000007441 .LASF86
C:\Users\liukai\AppData\Local\Temp\cc4ezZAc.s:7432   .debug_str:0000000000003f54 .LASF87
C:\Users\liukai\AppData\Local\Temp\cc4ezZAc.s:6542   .debug_str:0000000000000f61 .LASF88
C:\Users\liukai\AppData\Local\Temp\cc4ezZAc.s:8330   .debug_str:0000000000006eed .LASF89
C:\Users\liukai\AppData\Local\Temp\cc4ezZAc.s:6331   .debug_str:00000000000002ea .LASF90
C:\Users\liukai\AppData\Local\Temp\cc4ezZAc.s:6325   .debug_str:00000000000002c7 .LASF91
C:\Users\liukai\AppData\Local\Temp\cc4ezZAc.s:8478   .debug_str:0000000000007731 .LASF92
C:\Users\liukai\AppData\Local\Temp\cc4ezZAc.s:6660   .debug_str:00000000000015bb .LASF93
C:\Users\liukai\AppData\Local\Temp\cc4ezZAc.s:6381   .debug_str:00000000000005b4 .LASF94
C:\Users\liukai\AppData\Local\Temp\cc4ezZAc.s:8130   .debug_str:0000000000006463 .LASF95
C:\Users\liukai\AppData\Local\Temp\cc4ezZAc.s:7070   .debug_str:0000000000002d2d .LASF96
C:\Users\liukai\AppData\Local\Temp\cc4ezZAc.s:8198   .debug_str:0000000000006895 .LASF97
C:\Users\liukai\AppData\Local\Temp\cc4ezZAc.s:7188   .debug_str:000000000000338e .LASF98
C:\Users\liukai\AppData\Local\Temp\cc4ezZAc.s:8170   .debug_str:00000000000066b8 .LASF99
C:\Users\liukai\AppData\Local\Temp\cc4ezZAc.s:7242   .debug_str:0000000000003663 .LASF100
C:\Users\liukai\AppData\Local\Temp\cc4ezZAc.s:7324   .debug_str:0000000000003a40 .LASF101
C:\Users\liukai\AppData\Local\Temp\cc4ezZAc.s:6950   .debug_str:00000000000026aa .LASF102
C:\Users\liukai\AppData\Local\Temp\cc4ezZAc.s:6860   .debug_str:000000000000221d .LASF103
C:\Users\liukai\AppData\Local\Temp\cc4ezZAc.s:7218   .debug_str:00000000000034f5 .LASF104
C:\Users\liukai\AppData\Local\Temp\cc4ezZAc.s:7140   .debug_str:0000000000003101 .LASF105
C:\Users\liukai\AppData\Local\Temp\cc4ezZAc.s:7156   .debug_str:00000000000031f3 .LASF106
C:\Users\liukai\AppData\Local\Temp\cc4ezZAc.s:7722   .debug_str:0000000000004db2 .LASF107
C:\Users\liukai\AppData\Local\Temp\cc4ezZAc.s:8350   .debug_str:0000000000006fe3 .LASF108
C:\Users\liukai\AppData\Local\Temp\cc4ezZAc.s:6982   .debug_str:000000000000288a .LASF109
C:\Users\liukai\AppData\Local\Temp\cc4ezZAc.s:8434   .debug_str:00000000000074aa .LASF110
C:\Users\liukai\AppData\Local\Temp\cc4ezZAc.s:7102   .debug_str:0000000000002ef2 .LASF111
C:\Users\liukai\AppData\Local\Temp\cc4ezZAc.s:8216   .debug_str:000000000000696f .LASF112
C:\Users\liukai\AppData\Local\Temp\cc4ezZAc.s:6940   .debug_str:000000000000261d .LASF113
C:\Users\liukai\AppData\Local\Temp\cc4ezZAc.s:6716   .debug_str:0000000000001885 .LASF114
C:\Users\liukai\AppData\Local\Temp\cc4ezZAc.s:7250   .debug_str:00000000000036c2 .LASF115
C:\Users\liukai\AppData\Local\Temp\cc4ezZAc.s:8062   .debug_str:0000000000005fee .LASF116
C:\Users\liukai\AppData\Local\Temp\cc4ezZAc.s:7182   .debug_str:0000000000003344 .LASF117
C:\Users\liukai\AppData\Local\Temp\cc4ezZAc.s:7914   .debug_str:0000000000005859 .LASF118
C:\Users\liukai\AppData\Local\Temp\cc4ezZAc.s:6411   .debug_str:00000000000006cb .LASF119
C:\Users\liukai\AppData\Local\Temp\cc4ezZAc.s:6786   .debug_str:0000000000001d40 .LASF120
C:\Users\liukai\AppData\Local\Temp\cc4ezZAc.s:8096   .debug_str:0000000000006275 .LASF121
C:\Users\liukai\AppData\Local\Temp\cc4ezZAc.s:7176   .debug_str:00000000000032e8 .LASF122
C:\Users\liukai\AppData\Local\Temp\cc4ezZAc.s:7010   .debug_str:0000000000002a88 .LASF123
C:\Users\liukai\AppData\Local\Temp\cc4ezZAc.s:7790   .debug_str:000000000000517b .LASF124
C:\Users\liukai\AppData\Local\Temp\cc4ezZAc.s:7774   .debug_str:00000000000050aa .LASF125
C:\Users\liukai\AppData\Local\Temp\cc4ezZAc.s:8224   .debug_str:0000000000006a06 .LASF126
C:\Users\liukai\AppData\Local\Temp\cc4ezZAc.s:7560   .debug_str:000000000000460b .LASF127
C:\Users\liukai\AppData\Local\Temp\cc4ezZAc.s:7872   .debug_str:00000000000055c1 .LASF128
C:\Users\liukai\AppData\Local\Temp\cc4ezZAc.s:6570   .debug_str:00000000000010bf .LASF129
C:\Users\liukai\AppData\Local\Temp\cc4ezZAc.s:6834   .debug_str:000000000000203a .LASF130
C:\Users\liukai\AppData\Local\Temp\cc4ezZAc.s:8236   .debug_str:0000000000006a99 .LASF131
C:\Users\liukai\AppData\Local\Temp\cc4ezZAc.s:6634   .debug_str:000000000000144a .LASF132
C:\Users\liukai\AppData\Local\Temp\cc4ezZAc.s:6495   .debug_str:0000000000000b8e .LASF133
C:\Users\liukai\AppData\Local\Temp\cc4ezZAc.s:6548   .debug_str:0000000000000fc1 .LASF134
C:\Users\liukai\AppData\Local\Temp\cc4ezZAc.s:6584   .debug_str:0000000000001169 .LASF135
C:\Users\liukai\AppData\Local\Temp\cc4ezZAc.s:6702   .debug_str:00000000000017f3 .LASF136
C:\Users\liukai\AppData\Local\Temp\cc4ezZAc.s:7794   .debug_str:00000000000051c0 .LASF137
C:\Users\liukai\AppData\Local\Temp\cc4ezZAc.s:6592   .debug_str:00000000000011db .LASF138
C:\Users\liukai\AppData\Local\Temp\cc4ezZAc.s:7404   .debug_str:0000000000003e1e .LASF139
C:\Users\liukai\AppData\Local\Temp\cc4ezZAc.s:7898   .debug_str:00000000000056f5 .LASF140
C:\Users\liukai\AppData\Local\Temp\cc4ezZAc.s:6830   .debug_str:0000000000001fec .LASF141
C:\Users\liukai\AppData\Local\Temp\cc4ezZAc.s:7204   .debug_str:000000000000344d .LASF142
C:\Users\liukai\AppData\Local\Temp\cc4ezZAc.s:7550   .debug_str:000000000000458b .LASF143
C:\Users\liukai\AppData\Local\Temp\cc4ezZAc.s:7226   .debug_str:000000000000353b .LASF144
C:\Users\liukai\AppData\Local\Temp\cc4ezZAc.s:7106   .debug_str:0000000000002f25 .LASF145
C:\Users\liukai\AppData\Local\Temp\cc4ezZAc.s:7366   .debug_str:0000000000003c65 .LASF146
C:\Users\liukai\AppData\Local\Temp\cc4ezZAc.s:7292   .debug_str:00000000000038dc .LASF147
C:\Users\liukai\AppData\Local\Temp\cc4ezZAc.s:7538   .debug_str:0000000000004517 .LASF148
C:\Users\liukai\AppData\Local\Temp\cc4ezZAc.s:7520   .debug_str:0000000000004416 .LASF149
C:\Users\liukai\AppData\Local\Temp\cc4ezZAc.s:6744   .debug_str:00000000000019b3 .LASF150
C:\Users\liukai\AppData\Local\Temp\cc4ezZAc.s:6706   .debug_str:000000000000181c .LASF151
C:\Users\liukai\AppData\Local\Temp\cc4ezZAc.s:6822   .debug_str:0000000000001f73 .LASF152
C:\Users\liukai\AppData\Local\Temp\cc4ezZAc.s:6748   .debug_str:0000000000001a05 .LASF153
C:\Users\liukai\AppData\Local\Temp\cc4ezZAc.s:7554   .debug_str:00000000000045ba .LASF154
C:\Users\liukai\AppData\Local\Temp\cc4ezZAc.s:8348   .debug_str:0000000000006fac .LASF155
C:\Users\liukai\AppData\Local\Temp\cc4ezZAc.s:6954   .debug_str:0000000000002704 .LASF156
C:\Users\liukai\AppData\Local\Temp\cc4ezZAc.s:6544   .debug_str:0000000000000f76 .LASF157
C:\Users\liukai\AppData\Local\Temp\cc4ezZAc.s:6393   .debug_str:0000000000000633 .LASF158
C:\Users\liukai\AppData\Local\Temp\cc4ezZAc.s:7184   .debug_str:000000000000335d .LASF159
C:\Users\liukai\AppData\Local\Temp\cc4ezZAc.s:6776   .debug_str:0000000000001c8d .LASF160
C:\Users\liukai\AppData\Local\Temp\cc4ezZAc.s:8480   .debug_str:0000000000007757 .LASF161
C:\Users\liukai\AppData\Local\Temp\cc4ezZAc.s:8046   .debug_str:0000000000005f4b .LASF162
C:\Users\liukai\AppData\Local\Temp\cc4ezZAc.s:7734   .debug_str:0000000000004ed1 .LASF163
C:\Users\liukai\AppData\Local\Temp\cc4ezZAc.s:6514   .debug_str:0000000000000e1f .LASF164
C:\Users\liukai\AppData\Local\Temp\cc4ezZAc.s:7282   .debug_str:000000000000386c .LASF165
C:\Users\liukai\AppData\Local\Temp\cc4ezZAc.s:6367   .debug_str:00000000000004cd .LASF166
C:\Users\liukai\AppData\Local\Temp\cc4ezZAc.s:8150   .debug_str:00000000000065e0 .LASF167
C:\Users\liukai\AppData\Local\Temp\cc4ezZAc.s:7090   .debug_str:0000000000002e4d .LASF168
C:\Users\liukai\AppData\Local\Temp\cc4ezZAc.s:7964   .debug_str:0000000000005aa4 .LASF169
C:\Users\liukai\AppData\Local\Temp\cc4ezZAc.s:8386   .debug_str:00000000000071d8 .LASF170
C:\Users\liukai\AppData\Local\Temp\cc4ezZAc.s:8022   .debug_str:0000000000005db2 .LASF171
C:\Users\liukai\AppData\Local\Temp\cc4ezZAc.s:6966   .debug_str:00000000000027bb .LASF172
C:\Users\liukai\AppData\Local\Temp\cc4ezZAc.s:8128   .debug_str:000000000000644c .LASF173
C:\Users\liukai\AppData\Local\Temp\cc4ezZAc.s:8014   .debug_str:0000000000005d54 .LASF174
C:\Users\liukai\AppData\Local\Temp\cc4ezZAc.s:7686   .debug_str:0000000000004be7 .LASF175
C:\Users\liukai\AppData\Local\Temp\cc4ezZAc.s:8460   .debug_str:000000000000768f .LASF176
C:\Users\liukai\AppData\Local\Temp\cc4ezZAc.s:6846   .debug_str:00000000000020fc .LASF177
C:\Users\liukai\AppData\Local\Temp\cc4ezZAc.s:7990   .debug_str:0000000000005c0b .LASF178
C:\Users\liukai\AppData\Local\Temp\cc4ezZAc.s:6870   .debug_str:00000000000022c2 .LASF179
C:\Users\liukai\AppData\Local\Temp\cc4ezZAc.s:6722   .debug_str:00000000000018cf .LASF180
C:\Users\liukai\AppData\Local\Temp\cc4ezZAc.s:6431   .debug_str:0000000000000864 .LASF181
C:\Users\liukai\AppData\Local\Temp\cc4ezZAc.s:6271   .debug_str:0000000000000017 .LASF182
C:\Users\liukai\AppData\Local\Temp\cc4ezZAc.s:7596   .debug_str:00000000000047ce .LASF183
C:\Users\liukai\AppData\Local\Temp\cc4ezZAc.s:8318   .debug_str:0000000000006e29 .LASF184
C:\Users\liukai\AppData\Local\Temp\cc4ezZAc.s:7228   .debug_str:000000000000355c .LASF185
C:\Users\liukai\AppData\Local\Temp\cc4ezZAc.s:6686   .debug_str:00000000000016ec .LASF186
C:\Users\liukai\AppData\Local\Temp\cc4ezZAc.s:7764   .debug_str:0000000000005023 .LASF187
C:\Users\liukai\AppData\Local\Temp\cc4ezZAc.s:7052   .debug_str:0000000000002c7b .LASF188
C:\Users\liukai\AppData\Local\Temp\cc4ezZAc.s:7382   .debug_str:0000000000003d28 .LASF189
C:\Users\liukai\AppData\Local\Temp\cc4ezZAc.s:7260   .debug_str:0000000000003754 .LASF190
C:\Users\liukai\AppData\Local\Temp\cc4ezZAc.s:7746   .debug_str:0000000000004f72 .LASF191
C:\Users\liukai\AppData\Local\Temp\cc4ezZAc.s:6477   .debug_str:0000000000000abe .LASF192
C:\Users\liukai\AppData\Local\Temp\cc4ezZAc.s:7660   .debug_str:0000000000004aab .LASF193
C:\Users\liukai\AppData\Local\Temp\cc4ezZAc.s:6678   .debug_str:000000000000168e .LASF194
C:\Users\liukai\AppData\Local\Temp\cc4ezZAc.s:6497   .debug_str:0000000000000ba6 .LASF195
C:\Users\liukai\AppData\Local\Temp\cc4ezZAc.s:6397   .debug_str:0000000000000662 .LASF196
C:\Users\liukai\AppData\Local\Temp\cc4ezZAc.s:7726   .debug_str:0000000000004e1d .LASF197
C:\Users\liukai\AppData\Local\Temp\cc4ezZAc.s:6457   .debug_str:00000000000009cf .LASF198
C:\Users\liukai\AppData\Local\Temp\cc4ezZAc.s:6818   .debug_str:0000000000001f15 .LASF199
C:\Users\liukai\AppData\Local\Temp\cc4ezZAc.s:6764   .debug_str:0000000000001b9a .LASF200
C:\Users\liukai\AppData\Local\Temp\cc4ezZAc.s:8226   .debug_str:0000000000006a23 .LASF201
C:\Users\liukai\AppData\Local\Temp\cc4ezZAc.s:7368   .debug_str:0000000000003c75 .LASF202
C:\Users\liukai\AppData\Local\Temp\cc4ezZAc.s:7048   .debug_str:0000000000002c39 .LASF203
C:\Users\liukai\AppData\Local\Temp\cc4ezZAc.s:8132   .debug_str:0000000000006481 .LASF204
C:\Users\liukai\AppData\Local\Temp\cc4ezZAc.s:8342   .debug_str:0000000000006f6c .LASF205
C:\Users\liukai\AppData\Local\Temp\cc4ezZAc.s:6538   .debug_str:0000000000000f36 .LASF206
C:\Users\liukai\AppData\Local\Temp\cc4ezZAc.s:6487   .debug_str:0000000000000b44 .LASF207
C:\Users\liukai\AppData\Local\Temp\cc4ezZAc.s:7414   .debug_str:0000000000003e9e .LASF208
C:\Users\liukai\AppData\Local\Temp\cc4ezZAc.s:6802   .debug_str:0000000000001e59 .LASF209
C:\Users\liukai\AppData\Local\Temp\cc4ezZAc.s:6341   .debug_str:000000000000036c .LASF210
C:\Users\liukai\AppData\Local\Temp\cc4ezZAc.s:8268   .debug_str:0000000000006c1e .LASF211
C:\Users\liukai\AppData\Local\Temp\cc4ezZAc.s:7316   .debug_str:00000000000039ce .LASF212
C:\Users\liukai\AppData\Local\Temp\cc4ezZAc.s:8066   .debug_str:0000000000006019 .LASF213
C:\Users\liukai\AppData\Local\Temp\cc4ezZAc.s:8384   .debug_str:0000000000007195 .LASF214
C:\Users\liukai\AppData\Local\Temp\cc4ezZAc.s:7536   .debug_str:0000000000004500 .LASF215
C:\Users\liukai\AppData\Local\Temp\cc4ezZAc.s:6309   .debug_str:00000000000001c0 .LASF216
C:\Users\liukai\AppData\Local\Temp\cc4ezZAc.s:7522   .debug_str:000000000000442d .LASF217
C:\Users\liukai\AppData\Local\Temp\cc4ezZAc.s:8188   .debug_str:00000000000067fd .LASF218
C:\Users\liukai\AppData\Local\Temp\cc4ezZAc.s:7238   .debug_str:000000000000360e .LASF219
C:\Users\liukai\AppData\Local\Temp\cc4ezZAc.s:6654   .debug_str:000000000000153c .LASF220
C:\Users\liukai\AppData\Local\Temp\cc4ezZAc.s:6283   .debug_str:000000000000007a .LASF221
C:\Users\liukai\AppData\Local\Temp\cc4ezZAc.s:6986   .debug_str:00000000000028e9 .LASF222
C:\Users\liukai\AppData\Local\Temp\cc4ezZAc.s:7572   .debug_str:00000000000046a5 .LASF223
C:\Users\liukai\AppData\Local\Temp\cc4ezZAc.s:6305   .debug_str:000000000000019b .LASF224
C:\Users\liukai\AppData\Local\Temp\cc4ezZAc.s:8256   .debug_str:0000000000006b4d .LASF225
C:\Users\liukai\AppData\Local\Temp\cc4ezZAc.s:6892   .debug_str:00000000000023ae .LASF226
C:\Users\liukai\AppData\Local\Temp\cc4ezZAc.s:7564   .debug_str:000000000000463b .LASF227
C:\Users\liukai\AppData\Local\Temp\cc4ezZAc.s:8032   .debug_str:0000000000005e5e .LASF228
C:\Users\liukai\AppData\Local\Temp\cc4ezZAc.s:7340   .debug_str:0000000000003af7 .LASF229
C:\Users\liukai\AppData\Local\Temp\cc4ezZAc.s:7792   .debug_str:00000000000051a6 .LASF230
C:\Users\liukai\AppData\Local\Temp\cc4ezZAc.s:6417   .debug_str:0000000000000720 .LASF231
C:\Users\liukai\AppData\Local\Temp\cc4ezZAc.s:8422   .debug_str:000000000000742a .LASF232
C:\Users\liukai\AppData\Local\Temp\cc4ezZAc.s:7860   .debug_str:0000000000005533 .LASF233
C:\Users\liukai\AppData\Local\Temp\cc4ezZAc.s:7630   .debug_str:0000000000004970 .LASF234
C:\Users\liukai\AppData\Local\Temp\cc4ezZAc.s:7328   .debug_str:0000000000003a77 .LASF235
C:\Users\liukai\AppData\Local\Temp\cc4ezZAc.s:7170   .debug_str:000000000000328f .LASF236
C:\Users\liukai\AppData\Local\Temp\cc4ezZAc.s:7056   .debug_str:0000000000002caf .LASF237
C:\Users\liukai\AppData\Local\Temp\cc4ezZAc.s:6636   .debug_str:0000000000001472 .LASF238
C:\Users\liukai\AppData\Local\Temp\cc4ezZAc.s:7534   .debug_str:00000000000044c2 .LASF239
C:\Users\liukai\AppData\Local\Temp\cc4ezZAc.s:7770   .debug_str:000000000000505d .LASF240
C:\Users\liukai\AppData\Local\Temp\cc4ezZAc.s:8002   .debug_str:0000000000005cd1 .LASF241
C:\Users\liukai\AppData\Local\Temp\cc4ezZAc.s:8094   .debug_str:0000000000006230 .LASF242
C:\Users\liukai\AppData\Local\Temp\cc4ezZAc.s:7290   .debug_str:00000000000038c4 .LASF243
C:\Users\liukai\AppData\Local\Temp\cc4ezZAc.s:6610   .debug_str:00000000000012b8 .LASF244
C:\Users\liukai\AppData\Local\Temp\cc4ezZAc.s:6640   .debug_str:0000000000001496 .LASF245
C:\Users\liukai\AppData\Local\Temp\cc4ezZAc.s:7270   .debug_str:00000000000037e4 .LASF246
C:\Users\liukai\AppData\Local\Temp\cc4ezZAc.s:6357   .debug_str:0000000000000440 .LASF247
C:\Users\liukai\AppData\Local\Temp\cc4ezZAc.s:7744   .debug_str:0000000000004f56 .LASF248
C:\Users\liukai\AppData\Local\Temp\cc4ezZAc.s:7216   .debug_str:00000000000034d7 .LASF249
C:\Users\liukai\AppData\Local\Temp\cc4ezZAc.s:7174   .debug_str:00000000000032cf .LASF250
C:\Users\liukai\AppData\Local\Temp\cc4ezZAc.s:6564   .debug_str:0000000000001083 .LASF251
C:\Users\liukai\AppData\Local\Temp\cc4ezZAc.s:6399   .debug_str:000000000000067a .LASF252
C:\Users\liukai\AppData\Local\Temp\cc4ezZAc.s:7696   .debug_str:0000000000004c37 .LASF253
C:\Users\liukai\AppData\Local\Temp\cc4ezZAc.s:7968   .debug_str:0000000000005af9 .LASF254
C:\Users\liukai\AppData\Local\Temp\cc4ezZAc.s:6359   .debug_str:0000000000000452 .LASF255
C:\Users\liukai\AppData\Local\Temp\cc4ezZAc.s:7732   .debug_str:0000000000004e8b .LASF256
C:\Users\liukai\AppData\Local\Temp\cc4ezZAc.s:6672   .debug_str:000000000000164a .LASF257
C:\Users\liukai\AppData\Local\Temp\cc4ezZAc.s:7084   .debug_str:0000000000002dff .LASF258
C:\Users\liukai\AppData\Local\Temp\cc4ezZAc.s:7718   .debug_str:0000000000004d92 .LASF259
C:\Users\liukai\AppData\Local\Temp\cc4ezZAc.s:7672   .debug_str:0000000000004b15 .LASF260
C:\Users\liukai\AppData\Local\Temp\cc4ezZAc.s:8228   .debug_str:0000000000006a3a .LASF261
C:\Users\liukai\AppData\Local\Temp\cc4ezZAc.s:7222   .debug_str:000000000000351c .LASF262
C:\Users\liukai\AppData\Local\Temp\cc4ezZAc.s:6379   .debug_str:000000000000059e .LASF263
C:\Users\liukai\AppData\Local\Temp\cc4ezZAc.s:7054   .debug_str:0000000000002c93 .LASF264
C:\Users\liukai\AppData\Local\Temp\cc4ezZAc.s:6552   .debug_str:0000000000000fea .LASF265
C:\Users\liukai\AppData\Local\Temp\cc4ezZAc.s:6335   .debug_str:000000000000031e .LASF266
C:\Users\liukai\AppData\Local\Temp\cc4ezZAc.s:7808   .debug_str:000000000000527f .LASF267
C:\Users\liukai\AppData\Local\Temp\cc4ezZAc.s:7076   .debug_str:0000000000002db5 .LASF268
C:\Users\liukai\AppData\Local\Temp\cc4ezZAc.s:6391   .debug_str:000000000000061d .LASF269
C:\Users\liukai\AppData\Local\Temp\cc4ezZAc.s:8146   .debug_str:00000000000065b8 .LASF270
C:\Users\liukai\AppData\Local\Temp\cc4ezZAc.s:6732   .debug_str:0000000000001938 .LASF271
C:\Users\liukai\AppData\Local\Temp\cc4ezZAc.s:8344   .debug_str:0000000000006f7d .LASF272
C:\Users\liukai\AppData\Local\Temp\cc4ezZAc.s:7118   .debug_str:0000000000002fb2 .LASF273
C:\Users\liukai\AppData\Local\Temp\cc4ezZAc.s:7616   .debug_str:00000000000048f6 .LASF274
C:\Users\liukai\AppData\Local\Temp\cc4ezZAc.s:6644   .debug_str:00000000000014cc .LASF275
C:\Users\liukai\AppData\Local\Temp\cc4ezZAc.s:6828   .debug_str:0000000000001fd4 .LASF276
C:\Users\liukai\AppData\Local\Temp\cc4ezZAc.s:8060   .debug_str:0000000000005fd5 .LASF277
C:\Users\liukai\AppData\Local\Temp\cc4ezZAc.s:6826   .debug_str:0000000000001f9a .LASF278
C:\Users\liukai\AppData\Local\Temp\cc4ezZAc.s:6285   .debug_str:0000000000000098 .LASF279
C:\Users\liukai\AppData\Local\Temp\cc4ezZAc.s:8044   .debug_str:0000000000005f06 .LASF280
C:\Users\liukai\AppData\Local\Temp\cc4ezZAc.s:8042   .debug_str:0000000000005ef1 .LASF281
C:\Users\liukai\AppData\Local\Temp\cc4ezZAc.s:7138   .debug_str:00000000000030ea .LASF282
C:\Users\liukai\AppData\Local\Temp\cc4ezZAc.s:8324   .debug_str:0000000000006ebc .LASF283
C:\Users\liukai\AppData\Local\Temp\cc4ezZAc.s:8108   .debug_str:0000000000006367 .LASF284
C:\Users\liukai\AppData\Local\Temp\cc4ezZAc.s:6299   .debug_str:0000000000000155 .LASF285
C:\Users\liukai\AppData\Local\Temp\cc4ezZAc.s:6668   .debug_str:0000000000001617 .LASF286
C:\Users\liukai\AppData\Local\Temp\cc4ezZAc.s:7632   .debug_str:000000000000498b .LASF287
C:\Users\liukai\AppData\Local\Temp\cc4ezZAc.s:7272   .debug_str:00000000000037fc .LASF288
C:\Users\liukai\AppData\Local\Temp\cc4ezZAc.s:6780   .debug_str:0000000000001cbb .LASF289
C:\Users\liukai\AppData\Local\Temp\cc4ezZAc.s:6293   .debug_str:00000000000000ec .LASF290
C:\Users\liukai\AppData\Local\Temp\cc4ezZAc.s:7032   .debug_str:0000000000002b85 .LASF291
C:\Users\liukai\AppData\Local\Temp\cc4ezZAc.s:7998   .debug_str:0000000000005cae .LASF292
C:\Users\liukai\AppData\Local\Temp\cc4ezZAc.s:7074   .debug_str:0000000000002d97 .LASF293
C:\Users\liukai\AppData\Local\Temp\cc4ezZAc.s:7406   .debug_str:0000000000003e32 .LASF294
C:\Users\liukai\AppData\Local\Temp\cc4ezZAc.s:7038   .debug_str:0000000000002bbe .LASF295
C:\Users\liukai\AppData\Local\Temp\cc4ezZAc.s:6578   .debug_str:0000000000001137 .LASF296
C:\Users\liukai\AppData\Local\Temp\cc4ezZAc.s:7192   .debug_str:00000000000033b7 .LASF297
C:\Users\liukai\AppData\Local\Temp\cc4ezZAc.s:6896   .debug_str:0000000000002409 .LASF298
C:\Users\liukai\AppData\Local\Temp\cc4ezZAc.s:7440   .debug_str:0000000000003fe5 .LASF299
C:\Users\liukai\AppData\Local\Temp\cc4ezZAc.s:8210   .debug_str:0000000000006942 .LASF300
C:\Users\liukai\AppData\Local\Temp\cc4ezZAc.s:7578   .debug_str:0000000000004720 .LASF301
C:\Users\liukai\AppData\Local\Temp\cc4ezZAc.s:6281   .debug_str:0000000000000070 .LASF302
C:\Users\liukai\AppData\Local\Temp\cc4ezZAc.s:8374   .debug_str:000000000000710f .LASF303
C:\Users\liukai\AppData\Local\Temp\cc4ezZAc.s:6784   .debug_str:0000000000001d32 .LASF304
C:\Users\liukai\AppData\Local\Temp\cc4ezZAc.s:6738   .debug_str:0000000000001983 .LASF305
C:\Users\liukai\AppData\Local\Temp\cc4ezZAc.s:6351   .debug_str:00000000000003e3 .LASF306
C:\Users\liukai\AppData\Local\Temp\cc4ezZAc.s:7886   .debug_str:0000000000005656 .LASF307
C:\Users\liukai\AppData\Local\Temp\cc4ezZAc.s:7562   .debug_str:0000000000004622 .LASF308
C:\Users\liukai\AppData\Local\Temp\cc4ezZAc.s:6532   .debug_str:0000000000000ee8 .LASF309
C:\Users\liukai\AppData\Local\Temp\cc4ezZAc.s:6303   .debug_str:0000000000000191 .LASF310
C:\Users\liukai\AppData\Local\Temp\cc4ezZAc.s:7356   .debug_str:0000000000003bfc .LASF314
C:\Users\liukai\AppData\Local\Temp\cc4ezZAc.s:7112   .debug_str:0000000000002f7d .LASF315
C:\Users\liukai\AppData\Local\Temp\cc4ezZAc.s:6736   .debug_str:0000000000001976 .LASF316
C:\Users\liukai\AppData\Local\Temp\cc4ezZAc.s:7516   .debug_str:00000000000043f2 .LASF317
C:\Users\liukai\AppData\Local\Temp\cc4ezZAc.s:7796   .debug_str:00000000000051ea .LASF318
C:\Users\liukai\AppData\Local\Temp\cc4ezZAc.s:7954   .debug_str:0000000000005a54 .LASF319
C:\Users\liukai\AppData\Local\Temp\cc4ezZAc.s:6608   .debug_str:00000000000012a3 .LASF320
C:\Users\liukai\AppData\Local\Temp\cc4ezZAc.s:8172   .debug_str:00000000000066cd .LASF321
C:\Users\liukai\AppData\Local\Temp\cc4ezZAc.s:7094   .debug_str:0000000000002ea2 .LASF322
C:\Users\liukai\AppData\Local\Temp\cc4ezZAc.s:6974   .debug_str:0000000000002844 .LASF323
C:\Users\liukai\AppData\Local\Temp\cc4ezZAc.s:8064   .debug_str:0000000000006003 .LASF324
C:\Users\liukai\AppData\Local\Temp\cc4ezZAc.s:6768   .debug_str:0000000000001beb .LASF325
C:\Users\liukai\AppData\Local\Temp\cc4ezZAc.s:7428   .debug_str:0000000000003f23 .LASF326
C:\Users\liukai\AppData\Local\Temp\cc4ezZAc.s:7542   .debug_str:000000000000452e .LASF327
C:\Users\liukai\AppData\Local\Temp\cc4ezZAc.s:7704   .debug_str:0000000000004cb8 .LASF328
C:\Users\liukai\AppData\Local\Temp\cc4ezZAc.s:7022   .debug_str:0000000000002af0 .LASF329
C:\Users\liukai\AppData\Local\Temp\cc4ezZAc.s:8214   .debug_str:000000000000695b .LASF330
C:\Users\liukai\AppData\Local\Temp\cc4ezZAc.s:8134   .debug_str:0000000000006497 .LASF331
C:\Users\liukai\AppData\Local\Temp\cc4ezZAc.s:7628   .debug_str:000000000000495a .LASF333
C:\Users\liukai\AppData\Local\Temp\cc4ezZAc.s:7602   .debug_str:0000000000004820 .LASF334
C:\Users\liukai\AppData\Local\Temp\cc4ezZAc.s:7050   .debug_str:0000000000002c53 .LASF335
C:\Users\liukai\AppData\Local\Temp\cc4ezZAc.s:6291   .debug_str:00000000000000db .LASF336
C:\Users\liukai\AppData\Local\Temp\cc4ezZAc.s:6600   .debug_str:0000000000001225 .LASF337
C:\Users\liukai\AppData\Local\Temp\cc4ezZAc.s:8200   .debug_str:00000000000068ad .LASF338
C:\Users\liukai\AppData\Local\Temp\cc4ezZAc.s:7276   .debug_str:0000000000003835 .LASF339
C:\Users\liukai\AppData\Local\Temp\cc4ezZAc.s:7258   .debug_str:0000000000003742 .LASF340
C:\Users\liukai\AppData\Local\Temp\cc4ezZAc.s:7212   .debug_str:00000000000034be .LASF341
C:\Users\liukai\AppData\Local\Temp\cc4ezZAc.s:8316   .debug_str:0000000000006e19 .LASF342
C:\Users\liukai\AppData\Local\Temp\cc4ezZAc.s:8476   .debug_str:0000000000007721 .LASF343
C:\Users\liukai\AppData\Local\Temp\cc4ezZAc.s:6698   .debug_str:00000000000017b8 .LASF344
C:\Users\liukai\AppData\Local\Temp\cc4ezZAc.s:7148   .debug_str:0000000000003155 .LASF345
C:\Users\liukai\AppData\Local\Temp\cc4ezZAc.s:7472   .debug_str:0000000000004166 .LASF346
C:\Users\liukai\AppData\Local\Temp\cc4ezZAc.s:7634   .debug_str:00000000000049a9 .LASF347
C:\Users\liukai\AppData\Local\Temp\cc4ezZAc.s:7446   .debug_str:000000000000402c .LASF348
C:\Users\liukai\AppData\Local\Temp\cc4ezZAc.s:7828   .debug_str:00000000000053c9 .LASF349
C:\Users\liukai\AppData\Local\Temp\cc4ezZAc.s:7664   .debug_str:0000000000004ace .LASF350
C:\Users\liukai\AppData\Local\Temp\cc4ezZAc.s:6730   .debug_str:0000000000001922 .LASF351
C:\Users\liukai\AppData\Local\Temp\cc4ezZAc.s:7758   .debug_str:0000000000004ff3 .LASF352
C:\Users\liukai\AppData\Local\Temp\cc4ezZAc.s:6375   .debug_str:0000000000000524 .LASF353
C:\Users\liukai\AppData\Local\Temp\cc4ezZAc.s:6277   .debug_str:0000000000000054 .LASF354
C:\Users\liukai\AppData\Local\Temp\cc4ezZAc.s:8186   .debug_str:00000000000067ed .LASF355
C:\Users\liukai\AppData\Local\Temp\cc4ezZAc.s:7310   .debug_str:000000000000398c .LASF356
C:\Users\liukai\AppData\Local\Temp\cc4ezZAc.s:8098   .debug_str:0000000000006285 .LASF357
C:\Users\liukai\AppData\Local\Temp\cc4ezZAc.s:7650   .debug_str:0000000000004a4e .LASF358
C:\Users\liukai\AppData\Local\Temp\cc4ezZAc.s:6582   .debug_str:000000000000115e .LASF359
C:\Users\liukai\AppData\Local\Temp\cc4ezZAc.s:7688   .debug_str:0000000000004bfd .LASF360
C:\Users\liukai\AppData\Local\Temp\cc4ezZAc.s:7598   .debug_str:0000000000004808 .LASF361
C:\Users\liukai\AppData\Local\Temp\cc4ezZAc.s:7620   .debug_str:0000000000004914 .LASF362
C:\Users\liukai\AppData\Local\Temp\cc4ezZAc.s:6712   .debug_str:0000000000001854 .LASF363
C:\Users\liukai\AppData\Local\Temp\cc4ezZAc.s:7640   .debug_str:00000000000049de .LASF364
C:\Users\liukai\AppData\Local\Temp\cc4ezZAc.s:6998   .debug_str:00000000000029df .LASF365
C:\Users\liukai\AppData\Local\Temp\cc4ezZAc.s:6550   .debug_str:0000000000000fe0 .LASF366
C:\Users\liukai\AppData\Local\Temp\cc4ezZAc.s:6323   .debug_str:00000000000002ae .LASF367
C:\Users\liukai\AppData\Local\Temp\cc4ezZAc.s:8120   .debug_str:00000000000063f4 .LASF368
C:\Users\liukai\AppData\Local\Temp\cc4ezZAc.s:6522   .debug_str:0000000000000e7e .LASF369
C:\Users\liukai\AppData\Local\Temp\cc4ezZAc.s:6648   .debug_str:00000000000014fe .LASF370
C:\Users\liukai\AppData\Local\Temp\cc4ezZAc.s:8020   .debug_str:0000000000005d90 .LASF371
C:\Users\liukai\AppData\Local\Temp\cc4ezZAc.s:7656   .debug_str:0000000000004a8f .LASF372
C:\Users\liukai\AppData\Local\Temp\cc4ezZAc.s:6924   .debug_str:000000000000255d .LASF373
C:\Users\liukai\AppData\Local\Temp\cc4ezZAc.s:7256   .debug_str:0000000000003735 .LASF374
C:\Users\liukai\AppData\Local\Temp\cc4ezZAc.s:7680   .debug_str:0000000000004b9f .LASF376
C:\Users\liukai\AppData\Local\Temp\cc4ezZAc.s:6459   .debug_str:0000000000000a0a .LASF377
C:\Users\liukai\AppData\Local\Temp\cc4ezZAc.s:7874   .debug_str:00000000000055df .LASF378
C:\Users\liukai\AppData\Local\Temp\cc4ezZAc.s:8154   .debug_str:00000000000065ff .LASF379
C:\Users\liukai\AppData\Local\Temp\cc4ezZAc.s:7194   .debug_str:00000000000033d3 .LASF380
C:\Users\liukai\AppData\Local\Temp\cc4ezZAc.s:7948   .debug_str:0000000000005a22 .LASF381
C:\Users\liukai\AppData\Local\Temp\cc4ezZAc.s:7424   .debug_str:0000000000003eff .LASF382
C:\Users\liukai\AppData\Local\Temp\cc4ezZAc.s:6670   .debug_str:0000000000001635 .LASF383
C:\Users\liukai\AppData\Local\Temp\cc4ezZAc.s:7586   .debug_str:000000000000475c .LASF384
C:\Users\liukai\AppData\Local\Temp\cc4ezZAc.s:6642   .debug_str:00000000000014b1 .LASF385
C:\Users\liukai\AppData\Local\Temp\cc4ezZAc.s:7128   .debug_str:00000000000030a7 .LASF386
C:\Users\liukai\AppData\Local\Temp\cc4ezZAc.s:7458   .debug_str:00000000000040f4 .LASF387
C:\Users\liukai\AppData\Local\Temp\cc4ezZAc.s:7760   .debug_str:0000000000005004 .LASF388
C:\Users\liukai\AppData\Local\Temp\cc4ezZAc.s:6970   .debug_str:000000000000281f .LASF389
C:\Users\liukai\AppData\Local\Temp\cc4ezZAc.s:6455   .debug_str:00000000000009c3 .LASF390
C:\Users\liukai\AppData\Local\Temp\cc4ezZAc.s:7690   .debug_str:0000000000004c13 .LASF391
C:\Users\liukai\AppData\Local\Temp\cc4ezZAc.s:6614   .debug_str:00000000000012fb .LASF392
C:\Users\liukai\AppData\Local\Temp\cc4ezZAc.s:7224   .debug_str:0000000000003531 .LASF393
C:\Users\liukai\AppData\Local\Temp\cc4ezZAc.s:6512   .debug_str:0000000000000e16 .LASF394
C:\Users\liukai\AppData\Local\Temp\cc4ezZAc.s:7736   .debug_str:0000000000004ee9 .LASF395
C:\Users\liukai\AppData\Local\Temp\cc4ezZAc.s:7362   .debug_str:0000000000003c2b .LASF396
C:\Users\liukai\AppData\Local\Temp\cc4ezZAc.s:7924   .debug_str:0000000000005939 .LASF397
C:\Users\liukai\AppData\Local\Temp\cc4ezZAc.s:6882   .debug_str:0000000000002326 .LASF398
C:\Users\liukai\AppData\Local\Temp\cc4ezZAc.s:7824   .debug_str:000000000000539f .LASF399
C:\Users\liukai\AppData\Local\Temp\cc4ezZAc.s:6808   .debug_str:0000000000001ea7 .LASF400
C:\Users\liukai\AppData\Local\Temp\cc4ezZAc.s:6694   .debug_str:0000000000001784 .LASF401
C:\Users\liukai\AppData\Local\Temp\cc4ezZAc.s:6812   .debug_str:0000000000001edf .LASF402
C:\Users\liukai\AppData\Local\Temp\cc4ezZAc.s:8272   .debug_str:0000000000006c65 .LASF403
C:\Users\liukai\AppData\Local\Temp\cc4ezZAc.s:8012   .debug_str:0000000000005d4b .LASF404
C:\Users\liukai\AppData\Local\Temp\cc4ezZAc.s:6489   .debug_str:0000000000000b60 .LASF405
C:\Users\liukai\AppData\Local\Temp\cc4ezZAc.s:7358   .debug_str:0000000000003c12 .LASF406
C:\Users\liukai\AppData\Local\Temp\cc4ezZAc.s:6556   .debug_str:0000000000001021 .LASF407
C:\Users\liukai\AppData\Local\Temp\cc4ezZAc.s:7120   .debug_str:0000000000002fe3 .LASF408
C:\Users\liukai\AppData\Local\Temp\cc4ezZAc.s:7384   .debug_str:0000000000003d41 .LASF409
C:\Users\liukai\AppData\Local\Temp\cc4ezZAc.s:6824   .debug_str:0000000000001f89 .LASF410
C:\Users\liukai\AppData\Local\Temp\cc4ezZAc.s:7806   .debug_str:0000000000005272 .LASF411
C:\Users\liukai\AppData\Local\Temp\cc4ezZAc.s:7462   .debug_str:0000000000004121 .LASF412
C:\Users\liukai\AppData\Local\Temp\cc4ezZAc.s:6746   .debug_str:00000000000019cc .LASF413
C:\Users\liukai\AppData\Local\Temp\cc4ezZAc.s:6766   .debug_str:0000000000001bdc .LASF414
C:\Users\liukai\AppData\Local\Temp\cc4ezZAc.s:8352   .debug_str:0000000000006ffa .LASF415
C:\Users\liukai\AppData\Local\Temp\cc4ezZAc.s:7348   .debug_str:0000000000003ba3 .LASF416
C:\Users\liukai\AppData\Local\Temp\cc4ezZAc.s:8396   .debug_str:0000000000007290 .LASF417
C:\Users\liukai\AppData\Local\Temp\cc4ezZAc.s:6806   .debug_str:0000000000001e84 .LASF418
C:\Users\liukai\AppData\Local\Temp\cc4ezZAc.s:8162   .debug_str:000000000000666a .LASF419
C:\Users\liukai\AppData\Local\Temp\cc4ezZAc.s:6491   .debug_str:0000000000000b6a .LASF420
C:\Users\liukai\AppData\Local\Temp\cc4ezZAc.s:6425   .debug_str:0000000000000833 .LASF421
C:\Users\liukai\AppData\Local\Temp\cc4ezZAc.s:8018   .debug_str:0000000000005d84 .LASF422
C:\Users\liukai\AppData\Local\Temp\cc4ezZAc.s:6554   .debug_str:0000000000001003 .LASF423
C:\Users\liukai\AppData\Local\Temp\cc4ezZAc.s:6958   .debug_str:0000000000002751 .LASF424
C:\Users\liukai\AppData\Local\Temp\cc4ezZAc.s:7944   .debug_str:00000000000059fe .LASF425
C:\Users\liukai\AppData\Local\Temp\cc4ezZAc.s:7772   .debug_str:000000000000509b .LASF426
C:\Users\liukai\AppData\Local\Temp\cc4ezZAc.s:8074   .debug_str:000000000000613b .LASF427
C:\Users\liukai\AppData\Local\Temp\cc4ezZAc.s:7068   .debug_str:0000000000002d1c .LASF428
C:\Users\liukai\AppData\Local\Temp\cc4ezZAc.s:8260   .debug_str:0000000000006bae .LASF429
C:\Users\liukai\AppData\Local\Temp\cc4ezZAc.s:6361   .debug_str:0000000000000493 .LASF430
C:\Users\liukai\AppData\Local\Temp\cc4ezZAc.s:8058   .debug_str:0000000000005fbd .LASF431
C:\Users\liukai\AppData\Local\Temp\cc4ezZAc.s:6269   .debug_str:0000000000000000 .LASF432
C:\Users\liukai\AppData\Local\Temp\cc4ezZAc.s:6948   .debug_str:0000000000002687 .LASF433
C:\Users\liukai\AppData\Local\Temp\cc4ezZAc.s:6594   .debug_str:00000000000011f5 .LASF434
C:\Users\liukai\AppData\Local\Temp\cc4ezZAc.s:7026   .debug_str:0000000000002b0a .LASF435
C:\Users\liukai\AppData\Local\Temp\cc4ezZAc.s:8182   .debug_str:0000000000006796 .LASF436
C:\Users\liukai\AppData\Local\Temp\cc4ezZAc.s:8246   .debug_str:0000000000006ae8 .LASF437
C:\Users\liukai\AppData\Local\Temp\cc4ezZAc.s:7778   .debug_str:00000000000050d9 .LASF438
C:\Users\liukai\AppData\Local\Temp\cc4ezZAc.s:8378   .debug_str:000000000000712e .LASF439
C:\Users\liukai\AppData\Local\Temp\cc4ezZAc.s:6888   .debug_str:000000000000237b .LASF440
C:\Users\liukai\AppData\Local\Temp\cc4ezZAc.s:6820   .debug_str:0000000000001f53 .LASF441
C:\Users\liukai\AppData\Local\Temp\cc4ezZAc.s:7498   .debug_str:0000000000004332 .LASF442
C:\Users\liukai\AppData\Local\Temp\cc4ezZAc.s:7804   .debug_str:000000000000525b .LASF443
C:\Users\liukai\AppData\Local\Temp\cc4ezZAc.s:8306   .debug_str:0000000000006d95 .LASF444
C:\Users\liukai\AppData\Local\Temp\cc4ezZAc.s:8100   .debug_str:00000000000062a6 .LASF445
C:\Users\liukai\AppData\Local\Temp\cc4ezZAc.s:7306   .debug_str:000000000000396a .LASF446
C:\Users\liukai\AppData\Local\Temp\cc4ezZAc.s:8274   .debug_str:0000000000006c72 .LASF447
C:\Users\liukai\AppData\Local\Temp\cc4ezZAc.s:8296   .debug_str:0000000000006d50 .LASF448
C:\Users\liukai\AppData\Local\Temp\cc4ezZAc.s:6700   .debug_str:00000000000017d0 .LASF449
C:\Users\liukai\AppData\Local\Temp\cc4ezZAc.s:6878   .debug_str:000000000000230b .LASF450
C:\Users\liukai\AppData\Local\Temp\cc4ezZAc.s:6510   .debug_str:0000000000000e00 .LASF451
C:\Users\liukai\AppData\Local\Temp\cc4ezZAc.s:6355   .debug_str:0000000000000423 .LASF452
C:\Users\liukai\AppData\Local\Temp\cc4ezZAc.s:7648   .debug_str:0000000000004a3f .LASF453
C:\Users\liukai\AppData\Local\Temp\cc4ezZAc.s:7762   .debug_str:000000000000500a .LASF454
C:\Users\liukai\AppData\Local\Temp\cc4ezZAc.s:6692   .debug_str:0000000000001776 .LASF455
C:\Users\liukai\AppData\Local\Temp\cc4ezZAc.s:7862   .debug_str:0000000000005545 .LASF456
C:\Users\liukai\AppData\Local\Temp\cc4ezZAc.s:7626   .debug_str:0000000000004946 .LASF457
C:\Users\liukai\AppData\Local\Temp\cc4ezZAc.s:8142   .debug_str:0000000000006578 .LASF458
C:\Users\liukai\AppData\Local\Temp\cc4ezZAc.s:7752   .debug_str:0000000000004fa2 .LASF459
C:\Users\liukai\AppData\Local\Temp\cc4ezZAc.s:8202   .debug_str:00000000000068da .LASF460
C:\Users\liukai\AppData\Local\Temp\cc4ezZAc.s:8222   .debug_str:00000000000069e1 .LASF461
C:\Users\liukai\AppData\Local\Temp\cc4ezZAc.s:6944   .debug_str:000000000000263c .LASF462
C:\Users\liukai\AppData\Local\Temp\cc4ezZAc.s:8454   .debug_str:0000000000007610 .LASF463
C:\Users\liukai\AppData\Local\Temp\cc4ezZAc.s:6415   .debug_str:00000000000006f3 .LASF464
C:\Users\liukai\AppData\Local\Temp\cc4ezZAc.s:7180   .debug_str:0000000000003317 .LASF465
C:\Users\liukai\AppData\Local\Temp\cc4ezZAc.s:6439   .debug_str:00000000000008c3 .LASF466
C:\Users\liukai\AppData\Local\Temp\cc4ezZAc.s:8068   .debug_str:0000000000006058 .LASF467
C:\Users\liukai\AppData\Local\Temp\cc4ezZAc.s:7072   .debug_str:0000000000002d5a .LASF468
C:\Users\liukai\AppData\Local\Temp\cc4ezZAc.s:7244   .debug_str:000000000000367d .LASF469
C:\Users\liukai\AppData\Local\Temp\cc4ezZAc.s:7642   .debug_str:00000000000049ec .LASF470
C:\Users\liukai\AppData\Local\Temp\cc4ezZAc.s:8266   .debug_str:0000000000006bfd .LASF471
C:\Users\liukai\AppData\Local\Temp\cc4ezZAc.s:8498   .debug_str:00000000000079d3 .LASF472
C:\Users\liukai\AppData\Local\Temp\cc4ezZAc.s:6884   .debug_str:0000000000002338 .LASF473
C:\Users\liukai\AppData\Local\Temp\cc4ezZAc.s:8408   .debug_str:0000000000007372 .LASF474
C:\Users\liukai\AppData\Local\Temp\cc4ezZAc.s:7206   .debug_str:0000000000003465 .LASF475
C:\Users\liukai\AppData\Local\Temp\cc4ezZAc.s:8110   .debug_str:0000000000006377 .LASF476
C:\Users\liukai\AppData\Local\Temp\cc4ezZAc.s:8184   .debug_str:00000000000067b2 .LASF477
C:\Users\liukai\AppData\Local\Temp\cc4ezZAc.s:6992   .debug_str:000000000000293d .LASF478
C:\Users\liukai\AppData\Local\Temp\cc4ezZAc.s:8206   .debug_str:0000000000006911 .LASF479
C:\Users\liukai\AppData\Local\Temp\cc4ezZAc.s:7020   .debug_str:0000000000002adc .LASF480
C:\Users\liukai\AppData\Local\Temp\cc4ezZAc.s:6796   .debug_str:0000000000001dd7 .LASF481
C:\Users\liukai\AppData\Local\Temp\cc4ezZAc.s:6479   .debug_str:0000000000000ad7 .LASF482
C:\Users\liukai\AppData\Local\Temp\cc4ezZAc.s:7252   .debug_str:00000000000036eb .LASF483
C:\Users\liukai\AppData\Local\Temp\cc4ezZAc.s:6962   .debug_str:000000000000276b .LASF484
C:\Users\liukai\AppData\Local\Temp\cc4ezZAc.s:6908   .debug_str:000000000000248f .LASF485
C:\Users\liukai\AppData\Local\Temp\cc4ezZAc.s:7202   .debug_str:0000000000003420 .LASF486
C:\Users\liukai\AppData\Local\Temp\cc4ezZAc.s:8138   .debug_str:00000000000064bd .LASF487
C:\Users\liukai\AppData\Local\Temp\cc4ezZAc.s:7918   .debug_str:0000000000005881 .LASF488
C:\Users\liukai\AppData\Local\Temp\cc4ezZAc.s:8106   .debug_str:0000000000006308 .LASF489
C:\Users\liukai\AppData\Local\Temp\cc4ezZAc.s:7724   .debug_str:0000000000004dc0 .LASF490
C:\Users\liukai\AppData\Local\Temp\cc4ezZAc.s:6832   .debug_str:0000000000001ffc .LASF491
C:\Users\liukai\AppData\Local\Temp\cc4ezZAc.s:8192   .debug_str:000000000000681e .LASF492
C:\Users\liukai\AppData\Local\Temp\cc4ezZAc.s:8440   .debug_str:00000000000074db .LASF493
C:\Users\liukai\AppData\Local\Temp\cc4ezZAc.s:7740   .debug_str:0000000000004ef9 .LASF494
C:\Users\liukai\AppData\Local\Temp\cc4ezZAc.s:6377   .debug_str:000000000000053b .LASF495
C:\Users\liukai\AppData\Local\Temp\cc4ezZAc.s:7816   .debug_str:00000000000052e8 .LASF496
C:\Users\liukai\AppData\Local\Temp\cc4ezZAc.s:7346   .debug_str:0000000000003b2c .LASF497
C:\Users\liukai\AppData\Local\Temp\cc4ezZAc.s:8178   .debug_str:0000000000006739 .LASF498
C:\Users\liukai\AppData\Local\Temp\cc4ezZAc.s:6848   .debug_str:0000000000002116 .LASF499
C:\Users\liukai\AppData\Local\Temp\cc4ezZAc.s:7670   .debug_str:0000000000004afb .LASF500
C:\Users\liukai\AppData\Local\Temp\cc4ezZAc.s:8050   .debug_str:0000000000005f6e .LASF501
C:\Users\liukai\AppData\Local\Temp\cc4ezZAc.s:6371   .debug_str:00000000000004ec .LASF502
C:\Users\liukai\AppData\Local\Temp\cc4ezZAc.s:6964   .debug_str:00000000000027a1 .LASF503
C:\Users\liukai\AppData\Local\Temp\cc4ezZAc.s:7716   .debug_str:0000000000004d75 .LASF504
C:\Users\liukai\AppData\Local\Temp\cc4ezZAc.s:8320   .debug_str:0000000000006e63 .LASF505
C:\Users\liukai\AppData\Local\Temp\cc4ezZAc.s:8176   .debug_str:00000000000066f6 .LASF506
C:\Users\liukai\AppData\Local\Temp\cc4ezZAc.s:8444   .debug_str:0000000000007549 .LASF507
C:\Users\liukai\AppData\Local\Temp\cc4ezZAc.s:6596   .debug_str:0000000000001215 .LASF508
C:\Users\liukai\AppData\Local\Temp\cc4ezZAc.s:6465   .debug_str:0000000000000a38 .LASF509
C:\Users\liukai\AppData\Local\Temp\cc4ezZAc.s:7016   .debug_str:0000000000002ab7 .LASF510
C:\Users\liukai\AppData\Local\Temp\cc4ezZAc.s:7278   .debug_str:0000000000003845 .LASF511
C:\Users\liukai\AppData\Local\Temp\cc4ezZAc.s:7638   .debug_str:00000000000049c4 .LASF512
C:\Users\liukai\AppData\Local\Temp\cc4ezZAc.s:7710   .debug_str:0000000000004ce4 .LASF513
C:\Users\liukai\AppData\Local\Temp\cc4ezZAc.s:8076   .debug_str:0000000000006148 .LASF514
C:\Users\liukai\AppData\Local\Temp\cc4ezZAc.s:8116   .debug_str:00000000000063cd .LASF515
C:\Users\liukai\AppData\Local\Temp\cc4ezZAc.s:8314   .debug_str:0000000000006df4 .LASF516
C:\Users\liukai\AppData\Local\Temp\cc4ezZAc.s:6620   .debug_str:0000000000001365 .LASF517
C:\Users\liukai\AppData\Local\Temp\cc4ezZAc.s:8220   .debug_str:000000000000699a .LASF518
C:\Users\liukai\AppData\Local\Temp\cc4ezZAc.s:7436   .debug_str:0000000000003f83 .LASF519
C:\Users\liukai\AppData\Local\Temp\cc4ezZAc.s:7900   .debug_str:0000000000005711 .LASF520
C:\Users\liukai\AppData\Local\Temp\cc4ezZAc.s:6790   .debug_str:0000000000001d64 .LASF521
C:\Users\liukai\AppData\Local\Temp\cc4ezZAc.s:6758   .debug_str:0000000000001b17 .LASF522
C:\Users\liukai\AppData\Local\Temp\cc4ezZAc.s:8458   .debug_str:0000000000007648 .LASF523
C:\Users\liukai\AppData\Local\Temp\cc4ezZAc.s:7992   .debug_str:0000000000005c27 .LASF524
C:\Users\liukai\AppData\Local\Temp\cc4ezZAc.s:6996   .debug_str:0000000000002994 .LASF525
C:\Users\liukai\AppData\Local\Temp\cc4ezZAc.s:7576   .debug_str:00000000000046da .LASF526
C:\Users\liukai\AppData\Local\Temp\cc4ezZAc.s:6774   .debug_str:0000000000001c4f .LASF527
C:\Users\liukai\AppData\Local\Temp\cc4ezZAc.s:8092   .debug_str:0000000000006201 .LASF528
C:\Users\liukai\AppData\Local\Temp\cc4ezZAc.s:8090   .debug_str:00000000000061cc .LASF529
C:\Users\liukai\AppData\Local\Temp\cc4ezZAc.s:8088   .debug_str:00000000000061c1 .LASF530
C:\Users\liukai\AppData\Local\Temp\cc4ezZAc.s:7730   .debug_str:0000000000004e7f .LASF531
C:\Users\liukai\AppData\Local\Temp\cc4ezZAc.s:7488   .debug_str:0000000000004223 .LASF532
C:\Users\liukai\AppData\Local\Temp\cc4ezZAc.s:7392   .debug_str:0000000000003d81 .LASF533
C:\Users\liukai\AppData\Local\Temp\cc4ezZAc.s:7318   .debug_str:0000000000003a0a .LASF534
C:\Users\liukai\AppData\Local\Temp\cc4ezZAc.s:7568   .debug_str:000000000000468a .LASF535
C:\Users\liukai\AppData\Local\Temp\cc4ezZAc.s:7834   .debug_str:00000000000053fa .LASF536
C:\Users\liukai\AppData\Local\Temp\cc4ezZAc.s:6650   .debug_str:0000000000001527 .LASF537
C:\Users\liukai\AppData\Local\Temp\cc4ezZAc.s:6481   .debug_str:0000000000000b07 .LASF538
C:\Users\liukai\AppData\Local\Temp\cc4ezZAc.s:7302   .debug_str:0000000000003945 .LASF539
C:\Users\liukai\AppData\Local\Temp\cc4ezZAc.s:7684   .debug_str:0000000000004bd7 .LASF540
C:\Users\liukai\AppData\Local\Temp\cc4ezZAc.s:7654   .debug_str:0000000000004a7a .LASF541
C:\Users\liukai\AppData\Local\Temp\cc4ezZAc.s:8148   .debug_str:00000000000065cf .LASF542
C:\Users\liukai\AppData\Local\Temp\cc4ezZAc.s:7380   .debug_str:0000000000003d1b .LASF543
C:\Users\liukai\AppData\Local\Temp\cc4ezZAc.s:7580   .debug_str:0000000000004737 .LASF544
C:\Users\liukai\AppData\Local\Temp\cc4ezZAc.s:7666   .debug_str:0000000000004ae3 .LASF545
C:\Users\liukai\AppData\Local\Temp\cc4ezZAc.s:7344   .debug_str:0000000000003b21 .LASF546
C:\Users\liukai\AppData\Local\Temp\cc4ezZAc.s:6602   .debug_str:0000000000001279 .LASF547
C:\Users\liukai\AppData\Local\Temp\cc4ezZAc.s:7416   .debug_str:0000000000003eb5 .LASF548
C:\Users\liukai\AppData\Local\Temp\cc4ezZAc.s:7970   .debug_str:0000000000005b38 .LASF549
C:\Users\liukai\AppData\Local\Temp\cc4ezZAc.s:7078   .debug_str:0000000000002dce .LASF550
C:\Users\liukai\AppData\Local\Temp\cc4ezZAc.s:8456   .debug_str:0000000000007635 .LASF551
C:\Users\liukai\AppData\Local\Temp\cc4ezZAc.s:8164   .debug_str:0000000000006678 .LASF552
C:\Users\liukai\AppData\Local\Temp\cc4ezZAc.s:7692   .debug_str:0000000000004c1c .LASF553
C:\Users\liukai\AppData\Local\Temp\cc4ezZAc.s:6499   .debug_str:0000000000000bbe .LASF554
C:\Users\liukai\AppData\Local\Temp\cc4ezZAc.s:7946   .debug_str:0000000000005a11 .LASF555
C:\Users\liukai\AppData\Local\Temp\cc4ezZAc.s:7958   .debug_str:0000000000005a8a .LASF556
C:\Users\liukai\AppData\Local\Temp\cc4ezZAc.s:7544   .debug_str:0000000000004545 .LASF557
C:\Users\liukai\AppData\Local\Temp\cc4ezZAc.s:8292   .debug_str:0000000000006d34 .LASF558
C:\Users\liukai\AppData\Local\Temp\cc4ezZAc.s:6475   .debug_str:0000000000000aaf .LASF559
C:\Users\liukai\AppData\Local\Temp\cc4ezZAc.s:7264   .debug_str:0000000000003771 .LASF560
C:\Users\liukai\AppData\Local\Temp\cc4ezZAc.s:8008   .debug_str:0000000000005d2d .LASF561
C:\Users\liukai\AppData\Local\Temp\cc4ezZAc.s:8388   .debug_str:000000000000721d .LASF563
C:\Users\liukai\AppData\Local\Temp\cc4ezZAc.s:7058   .debug_str:0000000000002cc9 .LASF564
C:\Users\liukai\AppData\Local\Temp\cc4ezZAc.s:8482   .debug_str:000000000000776b .LASF569
C:\Users\liukai\AppData\Local\Temp\cc4ezZAc.s:7574   .debug_str:00000000000046c0 .LASF570
C:\Users\liukai\AppData\Local\Temp\cc4ezZAc.s:6317   .debug_str:0000000000000213 .LASF571
C:\Users\liukai\AppData\Local\Temp\cc4ezZAc.s:7122   .debug_str:0000000000002ff4 .LASF572
C:\Users\liukai\AppData\Local\Temp\cc4ezZAc.s:6628   .debug_str:00000000000013fc .LASF573
C:\Users\liukai\AppData\Local\Temp\cc4ezZAc.s:8448   .debug_str:00000000000075a3 .LASF574
C:\Users\liukai\AppData\Local\Temp\cc4ezZAc.s:8276   .debug_str:0000000000006c8a .LASF575
C:\Users\liukai\AppData\Local\Temp\cc4ezZAc.s:7240   .debug_str:0000000000003620 .LASF576
C:\Users\liukai\AppData\Local\Temp\cc4ezZAc.s:7798   .debug_str:0000000000005202 .LASF577
C:\Users\liukai\AppData\Local\Temp\cc4ezZAc.s:6952   .debug_str:00000000000026bd .LASF578
C:\Users\liukai\AppData\Local\Temp\cc4ezZAc.s:7890   .debug_str:0000000000005687 .LASF579
C:\Users\liukai\AppData\Local\Temp\cc4ezZAc.s:6968   .debug_str:00000000000027d0 .LASF580
C:\Users\liukai\AppData\Local\Temp\cc4ezZAc.s:6622   .debug_str:00000000000013b2 .LASF581
C:\Users\liukai\AppData\Local\Temp\cc4ezZAc.s:6800   .debug_str:0000000000001e12 .LASF582
C:\Users\liukai\AppData\Local\Temp\cc4ezZAc.s:7802   .debug_str:0000000000005252 .LASF583
C:\Users\liukai\AppData\Local\Temp\cc4ezZAc.s:7164   .debug_str:0000000000003248 .LASF584
C:\Users\liukai\AppData\Local\Temp\cc4ezZAc.s:8080   .debug_str:000000000000617d .LASF585
C:\Users\liukai\AppData\Local\Temp\cc4ezZAc.s:8326   .debug_str:0000000000006ed3 .LASF586
C:\Users\liukai\AppData\Local\Temp\cc4ezZAc.s:6920   .debug_str:000000000000254d .LASF587
C:\Users\liukai\AppData\Local\Temp\cc4ezZAc.s:6844   .debug_str:00000000000020ee .LASF588
C:\Users\liukai\AppData\Local\Temp\cc4ezZAc.s:6718   .debug_str:000000000000189e .LASF589
C:\Users\liukai\AppData\Local\Temp\cc4ezZAc.s:6720   .debug_str:00000000000018b6 .LASF590
C:\Users\liukai\AppData\Local\Temp\cc4ezZAc.s:7936   .debug_str:000000000000599f .LASF591
C:\Users\liukai\AppData\Local\Temp\cc4ezZAc.s:7246   .debug_str:0000000000003696 .LASF592
C:\Users\liukai\AppData\Local\Temp\cc4ezZAc.s:8160   .debug_str:0000000000006662 .LASF593
C:\Users\liukai\AppData\Local\Temp\cc4ezZAc.s:8010   .debug_str:0000000000005d3f .LASF594
C:\Users\liukai\AppData\Local\Temp\cc4ezZAc.s:7624   .debug_str:0000000000004936 .LASF595
C:\Users\liukai\AppData\Local\Temp\cc4ezZAc.s:7108   .debug_str:0000000000002f3b .LASF596
C:\Users\liukai\AppData\Local\Temp\cc4ezZAc.s:8234   .debug_str:0000000000006a71 .LASF597
C:\Users\liukai\AppData\Local\Temp\cc4ezZAc.s:7336   .debug_str:0000000000003ac5 .LASF598
C:\Users\liukai\AppData\Local\Temp\cc4ezZAc.s:7444   .debug_str:0000000000004014 .LASF599
C:\Users\liukai\AppData\Local\Temp\cc4ezZAc.s:7294   .debug_str:00000000000038f0 .LASF600
C:\Users\liukai\AppData\Local\Temp\cc4ezZAc.s:7622   .debug_str:000000000000491e .LASF601
C:\Users\liukai\AppData\Local\Temp\cc4ezZAc.s:8240   .debug_str:0000000000006ac0 .LASF602
C:\Users\liukai\AppData\Local\Temp\cc4ezZAc.s:7994   .debug_str:0000000000005c78 .LASF603
C:\Users\liukai\AppData\Local\Temp\cc4ezZAc.s:7832   .debug_str:00000000000053e2 .LASF604
C:\Users\liukai\AppData\Local\Temp\cc4ezZAc.s:8410   .debug_str:000000000000739e .LASF605
C:\Users\liukai\AppData\Local\Temp\cc4ezZAc.s:6708   .debug_str:0000000000001830 .LASF606
C:\Users\liukai\AppData\Local\Temp\cc4ezZAc.s:8468   .debug_str:00000000000076d4 .LASF607
C:\Users\liukai\AppData\Local\Temp\cc4ezZAc.s:6343   .debug_str:0000000000000385 .LASF608
C:\Users\liukai\AppData\Local\Temp\cc4ezZAc.s:6604   .debug_str:0000000000001283 .LASF609
C:\Users\liukai\AppData\Local\Temp\cc4ezZAc.s:7932   .debug_str:0000000000005965 .LASF610
C:\Users\liukai\AppData\Local\Temp\cc4ezZAc.s:8490   .debug_str:00000000000077be .LASF611
C:\Users\liukai\AppData\Local\Temp\cc4ezZAc.s:6503   .debug_str:0000000000000bd6 .LASF612
C:\Users\liukai\AppData\Local\Temp\cc4ezZAc.s:8284   .debug_str:0000000000006ce4 .LASF613
C:\Users\liukai\AppData\Local\Temp\cc4ezZAc.s:6558   .debug_str:0000000000001026 .LASF614
C:\Users\liukai\AppData\Local\Temp\cc4ezZAc.s:7938   .debug_str:00000000000059b9 .LASF615
C:\Users\liukai\AppData\Local\Temp\cc4ezZAc.s:7402   .debug_str:0000000000003dff .LASF616
C:\Users\liukai\AppData\Local\Temp\cc4ezZAc.s:8030   .debug_str:0000000000005e41 .LASF617
C:\Users\liukai\AppData\Local\Temp\cc4ezZAc.s:7776   .debug_str:00000000000050c1 .LASF618
C:\Users\liukai\AppData\Local\Temp\cc4ezZAc.s:7330   .debug_str:0000000000003a94 .LASF619
C:\Users\liukai\AppData\Local\Temp\cc4ezZAc.s:7030   .debug_str:0000000000002b4d .LASF620
C:\Users\liukai\AppData\Local\Temp\cc4ezZAc.s:6658   .debug_str:0000000000001585 .LASF621
C:\Users\liukai\AppData\Local\Temp\cc4ezZAc.s:6616   .debug_str:000000000000130a .LASF622
C:\Users\liukai\AppData\Local\Temp\cc4ezZAc.s:7370   .debug_str:0000000000003c8e .LASF623
C:\Users\liukai\AppData\Local\Temp\cc4ezZAc.s:6770   .debug_str:0000000000001bff .LASF624
C:\Users\liukai\AppData\Local\Temp\cc4ezZAc.s:7910   .debug_str:00000000000057f4 .LASF625
C:\Users\liukai\AppData\Local\Temp\cc4ezZAc.s:6792   .debug_str:0000000000001da1 .LASF626
C:\Users\liukai\AppData\Local\Temp\cc4ezZAc.s:7888   .debug_str:0000000000005666 .LASF627
C:\Users\liukai\AppData\Local\Temp\cc4ezZAc.s:6471   .debug_str:0000000000000a69 .LASF628
C:\Users\liukai\AppData\Local\Temp\cc4ezZAc.s:7866   .debug_str:000000000000555a .LASF629
C:\Users\liukai\AppData\Local\Temp\cc4ezZAc.s:7908   .debug_str:00000000000057c0 .LASF630
C:\Users\liukai\AppData\Local\Temp\cc4ezZAc.s:6946   .debug_str:000000000000265d .LASF631
C:\Users\liukai\AppData\Local\Temp\cc4ezZAc.s:6451   .debug_str:0000000000000983 .LASF632
C:\Users\liukai\AppData\Local\Temp\cc4ezZAc.s:7154   .debug_str:00000000000031b9 .LASF633
C:\Users\liukai\AppData\Local\Temp\cc4ezZAc.s:7150   .debug_str:0000000000003164 .LASF634
C:\Users\liukai\AppData\Local\Temp\cc4ezZAc.s:7836   .debug_str:0000000000005407 .LASF635
C:\Users\liukai\AppData\Local\Temp\cc4ezZAc.s:7456   .debug_str:00000000000040b8 .LASF636
C:\Users\liukai\AppData\Local\Temp\cc4ezZAc.s:6918   .debug_str:000000000000250f .LASF637
C:\Users\liukai\AppData\Local\Temp\cc4ezZAc.s:7452   .debug_str:000000000000406c .LASF638
C:\Users\liukai\AppData\Local\Temp\cc4ezZAc.s:7912   .debug_str:000000000000581b .LASF639
C:\Users\liukai\AppData\Local\Temp\cc4ezZAc.s:7818   .debug_str:0000000000005340 .LASF640
C:\Users\liukai\AppData\Local\Temp\cc4ezZAc.s:7234   .debug_str:00000000000035b9 .LASF641
C:\Users\liukai\AppData\Local\Temp\cc4ezZAc.s:8390   .debug_str:000000000000722e .LASF642
C:\Users\liukai\AppData\Local\Temp\cc4ezZAc.s:6295   .debug_str:000000000000010d .LASF643
C:\Users\liukai\AppData\Local\Temp\cc4ezZAc.s:7714   .debug_str:0000000000004d1d .LASF644
C:\Users\liukai\AppData\Local\Temp\cc4ezZAc.s:6347   .debug_str:00000000000003b3 .LASF645
C:\Users\liukai\AppData\Local\Temp\cc4ezZAc.s:8126   .debug_str:0000000000006432 .LASF646
C:\Users\liukai\AppData\Local\Temp\cc4ezZAc.s:6956   .debug_str:000000000000273e .LASF647
C:\Users\liukai\AppData\Local\Temp\cc4ezZAc.s:8158   .debug_str:0000000000006641 .LASF648
C:\Users\liukai\AppData\Local\Temp\cc4ezZAc.s:6301   .debug_str:0000000000000169 .LASF649
C:\Users\liukai\AppData\Local\Temp\cc4ezZAc.s:6449   .debug_str:000000000000096b .LASF650
C:\Users\liukai\AppData\Local\Temp\cc4ezZAc.s:7006   .debug_str:0000000000002a52 .LASF651
C:\Users\liukai\AppData\Local\Temp\cc4ezZAc.s:6534   .debug_str:0000000000000f00 .LASF652
C:\Users\liukai\AppData\Local\Temp\cc4ezZAc.s:8286   .debug_str:0000000000006cfe .LASF653
C:\Users\liukai\AppData\Local\Temp\cc4ezZAc.s:6752   .debug_str:0000000000001a28 .LASF654
C:\Users\liukai\AppData\Local\Temp\cc4ezZAc.s:6690   .debug_str:0000000000001763 .LASF655
C:\Users\liukai\AppData\Local\Temp\cc4ezZAc.s:7092   .debug_str:0000000000002e8f .LASF656
C:\Users\liukai\AppData\Local\Temp\cc4ezZAc.s:8048   .debug_str:0000000000005f5a .LASF657
C:\Users\liukai\AppData\Local\Temp\cc4ezZAc.s:7326   .debug_str:0000000000003a63 .LASF658
C:\Users\liukai\AppData\Local\Temp\cc4ezZAc.s:8288   .debug_str:0000000000006d10 .LASF659
C:\Users\liukai\AppData\Local\Temp\cc4ezZAc.s:7920   .debug_str:000000000000590d .LASF660
C:\Users\liukai\AppData\Local\Temp\cc4ezZAc.s:6630   .debug_str:000000000000142a .LASF661
C:\Users\liukai\AppData\Local\Temp\cc4ezZAc.s:8426   .debug_str:0000000000007454 .LASF662
C:\Users\liukai\AppData\Local\Temp\cc4ezZAc.s:8204   .debug_str:00000000000068fd .LASF663
C:\Users\liukai\AppData\Local\Temp\cc4ezZAc.s:8168   .debug_str:00000000000066a4 .LASF664
C:\Users\liukai\AppData\Local\Temp\cc4ezZAc.s:7854   .debug_str:00000000000054dc .LASF665
C:\Users\liukai\AppData\Local\Temp\cc4ezZAc.s:7846   .debug_str:0000000000005486 .LASF666
C:\Users\liukai\AppData\Local\Temp\cc4ezZAc.s:6606   .debug_str:000000000000128f .LASF667
C:\Users\liukai\AppData\Local\Temp\cc4ezZAc.s:7892   .debug_str:00000000000056c2 .LASF668
C:\Users\liukai\AppData\Local\Temp\cc4ezZAc.s:7338   .debug_str:0000000000003ae3 .LASF670
C:\Users\liukai\AppData\Local\Temp\cc4ezZAc.s:8372   .debug_str:00000000000070fe .LASF671
C:\Users\liukai\AppData\Local\Temp\cc4ezZAc.s:7142   .debug_str:0000000000003126 .LASF672
C:\Users\liukai\AppData\Local\Temp\cc4ezZAc.s:7646   .debug_str:0000000000004a24 .LASF673
C:\Users\liukai\AppData\Local\Temp\cc4ezZAc.s:6540   .debug_str:0000000000000f50 .LASF674
C:\Users\liukai\AppData\Local\Temp\cc4ezZAc.s:6333   .debug_str:000000000000030e .LASF675
C:\Users\liukai\AppData\Local\Temp\cc4ezZAc.s:7682   .debug_str:0000000000004bba .LASF676
C:\Users\liukai\AppData\Local\Temp\cc4ezZAc.s:6680   .debug_str:00000000000016a4 .LASF677
C:\Users\liukai\AppData\Local\Temp\cc4ezZAc.s:8418   .debug_str:0000000000007408 .LASF678
C:\Users\liukai\AppData\Local\Temp\cc4ezZAc.s:7158   .debug_str:000000000000320b .LASF679
C:\Users\liukai\AppData\Local\Temp\cc4ezZAc.s:7314   .debug_str:00000000000039aa .LASF680
C:\Users\liukai\AppData\Local\Temp\cc4ezZAc.s:6994   .debug_str:0000000000002970 .LASF681
C:\Users\liukai\AppData\Local\Temp\cc4ezZAc.s:8082   .debug_str:0000000000006186 .LASF682
C:\Users\liukai\AppData\Local\Temp\cc4ezZAc.s:6289   .debug_str:00000000000000c1 .LASF683
C:\Users\liukai\AppData\Local\Temp\cc4ezZAc.s:7904   .debug_str:0000000000005799 .LASF684
C:\Users\liukai\AppData\Local\Temp\cc4ezZAc.s:6530   .debug_str:0000000000000ece .LASF685
C:\Users\liukai\AppData\Local\Temp\cc4ezZAc.s:7674   .debug_str:0000000000004b2a .LASF686
C:\Users\liukai\AppData\Local\Temp\cc4ezZAc.s:7036   .debug_str:0000000000002bac .LASF689
C:\Users\liukai\AppData\Local\Temp\cc4ezZAc.s:8028   .debug_str:0000000000005e2a .LASF690
C:\Users\liukai\AppData\Local\Temp\cc4ezZAc.s:7698   .debug_str:0000000000004c76 .LASF691
C:\Users\liukai\AppData\Local\Temp\cc4ezZAc.s:7460   .debug_str:000000000000410f .LASF692
C:\Users\liukai\AppData\Local\Temp\cc4ezZAc.s:7018   .debug_str:0000000000002aca .LASF693
C:\Users\liukai\AppData\Local\Temp\cc4ezZAc.s:7410   .debug_str:0000000000003e60 .LASF694
C:\Users\liukai\AppData\Local\Temp\cc4ezZAc.s:7678   .debug_str:0000000000004b6d .LASF695
C:\Users\liukai\AppData\Local\Temp\cc4ezZAc.s:8402   .debug_str:00000000000072d7 .LASF696
C:\Users\liukai\AppData\Local\Temp\cc4ezZAc.s:6423   .debug_str:000000000000075c .LASF697
C:\Users\liukai\AppData\Local\Temp\cc4ezZAc.s:7492   .debug_str:000000000000423c .LASF698
C:\Users\liukai\AppData\Local\Temp\cc4ezZAc.s:7612   .debug_str:000000000000487c .LASF701
C:\Users\liukai\AppData\Local\Temp\cc4ezZAc.s:8140   .debug_str:0000000000006509 .LASF702
C:\Users\liukai\AppData\Local\Temp\cc4ezZAc.s:6435   .debug_str:000000000000089d .LASF703
C:\Users\liukai\AppData\Local\Temp\cc4ezZAc.s:6936   .debug_str:0000000000002603 .LASF704
C:\Users\liukai\AppData\Local\Temp\cc4ezZAc.s:8112   .debug_str:00000000000063a0 .LASF705
C:\Users\liukai\AppData\Local\Temp\cc4ezZAc.s:8264   .debug_str:0000000000006bde .LASF706
C:\Users\liukai\AppData\Local\Temp\cc4ezZAc.s:7288   .debug_str:00000000000038a2 .LASF707
C:\Users\liukai\AppData\Local\Temp\cc4ezZAc.s:8078   .debug_str:0000000000006168 .LASF708
C:\Users\liukai\AppData\Local\Temp\cc4ezZAc.s:6984   .debug_str:00000000000028a5 .LASF709
C:\Users\liukai\AppData\Local\Temp\cc4ezZAc.s:6572   .debug_str:00000000000010d7 .LASF710
C:\Users\liukai\AppData\Local\Temp\cc4ezZAc.s:6443   .debug_str:00000000000008fb .LASF711
C:\Users\liukai\AppData\Local\Temp\cc4ezZAc.s:8070   .debug_str:000000000000608c .LASF712
C:\Users\liukai\AppData\Local\Temp\cc4ezZAc.s:7840   .debug_str:000000000000544f .LASF713
C:\Users\liukai\AppData\Local\Temp\cc4ezZAc.s:6868   .debug_str:00000000000022b6 .LASF714
C:\Users\liukai\AppData\Local\Temp\cc4ezZAc.s:6988   .debug_str:0000000000002902 .LASF715
C:\Users\liukai\AppData\Local\Temp\cc4ezZAc.s:6385   .debug_str:00000000000005d3 .LASF716
C:\Users\liukai\AppData\Local\Temp\cc4ezZAc.s:8446   .debug_str:0000000000007591 .LASF717
C:\Users\liukai\AppData\Local\Temp\cc4ezZAc.s:8034   .debug_str:0000000000005ea4 .LASF718
C:\Users\liukai\AppData\Local\Temp\cc4ezZAc.s:7304   .debug_str:0000000000003959 .LASF719
C:\Users\liukai\AppData\Local\Temp\cc4ezZAc.s:8484   .debug_str:000000000000777b .LASF720
C:\Users\liukai\AppData\Local\Temp\cc4ezZAc.s:7400   .debug_str:0000000000003dec .LASF721
C:\Users\liukai\AppData\Local\Temp\cc4ezZAc.s:6726   .debug_str:00000000000018f2 .LASF722
C:\Users\liukai\AppData\Local\Temp\cc4ezZAc.s:7080   .debug_str:0000000000002ddd .LASF723
C:\Users\liukai\AppData\Local\Temp\cc4ezZAc.s:7966   .debug_str:0000000000005ae6 .LASF724
C:\Users\liukai\AppData\Local\Temp\cc4ezZAc.s:6315   .debug_str:0000000000000200 .LASF725
C:\Users\liukai\AppData\Local\Temp\cc4ezZAc.s:6469   .debug_str:0000000000000a56 .LASF726
C:\Users\liukai\AppData\Local\Temp\cc4ezZAc.s:7040   .debug_str:0000000000002be2 .LASF727
C:\Users\liukai\AppData\Local\Temp\cc4ezZAc.s:7098   .debug_str:0000000000002ed7 .LASF728
C:\Users\liukai\AppData\Local\Temp\cc4ezZAc.s:7852   .debug_str:00000000000054cc .LASF729
C:\Users\liukai\AppData\Local\Temp\cc4ezZAc.s:7512   .debug_str:00000000000043d4 .LASF730
C:\Users\liukai\AppData\Local\Temp\cc4ezZAc.s:7126   .debug_str:0000000000003096 .LASF731
C:\Users\liukai\AppData\Local\Temp\cc4ezZAc.s:6840   .debug_str:00000000000020c4 .LASF732
C:\Users\liukai\AppData\Local\Temp\cc4ezZAc.s:7518   .debug_str:0000000000004405 .LASF733
C:\Users\liukai\AppData\Local\Temp\cc4ezZAc.s:7940   .debug_str:00000000000059cf .LASF734
C:\Users\liukai\AppData\Local\Temp\cc4ezZAc.s:7422   .debug_str:0000000000003eee .LASF735
C:\Users\liukai\AppData\Local\Temp\cc4ezZAc.s:6528   .debug_str:0000000000000ebd .LASF736
C:\Users\liukai\AppData\Local\Temp\cc4ezZAc.s:8004   .debug_str:0000000000005d12 .LASF737
C:\Users\liukai\AppData\Local\Temp\cc4ezZAc.s:6485   .debug_str:0000000000000b32 .LASF738
C:\Users\liukai\AppData\Local\Temp\cc4ezZAc.s:6467   .debug_str:0000000000000a43 .LASF739
C:\Users\liukai\AppData\Local\Temp\cc4ezZAc.s:6890   .debug_str:0000000000002399 .LASF740
C:\Users\liukai\AppData\Local\Temp\cc4ezZAc.s:8346   .debug_str:0000000000006f97 .LASF741
C:\Users\liukai\AppData\Local\Temp\cc4ezZAc.s:7658   .debug_str:0000000000004a98 .LASF742
C:\Users\liukai\AppData\Local\Temp\cc4ezZAc.s:6852   .debug_str:0000000000002186 .LASF743
C:\Users\liukai\AppData\Local\Temp\cc4ezZAc.s:6932   .debug_str:00000000000025c7 .LASF744
C:\Users\liukai\AppData\Local\Temp\cc4ezZAc.s:7694   .debug_str:0000000000004c28 .LASF746
C:\Users\liukai\AppData\Local\Temp\cc4ezZAc.s:6916   .debug_str:0000000000002501 .LASF747
C:\Users\liukai\AppData\Local\Temp\cc4ezZAc.s:7320   .debug_str:0000000000003a17 .LASF748
C:\Users\liukai\AppData\Local\Temp\cc4ezZAc.s:8420   .debug_str:000000000000741f .LASF749
C:\Users\liukai\AppData\Local\Temp\cc4ezZAc.s:7986   .debug_str:0000000000005bcb .LASF750
C:\Users\liukai\AppData\Local\Temp\cc4ezZAc.s:7394   .debug_str:0000000000003d8d .LASF751
C:\Users\liukai\AppData\Local\Temp\cc4ezZAc.s:6345   .debug_str:000000000000039b .LASF752
C:\Users\liukai\AppData\Local\Temp\cc4ezZAc.s:6762   .debug_str:0000000000001b81 .LASF753
C:\Users\liukai\AppData\Local\Temp\cc4ezZAc.s:7652   .debug_str:0000000000004a60 .LASF754
C:\Users\liukai\AppData\Local\Temp\cc4ezZAc.s:7186   .debug_str:0000000000003374 .LASF755
C:\Users\liukai\AppData\Local\Temp\cc4ezZAc.s:7742   .debug_str:0000000000004f1c .LASF756
C:\Users\liukai\AppData\Local\Temp\cc4ezZAc.s:6930   .debug_str:000000000000258f .LASF757
C:\Users\liukai\AppData\Local\Temp\cc4ezZAc.s:6275   .debug_str:0000000000000038 .LASF758
C:\Users\liukai\AppData\Local\Temp\cc4ezZAc.s:8052   .debug_str:0000000000005f87 .LASF761
C:\Users\liukai\AppData\Local\Temp\cc4ezZAc.s:6782   .debug_str:0000000000001cdd .LASF762
C:\Users\liukai\AppData\Local\Temp\cc4ezZAc.s:6862   .debug_str:0000000000002233 .LASF763
C:\Users\liukai\AppData\Local\Temp\cc4ezZAc.s:6674   .debug_str:0000000000001662 .LASF764
C:\Users\liukai\AppData\Local\Temp\cc4ezZAc.s:7566   .debug_str:000000000000467c .LASF765
C:\Users\liukai\AppData\Local\Temp\cc4ezZAc.s:6546   .debug_str:0000000000000fb4 .LASF766
C:\Users\liukai\AppData\Local\Temp\cc4ezZAc.s:8262   .debug_str:0000000000006bd1 .LASF767
C:\Users\liukai\AppData\Local\Temp\cc4ezZAc.s:7012   .debug_str:0000000000002a9e .LASF768
C:\Users\liukai\AppData\Local\Temp\cc4ezZAc.s:7504   .debug_str:000000000000439a .LASF769
C:\Users\liukai\AppData\Local\Temp\cc4ezZAc.s:7430   .debug_str:0000000000003f46 .LASF770
C:\Users\liukai\AppData\Local\Temp\cc4ezZAc.s:6526   .debug_str:0000000000000eaf .LASF771
C:\Users\liukai\AppData\Local\Temp\cc4ezZAc.s:7644   .debug_str:0000000000004a16 .LASF772
C:\Users\liukai\AppData\Local\Temp\cc4ezZAc.s:6524   .debug_str:0000000000000ea1 .LASF773
C:\Users\liukai\AppData\Local\Temp\cc4ezZAc.s:7878   .debug_str:000000000000561c .LASF774
C:\Users\liukai\AppData\Local\Temp\cc4ezZAc.s:8364   .debug_str:00000000000070b5 .LASF775
C:\Users\liukai\AppData\Local\Temp\cc4ezZAc.s:6912   .debug_str:00000000000024c7 .LASF776
C:\Users\liukai\AppData\Local\Temp\cc4ezZAc.s:7668   .debug_str:0000000000004aed .LASF777
C:\Users\liukai\AppData\Local\Temp\cc4ezZAc.s:7002   .debug_str:0000000000002a12 .LASF778
C:\Users\liukai\AppData\Local\Temp\cc4ezZAc.s:7132   .debug_str:00000000000030ca .LASF779
C:\Users\liukai\AppData\Local\Temp\cc4ezZAc.s:7268   .debug_str:00000000000037d6 .LASF780
C:\Users\liukai\AppData\Local\Temp\cc4ezZAc.s:6273   .debug_str:000000000000002f .LASF781
C:\Users\liukai\AppData\Local\Temp\cc4ezZAc.s:8190   .debug_str:0000000000006815 .LASF782
C:\Users\liukai\AppData\Local\Temp\cc4ezZAc.s:7700   .debug_str:0000000000004c88 .LASF783
C:\Users\liukai\AppData\Local\Temp\cc4ezZAc.s:7490   .debug_str:0000000000004233 .LASF784
C:\Users\liukai\AppData\Local\Temp\cc4ezZAc.s:8194   .debug_str:000000000000687f .LASF785
C:\Users\liukai\AppData\Local\Temp\cc4ezZAc.s:7178   .debug_str:000000000000330a .LASF786
C:\Users\liukai\AppData\Local\Temp\cc4ezZAc.s:7378   .debug_str:0000000000003d09 .LASF787
C:\Users\liukai\AppData\Local\Temp\cc4ezZAc.s:6898   .debug_str:0000000000002425 .LASF788
C:\Users\liukai\AppData\Local\Temp\cc4ezZAc.s:7972   .debug_str:0000000000005b43 .LASF789
C:\Users\liukai\AppData\Local\Temp\cc4ezZAc.s:6339   .debug_str:0000000000000361 .LASF790
C:\Users\liukai\AppData\Local\Temp\cc4ezZAc.s:6710   .debug_str:0000000000001849 .LASF791
C:\Users\liukai\AppData\Local\Temp\cc4ezZAc.s:7882   .debug_str:0000000000005633 .LASF792
C:\Users\liukai\AppData\Local\Temp\cc4ezZAc.s:7530   .debug_str:0000000000004490 .LASF793
C:\Users\liukai\AppData\Local\Temp\cc4ezZAc.s:6421   .debug_str:0000000000000745 .LASF794
C:\Users\liukai\AppData\Local\Temp\cc4ezZAc.s:6590   .debug_str:00000000000011c2 .LASF795
C:\Users\liukai\AppData\Local\Temp\cc4ezZAc.s:6972   .debug_str:000000000000282b .LASF796
C:\Users\liukai\AppData\Local\Temp\cc4ezZAc.s:7442   .debug_str:0000000000003ffa .LASF797
C:\Users\liukai\AppData\Local\Temp\cc4ezZAc.s:7322   .debug_str:0000000000003a24 .LASF798
C:\Users\liukai\AppData\Local\Temp\cc4ezZAc.s:6337   .debug_str:0000000000000345 .LASF799
C:\Users\liukai\AppData\Local\Temp\cc4ezZAc.s:7386   .debug_str:0000000000003d4d .LASF800
C:\Users\liukai\AppData\Local\Temp\cc4ezZAc.s:8358   .debug_str:000000000000703a .LASF801
C:\Users\liukai\AppData\Local\Temp\cc4ezZAc.s:6856   .debug_str:00000000000021bb .LASF802
C:\Users\liukai\AppData\Local\Temp\cc4ezZAc.s:6838   .debug_str:000000000000206b .LASF803
C:\Users\liukai\AppData\Local\Temp\cc4ezZAc.s:6353   .debug_str:00000000000003f4 .LASF804
C:\Users\liukai\AppData\Local\Temp\cc4ezZAc.s:7484   .debug_str:00000000000041e5 .LASF805
C:\Users\liukai\AppData\Local\Temp\cc4ezZAc.s:8156   .debug_str:000000000000660f .LASF806
C:\Users\liukai\AppData\Local\Temp\cc4ezZAc.s:8102   .debug_str:00000000000062c1 .LASF807
C:\Users\liukai\AppData\Local\Temp\cc4ezZAc.s:8332   .debug_str:0000000000006eff .LASF808
C:\Users\liukai\AppData\Local\Temp\cc4ezZAc.s:7162   .debug_str:0000000000003235 .LASF809
C:\Users\liukai\AppData\Local\Temp\cc4ezZAc.s:7190   .debug_str:00000000000033a0 .LASF810
C:\Users\liukai\AppData\Local\Temp\cc4ezZAc.s:8278   .debug_str:0000000000006cb9 .LASF811
C:\Users\liukai\AppData\Local\Temp\cc4ezZAc.s:6319   .debug_str:0000000000000277 .LASF812
C:\Users\liukai\AppData\Local\Temp\cc4ezZAc.s:7858   .debug_str:0000000000005513 .LASF813
C:\Users\liukai\AppData\Local\Temp\cc4ezZAc.s:8430   .debug_str:000000000000746f .LASF814
C:\Users\liukai\AppData\Local\Temp\cc4ezZAc.s:7000   .debug_str:00000000000029eb .LASF815
C:\Users\liukai\AppData\Local\Temp\cc4ezZAc.s:8496   .debug_str:00000000000079a8 .LASF816
C:\Users\liukai\AppData\Local\Temp\cc4ezZAc.s:7124   .debug_str:000000000000302e .LASF817
C:\Users\liukai\AppData\Local\Temp\cc4ezZAc.s:7376   .debug_str:0000000000003cfc .LASF818
C:\Users\liukai\AppData\Local\Temp\cc4ezZAc.s:8270   .debug_str:0000000000006c5a .LASF820
C:\Users\liukai\AppData\Local\Temp\cc4ezZAc.s:7844   .debug_str:0000000000005479 .LASF821
C:\Users\liukai\AppData\Local\Temp\cc4ezZAc.s:8360   .debug_str:0000000000007095 .LASF822
C:\Users\liukai\AppData\Local\Temp\cc4ezZAc.s:6742   .debug_str:00000000000019a7 .LASF823
C:\Users\liukai\AppData\Local\Temp\cc4ezZAc.s:6740   .debug_str:0000000000001991 .LASF824
C:\Users\liukai\AppData\Local\Temp\cc4ezZAc.s:8302   .debug_str:0000000000006d7f .LASF826
C:\Users\liukai\AppData\Local\Temp\cc4ezZAc.s:8322   .debug_str:0000000000006ea0 .LASF827
C:\Users\liukai\AppData\Local\Temp\cc4ezZAc.s:7558   .debug_str:0000000000004604 .LASF828
C:\Users\liukai\AppData\Local\Temp\cc4ezZAc.s:8000   .debug_str:0000000000005ccb .LASF830
C:\Users\liukai\AppData\Local\Temp\cc4ezZAc.s:8462   .debug_str:000000000000769f .LASF831
C:\Users\liukai\AppData\Local\Temp\cc4ezZAc.s:7864   .debug_str:0000000000005555 .LASF832
C:\Users\liukai\AppData\Local\Temp\cc4ezZAc.s:6926   .debug_str:000000000000256c .LASF833
C:\Users\liukai\AppData\Local\Temp\cc4ezZAc.s:8230   .debug_str:0000000000006a52 .LASF834
C:\Users\liukai\AppData\Local\Temp\cc4ezZAc.s:8036   .debug_str:0000000000005eb7 .LASF835
C:\Users\liukai\AppData\Local\Temp\cc4ezZAc.s:7064   .debug_str:0000000000002d05 .LASF836
C:\Users\liukai\AppData\Local\Temp\cc4ezZAc.s:6279   .debug_str:0000000000000065 .LASF837
C:\Users\liukai\AppData\Local\Temp\cc4ezZAc.s:7298   .debug_str:0000000000003920 .LASF838
C:\Users\liukai\AppData\Local\Temp\cc4ezZAc.s:8404   .debug_str:000000000000735a .LASF839
C:\Users\liukai\AppData\Local\Temp\cc4ezZAc.s:7168   .debug_str:000000000000327f .LASF840
C:\Users\liukai\AppData\Local\Temp\cc4ezZAc.s:8414   .debug_str:00000000000073e0 .LASF841
C:\Users\liukai\AppData\Local\Temp\cc4ezZAc.s:6427   .debug_str:0000000000000840 .LASF842
C:\Users\liukai\AppData\Local\Temp\cc4ezZAc.s:7354   .debug_str:0000000000003bf0 .LASF843
C:\Users\liukai\AppData\Local\Temp\cc4ezZAc.s:8252   .debug_str:0000000000006b26 .LASF844
C:\Users\liukai\AppData\Local\Temp\cc4ezZAc.s:6576   .debug_str:000000000000112a .LASF845
C:\Users\liukai\AppData\Local\Temp\cc4ezZAc.s:8124   .debug_str:0000000000006429 .LASF846
C:\Users\liukai\AppData\Local\Temp\cc4ezZAc.s:6724   .debug_str:00000000000018e8 .LASF847
C:\Users\liukai\AppData\Local\Temp\cc4ezZAc.s:8196   .debug_str:000000000000688b .LASF848
C:\Users\liukai\AppData\Local\Temp\cc4ezZAc.s:7284   .debug_str:0000000000003881 .LASF849
C:\Users\liukai\AppData\Local\Temp\cc4ezZAc.s:8382   .debug_str:0000000000007187 .LASF850
C:\Users\liukai\AppData\Local\Temp\cc4ezZAc.s:8104   .debug_str:00000000000062fa .LASF851
C:\Users\liukai\AppData\Local\Temp\cc4ezZAc.s:6574   .debug_str:000000000000111c .LASF852
C:\Users\liukai\AppData\Local\Temp\cc4ezZAc.s:7754   .debug_str:0000000000004fc8 .LASF853
C:\Users\liukai\AppData\Local\Temp\cc4ezZAc.s:8334   .debug_str:0000000000006f19 .LASF854
C:\Users\liukai\AppData\Local\Temp\cc4ezZAc.s:7750   .debug_str:0000000000004f88 .LASF855
C:\Users\liukai\AppData\Local\Temp\cc4ezZAc.s:8436   .debug_str:00000000000074b9 .LASF856
C:\Users\liukai\AppData\Local\Temp\cc4ezZAc.s:7104   .debug_str:0000000000002f0b .LASF857
C:\Users\liukai\AppData\Local\Temp\cc4ezZAc.s:6734   .debug_str:000000000000195e .LASF858
C:\Users\liukai\AppData\Local\Temp\cc4ezZAc.s:7552   .debug_str:00000000000045a1 .LASF859
C:\Users\liukai\AppData\Local\Temp\cc4ezZAc.s:6493   .debug_str:0000000000000b75 .LASF860
C:\Users\liukai\AppData\Local\Temp\cc4ezZAc.s:6866   .debug_str:000000000000229d .LASF861
C:\Users\liukai\AppData\Local\Temp\cc4ezZAc.s:8470   .debug_str:00000000000076eb .LASF862
C:\Users\liukai\AppData\Local\Temp\cc4ezZAc.s:6894   .debug_str:00000000000023ed .LASF863
C:\Users\liukai\AppData\Local\Temp\cc4ezZAc.s:6676   .debug_str:0000000000001670 .LASF864
C:\Users\liukai\AppData\Local\Temp\cc4ezZAc.s:7766   .debug_str:0000000000005039 .LASF865
C:\Users\liukai\AppData\Local\Temp\cc4ezZAc.s:7510   .debug_str:00000000000043bc .LASF866
C:\Users\liukai\AppData\Local\Temp\cc4ezZAc.s:8398   .debug_str:00000000000072a4 .LASF867
C:\Users\liukai\AppData\Local\Temp\cc4ezZAc.s:8368   .debug_str:00000000000070cd .LASF868
C:\Users\liukai\AppData\Local\Temp\cc4ezZAc.s:6562   .debug_str:000000000000105f .LASF869
C:\Users\liukai\AppData\Local\Temp\cc4ezZAc.s:7982   .debug_str:0000000000005b94 .LASF870
C:\Users\liukai\AppData\Local\Temp\cc4ezZAc.s:6313   .debug_str:00000000000001e1 .LASF871
C:\Users\liukai\AppData\Local\Temp\cc4ezZAc.s:6483   .debug_str:0000000000000b18 .LASF872
C:\Users\liukai\AppData\Local\Temp\cc4ezZAc.s:7980   .debug_str:0000000000005b78 .LASF873
C:\Users\liukai\AppData\Local\Temp\cc4ezZAc.s:7448   .debug_str:000000000000403c .LASF874
C:\Users\liukai\AppData\Local\Temp\cc4ezZAc.s:6433   .debug_str:0000000000000877 .LASF875
C:\Users\liukai\AppData\Local\Temp\cc4ezZAc.s:7008   .debug_str:0000000000002a60 .LASF876
C:\Users\liukai\AppData\Local\Temp\cc4ezZAc.s:7956   .debug_str:0000000000005a6b .LASF877
C:\Users\liukai\AppData\Local\Temp\cc4ezZAc.s:6978   .debug_str:0000000000002859 .LASF878
C:\Users\liukai\AppData\Local\Temp\cc4ezZAc.s:7374   .debug_str:0000000000003ce0 .LASF879
C:\Users\liukai\AppData\Local\Temp\cc4ezZAc.s:8072   .debug_str:0000000000006110 .LASF880
C:\Users\liukai\AppData\Local\Temp\cc4ezZAc.s:7028   .debug_str:0000000000002b27 .LASF881
C:\Users\liukai\AppData\Local\Temp\cc4ezZAc.s:8024   .debug_str:0000000000005dfb .LASF882
C:\Users\liukai\AppData\Local\Temp\cc4ezZAc.s:8114   .debug_str:00000000000063ae .LASF883
C:\Users\liukai\AppData\Local\Temp\cc4ezZAc.s:7372   .debug_str:0000000000003cc6 .LASF884
C:\Users\liukai\AppData\Local\Temp\cc4ezZAc.s:6728   .debug_str:0000000000001906 .LASF885
C:\Users\liukai\AppData\Local\Temp\cc4ezZAc.s:6586   .debug_str:0000000000001189 .LASF886
C:\Users\liukai\AppData\Local\Temp\cc4ezZAc.s:6536   .debug_str:0000000000000f10 .LASF887
C:\Users\liukai\AppData\Local\Temp\cc4ezZAc.s:7812   .debug_str:00000000000052ac .LASF888
C:\Users\liukai\AppData\Local\Temp\cc4ezZAc.s:7532   .debug_str:000000000000449b .LASF889
C:\Users\liukai\AppData\Local\Temp\cc4ezZAc.s:6854   .debug_str:0000000000002199 .LASF890
C:\Users\liukai\AppData\Local\Temp\cc4ezZAc.s:7528   .debug_str:000000000000446c .LASF891
C:\Users\liukai\AppData\Local\Temp\cc4ezZAc.s:7876   .debug_str:00000000000055f3 .LASF892
C:\Users\liukai\AppData\Local\Temp\cc4ezZAc.s:7546   .debug_str:0000000000004558 .LASF893
C:\Users\liukai\AppData\Local\Temp\cc4ezZAc.s:6990   .debug_str:0000000000002917 .LASF894
C:\Users\liukai\AppData\Local\Temp\cc4ezZAc.s:6612   .debug_str:00000000000012d2 .LASF895
C:\Users\liukai\AppData\Local\Temp\cc4ezZAc.s:8464   .debug_str:00000000000076a7 .LASF896
C:\Users\liukai\AppData\Local\Temp\cc4ezZAc.s:6934   .debug_str:00000000000025dd .LASF897
C:\Users\liukai\AppData\Local\Temp\cc4ezZAc.s:7676   .debug_str:0000000000004b44 .LASF898
C:\Users\liukai\AppData\Local\Temp\cc4ezZAc.s:8312   .debug_str:0000000000006dd0 .LASF899
C:\Users\liukai\AppData\Local\Temp\cc4ezZAc.s:7398   .debug_str:0000000000003dc6 .LASF900
C:\Users\liukai\AppData\Local\Temp\cc4ezZAc.s:7254   .debug_str:0000000000003719 .LASF901
C:\Users\liukai\AppData\Local\Temp\cc4ezZAc.s:6760   .debug_str:0000000000001b64 .LASF902
C:\Users\liukai\AppData\Local\Temp\cc4ezZAc.s:7300   .debug_str:0000000000003927 .LASF903
C:\Users\liukai\AppData\Local\Temp\cc4ezZAc.s:6373   .debug_str:000000000000050c .LASF904
C:\Users\liukai\AppData\Local\Temp\cc4ezZAc.s:7086   .debug_str:0000000000002e19 .LASF905
C:\Users\liukai\AppData\Local\Temp\cc4ezZAc.s:7728   .debug_str:0000000000004e58 .LASF906
C:\Users\liukai\AppData\Local\Temp\cc4ezZAc.s:7096   .debug_str:0000000000002eb9 .LASF907
C:\Users\liukai\AppData\Local\Temp\cc4ezZAc.s:6906   .debug_str:0000000000002470 .LASF908
C:\Users\liukai\AppData\Local\Temp\cc4ezZAc.s:6772   .debug_str:0000000000001c35 .LASF909
C:\Users\liukai\AppData\Local\Temp\cc4ezZAc.s:7350   .debug_str:0000000000003bb9 .LASF910
C:\Users\liukai\AppData\Local\Temp\cc4ezZAc.s:7884   .debug_str:000000000000563e .LASF911
C:\Users\liukai\AppData\Local\Temp\cc4ezZAc.s:7922   .debug_str:0000000000005921 .LASF912
C:\Users\liukai\AppData\Local\Temp\cc4ezZAc.s:7232   .debug_str:00000000000035a3 .LASF913
C:\Users\liukai\AppData\Local\Temp\cc4ezZAc.s:8144   .debug_str:00000000000065a0 .LASF914
C:\Users\liukai\AppData\Local\Temp\cc4ezZAc.s:8416   .debug_str:00000000000073f0 .LASF915
C:\Users\liukai\AppData\Local\Temp\cc4ezZAc.s:8308   .debug_str:0000000000006dae .LASF916
C:\Users\liukai\AppData\Local\Temp\cc4ezZAc.s:8016   .debug_str:0000000000005d6c .LASF917
C:\Users\liukai\AppData\Local\Temp\cc4ezZAc.s:7524   .debug_str:0000000000004447 .LASF918
C:\Users\liukai\AppData\Local\Temp\cc4ezZAc.s:7146   .debug_str:000000000000313d .LASF919
C:\Users\liukai\AppData\Local\Temp\cc4ezZAc.s:8166   .debug_str:000000000000668a .LASF920
C:\Users\liukai\AppData\Local\Temp\cc4ezZAc.s:6904   .debug_str:0000000000002456 .LASF921
C:\Users\liukai\AppData\Local\Temp\cc4ezZAc.s:7756   .debug_str:0000000000004fd7 .LASF922
C:\Users\liukai\AppData\Local\Temp\cc4ezZAc.s:6798   .debug_str:0000000000001e06 .LASF925
C:\Users\liukai\AppData\Local\Temp\cc4ezZAc.s:7060   .debug_str:0000000000002cd9 .LASF926
C:\Users\liukai\AppData\Local\Temp\cc4ezZAc.s:6938   .debug_str:0000000000002616 .LASF927
C:\Users\liukai\AppData\Local\Temp\cc4ezZAc.s:7034   .debug_str:0000000000002ba4 .LASF928
C:\Users\liukai\AppData\Local\Temp\cc4ezZAc.s:8380   .debug_str:0000000000007167 .LASF929
C:\Users\liukai\AppData\Local\Temp\cc4ezZAc.s:8174   .debug_str:00000000000066e3 .LASF930
C:\Users\liukai\AppData\Local\Temp\cc4ezZAc.s:7082   .debug_str:0000000000002df2 .LASF931
C:\Users\liukai\AppData\Local\Temp\cc4ezZAc.s:8136   .debug_str:00000000000064af .LASF932
C:\Users\liukai\AppData\Local\Temp\cc4ezZAc.s:7526   .debug_str:0000000000004461 .LASF933
C:\Users\liukai\AppData\Local\Temp\cc4ezZAc.s:7066   .debug_str:0000000000002d0e .LASF934
C:\Users\liukai\AppData\Local\Temp\cc4ezZAc.s:6902   .debug_str:0000000000002440 .LASF935
C:\Users\liukai\AppData\Local\Temp\cc4ezZAc.s:7014   .debug_str:0000000000002aab .LASF936
C:\Users\liukai\AppData\Local\Temp\cc4ezZAc.s:7788   .debug_str:0000000000005169 .LASF937
C:\Users\liukai\AppData\Local\Temp\cc4ezZAc.s:7062   .debug_str:0000000000002ce4 .LASF938
C:\Users\liukai\AppData\Local\Temp\cc4ezZAc.s:7352   .debug_str:0000000000003bd3 .LASF939
C:\Users\liukai\AppData\Local\Temp\cc4ezZAc.s:7606   .debug_str:0000000000004843 .LASF940
C:\Users\liukai\AppData\Local\Temp\cc4ezZAc.s:8338   .debug_str:0000000000006f42 .LASF941
C:\Users\liukai\AppData\Local\Temp\cc4ezZAc.s:7396   .debug_str:0000000000003da4 .LASF942
C:\Users\liukai\AppData\Local\Temp\cc4ezZAc.s:6850   .debug_str:0000000000002164 .LASF943
C:\Users\liukai\AppData\Local\Temp\cc4ezZAc.s:7420   .debug_str:0000000000003ed2 .LASF944
C:\Users\liukai\AppData\Local\Temp\cc4ezZAc.s:7942   .debug_str:00000000000059e0 .LASF945
C:\Users\liukai\AppData\Local\Temp\cc4ezZAc.s:7478   .debug_str:000000000000418c .LASF946
C:\Users\liukai\AppData\Local\Temp\cc4ezZAc.s:7780   .debug_str:00000000000050f8 .LASF947
C:\Users\liukai\AppData\Local\Temp\cc4ezZAc.s:8412   .debug_str:00000000000073b3 .LASF948
C:\Users\liukai\AppData\Local\Temp\cc4ezZAc.s:6656   .debug_str:0000000000001558 .LASF949
C:\Users\liukai\AppData\Local\Temp\cc4ezZAc.s:7500   .debug_str:000000000000434e .LASF950
C:\Users\liukai\AppData\Local\Temp\cc4ezZAc.s:6688   .debug_str:000000000000172d .LASF951
C:\Users\liukai\AppData\Local\Temp\cc4ezZAc.s:7902   .debug_str:000000000000575e .LASF952
C:\Users\liukai\AppData\Local\Temp\cc4ezZAc.s:7364   .debug_str:0000000000003c35 .LASF953
                           .group:0000000000000000 wm4.0.37aa6d340f8b0e49c613fc152d20c88a
                           .group:0000000000000000 wm4._newlib_version.h.4.875b979a44719054cd750d0952ad3fd6
                           .group:0000000000000000 wm4.newlib.h.18.cf6bb52154a7abac63b0afb962204a67
                           .group:0000000000000000 wm4.ieeefp.h.193.a04996ad6548b0579a40a1f708027f95
                           .group:0000000000000000 wm4.features.h.22.fad1cec3bc7ff06488171438dbdcfd02
                           .group:0000000000000000 wm4.config.h.79.b548f69d9f69fceadec535dc005f68c6
                           .group:0000000000000000 wm4._ansi.h.31.de524f58584151836e90d8620a16f8e8
                           .group:0000000000000000 wm4.stdio.h.31.7c0e28c411445f3f9c5b11accf882760
                           .group:0000000000000000 wm4._default_types.h.6.959254cf5f09734ea7516c89e8bb21bd
                           .group:0000000000000000 wm4.stddef.h.187.2ff233552538c6ff9b8575ca8ea52cb3
                           .group:0000000000000000 wm4.cdefs.h.47.9b1aff81ebf9fd459c1248694f70fc96
                           .group:0000000000000000 wm4.stddef.h.39.ec95e8feac892e292b69dc7ae75b0d64
                           .group:0000000000000000 wm4.stdarg.h.34.3a23a216c0c293b3d2ea2e89281481e6
                           .group:0000000000000000 wm4.lock.h.2.1461d1fff82dffe8bfddc23307f6484f
                           .group:0000000000000000 wm4._types.h.125.5cf8a495f1f7ef36777ad868a1e32068
                           .group:0000000000000000 wm4.stddef.h.161.5349cb105733e8777bfb0cf53c4e3f34
                           .group:0000000000000000 wm4._types.h.184.7120b8bb2e0149e2359704f4e2251b68
                           .group:0000000000000000 wm4.reent.h.17.87376802c2b370b32a762f0a30482d9e
                           .group:0000000000000000 wm4.types.h.40.e8c16e7ec36ba55f133d0616070e25fc
                           .group:0000000000000000 wm4._stdint.h.10.c24fa3af3bc1706662bb5593a907e841
                           .group:0000000000000000 wm4._endian.h.18.1bf9649e8e5bbc91042012680270b9ed
                           .group:0000000000000000 wm4.endian.h.9.49f3a4695c1b61e8a0808de3c4a106cb
                           .group:0000000000000000 wm4._timeval.h.30.0e8bfd94e85db17dda3286ee81496fe6
                           .group:0000000000000000 wm4.timespec.h.41.d855182eb0e690443ab8651bcedca6e1
                           .group:0000000000000000 wm4.select.h.30.bbece7fa40993a78092dcc5805132560
                           .group:0000000000000000 wm4.types.h.69.ed3eae3cf73030a737515151ebcab7a1
                           .group:0000000000000000 wm4.sched.h.22.c60982713a5c428609783c78f9c78d95
                           .group:0000000000000000 wm4._pthreadtypes.h.36.fcee9961c35163dde6267ef772ad1972
                           .group:0000000000000000 wm4.stdio.h.2.4aa87247282eca6c8f36f9de33d8df1a
                           .group:0000000000000000 wm4.stdio.h.81.932d0c162786b883f622b8d05c120c78
                           .group:0000000000000000 wm4.config.h.15.8a43118bb129bb57a6209f6e7e39cd57
                           .group:0000000000000000 wm4._intsup.h.10.cce27fed8484c08a33f522034c30d2b5
                           .group:0000000000000000 wm4.stdint.h.23.d53047a68f4a85177f80b422d52785ed
                           .group:0000000000000000 wm4.stdbool.h.29.07dce69c3b78884144b7f7bd19483461
                           .group:0000000000000000 wm4.picorv32.h.23.1beb83b07770a1ba2f5d16665d13d6c4

UNDEFINED SYMBOLS
irq00_flag
irq13_flag
irq20_flag
irq21_flag
printf
