   1              		.file	"irq.c"
   2              		.option nopic
   3              		.text
   4              	.Ltext0:
   5              		.cfi_sections	.debug_frame
   6              		.globl	tmp
   7              		.section	.sbss.tmp,"aw",@nobits
   8              		.align	2
  11              	tmp:
  12 0000 00000000 		.zero	4
  13              		.globl	val
  14              		.section	.sbss.val,"aw",@nobits
  15              		.align	2
  18              	val:
  19 0000 00000000 		.zero	4
  20              		.section	.rodata
  21              		.align	2
  22              	.LC0:
  23 0000 496C6C65 		.string	"Illegal Ins at 0x"
  23      67616C20 
  23      496E7320 
  23      61742030 
  23      7800
  24 0012 0000     		.align	2
  25              	.LC1:
  26 0014 25780D0A 		.string	"%x\r\n"
  26      00
  27 0019 000000   		.align	2
  28              	.LC2:
  29 001c 3A203078 		.string	": 0x"
  29      00
  30 0021 000000   		.align	2
  31              	.LC3:
  32 0024 42757320 		.string	"Bus error at 0x"
  32      6572726F 
  32      72206174 
  32      20307800 
  33              		.section	.text.irq,"ax",@progbits
  34              		.align	1
  35              		.globl	irq
  37              	irq:
  38              	.LFB3:
  39              		.file 1 "../src/irq.c"
   1:../src/irq.c  **** /*
   2:../src/irq.c  ****  * *****************************************************************************************
   3:../src/irq.c  ****  *
   4:../src/irq.c  ****  * 		Copyright (C) 2014-2022 Gowin Semiconductor Technology Co.,Ltd.
   5:../src/irq.c  ****  *
   6:../src/irq.c  ****  * @file		irq.c
   7:../src/irq.c  ****  * @author		Embedded Development Team
   8:../src/irq.c  ****  * @version		V1.2.x
   9:../src/irq.c  ****  * @date		2022-01-01 09:00:00
  10:../src/irq.c  ****  * @brief		Interrupt request.
  11:../src/irq.c  ****  ******************************************************************************************
  12:../src/irq.c  ****  */
  13:../src/irq.c  **** 
  14:../src/irq.c  **** /* Includes --------------------------------------------------------------------- */
  15:../src/irq.c  **** #include <stdio.h>
  16:../src/irq.c  **** #include "firmware.h"
  17:../src/irq.c  **** #include "simpleuart.h"
  18:../src/irq.c  **** #include "picorv32.h"
  19:../src/irq.c  **** #include "wbuart.h"
  20:../src/irq.c  **** #include "irq.h"
  21:../src/irq.c  **** #include "config.h"
  22:../src/irq.c  **** 
  23:../src/irq.c  **** /* Variables --------------------------------------------------------------------- */
  24:../src/irq.c  **** uint32_t tmp = 0;
  25:../src/irq.c  **** uint32_t val = 0;
  26:../src/irq.c  **** 
  27:../src/irq.c  **** extern uint8_t irq00_flag;
  28:../src/irq.c  **** extern uint8_t irq13_flag;
  29:../src/irq.c  **** extern uint8_t irq20_flag;
  30:../src/irq.c  **** extern uint8_t irq21_flag;
  31:../src/irq.c  **** //can add other interrupt by user's need
  32:../src/irq.c  **** 
  33:../src/irq.c  **** #ifdef USE_WBUART
  34:../src/irq.c  **** #define get_char()  wbuart_getc()
  35:../src/irq.c  **** #define put_char(c)  wbuart_putc(c)
  36:../src/irq.c  **** #else
  37:../src/irq.c  **** #define get_char()  uart_getchar()
  38:../src/irq.c  **** #define put_char(c)  uart_putchar(c)
  39:../src/irq.c  **** #endif
  40:../src/irq.c  **** 
  41:../src/irq.c  **** /* Functions --------------------------------------------------------------------- */
  42:../src/irq.c  **** uint32_t *irq(uint32_t *regs, uint32_t irqs)
  43:../src/irq.c  **** {
  40              		.loc 1 43 1
  41              		.cfi_startproc
  42 0000 7971     		addi	sp,sp,-48
  43              		.cfi_def_cfa_offset 48
  44 0002 06D6     		sw	ra,44(sp)
  45 0004 22D4     		sw	s0,40(sp)
  46              		.cfi_offset 1, -4
  47              		.cfi_offset 8, -8
  48 0006 0018     		addi	s0,sp,48
  49              		.cfi_def_cfa 8, 0
  50 0008 232EA4FC 		sw	a0,-36(s0)
  51 000c 232CB4FC 		sw	a1,-40(s0)
  44:../src/irq.c  **** 	volatile uint32_t mask = mask_irq(0xffffffff) | irqs;
  52              		.loc 1 44 27
  53 0010 7D55     		li	a0,-1
  54 0012 97000000 		call	mask_irq
  54      E7800000 
  55 001a 2A87     		mv	a4,a0
  56              		.loc 1 44 48
  57 001c 832784FD 		lw	a5,-40(s0)
  58 0020 D98F     		or	a5,a4,a5
  59              		.loc 1 44 20
  60 0022 2322F4FE 		sw	a5,-28(s0)
  45:../src/irq.c  **** 	mask_irq(mask);
  61              		.loc 1 45 2
  62 0026 832744FE 		lw	a5,-28(s0)
  63 002a 3E85     		mv	a0,a5
  64 002c 97000000 		call	mask_irq
  64      E7800000 
  46:../src/irq.c  **** 
  47:../src/irq.c  **** 	if ((irqs & 1) != 0)
  65              		.loc 1 47 12
  66 0034 832784FD 		lw	a5,-40(s0)
  67 0038 858B     		andi	a5,a5,1
  68              		.loc 1 47 5
  69 003a 81CB     		beqz	a5,.L2
  48:../src/irq.c  **** 	{
  49:../src/irq.c  **** 		irq00_flag = 1;
  70              		.loc 1 49 14
  71 003c 97070000 		lla	a5,irq00_flag
  71      93870700 
  72 0044 0547     		li	a4,1
  73 0046 2380E700 		sb	a4,0(a5)
  74              	.L2:
  50:../src/irq.c  **** 	}
  51:../src/irq.c  **** 
  52:../src/irq.c  **** 	if ((irqs & (1<<13)) != 0)
  75              		.loc 1 52 12
  76 004a 032784FD 		lw	a4,-40(s0)
  77 004e 8967     		li	a5,8192
  78 0050 F98F     		and	a5,a4,a5
  79              		.loc 1 52 5
  80 0052 81CB     		beqz	a5,.L3
  53:../src/irq.c  **** 	{
  54:../src/irq.c  **** 		irq13_flag = 1;
  81              		.loc 1 54 14
  82 0054 97070000 		lla	a5,irq13_flag
  82      93870700 
  83 005c 0547     		li	a4,1
  84 005e 2380E700 		sb	a4,0(a5)
  85              	.L3:
  55:../src/irq.c  **** 	}
  56:../src/irq.c  **** 
  57:../src/irq.c  **** 	if ((irqs & (1<<20)) != 0)
  86              		.loc 1 57 12
  87 0062 032784FD 		lw	a4,-40(s0)
  88 0066 B7071000 		li	a5,1048576
  89 006a F98F     		and	a5,a4,a5
  90              		.loc 1 57 5
  91 006c 81CB     		beqz	a5,.L4
  58:../src/irq.c  **** 	{
  59:../src/irq.c  **** 		irq20_flag = 1;
  92              		.loc 1 59 14
  93 006e 97070000 		lla	a5,irq20_flag
  93      93870700 
  94 0076 0547     		li	a4,1
  95 0078 2380E700 		sb	a4,0(a5)
  96              	.L4:
  60:../src/irq.c  **** 	}
  61:../src/irq.c  **** 
  62:../src/irq.c  **** 	if ((irqs & (1<<21)) != 0)
  97              		.loc 1 62 12
  98 007c 032784FD 		lw	a4,-40(s0)
  99 0080 B7072000 		li	a5,2097152
 100 0084 F98F     		and	a5,a4,a5
 101              		.loc 1 62 5
 102 0086 81CB     		beqz	a5,.L5
  63:../src/irq.c  **** 	{
  64:../src/irq.c  **** 		irq21_flag = 1;
 103              		.loc 1 64 14
 104 0088 97070000 		lla	a5,irq21_flag
 104      93870700 
 105 0090 0547     		li	a4,1
 106 0092 2380E700 		sb	a4,0(a5)
 107              	.L5:
  65:../src/irq.c  **** 	}
  66:../src/irq.c  **** 
  67:../src/irq.c  **** 
  68:../src/irq.c  **** 	if ((irqs & 14) != 0)
 108              		.loc 1 68 12
 109 0096 832784FD 		lw	a5,-40(s0)
 110 009a B98B     		andi	a5,a5,14
 111              		.loc 1 68 5
 112 009c F5CB     		beqz	a5,.L6
 113              	.LBB2:
  69:../src/irq.c  **** 	{
  70:../src/irq.c  **** 		uint32_t pc = (regs[0] & 1) ? regs[0] - 3 : regs[0] - 4;
 114              		.loc 1 70 22
 115 009e 8327C4FD 		lw	a5,-36(s0)
 116 00a2 9C43     		lw	a5,0(a5)
 117              		.loc 1 70 26
 118 00a4 858B     		andi	a5,a5,1
 119              		.loc 1 70 45
 120 00a6 91C7     		beqz	a5,.L7
 121              		.loc 1 70 37 discriminator 1
 122 00a8 8327C4FD 		lw	a5,-36(s0)
 123 00ac 9C43     		lw	a5,0(a5)
 124              		.loc 1 70 45 discriminator 1
 125 00ae F517     		addi	a5,a5,-3
 126 00b0 29A0     		j	.L8
 127              	.L7:
 128              		.loc 1 70 51 discriminator 2
 129 00b2 8327C4FD 		lw	a5,-36(s0)
 130 00b6 9C43     		lw	a5,0(a5)
 131              		.loc 1 70 45 discriminator 2
 132 00b8 F117     		addi	a5,a5,-4
 133              	.L8:
 134              		.loc 1 70 12 discriminator 4
 135 00ba 2324F4FE 		sw	a5,-24(s0)
  71:../src/irq.c  **** 		uint32_t instr = *(uint16_t*)pc;
 136              		.loc 1 71 21 discriminator 4
 137 00be 832784FE 		lw	a5,-24(s0)
 138              		.loc 1 71 20 discriminator 4
 139 00c2 83D70700 		lhu	a5,0(a5)
 140              		.loc 1 71 12 discriminator 4
 141 00c6 2326F4FE 		sw	a5,-20(s0)
  72:../src/irq.c  **** 
  73:../src/irq.c  **** 		if ((instr & 3) == 3)
 142              		.loc 1 73 14 discriminator 4
 143 00ca 8327C4FE 		lw	a5,-20(s0)
 144 00ce 13F73700 		andi	a4,a5,3
 145              		.loc 1 73 6 discriminator 4
 146 00d2 8D47     		li	a5,3
 147 00d4 631EF700 		bne	a4,a5,.L9
  74:../src/irq.c  **** 		{
  75:../src/irq.c  **** 			instr = instr | (*(uint16_t*)(pc + 2)) << 16;
 148              		.loc 1 75 37
 149 00d8 832784FE 		lw	a5,-24(s0)
 150 00dc 8907     		addi	a5,a5,2
 151              		.loc 1 75 21
 152 00de 83D70700 		lhu	a5,0(a5)
 153              		.loc 1 75 43
 154 00e2 C207     		slli	a5,a5,16
 155 00e4 3E87     		mv	a4,a5
 156              		.loc 1 75 10
 157 00e6 8327C4FE 		lw	a5,-20(s0)
 158 00ea D98F     		or	a5,a5,a4
 159 00ec 2326F4FE 		sw	a5,-20(s0)
 160              	.L9:
  76:../src/irq.c  **** 		}
  77:../src/irq.c  **** 
  78:../src/irq.c  **** 		if ((irqs & 8) != 0)
 161              		.loc 1 78 13
 162 00f0 832784FD 		lw	a5,-40(s0)
 163 00f4 A18B     		andi	a5,a5,8
 164              		.loc 1 78 6
 165 00f6 A9C7     		beqz	a5,.L10
  79:../src/irq.c  **** 		{
  80:../src/irq.c  **** 			printf("Illegal Ins at 0x");
 166              		.loc 1 80 4
 167 00f8 17050000 		lla	a0,.LC0
 167      13050500 
 168 0100 97000000 		call	printf
 168      E7800000 
  81:../src/irq.c  **** 			printf("%x\r\n", pc);
 169              		.loc 1 81 4
 170 0108 832584FE 		lw	a1,-24(s0)
 171 010c 17050000 		lla	a0,.LC1
 171      13050500 
 172 0114 97000000 		call	printf
 172      E7800000 
  82:../src/irq.c  **** 			printf(": 0x");
 173              		.loc 1 82 4
 174 011c 17050000 		lla	a0,.LC2
 174      13050500 
 175 0124 97000000 		call	printf
 175      E7800000 
  83:../src/irq.c  **** 			printf("%x\r\n", instr);
 176              		.loc 1 83 4
 177 012c 8325C4FE 		lw	a1,-20(s0)
 178 0130 17050000 		lla	a0,.LC1
 178      13050500 
 179 0138 97000000 		call	printf
 179      E7800000 
 180              	.L10:
  84:../src/irq.c  **** 		}
  85:../src/irq.c  **** 
  86:../src/irq.c  **** 		if ((irqs & 4) != 0)
 181              		.loc 1 86 13
 182 0140 832784FD 		lw	a5,-40(s0)
 183 0144 918B     		andi	a5,a5,4
 184              		.loc 1 86 6
 185 0146 A9C7     		beqz	a5,.L6
  87:../src/irq.c  **** 		{
  88:../src/irq.c  **** 			printf("Bus error at 0x");
 186              		.loc 1 88 4
 187 0148 17050000 		lla	a0,.LC3
 187      13050500 
 188 0150 97000000 		call	printf
 188      E7800000 
  89:../src/irq.c  **** 			printf("%x\r\n", pc);
 189              		.loc 1 89 4
 190 0158 832584FE 		lw	a1,-24(s0)
 191 015c 17050000 		lla	a0,.LC1
 191      13050500 
 192 0164 97000000 		call	printf
 192      E7800000 
  90:../src/irq.c  **** 			printf(": 0x");
 193              		.loc 1 90 4
 194 016c 17050000 		lla	a0,.LC2
 194      13050500 
 195 0174 97000000 		call	printf
 195      E7800000 
  91:../src/irq.c  **** 			printf("%x\r\n", instr);
 196              		.loc 1 91 4
 197 017c 8325C4FE 		lw	a1,-20(s0)
 198 0180 17050000 		lla	a0,.LC1
 198      13050500 
 199 0188 97000000 		call	printf
 199      E7800000 
 200              	.L6:
 201              	.LBE2:
  92:../src/irq.c  **** 		}
  93:../src/irq.c  **** 	}
  94:../src/irq.c  **** 
  95:../src/irq.c  **** 	return regs;
 202              		.loc 1 95 9
 203 0190 8327C4FD 		lw	a5,-36(s0)
  96:../src/irq.c  **** }
 204              		.loc 1 96 1
 205 0194 3E85     		mv	a0,a5
 206 0196 B250     		lw	ra,44(sp)
 207              		.cfi_restore 1
 208 0198 2254     		lw	s0,40(sp)
 209              		.cfi_restore 8
 210 019a 4561     		addi	sp,sp,48
 211              		.cfi_def_cfa_register 2
 212 019c 8280     		jr	ra
 213              		.cfi_endproc
 214              	.LFE3:
 216              		.section	.text.return_from_irq,"ax",@progbits
 217              		.align	1
 218              		.globl	return_from_irq
 220              	return_from_irq:
 221              	.LFB4:
  97:../src/irq.c  **** 
  98:../src/irq.c  **** void __attribute__((naked, optimize("O0"))) return_from_irq (void)
  99:../src/irq.c  **** {
 222              		.loc 1 99 1
 223              		.cfi_startproc
 100:../src/irq.c  **** 	__asm__ __volatile__(".word(0x0000c08b)");
 224              		.loc 1 100 2
 225              	 #APP
 226              	# 100 "../src/irq.c" 1
 101              		__asm__ __volatile__(".word(0x0001410b)");
 227              		.word(0x0000c08b)
 228              	# 0 "" 2
 229              		.loc 1 101 2
 230              	# 101 "../src/irq.c" 1
 102              		__asm__ __volatile__(".word(0x0400000b)");
 231              		.word(0x0001410b)
 232              	# 0 "" 2
 233              		.loc 1 102 2
 234              	# 102 "../src/irq.c" 1
 103              	}
 235              		.word(0x0400000b)
 236              	# 0 "" 2
 237              		.loc 1 103 1
 238              	 #NO_APP
 239 000c 0100     		nop
 240              		.cfi_endproc
 241              	.LFE4:
 243              		.section	.text.mask_irq,"ax",@progbits
 244              		.align	1
 245              		.globl	mask_irq
 247              	mask_irq:
 248              	.LFB5:
 104:../src/irq.c  **** 
 105:../src/irq.c  **** //mask irq
 106:../src/irq.c  **** inline uint32_t mask_irq(uint32_t mask)
 107:../src/irq.c  **** {
 249              		.loc 1 107 1
 250              		.cfi_startproc
 251 0000 7971     		addi	sp,sp,-48
 252              		.cfi_def_cfa_offset 48
 253 0002 22D6     		sw	s0,44(sp)
 254              		.cfi_offset 8, -4
 255 0004 0018     		addi	s0,sp,48
 256              		.cfi_def_cfa 8, 0
 257 0006 232EA4FC 		sw	a0,-36(s0)
 108:../src/irq.c  **** 	uint32_t old_mask;
 109:../src/irq.c  **** 	__asm__ __volatile__("mv a4, a0");
 258              		.loc 1 109 2
 259              	 #APP
 260              	# 109 "../src/irq.c" 1
 110              		__asm__ __volatile__(".word(0x0607678b)");
 261              		mv a4, a0
 262              	# 0 "" 2
 263              		.loc 1 110 2
 264              	# 110 "../src/irq.c" 1
 111              		__asm__ __volatile__("add %[dest], x0, a5" :[dest]"=r"(old_mask));
 265              		.word(0x0607678b)
 266              	# 0 "" 2
 267              		.loc 1 111 2
 268              	# 111 "../src/irq.c" 1
 112              		return old_mask;
 269              		add a5, x0, a5
 270              	# 0 "" 2
 271              	 #NO_APP
 272 0014 2326F4FE 		sw	a5,-20(s0)
 273              		.loc 1 112 9
 274 0018 8327C4FE 		lw	a5,-20(s0)
 113:../src/irq.c  **** }
 275              		.loc 1 113 1
 276 001c 3E85     		mv	a0,a5
 277 001e 3254     		lw	s0,44(sp)
 278              		.cfi_restore 8
 279 0020 4561     		addi	sp,sp,48
 280              		.cfi_def_cfa_register 2
 281 0022 8280     		jr	ra
 282              		.cfi_endproc
 283              	.LFE5:
 285              		.section	.text.irq_enable_one_bit,"ax",@progbits
 286              		.align	1
 287              		.globl	irq_enable_one_bit
 289              	irq_enable_one_bit:
 290              	.LFB6:
 114:../src/irq.c  **** 
 115:../src/irq.c  **** //enable a local interrupt
 116:../src/irq.c  **** inline void irq_enable_one_bit(uint32_t irq_num)
 117:../src/irq.c  **** {
 291              		.loc 1 117 1
 292              		.cfi_startproc
 293 0000 7971     		addi	sp,sp,-48
 294              		.cfi_def_cfa_offset 48
 295 0002 06D6     		sw	ra,44(sp)
 296 0004 22D4     		sw	s0,40(sp)
 297              		.cfi_offset 1, -4
 298              		.cfi_offset 8, -8
 299 0006 0018     		addi	s0,sp,48
 300              		.cfi_def_cfa 8, 0
 301 0008 232EA4FC 		sw	a0,-36(s0)
 118:../src/irq.c  **** 	uint32_t mask = 0;
 302              		.loc 1 118 11
 303 000c 232604FE 		sw	zero,-20(s0)
 119:../src/irq.c  **** 	mask = mask_irq(0xffffffff);
 304              		.loc 1 119 9
 305 0010 7D55     		li	a0,-1
 306 0012 97000000 		call	mask_irq
 306      E7800000 
 307 001a 2326A4FE 		sw	a0,-20(s0)
 120:../src/irq.c  **** 	mask = mask & (~(1 << irq_num));
 308              		.loc 1 120 21
 309 001e 8327C4FD 		lw	a5,-36(s0)
 310 0022 0547     		li	a4,1
 311 0024 B317F700 		sll	a5,a4,a5
 312              		.loc 1 120 17
 313 0028 93C7F7FF 		not	a5,a5
 314 002c 3E87     		mv	a4,a5
 315              		.loc 1 120 7
 316 002e 8327C4FE 		lw	a5,-20(s0)
 317 0032 F98F     		and	a5,a5,a4
 318 0034 2326F4FE 		sw	a5,-20(s0)
 121:../src/irq.c  **** 	mask_irq(mask);
 319              		.loc 1 121 2
 320 0038 0325C4FE 		lw	a0,-20(s0)
 321 003c 97000000 		call	mask_irq
 321      E7800000 
 122:../src/irq.c  **** 	return;
 322              		.loc 1 122 2
 323 0044 0100     		nop
 123:../src/irq.c  **** }
 324              		.loc 1 123 1
 325 0046 B250     		lw	ra,44(sp)
 326              		.cfi_restore 1
 327 0048 2254     		lw	s0,40(sp)
 328              		.cfi_restore 8
 329 004a 4561     		addi	sp,sp,48
 330              		.cfi_def_cfa_register 2
 331 004c 8280     		jr	ra
 332              		.cfi_endproc
 333              	.LFE6:
 335              		.section	.text.irq_disable_one_bit,"ax",@progbits
 336              		.align	1
 337              		.globl	irq_disable_one_bit
 339              	irq_disable_one_bit:
 340              	.LFB7:
 124:../src/irq.c  **** 
 125:../src/irq.c  **** //disable a local interrupt
 126:../src/irq.c  **** inline void irq_disable_one_bit(uint32_t irq_num)
 127:../src/irq.c  **** {
 341              		.loc 1 127 1
 342              		.cfi_startproc
 343 0000 7971     		addi	sp,sp,-48
 344              		.cfi_def_cfa_offset 48
 345 0002 06D6     		sw	ra,44(sp)
 346 0004 22D4     		sw	s0,40(sp)
 347              		.cfi_offset 1, -4
 348              		.cfi_offset 8, -8
 349 0006 0018     		addi	s0,sp,48
 350              		.cfi_def_cfa 8, 0
 351 0008 232EA4FC 		sw	a0,-36(s0)
 128:../src/irq.c  **** 	uint32_t mask = 0;
 352              		.loc 1 128 11
 353 000c 232604FE 		sw	zero,-20(s0)
 129:../src/irq.c  **** 	mask = mask_irq(0xffffffff);
 354              		.loc 1 129 9
 355 0010 7D55     		li	a0,-1
 356 0012 97000000 		call	mask_irq
 356      E7800000 
 357 001a 2326A4FE 		sw	a0,-20(s0)
 130:../src/irq.c  **** 	mask = mask | (1 << irq_num);
 358              		.loc 1 130 19
 359 001e 8327C4FD 		lw	a5,-36(s0)
 360 0022 0547     		li	a4,1
 361 0024 B317F700 		sll	a5,a4,a5
 362 0028 3E87     		mv	a4,a5
 363              		.loc 1 130 7
 364 002a 8327C4FE 		lw	a5,-20(s0)
 365 002e D98F     		or	a5,a5,a4
 366 0030 2326F4FE 		sw	a5,-20(s0)
 131:../src/irq.c  **** 	mask_irq(mask);
 367              		.loc 1 131 2
 368 0034 0325C4FE 		lw	a0,-20(s0)
 369 0038 97000000 		call	mask_irq
 369      E7800000 
 132:../src/irq.c  **** 	return;
 370              		.loc 1 132 2
 371 0040 0100     		nop
 133:../src/irq.c  **** }
 372              		.loc 1 133 1
 373 0042 B250     		lw	ra,44(sp)
 374              		.cfi_restore 1
 375 0044 2254     		lw	s0,40(sp)
 376              		.cfi_restore 8
 377 0046 4561     		addi	sp,sp,48
 378              		.cfi_def_cfa_register 2
 379 0048 8280     		jr	ra
 380              		.cfi_endproc
 381              	.LFE7:
 383              		.section	.text.enable_external_interrupt,"ax",@progbits
 384              		.align	1
 385              		.globl	enable_external_interrupt
 387              	enable_external_interrupt:
 388              	.LFB8:
 134:../src/irq.c  **** 
 135:../src/irq.c  **** //enable external interrupts
 136:../src/irq.c  **** //register 'mie' 's external interrupt bit
 137:../src/irq.c  **** inline void enable_external_interrupt(void)
 138:../src/irq.c  **** {
 389              		.loc 1 138 1
 390              		.cfi_startproc
 391 0000 4111     		addi	sp,sp,-16
 392              		.cfi_def_cfa_offset 16
 393 0002 22C6     		sw	s0,12(sp)
 394              		.cfi_offset 8, -4
 395 0004 0008     		addi	s0,sp,16
 396              		.cfi_def_cfa 8, 0
 139:../src/irq.c  **** 	__asm__ __volatile__("csrr   t4, mie");
 397              		.loc 1 139 2
 398              	 #APP
 399              	# 139 "../src/irq.c" 1
 140              		__asm__ __volatile__("li     t5, 0x800");
 400              		csrr   t4, mie
 401              	# 0 "" 2
 402              		.loc 1 140 2
 403              	# 140 "../src/irq.c" 1
 141              		__asm__ __volatile__("or    t4, t4, t5");
 404              		li     t5, 0x800
 405              	# 0 "" 2
 406              		.loc 1 141 2
 407              	# 141 "../src/irq.c" 1
 142              		__asm__ __volatile__("csrrw  t5, mie, t4");
 408              		or    t4, t4, t5
 409              	# 0 "" 2
 410              		.loc 1 142 2
 411              	# 142 "../src/irq.c" 1
 143              	}
 412              		csrrw  t5, mie, t4
 413              	# 0 "" 2
 414              		.loc 1 143 1
 415              	 #NO_APP
 416 001a 0100     		nop
 417 001c 3244     		lw	s0,12(sp)
 418              		.cfi_restore 8
 419 001e 4101     		addi	sp,sp,16
 420              		.cfi_def_cfa_register 2
 421 0020 8280     		jr	ra
 422              		.cfi_endproc
 423              	.LFE8:
 425              		.section	.text.disable_external_interrupt,"ax",@progbits
 426              		.align	1
 427              		.globl	disable_external_interrupt
 429              	disable_external_interrupt:
 430              	.LFB9:
 144:../src/irq.c  **** 
 145:../src/irq.c  **** //disable external interrupts
 146:../src/irq.c  **** //register 'mie' 's external interrupt bit
 147:../src/irq.c  **** inline void disable_external_interrupt(void)
 148:../src/irq.c  **** {
 431              		.loc 1 148 1
 432              		.cfi_startproc
 433 0000 4111     		addi	sp,sp,-16
 434              		.cfi_def_cfa_offset 16
 435 0002 22C6     		sw	s0,12(sp)
 436              		.cfi_offset 8, -4
 437 0004 0008     		addi	s0,sp,16
 438              		.cfi_def_cfa 8, 0
 149:../src/irq.c  **** 	__asm__ __volatile__("csrr   t4, mie");
 439              		.loc 1 149 2
 440              	 #APP
 441              	# 149 "../src/irq.c" 1
 150              		__asm__ __volatile__("li     t5, 0xfffff7ff");
 442              		csrr   t4, mie
 443              	# 0 "" 2
 444              		.loc 1 150 2
 445              	# 150 "../src/irq.c" 1
 151              		__asm__ __volatile__("and    t4, t4, t5");
 446              		li     t5, 0xfffff7ff
 447              	# 0 "" 2
 448              		.loc 1 151 2
 449              	# 151 "../src/irq.c" 1
 152              		__asm__ __volatile__("csrrw  t5, mie, t4");
 450              		and    t4, t4, t5
 451              	# 0 "" 2
 452              		.loc 1 152 2
 453              	# 152 "../src/irq.c" 1
 153              	}
 454              		csrrw  t5, mie, t4
 455              	# 0 "" 2
 456              		.loc 1 153 1
 457              	 #NO_APP
 458 001a 0100     		nop
 459 001c 3244     		lw	s0,12(sp)
 460              		.cfi_restore 8
 461 001e 4101     		addi	sp,sp,16
 462              		.cfi_def_cfa_register 2
 463 0020 8280     		jr	ra
 464              		.cfi_endproc
 465              	.LFE9:
 467              		.section	.text.enable_timer_interrupt,"ax",@progbits
 468              		.align	1
 469              		.globl	enable_timer_interrupt
 471              	enable_timer_interrupt:
 472              	.LFB10:
 154:../src/irq.c  **** 
 155:../src/irq.c  **** //enable timer interrupt
 156:../src/irq.c  **** //register 'mie' 's timer interrupt bit
 157:../src/irq.c  **** inline void enable_timer_interrupt(void)
 158:../src/irq.c  **** {
 473              		.loc 1 158 1
 474              		.cfi_startproc
 475 0000 4111     		addi	sp,sp,-16
 476              		.cfi_def_cfa_offset 16
 477 0002 22C6     		sw	s0,12(sp)
 478              		.cfi_offset 8, -4
 479 0004 0008     		addi	s0,sp,16
 480              		.cfi_def_cfa 8, 0
 159:../src/irq.c  **** 	__asm__ __volatile__("csrr   t4, mie");
 481              		.loc 1 159 2
 482              	 #APP
 483              	# 159 "../src/irq.c" 1
 160              		__asm__ __volatile__("li     t5, 0x80");
 484              		csrr   t4, mie
 485              	# 0 "" 2
 486              		.loc 1 160 2
 487              	# 160 "../src/irq.c" 1
 161              		__asm__ __volatile__("or     t4, t4, t5");
 488              		li     t5, 0x80
 489              	# 0 "" 2
 490              		.loc 1 161 2
 491              	# 161 "../src/irq.c" 1
 162              		__asm__ __volatile__("csrrw  t5, mie, t4");
 492              		or     t4, t4, t5
 493              	# 0 "" 2
 494              		.loc 1 162 2
 495              	# 162 "../src/irq.c" 1
 163              	}
 496              		csrrw  t5, mie, t4
 497              	# 0 "" 2
 498              		.loc 1 163 1
 499              	 #NO_APP
 500 0016 0100     		nop
 501 0018 3244     		lw	s0,12(sp)
 502              		.cfi_restore 8
 503 001a 4101     		addi	sp,sp,16
 504              		.cfi_def_cfa_register 2
 505 001c 8280     		jr	ra
 506              		.cfi_endproc
 507              	.LFE10:
 509              		.section	.text.disable_timer_interrupt,"ax",@progbits
 510              		.align	1
 511              		.globl	disable_timer_interrupt
 513              	disable_timer_interrupt:
 514              	.LFB11:
 164:../src/irq.c  **** 
 165:../src/irq.c  **** //disable timer interrupt
 166:../src/irq.c  **** //register 'mie' 's mie interrupt bit
 167:../src/irq.c  **** inline void disable_timer_interrupt(void)
 168:../src/irq.c  **** {
 515              		.loc 1 168 1
 516              		.cfi_startproc
 517 0000 4111     		addi	sp,sp,-16
 518              		.cfi_def_cfa_offset 16
 519 0002 22C6     		sw	s0,12(sp)
 520              		.cfi_offset 8, -4
 521 0004 0008     		addi	s0,sp,16
 522              		.cfi_def_cfa 8, 0
 169:../src/irq.c  **** 	__asm__ __volatile__("csrr   t4, mie");
 523              		.loc 1 169 2
 524              	 #APP
 525              	# 169 "../src/irq.c" 1
 170              		__asm__ __volatile__("li     t5, 0xffffff7f");
 526              		csrr   t4, mie
 527              	# 0 "" 2
 528              		.loc 1 170 2
 529              	# 170 "../src/irq.c" 1
 171              		__asm__ __volatile__("and    t4, t4, t5");
 530              		li     t5, 0xffffff7f
 531              	# 0 "" 2
 532              		.loc 1 171 2
 533              	# 171 "../src/irq.c" 1
 172              		__asm__ __volatile__("csrrw  t5, mie, t4");
 534              		and    t4, t4, t5
 535              	# 0 "" 2
 536              		.loc 1 172 2
 537              	# 172 "../src/irq.c" 1
 173              	}
 538              		csrrw  t5, mie, t4
 539              	# 0 "" 2
 540              		.loc 1 173 1
 541              	 #NO_APP
 542 0016 0100     		nop
 543 0018 3244     		lw	s0,12(sp)
 544              		.cfi_restore 8
 545 001a 4101     		addi	sp,sp,16
 546              		.cfi_def_cfa_register 2
 547 001c 8280     		jr	ra
 548              		.cfi_endproc
 549              	.LFE11:
 551              		.section	.text.enable_interrupt_global,"ax",@progbits
 552              		.align	1
 553              		.globl	enable_interrupt_global
 555              	enable_interrupt_global:
 556              	.LFB12:
 174:../src/irq.c  **** 
 175:../src/irq.c  **** //enable global interrupt
 176:../src/irq.c  **** //register 'mstatus' 's 'MIE' bit (global interrupt)
 177:../src/irq.c  **** inline void enable_interrupt_global(void)
 178:../src/irq.c  **** {
 557              		.loc 1 178 1
 558              		.cfi_startproc
 559 0000 4111     		addi	sp,sp,-16
 560              		.cfi_def_cfa_offset 16
 561 0002 22C6     		sw	s0,12(sp)
 562              		.cfi_offset 8, -4
 563 0004 0008     		addi	s0,sp,16
 564              		.cfi_def_cfa 8, 0
 179:../src/irq.c  **** 	__asm__ __volatile__("csrrwi t5, mstatus, 8");
 565              		.loc 1 179 2
 566              	 #APP
 567              	# 179 "../src/irq.c" 1
 180              	}
 568              		csrrwi t5, mstatus, 8
 569              	# 0 "" 2
 570              		.loc 1 180 1
 571              	 #NO_APP
 572 000a 0100     		nop
 573 000c 3244     		lw	s0,12(sp)
 574              		.cfi_restore 8
 575 000e 4101     		addi	sp,sp,16
 576              		.cfi_def_cfa_register 2
 577 0010 8280     		jr	ra
 578              		.cfi_endproc
 579              	.LFE12:
 581              		.section	.text.disable_interrupt_global,"ax",@progbits
 582              		.align	1
 583              		.globl	disable_interrupt_global
 585              	disable_interrupt_global:
 586              	.LFB13:
 181:../src/irq.c  **** 
 182:../src/irq.c  **** //disable global interrupt
 183:../src/irq.c  **** //register 'mstatus' 's 'MIE' bit (global interrupt)
 184:../src/irq.c  **** inline void disable_interrupt_global(void)
 185:../src/irq.c  **** {
 587              		.loc 1 185 1
 588              		.cfi_startproc
 589 0000 4111     		addi	sp,sp,-16
 590              		.cfi_def_cfa_offset 16
 591 0002 22C6     		sw	s0,12(sp)
 592              		.cfi_offset 8, -4
 593 0004 0008     		addi	s0,sp,16
 594              		.cfi_def_cfa 8, 0
 186:../src/irq.c  **** 	__asm__ __volatile__("csrrwi t5, mstatus, 0");
 595              		.loc 1 186 2
 596              	 #APP
 597              	# 186 "../src/irq.c" 1
 187              	}
 598              		csrrwi t5, mstatus, 0
 599              	# 0 "" 2
 600              		.loc 1 187 1
 601              	 #NO_APP
 602 000a 0100     		nop
 603 000c 3244     		lw	s0,12(sp)
 604              		.cfi_restore 8
 605 000e 4101     		addi	sp,sp,16
 606              		.cfi_def_cfa_register 2
 607 0010 8280     		jr	ra
 608              		.cfi_endproc
 609              	.LFE13:
 611              		.section	.text.set_timer,"ax",@progbits
 612              		.align	1
 613              		.globl	set_timer
 615              	set_timer:
 616              	.LFB14:
 188:../src/irq.c  **** 
 189:../src/irq.c  **** //set timer
 190:../src/irq.c  **** uint32_t set_timer(uint32_t timer_val)
 191:../src/irq.c  **** {
 617              		.loc 1 191 1
 618              		.cfi_startproc
 619 0000 7971     		addi	sp,sp,-48
 620              		.cfi_def_cfa_offset 48
 621 0002 22D6     		sw	s0,44(sp)
 622              		.cfi_offset 8, -4
 623 0004 0018     		addi	s0,sp,48
 624              		.cfi_def_cfa 8, 0
 625 0006 232EA4FC 		sw	a0,-36(s0)
 192:../src/irq.c  **** 	uint32_t old_val = 0;
 626              		.loc 1 192 11
 627 000a 232604FE 		sw	zero,-20(s0)
 193:../src/irq.c  **** 	__asm__ __volatile__("mv a4, a0");
 628              		.loc 1 193 2
 629              	 #APP
 630              	# 193 "../src/irq.c" 1
 194              		__asm__ __volatile__(".word(0x0a07078b)");
 631              		mv a4, a0
 632              	# 0 "" 2
 633              		.loc 1 194 2
 634              	# 194 "../src/irq.c" 1
 195              		__asm__ __volatile__("mv %[dest], a5"  :[dest]"=r"(old_val));
 635              		.word(0x0a07078b)
 636              	# 0 "" 2
 637              		.loc 1 195 2
 638              	# 195 "../src/irq.c" 1
 196              		return old_val;
 639              		mv a5, a5
 640              	# 0 "" 2
 641              	 #NO_APP
 642 0016 2326F4FE 		sw	a5,-20(s0)
 643              		.loc 1 196 9
 644 001a 8327C4FE 		lw	a5,-20(s0)
 197:../src/irq.c  **** }
 645              		.loc 1 197 1
 646 001e 3E85     		mv	a0,a5
 647 0020 3254     		lw	s0,44(sp)
 648              		.cfi_restore 8
 649 0022 4561     		addi	sp,sp,48
 650              		.cfi_def_cfa_register 2
 651 0024 8280     		jr	ra
 652              		.cfi_endproc
 653              	.LFE14:
 655              		.text
 656              	.Letext0:
 657              		.file 2 "c:\\gmd\\toolchain\\risc-v_toolchain\\riscv-none-embed\\include\\machine\\_default_types.
 658              		.file 3 "c:\\gmd\\toolchain\\risc-v_toolchain\\riscv-none-embed\\include\\sys\\lock.h"
 659              		.file 4 "c:\\gmd\\toolchain\\risc-v_toolchain\\riscv-none-embed\\include\\sys\\_types.h"
 660              		.file 5 "c:\\gmd\\toolchain\\risc-v_toolchain\\lib\\gcc\\riscv-none-embed\\8.2.0\\include\\stddef.
 661              		.file 6 "c:\\gmd\\toolchain\\risc-v_toolchain\\riscv-none-embed\\include\\sys\\reent.h"
 662              		.file 7 "c:\\gmd\\toolchain\\risc-v_toolchain\\riscv-none-embed\\include\\sys\\_stdint.h"