   1              		.file	"main.c"
   2              		.option nopic
   3              		.text
   4              	.Ltext0:
   5              		.cfi_sections	.debug_frame
   6              		.globl	irq00_flag
   7              		.section	.sbss.irq00_flag,"aw",@nobits
  10              	irq00_flag:
  11 0000 00       		.zero	1
  12              		.globl	irq13_flag
  13              		.section	.sbss.irq13_flag,"aw",@nobits
  16              	irq13_flag:
  17 0000 00       		.zero	1
  18              		.globl	irq20_flag
  19              		.section	.sbss.irq20_flag,"aw",@nobits
  22              	irq20_flag:
  23 0000 00       		.zero	1
  24              		.globl	irq21_flag
  25              		.section	.sbss.irq21_flag,"aw",@nobits
  28              	irq21_flag:
  29 0000 00       		.zero	1
  30              		.globl	tx_buffer
  31              		.section	.data.tx_buffer,"aw"
  32              		.align	2
  35              	tx_buffer:
  36 0000 00       		.byte	0
  37 0001 01       		.byte	1
  38 0002 02       		.byte	2
  39 0003 03       		.byte	3
  40 0004 04       		.byte	4
  41 0005 05       		.byte	5
  42 0006 06       		.byte	6
  43 0007 07       		.byte	7
  44 0008 08       		.byte	8
  45 0009 09       		.byte	9
  46 000a 00000000 		.zero	90
  46      00000000 
  46      00000000 
  46      00000000 
  46      00000000 
  47              		.globl	rx_buffer
  48              		.section	.bss.rx_buffer,"aw",@nobits
  49              		.align	2
  52              	rx_buffer:
  53 0000 00000000 		.zero	100
  53      00000000 
  53      00000000 
  53      00000000 
  53      00000000 
  54              		.globl	timer_count
  55              		.section	.sbss.timer_count,"aw",@nobits
  56              		.align	2
  59              	timer_count:
  60 0000 00000000 		.zero	4
  61              		.globl	wbuart_rx_buffer
  62              		.section	.sbss.wbuart_rx_buffer,"aw",@nobits
  63              		.align	2
  66              	wbuart_rx_buffer:
  67 0000 00000000 		.zero	4
  68              		.section	.rodata
  69              		.align	2
  70              	.LC0:
  71 0000 0D0A2D2D 		.string	"\r\n------------- Gowin RiscV MCU <PicoRV32> Demo (for mergebin) ----------------\r\n"
  71      2D2D2D2D 
  71      2D2D2D2D 
  71      2D2D2D20 
  71      476F7769 
  72 0052 0000     		.align	2
  73              	.LC1:
  74 0054 0D0A4D43 		.string	"\r\nMCU boot from and run in ITCM.\r\n"
  74      5520626F 
  74      6F742066 
  74      726F6D20 
  74      616E6420 
  75 0077 00       		.align	2
  76              	.LC2:
  77 0078 0D0A00   		.string	"\r\n"
  78 007b 00       		.align	2
  79              	.LC3:
  80 007c 0D0A456E 		.string	"\r\nEnter timer interrupt...\r\n"
  80      74657220 
  80      74696D65 
  80      7220696E 
  80      74657272 
  81 0099 000000   		.align	2
  82              	.LC4:
  83 009c 54696D65 		.string	"Timer interrupt counter : %8d\r\n"
  83      7220696E 
  83      74657272 
  83      75707420 
  83      636F756E 
  84              		.align	2
  85              	.LC5:
  86 00bc 0D0A456E 		.string	"\r\nEnter WBUART RX interrupt...\r\n"
  86      74657220 
  86      57425541 
  86      52542052 
  86      5820696E 
  87 00dd 000000   		.align	2
  88              	.LC6:
  89 00e0 52656365 		.string	"Receive a byte in WBUART RX interrupt : %x\r\n"
  89      69766520 
  89      61206279 
  89      74652069 
  89      6E205742 
  90 010d 000000   		.align	2
  91              	.LC7:
  92 0110 0D0A5072 		.string	"\r\nPress button 1, enter an external interrupt 20...\r\n"
  92      65737320 
  92      62757474 
  92      6F6E2031 
  92      2C20656E 
  93 0146 0000     		.align	2
  94              	.LC8:
  95 0148 496E7465 		.string	"Interrupt 20 is triggered by button 1\r\n"
  95      72727570 
  95      74203230 
  95      20697320 
  95      74726967 
  96              		.align	2
  97              	.LC9:
  98 0170 0D0A5072 		.string	"\r\nPress button 2, enter an external interrupt 21...\r\n"
  98      65737320 
  98      62757474 
  98      6F6E2032 
  98      2C20656E 
  99 01a6 0000     		.align	2
 100              	.LC10:
 101 01a8 496E7465 		.string	"Interrupt 21 is triggered by button 2\r\n"
 101      72727570 
 101      74203231 
 101      20697320 
 101      74726967 
 102              		.section	.text.main,"ax",@progbits
 103              		.align	1
 104              		.globl	main
 106              	main:
 107              	.LFB3:
 108              		.file 1 "../src/main.c"
   1:../src/main.c **** /*
   2:../src/main.c ****  * *****************************************************************************************
   3:../src/main.c ****  *
   4:../src/main.c ****  * 		Copyright (C) 2014-2022 Gowin Semiconductor Technology Co.,Ltd.
   5:../src/main.c ****  *
   6:../src/main.c ****  * @file		main.c
   7:../src/main.c ****  * @author		Embedded Development Team
   8:../src/main.c ****  * @version		V1.2.x
   9:../src/main.c ****  * @date		2022-01-01 09:00:00
  10:../src/main.c ****  * @brief		Main body.
  11:../src/main.c ****  ******************************************************************************************
  12:../src/main.c ****  */
  13:../src/main.c **** 
  14:../src/main.c **** /* Includes --------------------------------------------------------------------- */
  15:../src/main.c **** #include "config.h"
  16:../src/main.c **** #include "picorv32.h"
  17:../src/main.c **** #include "firmware.h"
  18:../src/main.c **** #include "irq.h"
  19:../src/main.c **** #include "simpleuart.h"
  20:../src/main.c **** #include "wbuart.h"
  21:../src/main.c **** #include "wbgpio.h"
  22:../src/main.c **** #include "wbspiflash.h"
  23:../src/main.c **** 
  24:../src/main.c **** /* Macros -----------------------------------------------------------------------------------------
  25:../src/main.c **** //UART
  26:../src/main.c **** #ifdef USE_WBUART
  27:../src/main.c **** #define get_char()   wbuart_getc()
  28:../src/main.c **** #define put_char(c)  wbuart_putc(c)
  29:../src/main.c **** #else
  30:../src/main.c **** #define get_char()   uart_getchar()
  31:../src/main.c **** #define put_char(c)  uart_putchar(c)
  32:../src/main.c **** #endif
  33:../src/main.c **** 
  34:../src/main.c **** //Open AHB extended interface
  35:../src/main.c **** //Register Definitions
  36:../src/main.c **** typedef struct {
  37:../src/main.c **** 	__IO unsigned int REG0;  //0x00
  38:../src/main.c **** 	__IO unsigned int REG1;  //0x04
  39:../src/main.c **** } AHBREGDEMO_RegDef;
  40:../src/main.c **** 
  41:../src/main.c **** //Address Definitions
  42:../src/main.c **** #define AHBREGDEMO_BASE         OPEN_AHB_BASE
  43:../src/main.c **** #define PICO_AHBREGDEMO        ((AHBREGDEMO_RegDef  *)    AHBREGDEMO_BASE )
  44:../src/main.c **** 
  45:../src/main.c **** //Open WB extended interface
  46:../src/main.c **** //Register Definitions
  47:../src/main.c **** typedef struct {
  48:../src/main.c **** 	__IO unsigned int REG0;  //0x00
  49:../src/main.c **** 	__IO unsigned int REG1;  //0x04
  50:../src/main.c **** 	__IO unsigned int REG2;  //0x08
  51:../src/main.c **** } WBREGDEMO_RegDef;
  52:../src/main.c **** 
  53:../src/main.c **** //Address Definitions
  54:../src/main.c **** #define WBREGDEMO0_BASE         OPEN_WB_BASE
  55:../src/main.c **** #define PICO_WBREGDEMO0        ((WBREGDEMO_RegDef   *)    WBREGDEMO0_BASE )
  56:../src/main.c **** 
  57:../src/main.c **** /* Variables --------------------------------------------------------------------------------------
  58:../src/main.c **** uint8_t irq00_flag = 0;	//timer interrupt
  59:../src/main.c **** uint8_t irq13_flag = 0;	//wbuart interrutp
  60:../src/main.c **** uint8_t irq20_flag = 0; //an external button interrupt
  61:../src/main.c **** uint8_t irq21_flag = 0; //an external button interrupt
  62:../src/main.c **** //please see other interrupt in user manual
  63:../src/main.c **** 
  64:../src/main.c **** uint8_t tx_buffer[100] = {0,1,2,3,4,5,6,7,8,9};
  65:../src/main.c **** uint8_t rx_buffer[100] = {0};
  66:../src/main.c **** 
  67:../src/main.c **** uint32_t timer_count = 0;
  68:../src/main.c **** uint32_t wbuart_rx_buffer = 0;
  69:../src/main.c **** 
  70:../src/main.c **** /* Declarations -----------------------------------------------------------------------------------
  71:../src/main.c **** void gpio_out_demo(void);
  72:../src/main.c **** void wbreg_demo(void);
  73:../src/main.c **** void ahbreg_demo(void);
  74:../src/main.c **** void uart_rx_demo(void);
  75:../src/main.c **** void spi_flash_demo(void);
  76:../src/main.c **** 
  77:../src/main.c **** /* Functions --------------------------------------------------------------------------------------
  78:../src/main.c **** int __attribute__((optimize("O0"))) main(void)
  79:../src/main.c **** {
 109              		.loc 1 79 1
 110              		.cfi_startproc
 111 0000 4111     		addi	sp,sp,-16
 112              		.cfi_def_cfa_offset 16
 113 0002 06C6     		sw	ra,12(sp)
 114 0004 22C4     		sw	s0,8(sp)
 115              		.cfi_offset 1, -4
 116              		.cfi_offset 8, -8
 117 0006 0008     		addi	s0,sp,16
 118              		.cfi_def_cfa 8, 0
  80:../src/main.c **** 	//close all interrupt
  81:../src/main.c **** 	mask_irq(0xffffffff);
 119              		.loc 1 81 2
 120 0008 7D55     		li	a0,-1
 121 000a 97000000 		call	mask_irq
 121      E7800000 
  82:../src/main.c **** 
  83:../src/main.c **** 	//Initializes peripherals
  84:../src/main.c **** #ifdef USE_WBUART
  85:../src/main.c **** 	wbuart_init(115200);	//Initializes WBUART
 122              		.loc 1 85 2
 123 0012 F167     		li	a5,114688
 124 0014 13850720 		addi	a0,a5,512
 125 0018 97000000 		call	wbuart_init
 125      E7800000 
  86:../src/main.c **** #else
  87:../src/main.c **** 	uart_init(115200);		//Initializes SimpleUART
  88:../src/main.c **** #endif
  89:../src/main.c **** 	spi_flash_init();		//Initializes SPI-Flash
 126              		.loc 1 89 2
 127 0020 97000000 		call	spi_flash_init
 127      E7800000 
  90:../src/main.c **** 	GPIO_Init(PICO_WBGPIO);	//Initializes GPIO
 128              		.loc 1 90 2
 129 0028 37150011 		li	a0,285216768
 130 002c 97000000 		call	GPIO_Init
 130      E7800000 
  91:../src/main.c **** 	
  92:../src/main.c **** 	//interrupt 0 is timer interrupt,
  93:../src/main.c **** 	//interrupt 2 is bus misaligned error warning,
  94:../src/main.c **** 	//interrupt 3 is illegal instruction warning,
  95:../src/main.c **** 	//interrupt 20 and 21 is two demo interrupt, triggered by two buttons.
  96:../src/main.c **** 	irq_enable_one_bit(0);			//enable timer interrupt
 131              		.loc 1 96 2
 132 0034 0145     		li	a0,0
 133 0036 97000000 		call	irq_enable_one_bit
 133      E7800000 
  97:../src/main.c **** 	irq_enable_one_bit(2);			//enable bus misaligned exception
 134              		.loc 1 97 2
 135 003e 0945     		li	a0,2
 136 0040 97000000 		call	irq_enable_one_bit
 136      E7800000 
  98:../src/main.c **** 	irq_enable_one_bit(3);			//enable illegal instruction exception
 137              		.loc 1 98 2
 138 0048 0D45     		li	a0,3
 139 004a 97000000 		call	irq_enable_one_bit
 139      E7800000 
  99:../src/main.c **** 
 100:../src/main.c **** 	enable_external_interrupt();	//enable external interrupt
 140              		.loc 1 100 2
 141 0052 97000000 		call	enable_external_interrupt
 141      E7800000 
 101:../src/main.c **** 	enable_timer_interrupt();		//enable timer interrupt
 142              		.loc 1 101 2
 143 005a 97000000 		call	enable_timer_interrupt
 143      E7800000 
 102:../src/main.c **** 
 103:../src/main.c **** 	enable_interrupt_global();		//enable global interrupt
 144              		.loc 1 103 2
 145 0062 97000000 		call	enable_interrupt_global
 145      E7800000 
 104:../src/main.c **** 	
 105:../src/main.c **** 	printf("\r\n------------- Gowin RiscV MCU <PicoRV32> Demo (for mergebin) ----------------\r\n");
 146              		.loc 1 105 2
 147 006a 17050000 		lla	a0,.LC0
 147      13050500 
 148 0072 97000000 		call	printf
 148      E7800000 
 106:../src/main.c **** 
 107:../src/main.c **** #if BUILD_MODE == BUILD_LOAD
 108:../src/main.c **** 	printf("\r\nMCU boot from and run in ITCM.\r\n");
 149              		.loc 1 108 2
 150 007a 17050000 		lla	a0,.LC1
 150      13050500 
 151 0082 97000000 		call	printf
 151      E7800000 
 109:../src/main.c **** #endif
 110:../src/main.c **** 
 111:../src/main.c **** #if BUILD_MODE == BUILD_BURN
 112:../src/main.c **** 	printf("\r\nMCU boot from external flash and run in ITCM.\r\n");
 113:../src/main.c **** #endif
 114:../src/main.c **** 
 115:../src/main.c **** #if BUILD_MODE == BUILD_XIP
 116:../src/main.c **** 	printf("\r\nMCU boot from and run in external flash.\r\n");
 117:../src/main.c **** #endif
 118:../src/main.c **** 
 119:../src/main.c **** 	printf("\r\n");
 152              		.loc 1 119 2
 153 008a 17050000 		lla	a0,.LC2
 153      13050500 
 154 0092 97000000 		call	printf
 154      E7800000 
 120:../src/main.c **** 
 121:../src/main.c **** 	delay(SYSCLKFREQ >> 1);
 155              		.loc 1 121 2
 156 009a B7877D01 		li	a5,25001984
 157 009e 13850784 		addi	a0,a5,-1984
 158 00a2 97000000 		call	delay
 158      E7800000 
 122:../src/main.c **** 
 123:../src/main.c **** 	wbreg_demo(); 		//demostrate the peripheral connected to the mcu through the open wishbone interfa
 159              		.loc 1 123 2
 160 00aa 97000000 		call	wbreg_demo
 160      E7800000 
 124:../src/main.c **** 	ahbreg_demo();		//demostrate the peripheral connected to the mcu through the open ahb interface
 161              		.loc 1 124 2
 162 00b2 97000000 		call	ahbreg_demo
 162      E7800000 
 125:../src/main.c **** 	spi_flash_demo();	//demostrate the spi-flash
 163              		.loc 1 125 2
 164 00ba 97000000 		call	spi_flash_demo
 164      E7800000 
 126:../src/main.c **** 	gpio_out_demo(); 	//demostrate the gpio output function with the led on dev board.
 165              		.loc 1 126 2
 166 00c2 97000000 		call	gpio_out_demo
 166      E7800000 
 127:../src/main.c **** 	uart_rx_demo(); 	//demostrate the wbuart's rx, it wait until you input a byte through the uart ter
 167              		.loc 1 127 2
 168 00ca 97000000 		call	uart_rx_demo
 168      E7800000 
 128:../src/main.c **** 
 129:../src/main.c **** 	stats();			//
 169              		.loc 1 129 2
 170 00d2 97000000 		call	stats
 170      E7800000 
 130:../src/main.c **** 
 131:../src/main.c **** 	GPIO_SetDir(PICO_WBGPIO, 0x0000000f);
 171              		.loc 1 131 2
 172 00da BD45     		li	a1,15
 173 00dc 37150011 		li	a0,285216768
 174 00e0 97000000 		call	GPIO_SetDir
 174      E7800000 
 132:../src/main.c **** 	GPIO_WriteData(PICO_WBGPIO, 0xffffffff);  //reset the gpio's condition
 175              		.loc 1 132 2
 176 00e8 FD55     		li	a1,-1
 177 00ea 37150011 		li	a0,285216768
 178 00ee 97000000 		call	GPIO_WriteData
 178      E7800000 
 133:../src/main.c **** 	set_timer(SYSCLKFREQ>>1); //set the timer a non-zero value, this will start the timer automaticall
 179              		.loc 1 133 2
 180 00f6 B7877D01 		li	a5,25001984
 181 00fa 13850784 		addi	a0,a5,-1984
 182 00fe 97000000 		call	set_timer
 182      E7800000 
 134:../src/main.c **** 
 135:../src/main.c **** 	//enable wbuart rx interrupt
 136:../src/main.c **** 	irq_enable_one_bit(13);
 183              		.loc 1 136 2
 184 0106 3545     		li	a0,13
 185 0108 97000000 		call	irq_enable_one_bit
 185      E7800000 
 186              	.L8:
 137:../src/main.c **** 
 138:../src/main.c **** 	while(1)
 139:../src/main.c **** 	{
 140:../src/main.c **** 		if(irq00_flag == 1)  //timer interrupt
 187              		.loc 1 140 17
 188 0110 97070000 		lla	a5,irq00_flag
 188      93870700 
 189 0118 03C70700 		lbu	a4,0(a5)
 190              		.loc 1 140 5
 191 011c 8547     		li	a5,1
 192 011e 631CF70C 		bne	a4,a5,.L2
 141:../src/main.c **** 		{
 142:../src/main.c **** 			printf("\r\nEnter timer interrupt...\r\n");
 193              		.loc 1 142 4
 194 0122 17050000 		lla	a0,.LC3
 194      13050500 
 195 012a 97000000 		call	printf
 195      E7800000 
 143:../src/main.c **** 			//when timer interrupt is triggered, change the led situation, and output a count message throug
 144:../src/main.c **** 			//then set the timer value again and start a new timer counting process.
 145:../src/main.c **** 			irq00_flag = 0;
 196              		.loc 1 145 15
 197 0132 97070000 		lla	a5,irq00_flag
 197      93870700 
 198 013a 23800700 		sb	zero,0(a5)
 146:../src/main.c **** 			GPIO_WriteData(PICO_WBGPIO, ~(timer_count & 0xf));
 199              		.loc 1 146 46
 200 013e 97070000 		lla	a5,timer_count
 200      93870700 
 201 0146 9C43     		lw	a5,0(a5)
 202 0148 BD8B     		andi	a5,a5,15
 203              		.loc 1 146 4
 204 014a 93C7F7FF 		not	a5,a5
 205 014e BE85     		mv	a1,a5
 206 0150 37150011 		li	a0,285216768
 207 0154 97000000 		call	GPIO_WriteData
 207      E7800000 
 147:../src/main.c **** 			printf("Timer interrupt counter : %8d\r\n", timer_count);
 208              		.loc 1 147 4
 209 015c 97070000 		lla	a5,timer_count
 209      93870700 
 210 0164 9C43     		lw	a5,0(a5)
 211 0166 BE85     		mv	a1,a5
 212 0168 17050000 		lla	a0,.LC4
 212      13050500 
 213 0170 97000000 		call	printf
 213      E7800000 
 148:../src/main.c **** 			timer_count++;
 214              		.loc 1 148 15
 215 0178 97070000 		lla	a5,timer_count
 215      93870700 
 216 0180 9C43     		lw	a5,0(a5)
 217 0182 13871700 		addi	a4,a5,1
 218 0186 97070000 		lla	a5,timer_count
 218      93870700 
 219 018e 98C3     		sw	a4,0(a5)
 149:../src/main.c **** 			if(timer_count == 16)
 220              		.loc 1 149 19
 221 0190 97070000 		lla	a5,timer_count
 221      93870700 
 222 0198 9843     		lw	a4,0(a5)
 223              		.loc 1 149 6
 224 019a C147     		li	a5,16
 225 019c 631DF700 		bne	a4,a5,.L3
 150:../src/main.c **** 			{
 151:../src/main.c **** 				irq_disable_one_bit(20);	//disable external interrupt 20, button 1
 226              		.loc 1 151 5
 227 01a0 5145     		li	a0,20
 228 01a2 97000000 		call	irq_disable_one_bit
 228      E7800000 
 152:../src/main.c **** 				irq_disable_one_bit(21);	//disable external interrupt 21, button 2
 229              		.loc 1 152 5
 230 01aa 5545     		li	a0,21
 231 01ac 97000000 		call	irq_disable_one_bit
 231      E7800000 
 232 01b4 25A0     		j	.L4
 233              	.L3:
 153:../src/main.c **** 			}
 154:../src/main.c **** 			else if(timer_count == 32)
 234              		.loc 1 154 24
 235 01b6 97070000 		lla	a5,timer_count
 235      93870700 
 236 01be 9843     		lw	a4,0(a5)
 237              		.loc 1 154 11
 238 01c0 93070002 		li	a5,32
 239 01c4 631CF700 		bne	a4,a5,.L4
 155:../src/main.c **** 			{
 156:../src/main.c **** 				irq_enable_one_bit(20);		//enable external interrupt 20, button 1
 240              		.loc 1 156 5
 241 01c8 5145     		li	a0,20
 242 01ca 97000000 		call	irq_enable_one_bit
 242      E7800000 
 157:../src/main.c **** 				irq_enable_one_bit(21);		//enable external interrupt 21, button 2
 243              		.loc 1 157 5
 244 01d2 5545     		li	a0,21
 245 01d4 97000000 		call	irq_enable_one_bit
 245      E7800000 
 246              	.L4:
 158:../src/main.c **** 			}
 159:../src/main.c **** 
 160:../src/main.c **** 			set_timer(SYSCLKFREQ>>1);  //this will set the timer interval as 1 second.
 247              		.loc 1 160 4
 248 01dc B7877D01 		li	a5,25001984
 249 01e0 13850784 		addi	a0,a5,-1984
 250 01e4 97000000 		call	set_timer
 250      E7800000 
 161:../src/main.c **** 
 162:../src/main.c **** 			irq_enable_one_bit(0);
 251              		.loc 1 162 4
 252 01ec 0145     		li	a0,0
 253 01ee 97000000 		call	irq_enable_one_bit
 253      E7800000 
 254              	.L2:
 163:../src/main.c **** 		}
 164:../src/main.c **** 
 165:../src/main.c **** 		if(irq13_flag == 1)  //wbuart rx interrupt
 255              		.loc 1 165 17
 256 01f6 97070000 		lla	a5,irq13_flag
 256      93870700 
 257 01fe 03C70700 		lbu	a4,0(a5)
 258              		.loc 1 165 5
 259 0202 8547     		li	a5,1
 260 0204 631EF704 		bne	a4,a5,.L5
 166:../src/main.c **** 		{
 167:../src/main.c **** 			printf("\r\nEnter WBUART RX interrupt...\r\n");
 261              		.loc 1 167 4
 262 0208 17050000 		lla	a0,.LC5
 262      13050500 
 263 0210 97000000 		call	printf
 263      E7800000 
 168:../src/main.c **** 			//when a byte is received, the wbuart interrupt will be triggered
 169:../src/main.c **** 			//display it on uart terminal and move on.
 170:../src/main.c **** 			irq13_flag = 0;
 264              		.loc 1 170 15
 265 0218 97070000 		lla	a5,irq13_flag
 265      93870700 
 266 0220 23800700 		sb	zero,0(a5)
 171:../src/main.c **** 			wbuart_rx_buffer = wbuart_getc();
 267              		.loc 1 171 23
 268 0224 97000000 		call	wbuart_getc
 268      E7800000 
 269 022c AA87     		mv	a5,a0
 270 022e 3E87     		mv	a4,a5
 271              		.loc 1 171 21
 272 0230 97070000 		lla	a5,wbuart_rx_buffer
 272      93870700 
 273 0238 98C3     		sw	a4,0(a5)
 172:../src/main.c **** 			printf("Receive a byte in WBUART RX interrupt : %x\r\n", wbuart_rx_buffer);
 274              		.loc 1 172 4
 275 023a 97070000 		lla	a5,wbuart_rx_buffer
 275      93870700 
 276 0242 9C43     		lw	a5,0(a5)
 277 0244 BE85     		mv	a1,a5
 278 0246 17050000 		lla	a0,.LC6
 278      13050500 
 279 024e 97000000 		call	printf
 279      E7800000 
 173:../src/main.c **** 			irq_enable_one_bit(13);
 280              		.loc 1 173 4
 281 0256 3545     		li	a0,13
 282 0258 97000000 		call	irq_enable_one_bit
 282      E7800000 
 283              	.L5:
 174:../src/main.c **** 		}
 175:../src/main.c **** 
 176:../src/main.c **** 		if(irq20_flag == 1)  //a test interrupt input by a button
 284              		.loc 1 176 17
 285 0260 97070000 		lla	a5,irq20_flag
 285      93870700 
 286 0268 03C70700 		lbu	a4,0(a5)
 287              		.loc 1 176 5
 288 026c 8547     		li	a5,1
 289 026e 631DF702 		bne	a4,a5,.L6
 177:../src/main.c **** 		{
 178:../src/main.c **** 			printf("\r\nPress button 1, enter an external interrupt 20...\r\n");
 290              		.loc 1 178 4
 291 0272 17050000 		lla	a0,.LC7
 291      13050500 
 292 027a 97000000 		call	printf
 292      E7800000 
 179:../src/main.c **** 			//when the button is pushed. interrupt 20 will be triggered
 180:../src/main.c **** 			//display the interrupt information on uart terminal and move on.
 181:../src/main.c **** 			irq20_flag = 0;
 293              		.loc 1 181 15
 294 0282 97070000 		lla	a5,irq20_flag
 294      93870700 
 295 028a 23800700 		sb	zero,0(a5)
 182:../src/main.c **** 			printf("Interrupt 20 is triggered by button 1\r\n");
 296              		.loc 1 182 4
 297 028e 17050000 		lla	a0,.LC8
 297      13050500 
 298 0296 97000000 		call	printf
 298      E7800000 
 183:../src/main.c **** 			irq_enable_one_bit(20);
 299              		.loc 1 183 4
 300 029e 5145     		li	a0,20
 301 02a0 97000000 		call	irq_enable_one_bit
 301      E7800000 
 302              	.L6:
 184:../src/main.c **** 		}
 185:../src/main.c **** 
 186:../src/main.c **** 		if(irq21_flag == 1)//another test interrupt also input by a button
 303              		.loc 1 186 17
 304 02a8 97070000 		lla	a5,irq21_flag
 304      93870700 
 305 02b0 03C70700 		lbu	a4,0(a5)
 306              		.loc 1 186 5
 307 02b4 8547     		li	a5,1
 308 02b6 E31DF7E4 		bne	a4,a5,.L8
 187:../src/main.c **** 		{
 188:../src/main.c **** 			printf("\r\nPress button 2, enter an external interrupt 21...\r\n");
 309              		.loc 1 188 4
 310 02ba 17050000 		lla	a0,.LC9
 310      13050500 
 311 02c2 97000000 		call	printf
 311      E7800000 
 189:../src/main.c **** 			//same as interrupt 20
 190:../src/main.c **** 			irq21_flag = 0;
 312              		.loc 1 190 15
 313 02ca 97070000 		lla	a5,irq21_flag
 313      93870700 
 314 02d2 23800700 		sb	zero,0(a5)
 191:../src/main.c **** 			printf("Interrupt 21 is triggered by button 2\r\n");
 315              		.loc 1 191 4
 316 02d6 17050000 		lla	a0,.LC10
 316      13050500 
 317 02de 97000000 		call	printf
 317      E7800000 
 192:../src/main.c **** 			irq_enable_one_bit(21);
 318              		.loc 1 192 4
 319 02e6 5545     		li	a0,21
 320 02e8 97000000 		call	irq_enable_one_bit
 320      E7800000 
 140:../src/main.c **** 		{
 321              		.loc 1 140 5
 322 02f0 05B5     		j	.L8
 323              		.cfi_endproc
 324              	.LFE3:
 326              		.section	.rodata
 327              		.align	2
 328              	.LC11:
 329 01d0 57697368 		.string	"Wishbone SPI-Flash demo beginning...\r\n"
 329      626F6E65 
 329      20535049 
 329      2D466C61 
 329      73682064 
 330 01f7 00       		.align	2
 331              	.LC12:
 332 01f8 52656164 		.string	"Read data by memory map mode from flash...\r\n"
 332      20646174 
 332      61206279 
 332      206D656D 
 332      6F727920 
 333 0225 000000   		.align	2
 334              	.LC13:
 335 0228 25303878 		.string	"%08x "
 335      2000
 336 022e 0000     		.align	2
 337              	.LC14:
 338 0230 52656164 		.string	"Read initialized data from flash...\r\n"
 338      20696E69 
 338      7469616C 
 338      697A6564 
 338      20646174 
 339 0256 0000     		.align	2
 340              	.LC15:
 341 0258 25303278 		.string	"%02x "
 341      2000
 342 025e 0000     		.align	2
 343              	.LC16:
 344 0260 45726173 		.string	"Erase flash...\r\n"
 344      6520666C 
 344      6173682E 
 344      2E2E0D0A 
 344      00
 345 0271 000000   		.align	2
 346              	.LC17:
 347 0274 52656164 		.string	"Read data after erase flash...\r\n"
 347      20646174 
 347      61206166 
 347      74657220 
 347      65726173 
 348 0295 000000   		.align	2
 349              	.LC18:
 350 0298 50616765 		.string	"Page program data...\r\n"
 350      2070726F 
 350      6772616D 
 350      20646174 
 350      612E2E2E 
 351 02af 00       		.align	2
 352              	.LC19:
 353 02b0 52656164 		.string	"Read data after page program flash...\r\n"
 353      20646174 
 353      61206166 
 353      74657220 
 353      70616765 
 354              		.align	2
 355              	.LC20:
 356 02d8 57697368 		.string	"Wishbone SPI-Flash demo finished.\r\n"
 356      626F6E65 
 356      20535049 
 356      2D466C61 
 356      73682064 
 357              		.section	.text.spi_flash_demo,"ax",@progbits
 358              		.align	1
 359              		.globl	spi_flash_demo
 361              	spi_flash_demo:
 362              	.LFB4:
 193:../src/main.c **** 		}
 194:../src/main.c **** 	}
 195:../src/main.c **** 
 196:../src/main.c **** 	return 0;
 197:../src/main.c **** }
 198:../src/main.c **** 
 199:../src/main.c **** //SPI-Flash demo
 200:../src/main.c **** void spi_flash_demo(void)
 201:../src/main.c **** {
 363              		.loc 1 201 1
 364              		.cfi_startproc
 365 0000 3971     		addi	sp,sp,-64
 366              		.cfi_def_cfa_offset 64
 367 0002 06DE     		sw	ra,60(sp)
 368 0004 22DC     		sw	s0,56(sp)
 369              		.cfi_offset 1, -4
 370              		.cfi_offset 8, -8
 371 0006 8000     		addi	s0,sp,64
 372              		.cfi_def_cfa 8, 0
 202:../src/main.c **** 	printf("Wishbone SPI-Flash demo beginning...\r\n");
 373              		.loc 1 202 2
 374 0008 17050000 		lla	a0,.LC11
 374      13050500 
 375 0010 97000000 		call	printf
 375      E7800000 
 203:../src/main.c **** 
 204:../src/main.c **** 	uint32_t *memmap_ptr = (uint32_t *)(0x10400000);
 376              		.loc 1 204 12
 377 0018 B7074010 		li	a5,272629760
 378 001c 2326F4FE 		sw	a5,-20(s0)
 205:../src/main.c **** 	uint32_t tmp = 0;
 379              		.loc 1 205 11
 380 0020 232804FC 		sw	zero,-48(s0)
 206:../src/main.c **** 
 207:../src/main.c **** 	printf("Read data by memory map mode from flash...\r\n");
 381              		.loc 1 207 2
 382 0024 17050000 		lla	a0,.LC12
 382      13050500 
 383 002c 97000000 		call	printf
 383      E7800000 
 384              	.LBB2:
 208:../src/main.c **** 	for(int i = 0; i < 100; i++)
 385              		.loc 1 208 10
 386 0034 232404FE 		sw	zero,-24(s0)
 387              		.loc 1 208 2
 388 0038 15A8     		j	.L10
 389              	.L11:
 209:../src/main.c **** 	{
 210:../src/main.c **** 		tmp = *memmap_ptr;
 390              		.loc 1 210 7 discriminator 3
 391 003a 8327C4FE 		lw	a5,-20(s0)
 392 003e 9C43     		lw	a5,0(a5)
 393 0040 2328F4FC 		sw	a5,-48(s0)
 211:../src/main.c **** 		printf("%08x ", tmp);
 394              		.loc 1 211 3 discriminator 3
 395 0044 832504FD 		lw	a1,-48(s0)
 396 0048 17050000 		lla	a0,.LC13
 396      13050500 
 397 0050 97000000 		call	printf
 397      E7800000 
 212:../src/main.c **** 		memmap_ptr++;
 398              		.loc 1 212 13 discriminator 3
 399 0058 8327C4FE 		lw	a5,-20(s0)
 400 005c 9107     		addi	a5,a5,4
 401 005e 2326F4FE 		sw	a5,-20(s0)
 208:../src/main.c **** 	{
 402              		.loc 1 208 27 discriminator 3
 403 0062 832784FE 		lw	a5,-24(s0)
 404 0066 8507     		addi	a5,a5,1
 405 0068 2324F4FE 		sw	a5,-24(s0)
 406              	.L10:
 208:../src/main.c **** 	{
 407              		.loc 1 208 2 discriminator 1
 408 006c 032784FE 		lw	a4,-24(s0)
 409 0070 93073006 		li	a5,99
 410 0074 E3D3E7FC 		ble	a4,a5,.L11
 411              	.LBE2:
 213:../src/main.c **** 	}
 214:../src/main.c **** 	printf("\r\n");
 412              		.loc 1 214 2
 413 0078 17050000 		lla	a0,.LC2
 413      13050500 
 414 0080 97000000 		call	printf
 414      E7800000 
 415              	.LBB3:
 215:../src/main.c **** 
 216:../src/main.c **** 	//initializes tx buffer
 217:../src/main.c **** 	for(int i = 0; i < 100; i++)
 416              		.loc 1 217 10
 417 0088 232204FE 		sw	zero,-28(s0)
 418              		.loc 1 217 2
 419 008c 1DA0     		j	.L12
 420              	.L13:
 218:../src/main.c **** 	{
 219:../src/main.c **** 		tx_buffer[i] = i;
 421              		.loc 1 219 16 discriminator 3
 422 008e 832744FE 		lw	a5,-28(s0)
 423 0092 13F7F70F 		andi	a4,a5,0xff
 424 0096 97060000 		lla	a3,tx_buffer
 424      93860600 
 425 009e 832744FE 		lw	a5,-28(s0)
 426 00a2 B697     		add	a5,a3,a5
 427 00a4 2380E700 		sb	a4,0(a5)
 217:../src/main.c **** 	{
 428              		.loc 1 217 27 discriminator 3
 429 00a8 832744FE 		lw	a5,-28(s0)
 430 00ac 8507     		addi	a5,a5,1
 431 00ae 2322F4FE 		sw	a5,-28(s0)
 432              	.L12:
 217:../src/main.c **** 	{
 433              		.loc 1 217 2 discriminator 1
 434 00b2 032744FE 		lw	a4,-28(s0)
 435 00b6 93073006 		li	a5,99
 436 00ba E3DAE7FC 		ble	a4,a5,.L13
 437              	.LBE3:
 220:../src/main.c **** 	}
 221:../src/main.c **** 	change_mode_spi_flash();
 438              		.loc 1 221 2
 439 00be 97000000 		call	change_mode_spi_flash
 439      E7800000 
 222:../src/main.c **** 
 223:../src/main.c **** 	//first read the data from flash
 224:../src/main.c **** 	printf("Read initialized data from flash...\r\n");
 440              		.loc 1 224 2
 441 00c6 17050000 		lla	a0,.LC14
 441      13050500 
 442 00ce 97000000 		call	printf
 442      E7800000 
 225:../src/main.c **** 	spi_flash_read(100,0x03,0x410000,rx_buffer);
 443              		.loc 1 225 2
 444 00d6 97060000 		lla	a3,rx_buffer
 444      93860600 
 445 00de 37064100 		li	a2,4259840
 446 00e2 8D45     		li	a1,3
 447 00e4 13054006 		li	a0,100
 448 00e8 97000000 		call	spi_flash_read
 448      E7800000 
 449              	.LBB4:
 226:../src/main.c **** 	for(int i =0 ; i< 100; i ++ )
 450              		.loc 1 226 10
 451 00f0 232004FE 		sw	zero,-32(s0)
 452              		.loc 1 226 2
 453 00f4 05A8     		j	.L14
 454              	.L15:
 227:../src/main.c **** 	{
 228:../src/main.c **** 		printf("%02x ",rx_buffer[i]);
 455              		.loc 1 228 27 discriminator 3
 456 00f6 17070000 		lla	a4,rx_buffer
 456      13070700 
 457 00fe 832704FE 		lw	a5,-32(s0)
 458 0102 BA97     		add	a5,a4,a5
 459 0104 83C70700 		lbu	a5,0(a5)
 460              		.loc 1 228 3 discriminator 3
 461 0108 BE85     		mv	a1,a5
 462 010a 17050000 		lla	a0,.LC15
 462      13050500 
 463 0112 97000000 		call	printf
 463      E7800000 
 226:../src/main.c **** 	for(int i =0 ; i< 100; i ++ )
 464              		.loc 1 226 27 discriminator 3
 465 011a 832704FE 		lw	a5,-32(s0)
 466 011e 8507     		addi	a5,a5,1
 467 0120 2320F4FE 		sw	a5,-32(s0)
 468              	.L14:
 226:../src/main.c **** 	for(int i =0 ; i< 100; i ++ )
 469              		.loc 1 226 2 discriminator 1
 470 0124 032704FE 		lw	a4,-32(s0)
 471 0128 93073006 		li	a5,99
 472 012c E3D5E7FC 		ble	a4,a5,.L15
 473              	.LBE4:
 229:../src/main.c **** 	}
 230:../src/main.c **** 	printf("\r\n");
 474              		.loc 1 230 2
 475 0130 17050000 		lla	a0,.LC2
 475      13050500 
 476 0138 97000000 		call	printf
 476      E7800000 
 231:../src/main.c **** 
 232:../src/main.c **** 	//and erase the sector
 233:../src/main.c **** 	printf("Erase flash...\r\n");
 477              		.loc 1 233 2
 478 0140 17050000 		lla	a0,.LC16
 478      13050500 
 479 0148 97000000 		call	printf
 479      E7800000 
 234:../src/main.c **** 	spi_flash_sector_erase(0x410000);
 480              		.loc 1 234 2
 481 0150 37054100 		li	a0,4259840
 482 0154 97000000 		call	spi_flash_sector_erase
 482      E7800000 
 235:../src/main.c **** 	printf("Read data after erase flash...\r\n");
 483              		.loc 1 235 2
 484 015c 17050000 		lla	a0,.LC17
 484      13050500 
 485 0164 97000000 		call	printf
 485      E7800000 
 236:../src/main.c **** 	//second read the data from flash
 237:../src/main.c **** 	spi_flash_read(100,0x03,0x410000,rx_buffer);
 486              		.loc 1 237 2
 487 016c 97060000 		lla	a3,rx_buffer
 487      93860600 
 488 0174 37064100 		li	a2,4259840
 489 0178 8D45     		li	a1,3
 490 017a 13054006 		li	a0,100
 491 017e 97000000 		call	spi_flash_read
 491      E7800000 
 492              	.LBB5:
 238:../src/main.c **** 	for(int i =0 ; i< 100 ; i ++ )
 493              		.loc 1 238 10
 494 0186 232E04FC 		sw	zero,-36(s0)
 495              		.loc 1 238 2
 496 018a 05A8     		j	.L16
 497              	.L17:
 239:../src/main.c **** 	{
 240:../src/main.c **** 		printf("%02x ",rx_buffer[i]);
 498              		.loc 1 240 27 discriminator 3
 499 018c 17070000 		lla	a4,rx_buffer
 499      13070700 
 500 0194 8327C4FD 		lw	a5,-36(s0)
 501 0198 BA97     		add	a5,a4,a5
 502 019a 83C70700 		lbu	a5,0(a5)
 503              		.loc 1 240 3 discriminator 3
 504 019e BE85     		mv	a1,a5
 505 01a0 17050000 		lla	a0,.LC15
 505      13050500 
 506 01a8 97000000 		call	printf
 506      E7800000 
 238:../src/main.c **** 	for(int i =0 ; i< 100 ; i ++ )
 507              		.loc 1 238 28 discriminator 3
 508 01b0 8327C4FD 		lw	a5,-36(s0)
 509 01b4 8507     		addi	a5,a5,1
 510 01b6 232EF4FC 		sw	a5,-36(s0)
 511              	.L16:
 238:../src/main.c **** 	for(int i =0 ; i< 100 ; i ++ )
 512              		.loc 1 238 2 discriminator 1
 513 01ba 0327C4FD 		lw	a4,-36(s0)
 514 01be 93073006 		li	a5,99
 515 01c2 E3D5E7FC 		ble	a4,a5,.L17
 516              	.LBE5:
 241:../src/main.c **** 	}
 242:../src/main.c **** 	printf("\r\n");
 517              		.loc 1 242 2
 518 01c6 17050000 		lla	a0,.LC2
 518      13050500 
 519 01ce 97000000 		call	printf
 519      E7800000 
 243:../src/main.c **** 
 244:../src/main.c **** 	//Write data to spi flash
 245:../src/main.c **** 	printf("Page program data...\r\n");
 520              		.loc 1 245 2
 521 01d6 17050000 		lla	a0,.LC18
 521      13050500 
 522 01de 97000000 		call	printf
 522      E7800000 
 246:../src/main.c **** 	spi_flash_page_program(100,0x410000,tx_buffer);
 523              		.loc 1 246 2
 524 01e6 17060000 		lla	a2,tx_buffer
 524      13060600 
 525 01ee B7054100 		li	a1,4259840
 526 01f2 13054006 		li	a0,100
 527 01f6 97000000 		call	spi_flash_page_program
 527      E7800000 
 247:../src/main.c **** 
 248:../src/main.c **** 	//read the data we write
 249:../src/main.c **** 	printf("Read data after page program flash...\r\n");
 528              		.loc 1 249 2
 529 01fe 17050000 		lla	a0,.LC19
 529      13050500 
 530 0206 97000000 		call	printf
 530      E7800000 
 250:../src/main.c **** 	spi_flash_read(100,0x03,0x410000,rx_buffer);
 531              		.loc 1 250 2
 532 020e 97060000 		lla	a3,rx_buffer
 532      93860600 
 533 0216 37064100 		li	a2,4259840
 534 021a 8D45     		li	a1,3
 535 021c 13054006 		li	a0,100
 536 0220 97000000 		call	spi_flash_read
 536      E7800000 
 537              	.LBB6:
 251:../src/main.c **** 
 252:../src/main.c **** 	for(int i = 0 ; i < 100 ; i ++ )
 538              		.loc 1 252 10
 539 0228 232C04FC 		sw	zero,-40(s0)
 540              		.loc 1 252 2
 541 022c 05A8     		j	.L18
 542              	.L19:
 253:../src/main.c **** 	{
 254:../src/main.c **** 		printf("%02x ",rx_buffer[i]);
 543              		.loc 1 254 27 discriminator 3
 544 022e 17070000 		lla	a4,rx_buffer
 544      13070700 
 545 0236 832784FD 		lw	a5,-40(s0)
 546 023a BA97     		add	a5,a4,a5
 547 023c 83C70700 		lbu	a5,0(a5)
 548              		.loc 1 254 3 discriminator 3
 549 0240 BE85     		mv	a1,a5
 550 0242 17050000 		lla	a0,.LC15
 550      13050500 
 551 024a 97000000 		call	printf
 551      E7800000 
 252:../src/main.c **** 	{
 552              		.loc 1 252 30 discriminator 3
 553 0252 832784FD 		lw	a5,-40(s0)
 554 0256 8507     		addi	a5,a5,1
 555 0258 232CF4FC 		sw	a5,-40(s0)
 556              	.L18:
 252:../src/main.c **** 	{
 557              		.loc 1 252 2 discriminator 1
 558 025c 032784FD 		lw	a4,-40(s0)
 559 0260 93073006 		li	a5,99
 560 0264 E3D5E7FC 		ble	a4,a5,.L19
 561              	.LBE6:
 255:../src/main.c **** 	}
 256:../src/main.c **** 	printf("\r\n");
 562              		.loc 1 256 2
 563 0268 17050000 		lla	a0,.LC2
 563      13050500 
 564 0270 97000000 		call	printf
 564      E7800000 
 257:../src/main.c **** 
 258:../src/main.c **** 	memmap_ptr = (uint32_t *)(0x10410000);
 565              		.loc 1 258 13
 566 0278 B7074110 		li	a5,272695296
 567 027c 2326F4FE 		sw	a5,-20(s0)
 259:../src/main.c **** 	uint32_t tmp_word = 0;
 568              		.loc 1 259 11
 569 0280 232604FC 		sw	zero,-52(s0)
 260:../src/main.c **** 	printf("Read data by memory map mode from flash...\r\n");
 570              		.loc 1 260 2
 571 0284 17050000 		lla	a0,.LC12
 571      13050500 
 572 028c 97000000 		call	printf
 572      E7800000 
 573              	.LBB7:
 261:../src/main.c **** 	for(int i = 0; i < 100; i++)
 574              		.loc 1 261 10
 575 0294 232A04FC 		sw	zero,-44(s0)
 576              		.loc 1 261 2
 577 0298 15A8     		j	.L20
 578              	.L21:
 262:../src/main.c **** 	{
 263:../src/main.c **** 		tmp_word = *memmap_ptr;
 579              		.loc 1 263 12 discriminator 3
 580 029a 8327C4FE 		lw	a5,-20(s0)
 581 029e 9C43     		lw	a5,0(a5)
 582 02a0 2326F4FC 		sw	a5,-52(s0)
 264:../src/main.c **** 		printf("%08x ", tmp_word);
 583              		.loc 1 264 3 discriminator 3
 584 02a4 8325C4FC 		lw	a1,-52(s0)
 585 02a8 17050000 		lla	a0,.LC13
 585      13050500 
 586 02b0 97000000 		call	printf
 586      E7800000 
 265:../src/main.c **** 		memmap_ptr++;
 587              		.loc 1 265 13 discriminator 3
 588 02b8 8327C4FE 		lw	a5,-20(s0)
 589 02bc 9107     		addi	a5,a5,4
 590 02be 2326F4FE 		sw	a5,-20(s0)
 261:../src/main.c **** 	{
 591              		.loc 1 261 27 discriminator 3
 592 02c2 832744FD 		lw	a5,-44(s0)
 593 02c6 8507     		addi	a5,a5,1
 594 02c8 232AF4FC 		sw	a5,-44(s0)
 595              	.L20:
 261:../src/main.c **** 	{
 596              		.loc 1 261 2 discriminator 1
 597 02cc 032744FD 		lw	a4,-44(s0)
 598 02d0 93073006 		li	a5,99
 599 02d4 E3D3E7FC 		ble	a4,a5,.L21
 600              	.LBE7:
 266:../src/main.c **** 	}
 267:../src/main.c **** 	printf("\r\n");
 601              		.loc 1 267 2
 602 02d8 17050000 		lla	a0,.LC2
 602      13050500 
 603 02e0 97000000 		call	printf
 603      E7800000 
 268:../src/main.c **** 
 269:../src/main.c **** 	printf("Wishbone SPI-Flash demo finished.\r\n");
 604              		.loc 1 269 2
 605 02e8 17050000 		lla	a0,.LC20
 605      13050500 
 606 02f0 97000000 		call	printf
 606      E7800000 
 270:../src/main.c **** 	printf("\r\n");
 607              		.loc 1 270 2
 608 02f8 17050000 		lla	a0,.LC2
 608      13050500 
 609 0300 97000000 		call	printf
 609      E7800000 
 271:../src/main.c **** 
 272:../src/main.c **** 	return;
 610              		.loc 1 272 2
 611 0308 0100     		nop
 273:../src/main.c **** }
 612              		.loc 1 273 1
 613 030a F250     		lw	ra,60(sp)
 614              		.cfi_restore 1
 615 030c 6254     		lw	s0,56(sp)
 616              		.cfi_restore 8
 617 030e 2161     		addi	sp,sp,64
 618              		.cfi_def_cfa_register 2
 619 0310 8280     		jr	ra
 620              		.cfi_endproc
 621              	.LFE4:
 623              		.section	.rodata
 624              		.align	2
 625              	.LC21:
 626 02fc 57697368 		.string	"Wishbone GPIO output demo beginning...\r\n"
 626      626F6E65 
 626      20475049 
 626      4F206F75 
 626      74707574 
 627 0325 000000   		.align	2
 628              	.LC22:
 629 0328 506C6561 		.string	"Please check the LED running status on board\r\n"
 629      73652063 
 629      6865636B 
 629      20746865 
 629      204C4544 
 630 0357 00       		.align	2
 631              	.LC23:
 632 0358 4C454420 		.string	"LED running: %d\r\n"
 632      72756E6E 
 632      696E673A 
 632      2025640D 
 632      0A00
 633 036a 0000     		.align	2
 634              	.LC24:
 635 036c 57697368 		.string	"Wishbone GPIO output demo finished.\r\n"
 635      626F6E65 
 635      20475049 
 635      4F206F75 
 635      74707574 
 636              		.section	.text.gpio_out_demo,"ax",@progbits
 637              		.align	1
 638              		.globl	gpio_out_demo
 640              	gpio_out_demo:
 641              	.LFB5:
 274:../src/main.c **** 
 275:../src/main.c **** //WBGPIO demo
 276:../src/main.c **** void gpio_out_demo(void)
 277:../src/main.c **** {
 642              		.loc 1 277 1
 643              		.cfi_startproc
 644 0000 0111     		addi	sp,sp,-32
 645              		.cfi_def_cfa_offset 32
 646 0002 06CE     		sw	ra,28(sp)
 647 0004 22CC     		sw	s0,24(sp)
 648              		.cfi_offset 1, -4
 649              		.cfi_offset 8, -8
 650 0006 0010     		addi	s0,sp,32
 651              		.cfi_def_cfa 8, 0
 278:../src/main.c **** 	unsigned int i = 0;
 652              		.loc 1 278 15
 653 0008 232604FE 		sw	zero,-20(s0)
 279:../src/main.c **** 	uint32_t val = 0x11111111;
 654              		.loc 1 279 11
 655 000c B7171111 		li	a5,286330880
 656 0010 93871711 		addi	a5,a5,273
 657 0014 2324F4FE 		sw	a5,-24(s0)
 280:../src/main.c ****     uint32_t cnt = 0;
 658              		.loc 1 280 14
 659 0018 232204FE 		sw	zero,-28(s0)
 281:../src/main.c **** 
 282:../src/main.c **** 	printf("Wishbone GPIO output demo beginning...\r\n");
 660              		.loc 1 282 2
 661 001c 17050000 		lla	a0,.LC21
 661      13050500 
 662 0024 97000000 		call	printf
 662      E7800000 
 283:../src/main.c **** 	printf("Please check the LED running status on board\r\n");
 663              		.loc 1 283 2
 664 002c 17050000 		lla	a0,.LC22
 664      13050500 
 665 0034 97000000 		call	printf
 665      E7800000 
 284:../src/main.c **** 
 285:../src/main.c **** 	GPIO_SetDir(PICO_WBGPIO, 0x0000000f);
 666              		.loc 1 285 2
 667 003c BD45     		li	a1,15
 668 003e 37150011 		li	a0,285216768
 669 0042 97000000 		call	GPIO_SetDir
 669      E7800000 
 286:../src/main.c **** 	GPIO_WriteData(PICO_WBGPIO, 0xffffffff);
 670              		.loc 1 286 2
 671 004a FD55     		li	a1,-1
 672 004c 37150011 		li	a0,285216768
 673 0050 97000000 		call	GPIO_WriteData
 673      E7800000 
 287:../src/main.c **** 
 288:../src/main.c **** 	while(cnt < 20)
 674              		.loc 1 288 7
 675 0058 9DA8     		j	.L24
 676              	.L27:
 289:../src/main.c **** 	{
 290:../src/main.c **** 		for(i = 0; i < 4; i++)
 677              		.loc 1 290 9
 678 005a 232604FE 		sw	zero,-20(s0)
 679              		.loc 1 290 3
 680 005e A9A8     		j	.L25
 681              	.L26:
 291:../src/main.c **** 		{
 292:../src/main.c **** 			GPIO_WriteData(PICO_WBGPIO, ~val);
 682              		.loc 1 292 4 discriminator 3
 683 0060 832784FE 		lw	a5,-24(s0)
 684 0064 93C7F7FF 		not	a5,a5
 685 0068 BE85     		mv	a1,a5
 686 006a 37150011 		li	a0,285216768
 687 006e 97000000 		call	GPIO_WriteData
 687      E7800000 
 293:../src/main.c **** 			val = val << 1;
 688              		.loc 1 293 8 discriminator 3
 689 0076 832784FE 		lw	a5,-24(s0)
 690 007a 8607     		slli	a5,a5,1
 691 007c 2324F4FE 		sw	a5,-24(s0)
 294:../src/main.c **** 
 295:../src/main.c **** 		    delay(50000000);
 692              		.loc 1 295 7 discriminator 3
 693 0080 B7F7FA02 		li	a5,49999872
 694 0084 13850708 		addi	a0,a5,128
 695 0088 97000000 		call	delay
 695      E7800000 
 296:../src/main.c **** 		    cnt++;
 696              		.loc 1 296 10 discriminator 3
 697 0090 832744FE 		lw	a5,-28(s0)
 698 0094 8507     		addi	a5,a5,1
 699 0096 2322F4FE 		sw	a5,-28(s0)
 297:../src/main.c **** 		    printf("LED running: %d\r\n", cnt);
 700              		.loc 1 297 7 discriminator 3
 701 009a 832544FE 		lw	a1,-28(s0)
 702 009e 17050000 		lla	a0,.LC23
 702      13050500 
 703 00a6 97000000 		call	printf
 703      E7800000 
 290:../src/main.c **** 		{
 704              		.loc 1 290 22 discriminator 3
 705 00ae 8327C4FE 		lw	a5,-20(s0)
 706 00b2 8507     		addi	a5,a5,1
 707 00b4 2326F4FE 		sw	a5,-20(s0)
 708              	.L25:
 290:../src/main.c **** 		{
 709              		.loc 1 290 3 discriminator 1
 710 00b8 0327C4FE 		lw	a4,-20(s0)
 711 00bc 8D47     		li	a5,3
 712 00be E3F1E7FA 		bleu	a4,a5,.L26
 298:../src/main.c **** 		}
 299:../src/main.c **** 		val = 0x11111111;
 713              		.loc 1 299 7
 714 00c2 B7171111 		li	a5,286330880
 715 00c6 93871711 		addi	a5,a5,273
 716 00ca 2324F4FE 		sw	a5,-24(s0)
 717              	.L24:
 288:../src/main.c **** 	{
 718              		.loc 1 288 7
 719 00ce 032744FE 		lw	a4,-28(s0)
 720 00d2 CD47     		li	a5,19
 721 00d4 E3F3E7F8 		bleu	a4,a5,.L27
 300:../src/main.c **** 	}
 301:../src/main.c **** 	val = 0x00000000;
 722              		.loc 1 301 6
 723 00d8 232404FE 		sw	zero,-24(s0)
 302:../src/main.c **** 	GPIO_WriteData(PICO_WBGPIO, val);
 724              		.loc 1 302 2
 725 00dc 832584FE 		lw	a1,-24(s0)
 726 00e0 37150011 		li	a0,285216768
 727 00e4 97000000 		call	GPIO_WriteData
 727      E7800000 
 303:../src/main.c **** 
 304:../src/main.c **** 	printf("Wishbone GPIO output demo finished.\r\n");
 728              		.loc 1 304 2
 729 00ec 17050000 		lla	a0,.LC24
 729      13050500 
 730 00f4 97000000 		call	printf
 730      E7800000 
 305:../src/main.c **** 	printf("\r\n");
 731              		.loc 1 305 2
 732 00fc 17050000 		lla	a0,.LC2
 732      13050500 
 733 0104 97000000 		call	printf
 733      E7800000 
 306:../src/main.c **** 
 307:../src/main.c **** 	return;
 734              		.loc 1 307 2
 735 010c 0100     		nop
 308:../src/main.c **** }
 736              		.loc 1 308 1
 737 010e F240     		lw	ra,28(sp)
 738              		.cfi_restore 1
 739 0110 6244     		lw	s0,24(sp)
 740              		.cfi_restore 8
 741 0112 0561     		addi	sp,sp,32
 742              		.cfi_def_cfa_register 2
 743 0114 8280     		jr	ra
 744              		.cfi_endproc
 745              	.LFE5:
 747              		.section	.rodata
 748 0392 0000     		.align	2
 749              	.LC25:
 750 0394 4F70656E 		.string	"Open Wishbone interface demo beginning...\r\n"
 750      20576973 
 750      68626F6E 
 750      6520696E 
 750      74657266 
 751              		.align	2
 752              	.LC26:
 753 03c0 57697368 		.string	"Wishbone extension demo, write and read back the three registers on the open Wishbone int
 753      626F6E65 
 753      20657874 
 753      656E7369 
 753      6F6E2064 
 754 0422 0000     		.align	2
 755              	.LC27:
 756 0424 4265666F 		.string	"Before write Wishbone demo register:\r\n"
 756      72652077 
 756      72697465 
 756      20576973 
 756      68626F6E 
 757 044b 00       		.align	2
 758              	.LC28:
 759 044c 52656730 		.string	"Reg0: %08x\r\n"
 759      3A202530 
 759      38780D0A 
 759      00
 760 0459 000000   		.align	2
 761              	.LC29:
 762 045c 52656731 		.string	"Reg1: %04x\r\n"
 762      3A202530 
 762      34780D0A 
 762      00
 763 0469 000000   		.align	2
 764              	.LC30:
 765 046c 52656732 		.string	"Reg2: %02x\r\n"
 765      3A202530 
 765      32780D0A 
 765      00
 766 0479 000000   		.align	2
 767              	.LC31:
 768 047c 41667465 		.string	"After write Wishbone demo register:\r\n"
 768      72207772 
 768      69746520 
 768      57697368 
 768      626F6E65 
 769 04a2 0000     		.align	2
 770              	.LC32:
 771 04a4 4F70656E 		.string	"Open Wishbone interface demo finished.\r\n"
 771      20576973 
 771      68626F6E 
 771      6520696E 
 771      74657266 
 772              		.section	.text.wbreg_demo,"ax",@progbits
 773              		.align	1
 774              		.globl	wbreg_demo
 776              	wbreg_demo:
 777              	.LFB6:
 309:../src/main.c **** 
 310:../src/main.c **** //Open Wishbone interface demo
 311:../src/main.c **** void wbreg_demo(void)
 312:../src/main.c **** {
 778              		.loc 1 312 1
 779              		.cfi_startproc
 780 0000 0111     		addi	sp,sp,-32
 781              		.cfi_def_cfa_offset 32
 782 0002 06CE     		sw	ra,28(sp)
 783 0004 22CC     		sw	s0,24(sp)
 784              		.cfi_offset 1, -4
 785              		.cfi_offset 8, -8
 786 0006 0010     		addi	s0,sp,32
 787              		.cfi_def_cfa 8, 0
 313:../src/main.c **** 	printf("Open Wishbone interface demo beginning...\r\n");
 788              		.loc 1 313 2
 789 0008 17050000 		lla	a0,.LC25
 789      13050500 
 790 0010 97000000 		call	printf
 790      E7800000 
 314:../src/main.c **** 	printf("Wishbone extension demo, write and read back the three registers on the open Wishbone inte
 791              		.loc 1 314 2
 792 0018 17050000 		lla	a0,.LC26
 792      13050500 
 793 0020 97000000 		call	printf
 793      E7800000 
 315:../src/main.c **** 
 316:../src/main.c **** 	volatile uint32_t *ptr_reg0 = (uint32_t *)(0x20000000);
 794              		.loc 1 316 21
 795 0028 B7070020 		li	a5,536870912
 796 002c 2326F4FE 		sw	a5,-20(s0)
 317:../src/main.c **** 	volatile uint16_t *ptr_reg1 = (uint16_t *)(0x20000004);
 797              		.loc 1 317 21
 798 0030 B7070020 		li	a5,536870912
 799 0034 9107     		addi	a5,a5,4
 800 0036 2324F4FE 		sw	a5,-24(s0)
 318:../src/main.c **** 	volatile uint8_t  *ptr_reg2 = (uint8_t  *)(0x20000008);
 801              		.loc 1 318 21
 802 003a B7070020 		li	a5,536870912
 803 003e A107     		addi	a5,a5,8
 804 0040 2322F4FE 		sw	a5,-28(s0)
 319:../src/main.c **** 
 320:../src/main.c **** 	printf("Before write Wishbone demo register:\r\n");
 805              		.loc 1 320 2
 806 0044 17050000 		lla	a0,.LC27
 806      13050500 
 807 004c 97000000 		call	printf
 807      E7800000 
 321:../src/main.c **** 	printf("Reg0: %08x\r\n", *ptr_reg0);
 808              		.loc 1 321 2
 809 0054 8327C4FE 		lw	a5,-20(s0)
 810 0058 9C43     		lw	a5,0(a5)
 811 005a BE85     		mv	a1,a5
 812 005c 17050000 		lla	a0,.LC28
 812      13050500 
 813 0064 97000000 		call	printf
 813      E7800000 
 322:../src/main.c **** 	printf("Reg1: %04x\r\n", *ptr_reg1);
 814              		.loc 1 322 27
 815 006c 832784FE 		lw	a5,-24(s0)
 816 0070 83D70700 		lhu	a5,0(a5)
 817 0074 C207     		slli	a5,a5,16
 818 0076 C183     		srli	a5,a5,16
 819              		.loc 1 322 2
 820 0078 BE85     		mv	a1,a5
 821 007a 17050000 		lla	a0,.LC29
 821      13050500 
 822 0082 97000000 		call	printf
 822      E7800000 
 323:../src/main.c **** 	printf("Reg2: %02x\r\n", *ptr_reg2);
 823              		.loc 1 323 27
 824 008a 832744FE 		lw	a5,-28(s0)
 825 008e 83C70700 		lbu	a5,0(a5)
 826 0092 93F7F70F 		andi	a5,a5,0xff
 827              		.loc 1 323 2
 828 0096 BE85     		mv	a1,a5
 829 0098 17050000 		lla	a0,.LC30
 829      13050500 
 830 00a0 97000000 		call	printf
 830      E7800000 
 324:../src/main.c **** 
 325:../src/main.c **** 	*ptr_reg0 = (*ptr_reg0) + 0x11111111;
 831              		.loc 1 325 15
 832 00a8 8327C4FE 		lw	a5,-20(s0)
 833 00ac 9843     		lw	a4,0(a5)
 834              		.loc 1 325 26
 835 00ae B7171111 		li	a5,286330880
 836 00b2 93871711 		addi	a5,a5,273
 837 00b6 3E97     		add	a4,a4,a5
 838              		.loc 1 325 12
 839 00b8 8327C4FE 		lw	a5,-20(s0)
 840 00bc 98C3     		sw	a4,0(a5)
 326:../src/main.c **** 	*ptr_reg1 = (*ptr_reg1) + 0x1111;
 841              		.loc 1 326 15
 842 00be 832784FE 		lw	a5,-24(s0)
 843 00c2 83D70700 		lhu	a5,0(a5)
 844 00c6 13970701 		slli	a4,a5,16
 845 00ca 4183     		srli	a4,a4,16
 846              		.loc 1 326 26
 847 00cc 8567     		li	a5,4096
 848 00ce 93871711 		addi	a5,a5,273
 849 00d2 BA97     		add	a5,a4,a5
 850 00d4 13970701 		slli	a4,a5,16
 851 00d8 4183     		srli	a4,a4,16
 852              		.loc 1 326 12
 853 00da 832784FE 		lw	a5,-24(s0)
 854 00de 2390E700 		sh	a4,0(a5)
 327:../src/main.c **** 	*ptr_reg2 = (*ptr_reg2) + 0x11;
 855              		.loc 1 327 15
 856 00e2 832744FE 		lw	a5,-28(s0)
 857 00e6 83C70700 		lbu	a5,0(a5)
 858 00ea 93F7F70F 		andi	a5,a5,0xff
 859              		.loc 1 327 26
 860 00ee C507     		addi	a5,a5,17
 861 00f0 13F7F70F 		andi	a4,a5,0xff
 862              		.loc 1 327 12
 863 00f4 832744FE 		lw	a5,-28(s0)
 864 00f8 2380E700 		sb	a4,0(a5)
 328:../src/main.c **** 
 329:../src/main.c **** 	printf("After write Wishbone demo register:\r\n");
 865              		.loc 1 329 2
 866 00fc 17050000 		lla	a0,.LC31
 866      13050500 
 867 0104 97000000 		call	printf
 867      E7800000 
 330:../src/main.c **** 	printf("Reg0: %08x\r\n", *ptr_reg0);
 868              		.loc 1 330 2
 869 010c 8327C4FE 		lw	a5,-20(s0)
 870 0110 9C43     		lw	a5,0(a5)
 871 0112 BE85     		mv	a1,a5
 872 0114 17050000 		lla	a0,.LC28
 872      13050500 
 873 011c 97000000 		call	printf
 873      E7800000 
 331:../src/main.c **** 	printf("Reg1: %04x\r\n", *ptr_reg1);
 874              		.loc 1 331 27
 875 0124 832784FE 		lw	a5,-24(s0)
 876 0128 83D70700 		lhu	a5,0(a5)
 877 012c C207     		slli	a5,a5,16
 878 012e C183     		srli	a5,a5,16
 879              		.loc 1 331 2
 880 0130 BE85     		mv	a1,a5
 881 0132 17050000 		lla	a0,.LC29
 881      13050500 
 882 013a 97000000 		call	printf
 882      E7800000 
 332:../src/main.c **** 	printf("Reg2: %02x\r\n", *ptr_reg2);
 883              		.loc 1 332 27
 884 0142 832744FE 		lw	a5,-28(s0)
 885 0146 83C70700 		lbu	a5,0(a5)
 886 014a 93F7F70F 		andi	a5,a5,0xff
 887              		.loc 1 332 2
 888 014e BE85     		mv	a1,a5
 889 0150 17050000 		lla	a0,.LC30
 889      13050500 
 890 0158 97000000 		call	printf
 890      E7800000 
 333:../src/main.c **** 	printf("Open Wishbone interface demo finished.\r\n");
 891              		.loc 1 333 2
 892 0160 17050000 		lla	a0,.LC32
 892      13050500 
 893 0168 97000000 		call	printf
 893      E7800000 
 334:../src/main.c **** 	printf("\r\n");
 894              		.loc 1 334 2
 895 0170 17050000 		lla	a0,.LC2
 895      13050500 
 896 0178 97000000 		call	printf
 896      E7800000 
 335:../src/main.c **** 
 336:../src/main.c **** 	return;
 897              		.loc 1 336 2
 898 0180 0100     		nop
 337:../src/main.c **** }
 899              		.loc 1 337 1
 900 0182 F240     		lw	ra,28(sp)
 901              		.cfi_restore 1
 902 0184 6244     		lw	s0,24(sp)
 903              		.cfi_restore 8
 904 0186 0561     		addi	sp,sp,32
 905              		.cfi_def_cfa_register 2
 906 0188 8280     		jr	ra
 907              		.cfi_endproc
 908              	.LFE6:
 910              		.section	.rodata
 911 04cd 000000   		.align	2
 912              	.LC33:
 913 04d0 4F70656E 		.string	"Open AHB bus interface demo beginning...\r\n"
 913      20414842 
 913      20627573 
 913      20696E74 
 913      65726661 
 914 04fb 00       		.align	2
 915              	.LC34:
 916 04fc 61686272 		.string	"ahbreg0 is  %08x\r\n"
 916      65673020 
 916      69732020 
 916      25303878 
 916      0D0A00
 917 050f 00       		.align	2
 918              	.LC35:
 919 0510 61686272 		.string	"ahbreg1 is %08x\r\n"
 919      65673120 
 919      69732025 
 919      3038780D 
 919      0A00
 920 0522 0000     		.align	2
 921              	.LC36:
 922 0524 4F70656E 		.string	"Open AHB bus interface demo finished.\r\n"
 922      20414842 
 922      20627573 
 922      20696E74 
 922      65726661 
 923              		.section	.text.ahbreg_demo,"ax",@progbits
 924              		.align	1
 925              		.globl	ahbreg_demo
 927              	ahbreg_demo:
 928              	.LFB7:
 338:../src/main.c **** 
 339:../src/main.c **** //Open AHB interface demo
 340:../src/main.c **** void ahbreg_demo(void)
 341:../src/main.c **** {
 929              		.loc 1 341 1
 930              		.cfi_startproc
 931 0000 0111     		addi	sp,sp,-32
 932              		.cfi_def_cfa_offset 32
 933 0002 06CE     		sw	ra,28(sp)
 934 0004 22CC     		sw	s0,24(sp)
 935              		.cfi_offset 1, -4
 936              		.cfi_offset 8, -8
 937 0006 0010     		addi	s0,sp,32
 938              		.cfi_def_cfa 8, 0
 342:../src/main.c **** 	uint32_t tmp0 = 0x01234567;
 939              		.loc 1 342 11
 940 0008 B7472301 		li	a5,19087360
 941 000c 93877756 		addi	a5,a5,1383
 942 0010 2326F4FE 		sw	a5,-20(s0)
 343:../src/main.c **** 	uint32_t tmp1 = 0x89abcdef;
 943              		.loc 1 343 11
 944 0014 B7D7AB89 		li	a5,-1985228800
 945 0018 9387F7DE 		addi	a5,a5,-529
 946 001c 2324F4FE 		sw	a5,-24(s0)
 344:../src/main.c **** 	uint32_t rdbk = 0;
 947              		.loc 1 344 11
 948 0020 232204FE 		sw	zero,-28(s0)
 345:../src/main.c **** 
 346:../src/main.c **** 	printf("Open AHB bus interface demo beginning...\r\n");
 949              		.loc 1 346 2
 950 0024 17050000 		lla	a0,.LC33
 950      13050500 
 951 002c 97000000 		call	printf
 951      E7800000 
 347:../src/main.c **** 
 348:../src/main.c **** 	PICO_AHBREGDEMO->REG0 = tmp0;
 952              		.loc 1 348 17
 953 0034 B7070080 		li	a5,-2147483648
 954              		.loc 1 348 24
 955 0038 0327C4FE 		lw	a4,-20(s0)
 956 003c 98C3     		sw	a4,0(a5)
 349:../src/main.c **** 	PICO_AHBREGDEMO->REG1 = tmp1;
 957              		.loc 1 349 17
 958 003e B7070080 		li	a5,-2147483648
 959              		.loc 1 349 24
 960 0042 032784FE 		lw	a4,-24(s0)
 961 0046 D8C3     		sw	a4,4(a5)
 350:../src/main.c **** 
 351:../src/main.c **** 	rdbk = PICO_AHBREGDEMO->REG0;
 962              		.loc 1 351 24
 963 0048 B7070080 		li	a5,-2147483648
 964              		.loc 1 351 7
 965 004c 9C43     		lw	a5,0(a5)
 966 004e 2322F4FE 		sw	a5,-28(s0)
 352:../src/main.c **** 	printf("ahbreg0 is  %08x\r\n", rdbk);
 967              		.loc 1 352 2
 968 0052 832544FE 		lw	a1,-28(s0)
 969 0056 17050000 		lla	a0,.LC34
 969      13050500 
 970 005e 97000000 		call	printf
 970      E7800000 
 353:../src/main.c **** 
 354:../src/main.c **** 	rdbk = PICO_AHBREGDEMO->REG1;
 971              		.loc 1 354 24
 972 0066 B7070080 		li	a5,-2147483648
 973              		.loc 1 354 7
 974 006a DC43     		lw	a5,4(a5)
 975 006c 2322F4FE 		sw	a5,-28(s0)
 355:../src/main.c **** 	printf("ahbreg1 is %08x\r\n", rdbk);
 976              		.loc 1 355 2
 977 0070 832544FE 		lw	a1,-28(s0)
 978 0074 17050000 		lla	a0,.LC35
 978      13050500 
 979 007c 97000000 		call	printf
 979      E7800000 
 356:../src/main.c **** 
 357:../src/main.c **** 	printf("Open AHB bus interface demo finished.\r\n");
 980              		.loc 1 357 2
 981 0084 17050000 		lla	a0,.LC36
 981      13050500 
 982 008c 97000000 		call	printf
 982      E7800000 
 358:../src/main.c **** 	printf("\r\n");
 983              		.loc 1 358 2
 984 0094 17050000 		lla	a0,.LC2
 984      13050500 
 985 009c 97000000 		call	printf
 985      E7800000 
 359:../src/main.c **** 
 360:../src/main.c **** 	return;
 986              		.loc 1 360 2
 987 00a4 0100     		nop
 361:../src/main.c **** }
 988              		.loc 1 361 1
 989 00a6 F240     		lw	ra,28(sp)
 990              		.cfi_restore 1
 991 00a8 6244     		lw	s0,24(sp)
 992              		.cfi_restore 8
 993 00aa 0561     		addi	sp,sp,32
 994              		.cfi_def_cfa_register 2
 995 00ac 8280     		jr	ra
 996              		.cfi_endproc
 997              	.LFE7:
 999              		.section	.rodata
 1000              		.align	2
 1001              	.LC37:
 1002 054c 57697368 		.string	"Wishbone UART rx demo beginning...\r\n"
 1002      626F6E65 
 1002      20554152 
 1002      54207278 
 1002      2064656D 
 1003 0571 000000   		.align	2
 1004              	.LC38:
 1005 0574 52656365 		.string	"Receive a byte from uart rx port\r\n"
 1005      69766520 
 1005      61206279 
 1005      74652066 
 1005      726F6D20 
 1006 0597 00       		.align	2
 1007              	.LC39:
 1008 0598 72656365 		.string	"received: %x\r\n"
 1008      69766564 
 1008      3A202578 
 1008      0D0A00
 1009 05a7 00       		.align	2
 1010              	.LC40:
 1011 05a8 57697368 		.string	"Wishbone UART rx demo finished.\r\n"
 1011      626F6E65 
 1011      20554152 
 1011      54207278 
 1011      2064656D 
 1012              		.section	.text.uart_rx_demo,"ax",@progbits
 1013              		.align	1
 1014              		.globl	uart_rx_demo
 1016              	uart_rx_demo:
 1017              	.LFB8:
 362:../src/main.c **** 
 363:../src/main.c **** //WBUART Rx Demo
 364:../src/main.c **** void uart_rx_demo(void)
 365:../src/main.c **** {
 1018              		.loc 1 365 1
 1019              		.cfi_startproc
 1020 0000 0111     		addi	sp,sp,-32
 1021              		.cfi_def_cfa_offset 32
 1022 0002 06CE     		sw	ra,28(sp)
 1023 0004 22CC     		sw	s0,24(sp)
 1024              		.cfi_offset 1, -4
 1025              		.cfi_offset 8, -8
 1026 0006 0010     		addi	s0,sp,32
 1027              		.cfi_def_cfa 8, 0
 366:../src/main.c **** 	uint32_t rx_buffer_local = 0;
 1028              		.loc 1 366 11
 1029 0008 232604FE 		sw	zero,-20(s0)
 367:../src/main.c **** 
 368:../src/main.c **** 	printf("Wishbone UART rx demo beginning...\r\n");
 1030              		.loc 1 368 2
 1031 000c 17050000 		lla	a0,.LC37
 1031      13050500 
 1032 0014 97000000 		call	printf
 1032      E7800000 
 369:../src/main.c **** 	printf("Receive a byte from uart rx port\r\n");
 1033              		.loc 1 369 2
 1034 001c 17050000 		lla	a0,.LC38
 1034      13050500 
 1035 0024 97000000 		call	printf
 1035      E7800000 
 370:../src/main.c **** 
 371:../src/main.c **** 	rx_buffer_local = wbuart_getc();
 1036              		.loc 1 371 20
 1037 002c 97000000 		call	wbuart_getc
 1037      E7800000 
 1038 0034 AA87     		mv	a5,a0
 1039              		.loc 1 371 18
 1040 0036 2326F4FE 		sw	a5,-20(s0)
 372:../src/main.c **** 
 373:../src/main.c **** 	printf("received: %x\r\n", rx_buffer_local);
 1041              		.loc 1 373 2
 1042 003a 8325C4FE 		lw	a1,-20(s0)
 1043 003e 17050000 		lla	a0,.LC39
 1043      13050500 
 1044 0046 97000000 		call	printf
 1044      E7800000 
 374:../src/main.c **** 	printf("Wishbone UART rx demo finished.\r\n");
 1045              		.loc 1 374 2
 1046 004e 17050000 		lla	a0,.LC40
 1046      13050500 
 1047 0056 97000000 		call	printf
 1047      E7800000 
 375:../src/main.c **** 	printf("\r\n");
 1048              		.loc 1 375 2
 1049 005e 17050000 		lla	a0,.LC2
 1049      13050500 
 1050 0066 97000000 		call	printf
 1050      E7800000 
 376:../src/main.c **** 
 377:../src/main.c **** 	return;
 1051              		.loc 1 377 2
 1052 006e 0100     		nop
 378:../src/main.c **** }
 1053              		.loc 1 378 1
 1054 0070 F240     		lw	ra,28(sp)
 1055              		.cfi_restore 1
 1056 0072 6244     		lw	s0,24(sp)
 1057              		.cfi_restore 8
 1058 0074 0561     		addi	sp,sp,32
 1059              		.cfi_def_cfa_register 2
 1060 0076 8280     		jr	ra
 1061              		.cfi_endproc
 1062              	.LFE8:
 1064              		.text
 1065              	.Letext0:
 1066              		.file 2 "c:\\gmd\\toolchain\\risc-v_toolchain\\riscv-none-embed\\include\\machine\\_default_types.
 1067              		.file 3 "c:\\gmd\\toolchain\\risc-v_toolchain\\riscv-none-embed\\include\\sys\\_stdint.h"
 1068              		.file 4 "c:\\gmd\\toolchain\\risc-v_toolchain\\riscv-none-embed\\include\\sys\\lock.h"
 1069              		.file 5 "c:\\gmd\\toolchain\\risc-v_toolchain\\riscv-none-embed\\include\\sys\\_types.h"
 1070              		.file 6 "c:\\gmd\\toolchain\\risc-v_toolchain\\lib\\gcc\\riscv-none-embed\\8.2.0\\include\\stddef.
 1071              		.file 7 "c:\\gmd\\toolchain\\risc-v_toolchain\\riscv-none-embed\\include\\sys\\reent.h"
 1072              		.file 8 "../src/picorv32.h"