   1              		.file	"firmware.c"
   2              		.option nopic
   3              		.text
   4              	.Ltext0:
   5              		.cfi_sections	.debug_frame
   6              		.section	.text.stats_print_dec,"ax",@progbits
   7              		.align	1
   9              	stats_print_dec:
  10              	.LFB3:
  11              		.file 1 "../src/lib/firmware.c"
   1:../src/lib/firmware.c **** /*
   2:../src/lib/firmware.c ****  * *****************************************************************************************
   3:../src/lib/firmware.c ****  *
   4:../src/lib/firmware.c ****  * 		Copyright (C) 2014-2022 Gowin Semiconductor Technology Co.,Ltd.
   5:../src/lib/firmware.c ****  *
   6:../src/lib/firmware.c ****  * @file		firmware.c
   7:../src/lib/firmware.c ****  * @author		Embedded Development Team
   8:../src/lib/firmware.c ****  * @version		V1.2.x
   9:../src/lib/firmware.c ****  * @date		2022-01-01 09:00:00
  10:../src/lib/firmware.c ****  * @brief		Firmware.
  11:../src/lib/firmware.c ****  ******************************************************************************************
  12:../src/lib/firmware.c ****  */
  13:../src/lib/firmware.c **** 
  14:../src/lib/firmware.c **** /* Includes --------------------------------------------------------------------- */
  15:../src/lib/firmware.c **** #include "firmware.h"
  16:../src/lib/firmware.c **** #include "picorv32.h"
  17:../src/lib/firmware.c **** #include "wbuart.h"
  18:../src/lib/firmware.c **** 
  19:../src/lib/firmware.c **** /* Macros --------------------------------------------------------------------- */
  20:../src/lib/firmware.c **** #ifdef USE_WBUART
  21:../src/lib/firmware.c **** #define put_char(c) wbuart_outbyte(c)
  22:../src/lib/firmware.c **** #else
  23:../src/lib/firmware.c **** #define put_char(c) outbyte(c)
  24:../src/lib/firmware.c **** #endif
  25:../src/lib/firmware.c **** 
  26:../src/lib/firmware.c **** /* Functions --------------------------------------------------------------------- */
  27:../src/lib/firmware.c **** static void stats_print_dec(unsigned int val, int digits, bool zero_pad)
  28:../src/lib/firmware.c **** {
  12              		.loc 1 28 1
  13              		.cfi_startproc
  14 0000 5D71     		addi	sp,sp,-80
  15              		.cfi_def_cfa_offset 80
  16 0002 86C6     		sw	ra,76(sp)
  17 0004 A2C4     		sw	s0,72(sp)
  18              		.cfi_offset 1, -4
  19              		.cfi_offset 8, -8
  20 0006 8008     		addi	s0,sp,80
  21              		.cfi_def_cfa 8, 0
  22 0008 232EA4FA 		sw	a0,-68(s0)
  23 000c 232CB4FA 		sw	a1,-72(s0)
  24 0010 B287     		mv	a5,a2
  25 0012 A30BF4FA 		sb	a5,-73(s0)
  29:../src/lib/firmware.c **** 	char buffer[32];
  30:../src/lib/firmware.c **** 	char *p = buffer;
  26              		.loc 1 30 8
  27 0016 9307C4FC 		addi	a5,s0,-52
  28 001a 2326F4FE 		sw	a5,-20(s0)
  31:../src/lib/firmware.c **** 	while (val || digits > 0)
  29              		.loc 1 31 8
  30 001e A5A0     		j	.L2
  31              	.L7:
  32:../src/lib/firmware.c **** 	{
  33:../src/lib/firmware.c **** 		if (val)
  32              		.loc 1 33 6
  33 0020 8327C4FB 		lw	a5,-68(s0)
  34 0024 8DC7     		beqz	a5,.L3
  34:../src/lib/firmware.c **** 			*(p++) = '0' + val % 10;
  35              		.loc 1 34 23
  36 0026 0327C4FB 		lw	a4,-68(s0)
  37 002a A947     		li	a5,10
  38 002c B377F702 		remu	a5,a4,a5
  39              		.loc 1 34 17
  40 0030 13F7F70F 		andi	a4,a5,0xff
  41              		.loc 1 34 7
  42 0034 8327C4FE 		lw	a5,-20(s0)
  43 0038 93861700 		addi	a3,a5,1
  44 003c 2326D4FE 		sw	a3,-20(s0)
  45              		.loc 1 34 17
  46 0040 13070703 		addi	a4,a4,48
  47 0044 1377F70F 		andi	a4,a4,0xff
  48              		.loc 1 34 11
  49 0048 2380E700 		sb	a4,0(a5)
  50 004c 0DA0     		j	.L4
  51              	.L3:
  35:../src/lib/firmware.c **** 		else
  36:../src/lib/firmware.c **** 			*(p++) = zero_pad ? '0' : ' ';
  52              		.loc 1 36 11
  53 004e 834774FB 		lbu	a5,-73(s0)
  54 0052 81C7     		beqz	a5,.L5
  55              		.loc 1 36 11 is_stmt 0 discriminator 1
  56 0054 13070003 		li	a4,48
  57 0058 19A0     		j	.L6
  58              	.L5:
  59              		.loc 1 36 11 discriminator 2
  60 005a 13070002 		li	a4,32
  61              	.L6:
  62              		.loc 1 36 7 is_stmt 1 discriminator 4
  63 005e 8327C4FE 		lw	a5,-20(s0)
  64 0062 93861700 		addi	a3,a5,1
  65 0066 2326D4FE 		sw	a3,-20(s0)
  66              		.loc 1 36 11 discriminator 4
  67 006a 2380E700 		sb	a4,0(a5)
  68              	.L4:
  37:../src/lib/firmware.c **** 		val = val / 10;
  69              		.loc 1 37 7
  70 006e 0327C4FB 		lw	a4,-68(s0)
  71 0072 A947     		li	a5,10
  72 0074 B357F702 		divu	a5,a4,a5
  73 0078 232EF4FA 		sw	a5,-68(s0)
  38:../src/lib/firmware.c **** 		digits--;
  74              		.loc 1 38 9
  75 007c 832784FB 		lw	a5,-72(s0)
  76 0080 FD17     		addi	a5,a5,-1
  77 0082 232CF4FA 		sw	a5,-72(s0)
  78              	.L2:
  31:../src/lib/firmware.c **** 	{
  79              		.loc 1 31 8
  80 0086 8327C4FB 		lw	a5,-68(s0)
  81 008a D9FB     		bnez	a5,.L7
  31:../src/lib/firmware.c **** 	{
  82              		.loc 1 31 13 discriminator 1
  83 008c 832784FB 		lw	a5,-72(s0)
  84 0090 E348F0F8 		bgtz	a5,.L7
  39:../src/lib/firmware.c **** 	}
  40:../src/lib/firmware.c **** 	while (p != buffer)
  85              		.loc 1 40 8
  86 0094 81A8     		j	.L8
  87              	.L10:
  41:../src/lib/firmware.c **** 	{
  42:../src/lib/firmware.c **** 		if (p[-1] == ' ' && p[-2] == ' ') p[-1] = '.';
  88              		.loc 1 42 8
  89 0096 8327C4FE 		lw	a5,-20(s0)
  90 009a FD17     		addi	a5,a5,-1
  91 009c 03C70700 		lbu	a4,0(a5)
  92              		.loc 1 42 6
  93 00a0 93070002 		li	a5,32
  94 00a4 6312F702 		bne	a4,a5,.L9
  95              		.loc 1 42 24 discriminator 1
  96 00a8 8327C4FE 		lw	a5,-20(s0)
  97 00ac F917     		addi	a5,a5,-2
  98 00ae 03C70700 		lbu	a4,0(a5)
  99              		.loc 1 42 20 discriminator 1
 100 00b2 93070002 		li	a5,32
 101 00b6 6319F700 		bne	a4,a5,.L9
 102              		.loc 1 42 38 discriminator 2
 103 00ba 8327C4FE 		lw	a5,-20(s0)
 104 00be FD17     		addi	a5,a5,-1
 105              		.loc 1 42 43 discriminator 2
 106 00c0 1307E002 		li	a4,46
 107 00c4 2380E700 		sb	a4,0(a5)
 108              	.L9:
  43:../src/lib/firmware.c **** 		put_char(*(--p));
 109              		.loc 1 43 3
 110 00c8 8327C4FE 		lw	a5,-20(s0)
 111 00cc FD17     		addi	a5,a5,-1
 112 00ce 2326F4FE 		sw	a5,-20(s0)
 113 00d2 8327C4FE 		lw	a5,-20(s0)
 114 00d6 83C70700 		lbu	a5,0(a5)
 115 00da 3E85     		mv	a0,a5
 116 00dc 97000000 		call	wbuart_outbyte
 116      E7800000 
 117              	.L8:
  40:../src/lib/firmware.c **** 	{
 118              		.loc 1 40 8
 119 00e4 9307C4FC 		addi	a5,s0,-52
 120 00e8 0327C4FE 		lw	a4,-20(s0)
 121 00ec E315F7FA 		bne	a4,a5,.L10
  44:../src/lib/firmware.c **** 	}
  45:../src/lib/firmware.c **** }
 122              		.loc 1 45 1
 123 00f0 0100     		nop
 124 00f2 B640     		lw	ra,76(sp)
 125              		.cfi_restore 1
 126 00f4 2644     		lw	s0,72(sp)
 127              		.cfi_restore 8
 128 00f6 6161     		addi	sp,sp,80
 129              		.cfi_def_cfa_register 2
 130 00f8 8280     		jr	ra
 131              		.cfi_endproc
 132              	.LFE3:
 134              		.section	.rodata
 135              		.align	2
 136              	.LC0:
 137 0000 0D0A2D2D 		.string	"\r\n-------------------------------------\r\n"
 137      2D2D2D2D 
 137      2D2D2D2D 
 137      2D2D2D2D 
 137      2D2D2D2D 
 138 002a 0000     		.align	2
 139              	.LC1:
 140 002c 52756E6E 		.string	"Running status: \r\n"
 140      696E6720 
 140      73746174 
 140      75733A20 
 140      0D0A00
 141 003f 00       		.align	2
 142              	.LC2:
 143 0040 4379636C 		.string	"Cycle counter ........: %u\r\n"
 143      6520636F 
 143      756E7465 
 143      72202E2E 
 143      2E2E2E2E 
 144 005d 000000   		.align	2
 145              	.LC3:
 146 0060 496E7374 		.string	"Instruction counter ..: %u\r\n"
 146      72756374 
 146      696F6E20 
 146      636F756E 
 146      74657220 
 147 007d 000000   		.align	2
 148              	.LC4:
 149 0080 4350493A 		.string	"CPI: "
 149      2000
 150 0086 0000     		.align	2
 151              	.LC5:
 152 0088 2E00     		.string	"."
 153 008a 0000     		.align	2
 154              	.LC6:
 155 008c 0D0A00   		.string	"\r\n"
 156 008f 00       		.align	2
 157              	.LC7:
 158 0090 2D2D2D2D 		.string	"-------------------------------------\r\n"
 158      2D2D2D2D 
 158      2D2D2D2D 
 158      2D2D2D2D 
 158      2D2D2D2D 
 159              		.section	.text.stats,"ax",@progbits
 160              		.align	1
 161              		.globl	stats
 163              	stats:
 164              	.LFB4:
  46:../src/lib/firmware.c **** 
  47:../src/lib/firmware.c **** void stats(void)
  48:../src/lib/firmware.c **** {
 165              		.loc 1 48 1
 166              		.cfi_startproc
 167 0000 0111     		addi	sp,sp,-32
 168              		.cfi_def_cfa_offset 32
 169 0002 06CE     		sw	ra,28(sp)
 170 0004 22CC     		sw	s0,24(sp)
 171              		.cfi_offset 1, -4
 172              		.cfi_offset 8, -8
 173 0006 0010     		addi	s0,sp,32
 174              		.cfi_def_cfa 8, 0
  49:../src/lib/firmware.c **** 	unsigned int num_cycles, num_instr;
  50:../src/lib/firmware.c **** 	__asm__ volatile ("rdcycle %0; rdinstret %1;" : "=r"(num_cycles), "=r"(num_instr));
 175              		.loc 1 50 2
 176              	 #APP
 177              	# 50 "../src/lib/firmware.c" 1
  51              		printf("\r\n-------------------------------------\r\n");
 178              		rdcycle a4; rdinstret a5;
 179              	# 0 "" 2
 180              	 #NO_APP
 181 0010 2326E4FE 		sw	a4,-20(s0)
 182 0014 2324F4FE 		sw	a5,-24(s0)
 183              		.loc 1 51 2
 184 0018 17050000 		lla	a0,.LC0
 184      13050500 
 185 0020 97000000 		call	printf
 185      E7800000 
  52:../src/lib/firmware.c **** 	printf("Running status: \r\n");
 186              		.loc 1 52 2
 187 0028 17050000 		lla	a0,.LC1
 187      13050500 
 188 0030 97000000 		call	printf
 188      E7800000 
  53:../src/lib/firmware.c **** 	printf("Cycle counter ........: %u\r\n", num_cycles);
 189              		.loc 1 53 2
 190 0038 8325C4FE 		lw	a1,-20(s0)
 191 003c 17050000 		lla	a0,.LC2
 191      13050500 
 192 0044 97000000 		call	printf
 192      E7800000 
  54:../src/lib/firmware.c **** 	printf("Instruction counter ..: %u\r\n", num_instr);
 193              		.loc 1 54 2
 194 004c 832584FE 		lw	a1,-24(s0)
 195 0050 17050000 		lla	a0,.LC3
 195      13050500 
 196 0058 97000000 		call	printf
 196      E7800000 
  55:../src/lib/firmware.c **** 
  56:../src/lib/firmware.c **** 	printf("CPI: ");
 197              		.loc 1 56 2
 198 0060 17050000 		lla	a0,.LC4
 198      13050500 
 199 0068 97000000 		call	printf
 199      E7800000 
  57:../src/lib/firmware.c **** 	stats_print_dec((num_cycles / num_instr), 0, false);
 200              		.loc 1 57 2
 201 0070 0327C4FE 		lw	a4,-20(s0)
 202 0074 832784FE 		lw	a5,-24(s0)
 203 0078 B357F702 		divu	a5,a4,a5
 204 007c 0146     		li	a2,0
 205 007e 8145     		li	a1,0
 206 0080 3E85     		mv	a0,a5
 207 0082 97000000 		call	stats_print_dec
 207      E7800000 
  58:../src/lib/firmware.c **** 	printf(".");
 208              		.loc 1 58 2
 209 008a 17050000 		lla	a0,.LC5
 209      13050500 
 210 0092 97000000 		call	printf
 210      E7800000 
  59:../src/lib/firmware.c **** 	stats_print_dec(((100 * num_cycles) / num_instr) % 100, 2, true);
 211              		.loc 1 59 24
 212 009a 0327C4FE 		lw	a4,-20(s0)
 213 009e 93074006 		li	a5,100
 214 00a2 3307F702 		mul	a4,a4,a5
 215              		.loc 1 59 38
 216 00a6 832784FE 		lw	a5,-24(s0)
 217 00aa 3357F702 		divu	a4,a4,a5
 218              		.loc 1 59 2
 219 00ae 93074006 		li	a5,100
 220 00b2 B377F702 		remu	a5,a4,a5
 221 00b6 0546     		li	a2,1
 222 00b8 8945     		li	a1,2
 223 00ba 3E85     		mv	a0,a5
 224 00bc 97000000 		call	stats_print_dec
 224      E7800000 
  60:../src/lib/firmware.c **** 	printf("\r\n");
 225              		.loc 1 60 2
 226 00c4 17050000 		lla	a0,.LC6
 226      13050500 
 227 00cc 97000000 		call	printf
 227      E7800000 
  61:../src/lib/firmware.c **** 	printf("-------------------------------------\r\n");
 228              		.loc 1 61 2
 229 00d4 17050000 		lla	a0,.LC7
 229      13050500 
 230 00dc 97000000 		call	printf
 230      E7800000 
  62:../src/lib/firmware.c **** 	printf("\r\n");
 231              		.loc 1 62 2
 232 00e4 17050000 		lla	a0,.LC6
 232      13050500 
 233 00ec 97000000 		call	printf
 233      E7800000 
  63:../src/lib/firmware.c **** }
 234              		.loc 1 63 1
 235 00f4 0100     		nop
 236 00f6 F240     		lw	ra,28(sp)
 237              		.cfi_restore 1
 238 00f8 6244     		lw	s0,24(sp)
 239              		.cfi_restore 8
 240 00fa 0561     		addi	sp,sp,32
 241              		.cfi_def_cfa_register 2
 242 00fc 8280     		jr	ra
 243              		.cfi_endproc
 244              	.LFE4:
 246              		.section	.text.delay,"ax",@progbits
 247              		.align	1
 248              		.globl	delay
 250              	delay:
 251              	.LFB5:
  64:../src/lib/firmware.c **** 
  65:../src/lib/firmware.c **** unsigned int delay( unsigned int delay_cycles)
  66:../src/lib/firmware.c **** {
 252              		.loc 1 66 1
 253              		.cfi_startproc
 254 0000 7971     		addi	sp,sp,-48
 255              		.cfi_def_cfa_offset 48
 256 0002 22D6     		sw	s0,44(sp)
 257              		.cfi_offset 8, -4
 258 0004 0018     		addi	s0,sp,48
 259              		.cfi_def_cfa 8, 0
 260 0006 232EA4FC 		sw	a0,-36(s0)
  67:../src/lib/firmware.c ****     unsigned int cycles_current;
  68:../src/lib/firmware.c ****     unsigned int cycles_start;
  69:../src/lib/firmware.c ****     unsigned int cycles = 0;
 261              		.loc 1 69 18
 262 000a 232604FE 		sw	zero,-20(s0)
  70:../src/lib/firmware.c ****     __asm__ volatile ("rdcycle %0;" : "=r"(cycles_start));
 263              		.loc 1 70 5
 264              	 #APP
 265              	# 70 "../src/lib/firmware.c" 1
  71              	
 266              		rdcycle a5;
 267              	# 0 "" 2
 268              	 #NO_APP
 269 0012 2324F4FE 		sw	a5,-24(s0)
 270              	.L13:
  72:../src/lib/firmware.c **** 
  73:../src/lib/firmware.c ****     do
  74:../src/lib/firmware.c ****     {
  75:../src/lib/firmware.c ****         __asm__ volatile ("rdcycle %0;" : "=r"(cycles_current));
 271              		.loc 1 75 9 discriminator 1
 272              	 #APP
 273              	# 75 "../src/lib/firmware.c" 1
  76              	        cycles = cycles_current - cycles_start;
 274              		rdcycle a5;
 275              	# 0 "" 2
 276              	 #NO_APP
 277 001a 2322F4FE 		sw	a5,-28(s0)
 278              		.loc 1 76 16 discriminator 1
 279 001e 032744FE 		lw	a4,-28(s0)
 280 0022 832784FE 		lw	a5,-24(s0)
 281 0026 B307F740 		sub	a5,a4,a5
 282 002a 2326F4FE 		sw	a5,-20(s0)
  77:../src/lib/firmware.c ****     } while(cycles < delay_cycles);
 283              		.loc 1 77 5 discriminator 1
 284 002e 0327C4FE 		lw	a4,-20(s0)
 285 0032 8327C4FD 		lw	a5,-36(s0)
 286 0036 E360F7FE 		bltu	a4,a5,.L13
  78:../src/lib/firmware.c **** 
  79:../src/lib/firmware.c ****     return cycles;
 287              		.loc 1 79 12
 288 003a 8327C4FE 		lw	a5,-20(s0)
  80:../src/lib/firmware.c **** }
 289              		.loc 1 80 1
 290 003e 3E85     		mv	a0,a5
 291 0040 3254     		lw	s0,44(sp)
 292              		.cfi_restore 8
 293 0042 4561     		addi	sp,sp,48
 294              		.cfi_def_cfa_register 2
 295 0044 8280     		jr	ra
 296              		.cfi_endproc
 297              	.LFE5:
 299              		.section	.text.memset_32,"ax",@progbits
 300              		.align	1
 301              		.globl	memset_32
 303              	memset_32:
 304              	.LFB6:
  81:../src/lib/firmware.c **** 
  82:../src/lib/firmware.c **** void memset_32(uint32_t* dest, uint32_t data, uint32_t length) //length in 32bit
  83:../src/lib/firmware.c **** {
 305              		.loc 1 83 1
 306              		.cfi_startproc
 307 0000 7971     		addi	sp,sp,-48
 308              		.cfi_def_cfa_offset 48
 309 0002 22D6     		sw	s0,44(sp)
 310              		.cfi_offset 8, -4
 311 0004 0018     		addi	s0,sp,48
 312              		.cfi_def_cfa 8, 0
 313 0006 232EA4FC 		sw	a0,-36(s0)
 314 000a 232CB4FC 		sw	a1,-40(s0)
 315 000e 232AC4FC 		sw	a2,-44(s0)
  84:../src/lib/firmware.c **** 	uint32_t* dest_end = dest + 4 * length;
 316              		.loc 1 84 28
 317 0012 832744FD 		lw	a5,-44(s0)
 318 0016 9207     		slli	a5,a5,4
 319              		.loc 1 84 12
 320 0018 0327C4FD 		lw	a4,-36(s0)
 321 001c BA97     		add	a5,a4,a5
 322 001e 2326F4FE 		sw	a5,-20(s0)
  85:../src/lib/firmware.c **** 	while(dest != dest_end)
 323              		.loc 1 85 7
 324 0022 11A8     		j	.L16
 325              	.L17:
  86:../src/lib/firmware.c **** 	{
  87:../src/lib/firmware.c **** 		*dest++ = data;
 326              		.loc 1 87 8
 327 0024 8327C4FD 		lw	a5,-36(s0)
 328 0028 13874700 		addi	a4,a5,4
 329 002c 232EE4FC 		sw	a4,-36(s0)
 330              		.loc 1 87 11
 331 0030 032784FD 		lw	a4,-40(s0)
 332 0034 98C3     		sw	a4,0(a5)
 333              	.L16:
  85:../src/lib/firmware.c **** 	while(dest != dest_end)
 334              		.loc 1 85 7
 335 0036 0327C4FD 		lw	a4,-36(s0)
 336 003a 8327C4FE 		lw	a5,-20(s0)
 337 003e E313F7FE 		bne	a4,a5,.L17
  88:../src/lib/firmware.c **** 	}
  89:../src/lib/firmware.c **** }
 338              		.loc 1 89 1
 339 0042 0100     		nop
 340 0044 3254     		lw	s0,44(sp)
 341              		.cfi_restore 8
 342 0046 4561     		addi	sp,sp,48
 343              		.cfi_def_cfa_register 2
 344 0048 8280     		jr	ra
 345              		.cfi_endproc
 346              	.LFE6:
 348              		.text
 349              	.Letext0:
 350              		.file 2 "c:\\gmd\\toolchain\\risc-v_toolchain\\riscv-none-embed\\include\\machine\\_default_types.
 351              		.file 3 "c:\\gmd\\toolchain\\risc-v_toolchain\\riscv-none-embed\\include\\sys\\_stdint.h"
 352              		.file 4 "c:\\gmd\\toolchain\\risc-v_toolchain\\riscv-none-embed\\include\\sys\\lock.h"
 353              		.file 5 "c:\\gmd\\toolchain\\risc-v_toolchain\\riscv-none-embed\\include\\sys\\_types.h"
 354              		.file 6 "c:\\gmd\\toolchain\\risc-v_toolchain\\lib\\gcc\\riscv-none-embed\\8.2.0\\include\\stddef.
 355              		.file 7 "c:\\gmd\\toolchain\\risc-v_toolchain\\riscv-none-embed\\include\\sys\\reent.h"