   1              		.file	"firmware.c"
   2              		.option nopic
   3              		.text
   4              	.Ltext0:
   5              		.cfi_sections	.debug_frame
   6              		.section	.text.stats_print_dec,"ax",@progbits
   7              		.align	1
   9              	stats_print_dec:
  10              	.LFB3:
  11              		.file 1 "../src/lib/firmware.c"
   1:../src/lib/firmware.c **** /*
   2:../src/lib/firmware.c ****  * *****************************************************************************************
   3:../src/lib/firmware.c ****  *
   4:../src/lib/firmware.c ****  * 		Copyright (C) 2014-2022 Gowin Semiconductor Technology Co.,Ltd.
   5:../src/lib/firmware.c ****  *
   6:../src/lib/firmware.c ****  * @file		firmware.c
   7:../src/lib/firmware.c ****  * @author		Embedded Development Team
   8:../src/lib/firmware.c ****  * @version		V1.2.x
   9:../src/lib/firmware.c ****  * @date		2022-01-01 09:00:00
  10:../src/lib/firmware.c ****  * @brief		Firmware.
  11:../src/lib/firmware.c ****  ******************************************************************************************
  12:../src/lib/firmware.c ****  */
  13:../src/lib/firmware.c **** 
  14:../src/lib/firmware.c **** /* Includes --------------------------------------------------------------------- */
  15:../src/lib/firmware.c **** #include "firmware.h"
  16:../src/lib/firmware.c **** #include "picorv32.h"
  17:../src/lib/firmware.c **** #include "wbuart.h"
  18:../src/lib/firmware.c **** 
  19:../src/lib/firmware.c **** /* Macros --------------------------------------------------------------------- */
  20:../src/lib/firmware.c **** #ifdef USE_WBUART
  21:../src/lib/firmware.c **** #define put_char(c) wbuart_outbyte(c)
  22:../src/lib/firmware.c **** #else
  23:../src/lib/firmware.c **** #define put_char(c) outbyte(c)
  24:../src/lib/firmware.c **** #endif
  25:../src/lib/firmware.c **** 
  26:../src/lib/firmware.c **** /* Functions --------------------------------------------------------------------- */
  27:../src/lib/firmware.c **** static void stats_print_dec(unsigned int val, int digits, bool zero_pad)
  28:../src/lib/firmware.c **** {
  12              		.loc 1 28 1
  13              		.cfi_startproc
  14 0000 5D71     		addi	sp,sp,-80
  15              		.cfi_def_cfa_offset 80
  16 0002 86C6     		sw	ra,76(sp)
  17 0004 A2C4     		sw	s0,72(sp)
  18              		.cfi_offset 1, -4
  19              		.cfi_offset 8, -8
  20 0006 8008     		addi	s0,sp,80
  21              		.cfi_def_cfa 8, 0
  22 0008 232EA4FA 		sw	a0,-68(s0)
  23 000c 232CB4FA 		sw	a1,-72(s0)
  24 0010 B287     		mv	a5,a2
  25 0012 A30BF4FA 		sb	a5,-73(s0)
  29:../src/lib/firmware.c **** 	char buffer[32];
  30:../src/lib/firmware.c **** 	char *p = buffer;
  26              		.loc 1 30 8
  27 0016 9307C4FC 		addi	a5,s0,-52
  28 001a 2326F4FE 		sw	a5,-20(s0)
  31:../src/lib/firmware.c **** 	while (val || digits > 0)
  29              		.loc 1 31 8
  30 001e A5A0     		j	.L2
  31              	.L7:
  32:../src/lib/firmware.c **** 	{
  33:../src/lib/firmware.c **** 		if (val)
  32              		.loc 1 33 6
  33 0020 8327C4FB 		lw	a5,-68(s0)
  34 0024 8DC7     		beqz	a5,.L3
  34:../src/lib/firmware.c **** 			*(p++) = '0' + val % 10;
  35              		.loc 1 34 23
  36 0026 0327C4FB 		lw	a4,-68(s0)
  37 002a A947     		li	a5,10
  38 002c B377F702 		remu	a5,a4,a5
  39              		.loc 1 34 17
  40 0030 13F7F70F 		andi	a4,a5,0xff
  41              		.loc 1 34 7
  42 0034 8327C4FE 		lw	a5,-20(s0)
  43 0038 93861700 		addi	a3,a5,1
  44 003c 2326D4FE 		sw	a3,-20(s0)
  45              		.loc 1 34 17
  46 0040 13070703 		addi	a4,a4,48
  47 0044 1377F70F 		andi	a4,a4,0xff
  48              		.loc 1 34 11
  49 0048 2380E700 		sb	a4,0(a5)
  50 004c 0DA0     		j	.L4
  51              	.L3:
  35:../src/lib/firmware.c **** 		else
  36:../src/lib/firmware.c **** 			*(p++) = zero_pad ? '0' : ' ';
  52              		.loc 1 36 11
  53 004e 834774FB 		lbu	a5,-73(s0)
  54 0052 81C7     		beqz	a5,.L5
  55              		.loc 1 36 11 is_stmt 0 discriminator 1
  56 0054 13070003 		li	a4,48
  57 0058 19A0     		j	.L6
  58              	.L5:
  59              		.loc 1 36 11 discriminator 2
  60 005a 13070002 		li	a4,32
  61              	.L6:
  62              		.loc 1 36 7 is_stmt 1 discriminator 4
  63 005e 8327C4FE 		lw	a5,-20(s0)
  64 0062 93861700 		addi	a3,a5,1
  65 0066 2326D4FE 		sw	a3,-20(s0)
  66              		.loc 1 36 11 discriminator 4
  67 006a 2380E700 		sb	a4,0(a5)
  68              	.L4:
  37:../src/lib/firmware.c **** 		val = val / 10;
  69              		.loc 1 37 7
  70 006e 0327C4FB 		lw	a4,-68(s0)
  71 0072 A947     		li	a5,10
  72 0074 B357F702 		divu	a5,a4,a5
  73 0078 232EF4FA 		sw	a5,-68(s0)
  38:../src/lib/firmware.c **** 		digits--;
  74              		.loc 1 38 9
  75 007c 832784FB 		lw	a5,-72(s0)
  76 0080 FD17     		addi	a5,a5,-1
  77 0082 232CF4FA 		sw	a5,-72(s0)
  78              	.L2:
  31:../src/lib/firmware.c **** 	{
  79              		.loc 1 31 8
  80 0086 8327C4FB 		lw	a5,-68(s0)
  81 008a D9FB     		bnez	a5,.L7
  31:../src/lib/firmware.c **** 	{
  82              		.loc 1 31 13 discriminator 1
  83 008c 832784FB 		lw	a5,-72(s0)
  84 0090 E348F0F8 		bgtz	a5,.L7
  39:../src/lib/firmware.c **** 	}
  40:../src/lib/firmware.c **** 	while (p != buffer)
  85              		.loc 1 40 8
  86 0094 81A8     		j	.L8
  87              	.L10:
  41:../src/lib/firmware.c **** 	{
  42:../src/lib/firmware.c **** 		if (p[-1] == ' ' && p[-2] == ' ') p[-1] = '.';
  88              		.loc 1 42 8
  89 0096 8327C4FE 		lw	a5,-20(s0)
  90 009a FD17     		addi	a5,a5,-1
  91 009c 03C70700 		lbu	a4,0(a5)
  92              		.loc 1 42 6
  93 00a0 93070002 		li	a5,32
  94 00a4 6312F702 		bne	a4,a5,.L9
  95              		.loc 1 42 24 discriminator 1
  96 00a8 8327C4FE 		lw	a5,-20(s0)
  97 00ac F917     		addi	a5,a5,-2
  98 00ae 03C70700 		lbu	a4,0(a5)
  99              		.loc 1 42 20 discriminator 1
 100 00b2 93070002 		li	a5,32
 101 00b6 6319F700 		bne	a4,a5,.L9
 102              		.loc 1 42 38 discriminator 2
 103 00ba 8327C4FE 		lw	a5,-20(s0)
 104 00be FD17     		addi	a5,a5,-1
 105              		.loc 1 42 43 discriminator 2
 106 00c0 1307E002 		li	a4,46
 107 00c4 2380E700 		sb	a4,0(a5)
 108              	.L9:
  43:../src/lib/firmware.c **** 		put_char(*(--p));
 109              		.loc 1 43 3
 110 00c8 8327C4FE 		lw	a5,-20(s0)
 111 00cc FD17     		addi	a5,a5,-1
 112 00ce 2326F4FE 		sw	a5,-20(s0)
 113 00d2 8327C4FE 		lw	a5,-20(s0)
 114 00d6 83C70700 		lbu	a5,0(a5)
 115 00da 3E85     		mv	a0,a5
 116 00dc 97000000 		call	wbuart_outbyte
 116      E7800000 
 117              	.L8:
  40:../src/lib/firmware.c **** 	{
 118              		.loc 1 40 8
 119 00e4 9307C4FC 		addi	a5,s0,-52
 120 00e8 0327C4FE 		lw	a4,-20(s0)
 121 00ec E315F7FA 		bne	a4,a5,.L10
  44:../src/lib/firmware.c **** 	}
  45:../src/lib/firmware.c **** }
 122              		.loc 1 45 1
 123 00f0 0100     		nop
 124 00f2 B640     		lw	ra,76(sp)
 125              		.cfi_restore 1
 126 00f4 2644     		lw	s0,72(sp)
 127              		.cfi_restore 8
 128 00f6 6161     		addi	sp,sp,80
 129              		.cfi_def_cfa_register 2
 130 00f8 8280     		jr	ra
 131              		.cfi_endproc
 132              	.LFE3:
 134              		.section	.rodata
 135              		.align	2
 136              	.LC0:
 137 0000 0D0A2D2D 		.string	"\r\n-------------------------------------\r\n"
 137      2D2D2D2D 
 137      2D2D2D2D 
 137      2D2D2D2D 
 137      2D2D2D2D 
 138 002a 0000     		.align	2
 139              	.LC1:
 140 002c 52756E6E 		.string	"Running status: \r\n"
 140      696E6720 
 140      73746174 
 140      75733A20 
 140      0D0A00
 141 003f 00       		.align	2
 142              	.LC2:
 143 0040 4379636C 		.string	"Cycle counter ........: %u\r\n"
 143      6520636F 
 143      756E7465 
 143      72202E2E 
 143      2E2E2E2E 
 144 005d 000000   		.align	2
 145              	.LC3:
 146 0060 496E7374 		.string	"Instruction counter ..: %u\r\n"
 146      72756374 
 146      696F6E20 
 146      636F756E 
 146      74657220 
 147 007d 000000   		.align	2
 148              	.LC4:
 149 0080 4350493A 		.string	"CPI: "
 149      2000
 150 0086 0000     		.align	2
 151              	.LC5:
 152 0088 2E00     		.string	"."
 153 008a 0000     		.align	2
 154              	.LC6:
 155 008c 0D0A00   		.string	"\r\n"
 156 008f 00       		.align	2
 157              	.LC7:
 158 0090 2D2D2D2D 		.string	"-------------------------------------\r\n"
 158      2D2D2D2D 
 158      2D2D2D2D 
 158      2D2D2D2D 
 158      2D2D2D2D 
 159              		.section	.text.stats,"ax",@progbits
 160              		.align	1
 161              		.globl	stats
 163              	stats:
 164              	.LFB4:
  46:../src/lib/firmware.c **** 
  47:../src/lib/firmware.c **** void stats(void)
  48:../src/lib/firmware.c **** {
 165              		.loc 1 48 1
 166              		.cfi_startproc
 167 0000 0111     		addi	sp,sp,-32
 168              		.cfi_def_cfa_offset 32
 169 0002 06CE     		sw	ra,28(sp)
 170 0004 22CC     		sw	s0,24(sp)
 171              		.cfi_offset 1, -4
 172              		.cfi_offset 8, -8
 173 0006 0010     		addi	s0,sp,32
 174              		.cfi_def_cfa 8, 0
  49:../src/lib/firmware.c **** 	unsigned int num_cycles, num_instr;
  50:../src/lib/firmware.c **** 	__asm__ volatile ("rdcycle %0; rdinstret %1;" : "=r"(num_cycles), "=r"(num_instr));
 175              		.loc 1 50 2
 176              	 #APP
 177              	# 50 "../src/lib/firmware.c" 1
  51              		printf("\r\n-------------------------------------\r\n");
 178              		rdcycle a4; rdinstret a5;
 179              	# 0 "" 2
 180              	 #NO_APP
 181 0010 2326E4FE 		sw	a4,-20(s0)
 182 0014 2324F4FE 		sw	a5,-24(s0)
 183              		.loc 1 51 2
 184 0018 17050000 		lla	a0,.LC0
 184      13050500 
 185 0020 97000000 		call	printf
 185      E7800000 
  52:../src/lib/firmware.c **** 	printf("Running status: \r\n");
 186              		.loc 1 52 2
 187 0028 17050000 		lla	a0,.LC1
 187      13050500 
 188 0030 97000000 		call	printf
 188      E7800000 
  53:../src/lib/firmware.c **** 	printf("Cycle counter ........: %u\r\n", num_cycles);
 189              		.loc 1 53 2
 190 0038 8325C4FE 		lw	a1,-20(s0)
 191 003c 17050000 		lla	a0,.LC2
 191      13050500 
 192 0044 97000000 		call	printf
 192      E7800000 
  54:../src/lib/firmware.c **** 	printf("Instruction counter ..: %u\r\n", num_instr);
 193              		.loc 1 54 2
 194 004c 832584FE 		lw	a1,-24(s0)
 195 0050 17050000 		lla	a0,.LC3
 195      13050500 
 196 0058 97000000 		call	printf
 196      E7800000 
  55:../src/lib/firmware.c **** 
  56:../src/lib/firmware.c **** 	printf("CPI: ");
 197              		.loc 1 56 2
 198 0060 17050000 		lla	a0,.LC4
 198      13050500 
 199 0068 97000000 		call	printf
 199      E7800000 
  57:../src/lib/firmware.c **** 	stats_print_dec((num_cycles / num_instr), 0, false);
 200              		.loc 1 57 2
 201 0070 0327C4FE 		lw	a4,-20(s0)
 202 0074 832784FE 		lw	a5,-24(s0)
 203 0078 B357F702 		divu	a5,a4,a5
 204 007c 0146     		li	a2,0
 205 007e 8145     		li	a1,0
 206 0080 3E85     		mv	a0,a5
 207 0082 97000000 		call	stats_print_dec
 207      E7800000 
  58:../src/lib/firmware.c **** 	printf(".");
 208              		.loc 1 58 2
 209 008a 17050000 		lla	a0,.LC5
 209      13050500 
 210 0092 97000000 		call	printf
 210      E7800000 
  59:../src/lib/firmware.c **** 	stats_print_dec(((100 * num_cycles) / num_instr) % 100, 2, true);
 211              		.loc 1 59 24
 212 009a 0327C4FE 		lw	a4,-20(s0)
 213 009e 93074006 		li	a5,100
 214 00a2 3307F702 		mul	a4,a4,a5
 215              		.loc 1 59 38
 216 00a6 832784FE 		lw	a5,-24(s0)
 217 00aa 3357F702 		divu	a4,a4,a5
 218              		.loc 1 59 2
 219 00ae 93074006 		li	a5,100
 220 00b2 B377F702 		remu	a5,a4,a5
 221 00b6 0546     		li	a2,1
 222 00b8 8945     		li	a1,2
 223 00ba 3E85     		mv	a0,a5
 224 00bc 97000000 		call	stats_print_dec
 224      E7800000 
  60:../src/lib/firmware.c **** 	printf("\r\n");
 225              		.loc 1 60 2
 226 00c4 17050000 		lla	a0,.LC6
 226      13050500 
 227 00cc 97000000 		call	printf
 227      E7800000 
  61:../src/lib/firmware.c **** 	printf("-------------------------------------\r\n");
 228              		.loc 1 61 2
 229 00d4 17050000 		lla	a0,.LC7
 229      13050500 
 230 00dc 97000000 		call	printf
 230      E7800000 
  62:../src/lib/firmware.c **** 	printf("\r\n");
 231              		.loc 1 62 2
 232 00e4 17050000 		lla	a0,.LC6
 232      13050500 
 233 00ec 97000000 		call	printf
 233      E7800000 
  63:../src/lib/firmware.c **** }
 234              		.loc 1 63 1
 235 00f4 0100     		nop
 236 00f6 F240     		lw	ra,28(sp)
 237              		.cfi_restore 1
 238 00f8 6244     		lw	s0,24(sp)
 239              		.cfi_restore 8
 240 00fa 0561     		addi	sp,sp,32
 241              		.cfi_def_cfa_register 2
 242 00fc 8280     		jr	ra
 243              		.cfi_endproc
 244              	.LFE4:
 246              		.section	.text.delay,"ax",@progbits
 247              		.align	1
 248              		.globl	delay
 250              	delay:
 251              	.LFB5:
  64:../src/lib/firmware.c **** 
  65:../src/lib/firmware.c **** unsigned int delay( unsigned int delay_cycles)
  66:../src/lib/firmware.c **** {
 252              		.loc 1 66 1
 253              		.cfi_startproc
 254 0000 7971     		addi	sp,sp,-48
 255              		.cfi_def_cfa_offset 48
 256 0002 22D6     		sw	s0,44(sp)
 257              		.cfi_offset 8, -4
 258 0004 0018     		addi	s0,sp,48
 259              		.cfi_def_cfa 8, 0
 260 0006 232EA4FC 		sw	a0,-36(s0)
  67:../src/lib/firmware.c ****     unsigned int cycles_current;
  68:../src/lib/firmware.c ****     unsigned int cycles_start;
  69:../src/lib/firmware.c ****     unsigned int cycles = 0;
 261              		.loc 1 69 18
 262 000a 232604FE 		sw	zero,-20(s0)
  70:../src/lib/firmware.c ****     __asm__ volatile ("rdcycle %0;" : "=r"(cycles_start));
 263              		.loc 1 70 5
 264              	 #APP
 265              	# 70 "../src/lib/firmware.c" 1
  71              	
 266              		rdcycle a5;
 267              	# 0 "" 2
 268              	 #NO_APP
 269 0012 2324F4FE 		sw	a5,-24(s0)
 270              	.L13:
  72:../src/lib/firmware.c **** 
  73:../src/lib/firmware.c ****     do
  74:../src/lib/firmware.c ****     {
  75:../src/lib/firmware.c ****         __asm__ volatile ("rdcycle %0;" : "=r"(cycles_current));
 271              		.loc 1 75 9 discriminator 1
 272              	 #APP
 273              	# 75 "../src/lib/firmware.c" 1
  76              	        cycles = cycles_current - cycles_start;
 274              		rdcycle a5;
 275              	# 0 "" 2
 276              	 #NO_APP
 277 001a 2322F4FE 		sw	a5,-28(s0)
 278              		.loc 1 76 16 discriminator 1
 279 001e 032744FE 		lw	a4,-28(s0)
 280 0022 832784FE 		lw	a5,-24(s0)
 281 0026 B307F740 		sub	a5,a4,a5
 282 002a 2326F4FE 		sw	a5,-20(s0)
  77:../src/lib/firmware.c ****     } while(cycles < delay_cycles);
 283              		.loc 1 77 5 discriminator 1
 284 002e 0327C4FE 		lw	a4,-20(s0)
 285 0032 8327C4FD 		lw	a5,-36(s0)
 286 0036 E360F7FE 		bltu	a4,a5,.L13
  78:../src/lib/firmware.c **** 
  79:../src/lib/firmware.c ****     return cycles;
 287              		.loc 1 79 12
 288 003a 8327C4FE 		lw	a5,-20(s0)
  80:../src/lib/firmware.c **** }
 289              		.loc 1 80 1
 290 003e 3E85     		mv	a0,a5
 291 0040 3254     		lw	s0,44(sp)
 292              		.cfi_restore 8
 293 0042 4561     		addi	sp,sp,48
 294              		.cfi_def_cfa_register 2
 295 0044 8280     		jr	ra
 296              		.cfi_endproc
 297              	.LFE5:
 299              		.section	.text.memset_32,"ax",@progbits
 300              		.align	1
 301              		.globl	memset_32
 303              	memset_32:
 304              	.LFB6:
  81:../src/lib/firmware.c **** 
  82:../src/lib/firmware.c **** void memset_32(uint32_t* dest, uint32_t data, uint32_t length) //length in 32bit
  83:../src/lib/firmware.c **** {
 305              		.loc 1 83 1
 306              		.cfi_startproc
 307 0000 7971     		addi	sp,sp,-48
 308              		.cfi_def_cfa_offset 48
 309 0002 22D6     		sw	s0,44(sp)
 310              		.cfi_offset 8, -4
 311 0004 0018     		addi	s0,sp,48
 312              		.cfi_def_cfa 8, 0
 313 0006 232EA4FC 		sw	a0,-36(s0)
 314 000a 232CB4FC 		sw	a1,-40(s0)
 315 000e 232AC4FC 		sw	a2,-44(s0)
  84:../src/lib/firmware.c **** 	uint32_t* dest_end = dest + 4 * length;
 316              		.loc 1 84 28
 317 0012 832744FD 		lw	a5,-44(s0)
 318 0016 9207     		slli	a5,a5,4
 319              		.loc 1 84 12
 320 0018 0327C4FD 		lw	a4,-36(s0)
 321 001c BA97     		add	a5,a4,a5
 322 001e 2326F4FE 		sw	a5,-20(s0)
  85:../src/lib/firmware.c **** 	while(dest != dest_end)
 323              		.loc 1 85 7
 324 0022 11A8     		j	.L16
 325              	.L17:
  86:../src/lib/firmware.c **** 	{
  87:../src/lib/firmware.c **** 		*dest++ = data;
 326              		.loc 1 87 8
 327 0024 8327C4FD 		lw	a5,-36(s0)
 328 0028 13874700 		addi	a4,a5,4
 329 002c 232EE4FC 		sw	a4,-36(s0)
 330              		.loc 1 87 11
 331 0030 032784FD 		lw	a4,-40(s0)
 332 0034 98C3     		sw	a4,0(a5)
 333              	.L16:
  85:../src/lib/firmware.c **** 	while(dest != dest_end)
 334              		.loc 1 85 7
 335 0036 0327C4FD 		lw	a4,-36(s0)
 336 003a 8327C4FE 		lw	a5,-20(s0)
 337 003e E313F7FE 		bne	a4,a5,.L17
  88:../src/lib/firmware.c **** 	}
  89:../src/lib/firmware.c **** }
 338              		.loc 1 89 1
 339 0042 0100     		nop
 340 0044 3254     		lw	s0,44(sp)
 341              		.cfi_restore 8
 342 0046 4561     		addi	sp,sp,48
 343              		.cfi_def_cfa_register 2
 344 0048 8280     		jr	ra
 345              		.cfi_endproc
 346              	.LFE6:
 348              		.text
 349              	.Letext0:
 350              		.file 2 "c:\\gmd\\toolchain\\risc-v_toolchain\\riscv-none-embed\\include\\machine\\_default_types.
 351              		.file 3 "c:\\gmd\\toolchain\\risc-v_toolchain\\riscv-none-embed\\include\\sys\\_stdint.h"
 352              		.file 4 "c:\\gmd\\toolchain\\risc-v_toolchain\\riscv-none-embed\\include\\sys\\lock.h"
 353              		.file 5 "c:\\gmd\\toolchain\\risc-v_toolchain\\riscv-none-embed\\include\\sys\\_types.h"
 354              		.file 6 "c:\\gmd\\toolchain\\risc-v_toolchain\\lib\\gcc\\riscv-none-embed\\8.2.0\\include\\stddef.
 355              		.file 7 "c:\\gmd\\toolchain\\risc-v_toolchain\\riscv-none-embed\\include\\sys\\reent.h"
DEFINED SYMBOLS
                            *ABS*:0000000000000000 firmware.c
C:\Users\liukai\AppData\Local\Temp\ccRK5ZRb.s:9      .text.stats_print_dec:0000000000000000 stats_print_dec
C:\Users\liukai\AppData\Local\Temp\ccRK5ZRb.s:13     .text.stats_print_dec:0000000000000000 .L0 
C:\Users\liukai\AppData\Local\Temp\ccRK5ZRb.s:14     .text.stats_print_dec:0000000000000000 .L0 
C:\Users\liukai\AppData\Local\Temp\ccRK5ZRb.s:15     .text.stats_print_dec:0000000000000002 .L0 
C:\Users\liukai\AppData\Local\Temp\ccRK5ZRb.s:18     .text.stats_print_dec:0000000000000006 .L0 
C:\Users\liukai\AppData\Local\Temp\ccRK5ZRb.s:19     .text.stats_print_dec:0000000000000006 .L0 
C:\Users\liukai\AppData\Local\Temp\ccRK5ZRb.s:21     .text.stats_print_dec:0000000000000008 .L0 
C:\Users\liukai\AppData\Local\Temp\ccRK5ZRb.s:27     .text.stats_print_dec:0000000000000016 .L0 
C:\Users\liukai\AppData\Local\Temp\ccRK5ZRb.s:30     .text.stats_print_dec:000000000000001e .L0 
C:\Users\liukai\AppData\Local\Temp\ccRK5ZRb.s:33     .text.stats_print_dec:0000000000000020 .L0 
C:\Users\liukai\AppData\Local\Temp\ccRK5ZRb.s:36     .text.stats_print_dec:0000000000000026 .L0 
C:\Users\liukai\AppData\Local\Temp\ccRK5ZRb.s:40     .text.stats_print_dec:0000000000000030 .L0 
C:\Users\liukai\AppData\Local\Temp\ccRK5ZRb.s:42     .text.stats_print_dec:0000000000000034 .L0 
C:\Users\liukai\AppData\Local\Temp\ccRK5ZRb.s:46     .text.stats_print_dec:0000000000000040 .L0 
C:\Users\liukai\AppData\Local\Temp\ccRK5ZRb.s:49     .text.stats_print_dec:0000000000000048 .L0 
C:\Users\liukai\AppData\Local\Temp\ccRK5ZRb.s:53     .text.stats_print_dec:000000000000004e .L0 
C:\Users\liukai\AppData\Local\Temp\ccRK5ZRb.s:56     .text.stats_print_dec:0000000000000054 .L0 
C:\Users\liukai\AppData\Local\Temp\ccRK5ZRb.s:60     .text.stats_print_dec:000000000000005a .L0 
C:\Users\liukai\AppData\Local\Temp\ccRK5ZRb.s:63     .text.stats_print_dec:000000000000005e .L0 
C:\Users\liukai\AppData\Local\Temp\ccRK5ZRb.s:67     .text.stats_print_dec:000000000000006a .L0 
C:\Users\liukai\AppData\Local\Temp\ccRK5ZRb.s:70     .text.stats_print_dec:000000000000006e .L0 
C:\Users\liukai\AppData\Local\Temp\ccRK5ZRb.s:75     .text.stats_print_dec:000000000000007c .L0 
C:\Users\liukai\AppData\Local\Temp\ccRK5ZRb.s:80     .text.stats_print_dec:0000000000000086 .L0 
C:\Users\liukai\AppData\Local\Temp\ccRK5ZRb.s:83     .text.stats_print_dec:000000000000008c .L0 
C:\Users\liukai\AppData\Local\Temp\ccRK5ZRb.s:86     .text.stats_print_dec:0000000000000094 .L0 
C:\Users\liukai\AppData\Local\Temp\ccRK5ZRb.s:89     .text.stats_print_dec:0000000000000096 .L0 
C:\Users\liukai\AppData\Local\Temp\ccRK5ZRb.s:93     .text.stats_print_dec:00000000000000a0 .L0 
C:\Users\liukai\AppData\Local\Temp\ccRK5ZRb.s:96     .text.stats_print_dec:00000000000000a8 .L0 
C:\Users\liukai\AppData\Local\Temp\ccRK5ZRb.s:100    .text.stats_print_dec:00000000000000b2 .L0 
C:\Users\liukai\AppData\Local\Temp\ccRK5ZRb.s:103    .text.stats_print_dec:00000000000000ba .L0 
C:\Users\liukai\AppData\Local\Temp\ccRK5ZRb.s:106    .text.stats_print_dec:00000000000000c0 .L0 
C:\Users\liukai\AppData\Local\Temp\ccRK5ZRb.s:110    .text.stats_print_dec:00000000000000c8 .L0 
C:\Users\liukai\AppData\Local\Temp\ccRK5ZRb.s:119    .text.stats_print_dec:00000000000000e4 .L0 
C:\Users\liukai\AppData\Local\Temp\ccRK5ZRb.s:123    .text.stats_print_dec:00000000000000f0 .L0 
C:\Users\liukai\AppData\Local\Temp\ccRK5ZRb.s:125    .text.stats_print_dec:00000000000000f4 .L0 
C:\Users\liukai\AppData\Local\Temp\ccRK5ZRb.s:127    .text.stats_print_dec:00000000000000f6 .L0 
C:\Users\liukai\AppData\Local\Temp\ccRK5ZRb.s:129    .text.stats_print_dec:00000000000000f8 .L0 
C:\Users\liukai\AppData\Local\Temp\ccRK5ZRb.s:131    .text.stats_print_dec:00000000000000fa .L0 
C:\Users\liukai\AppData\Local\Temp\ccRK5ZRb.s:163    .text.stats:0000000000000000 stats
C:\Users\liukai\AppData\Local\Temp\ccRK5ZRb.s:166    .text.stats:0000000000000000 .L0 
C:\Users\liukai\AppData\Local\Temp\ccRK5ZRb.s:167    .text.stats:0000000000000000 .L0 
C:\Users\liukai\AppData\Local\Temp\ccRK5ZRb.s:168    .text.stats:0000000000000002 .L0 
C:\Users\liukai\AppData\Local\Temp\ccRK5ZRb.s:171    .text.stats:0000000000000006 .L0 
C:\Users\liukai\AppData\Local\Temp\ccRK5ZRb.s:172    .text.stats:0000000000000006 .L0 
C:\Users\liukai\AppData\Local\Temp\ccRK5ZRb.s:174    .text.stats:0000000000000008 .L0 
../src/lib/firmware.c:50     .text.stats:0000000000000008 .L0 
C:\Users\liukai\AppData\Local\Temp\ccRK5ZRb.s:184    .text.stats:0000000000000018 .L0 
C:\Users\liukai\AppData\Local\Temp\ccRK5ZRb.s:187    .text.stats:0000000000000028 .L0 
C:\Users\liukai\AppData\Local\Temp\ccRK5ZRb.s:190    .text.stats:0000000000000038 .L0 
C:\Users\liukai\AppData\Local\Temp\ccRK5ZRb.s:194    .text.stats:000000000000004c .L0 
C:\Users\liukai\AppData\Local\Temp\ccRK5ZRb.s:198    .text.stats:0000000000000060 .L0 
C:\Users\liukai\AppData\Local\Temp\ccRK5ZRb.s:201    .text.stats:0000000000000070 .L0 
C:\Users\liukai\AppData\Local\Temp\ccRK5ZRb.s:209    .text.stats:000000000000008a .L0 
C:\Users\liukai\AppData\Local\Temp\ccRK5ZRb.s:212    .text.stats:000000000000009a .L0 
C:\Users\liukai\AppData\Local\Temp\ccRK5ZRb.s:216    .text.stats:00000000000000a6 .L0 
C:\Users\liukai\AppData\Local\Temp\ccRK5ZRb.s:219    .text.stats:00000000000000ae .L0 
C:\Users\liukai\AppData\Local\Temp\ccRK5ZRb.s:226    .text.stats:00000000000000c4 .L0 
C:\Users\liukai\AppData\Local\Temp\ccRK5ZRb.s:229    .text.stats:00000000000000d4 .L0 
C:\Users\liukai\AppData\Local\Temp\ccRK5ZRb.s:232    .text.stats:00000000000000e4 .L0 
C:\Users\liukai\AppData\Local\Temp\ccRK5ZRb.s:235    .text.stats:00000000000000f4 .L0 
C:\Users\liukai\AppData\Local\Temp\ccRK5ZRb.s:237    .text.stats:00000000000000f8 .L0 
C:\Users\liukai\AppData\Local\Temp\ccRK5ZRb.s:239    .text.stats:00000000000000fa .L0 
C:\Users\liukai\AppData\Local\Temp\ccRK5ZRb.s:241    .text.stats:00000000000000fc .L0 
C:\Users\liukai\AppData\Local\Temp\ccRK5ZRb.s:243    .text.stats:00000000000000fe .L0 
C:\Users\liukai\AppData\Local\Temp\ccRK5ZRb.s:250    .text.delay:0000000000000000 delay
C:\Users\liukai\AppData\Local\Temp\ccRK5ZRb.s:253    .text.delay:0000000000000000 .L0 
C:\Users\liukai\AppData\Local\Temp\ccRK5ZRb.s:254    .text.delay:0000000000000000 .L0 
C:\Users\liukai\AppData\Local\Temp\ccRK5ZRb.s:255    .text.delay:0000000000000002 .L0 
C:\Users\liukai\AppData\Local\Temp\ccRK5ZRb.s:257    .text.delay:0000000000000004 .L0 
C:\Users\liukai\AppData\Local\Temp\ccRK5ZRb.s:259    .text.delay:0000000000000006 .L0 
C:\Users\liukai\AppData\Local\Temp\ccRK5ZRb.s:262    .text.delay:000000000000000a .L0 
../src/lib/firmware.c:70     .text.delay:000000000000000e .L0 
../src/lib/firmware.c:75     .text.delay:0000000000000016 .L0 
C:\Users\liukai\AppData\Local\Temp\ccRK5ZRb.s:279    .text.delay:000000000000001e .L0 
C:\Users\liukai\AppData\Local\Temp\ccRK5ZRb.s:284    .text.delay:000000000000002e .L0 
C:\Users\liukai\AppData\Local\Temp\ccRK5ZRb.s:288    .text.delay:000000000000003a .L0 
C:\Users\liukai\AppData\Local\Temp\ccRK5ZRb.s:290    .text.delay:000000000000003e .L0 
C:\Users\liukai\AppData\Local\Temp\ccRK5ZRb.s:292    .text.delay:0000000000000042 .L0 
C:\Users\liukai\AppData\Local\Temp\ccRK5ZRb.s:294    .text.delay:0000000000000044 .L0 
C:\Users\liukai\AppData\Local\Temp\ccRK5ZRb.s:296    .text.delay:0000000000000046 .L0 
C:\Users\liukai\AppData\Local\Temp\ccRK5ZRb.s:303    .text.memset_32:0000000000000000 memset_32
C:\Users\liukai\AppData\Local\Temp\ccRK5ZRb.s:306    .text.memset_32:0000000000000000 .L0 
C:\Users\liukai\AppData\Local\Temp\ccRK5ZRb.s:307    .text.memset_32:0000000000000000 .L0 
C:\Users\liukai\AppData\Local\Temp\ccRK5ZRb.s:308    .text.memset_32:0000000000000002 .L0 
C:\Users\liukai\AppData\Local\Temp\ccRK5ZRb.s:310    .text.memset_32:0000000000000004 .L0 
C:\Users\liukai\AppData\Local\Temp\ccRK5ZRb.s:312    .text.memset_32:0000000000000006 .L0 
C:\Users\liukai\AppData\Local\Temp\ccRK5ZRb.s:317    .text.memset_32:0000000000000012 .L0 
C:\Users\liukai\AppData\Local\Temp\ccRK5ZRb.s:320    .text.memset_32:0000000000000018 .L0 
C:\Users\liukai\AppData\Local\Temp\ccRK5ZRb.s:324    .text.memset_32:0000000000000022 .L0 
C:\Users\liukai\AppData\Local\Temp\ccRK5ZRb.s:327    .text.memset_32:0000000000000024 .L0 
C:\Users\liukai\AppData\Local\Temp\ccRK5ZRb.s:331    .text.memset_32:0000000000000030 .L0 
C:\Users\liukai\AppData\Local\Temp\ccRK5ZRb.s:335    .text.memset_32:0000000000000036 .L0 
C:\Users\liukai\AppData\Local\Temp\ccRK5ZRb.s:339    .text.memset_32:0000000000000042 .L0 
C:\Users\liukai\AppData\Local\Temp\ccRK5ZRb.s:341    .text.memset_32:0000000000000046 .L0 
C:\Users\liukai\AppData\Local\Temp\ccRK5ZRb.s:343    .text.memset_32:0000000000000048 .L0 
C:\Users\liukai\AppData\Local\Temp\ccRK5ZRb.s:345    .text.memset_32:000000000000004a .L0 
C:\Users\liukai\AppData\Local\Temp\ccRK5ZRb.s:134    .text.stats_print_dec:00000000000000fa .L0 
C:\Users\liukai\AppData\Local\Temp\ccRK5ZRb.s:246    .text.stats:00000000000000fe .L0 
C:\Users\liukai\AppData\Local\Temp\ccRK5ZRb.s:299    .text.delay:0000000000000046 .L0 
C:\Users\liukai\AppData\Local\Temp\ccRK5ZRb.s:348    .text.memset_32:000000000000004a .L0 
                     .debug_frame:0000000000000000 .L0 
C:\Users\liukai\AppData\Local\Temp\ccRK5ZRb.s:78     .text.stats_print_dec:0000000000000086 .L2
C:\Users\liukai\AppData\Local\Temp\ccRK5ZRb.s:51     .text.stats_print_dec:000000000000004e .L3
C:\Users\liukai\AppData\Local\Temp\ccRK5ZRb.s:68     .text.stats_print_dec:000000000000006e .L4
C:\Users\liukai\AppData\Local\Temp\ccRK5ZRb.s:58     .text.stats_print_dec:000000000000005a .L5
C:\Users\liukai\AppData\Local\Temp\ccRK5ZRb.s:61     .text.stats_print_dec:000000000000005e .L6
C:\Users\liukai\AppData\Local\Temp\ccRK5ZRb.s:31     .text.stats_print_dec:0000000000000020 .L7
C:\Users\liukai\AppData\Local\Temp\ccRK5ZRb.s:117    .text.stats_print_dec:00000000000000e4 .L8
C:\Users\liukai\AppData\Local\Temp\ccRK5ZRb.s:108    .text.stats_print_dec:00000000000000c8 .L9
C:\Users\liukai\AppData\Local\Temp\ccRK5ZRb.s:87     .text.stats_print_dec:0000000000000096 .L10
C:\Users\liukai\AppData\Local\Temp\ccRK5ZRb.s:136    .rodata:0000000000000000 .LC0
C:\Users\liukai\AppData\Local\Temp\ccRK5ZRb.s:184    .text.stats:0000000000000018 .L0 
C:\Users\liukai\AppData\Local\Temp\ccRK5ZRb.s:139    .rodata:000000000000002c .LC1
C:\Users\liukai\AppData\Local\Temp\ccRK5ZRb.s:187    .text.stats:0000000000000028 .L0 
C:\Users\liukai\AppData\Local\Temp\ccRK5ZRb.s:142    .rodata:0000000000000040 .LC2
C:\Users\liukai\AppData\Local\Temp\ccRK5ZRb.s:191    .text.stats:000000000000003c .L0 
C:\Users\liukai\AppData\Local\Temp\ccRK5ZRb.s:145    .rodata:0000000000000060 .LC3
C:\Users\liukai\AppData\Local\Temp\ccRK5ZRb.s:195    .text.stats:0000000000000050 .L0 
C:\Users\liukai\AppData\Local\Temp\ccRK5ZRb.s:148    .rodata:0000000000000080 .LC4
C:\Users\liukai\AppData\Local\Temp\ccRK5ZRb.s:198    .text.stats:0000000000000060 .L0 
C:\Users\liukai\AppData\Local\Temp\ccRK5ZRb.s:151    .rodata:0000000000000088 .LC5
C:\Users\liukai\AppData\Local\Temp\ccRK5ZRb.s:209    .text.stats:000000000000008a .L0 
C:\Users\liukai\AppData\Local\Temp\ccRK5ZRb.s:154    .rodata:000000000000008c .LC6
C:\Users\liukai\AppData\Local\Temp\ccRK5ZRb.s:226    .text.stats:00000000000000c4 .L0 
C:\Users\liukai\AppData\Local\Temp\ccRK5ZRb.s:157    .rodata:0000000000000090 .LC7
C:\Users\liukai\AppData\Local\Temp\ccRK5ZRb.s:229    .text.stats:00000000000000d4 .L0 
C:\Users\liukai\AppData\Local\Temp\ccRK5ZRb.s:232    .text.stats:00000000000000e4 .L0 
C:\Users\liukai\AppData\Local\Temp\ccRK5ZRb.s:270    .text.delay:0000000000000016 .L13
C:\Users\liukai\AppData\Local\Temp\ccRK5ZRb.s:333    .text.memset_32:0000000000000036 .L16
C:\Users\liukai\AppData\Local\Temp\ccRK5ZRb.s:325    .text.memset_32:0000000000000024 .L17
C:\Users\liukai\AppData\Local\Temp\ccRK5ZRb.s:1743   .debug_abbrev:0000000000000000 .Ldebug_abbrev0
C:\Users\liukai\AppData\Local\Temp\ccRK5ZRb.s:6227   .debug_str:0000000000001809 .LASF1094
C:\Users\liukai\AppData\Local\Temp\ccRK5ZRb.s:6891   .debug_str:0000000000003ca1 .LASF1095
C:\Users\liukai\AppData\Local\Temp\ccRK5ZRb.s:6935   .debug_str:0000000000003eaf .LASF1096
C:\Users\liukai\AppData\Local\Temp\ccRK5ZRb.s:2366   .debug_ranges:0000000000000000 .Ldebug_ranges0
C:\Users\liukai\AppData\Local\Temp\ccRK5ZRb.s:5747   .debug_line:0000000000000000 .Ldebug_line0
C:\Users\liukai\AppData\Local\Temp\ccRK5ZRb.s:2378   .debug_macro:0000000000000000 .Ldebug_macro0
C:\Users\liukai\AppData\Local\Temp\ccRK5ZRb.s:6229   .debug_str:00000000000018d9 .LASF955
C:\Users\liukai\AppData\Local\Temp\ccRK5ZRb.s:7113   .debug_str:00000000000047a2 .LASF956
C:\Users\liukai\AppData\Local\Temp\ccRK5ZRb.s:7539   .debug_str:0000000000005f0f .LASF957
C:\Users\liukai\AppData\Local\Temp\ccRK5ZRb.s:7805   .debug_str:0000000000006d8d .LASF958
C:\Users\liukai\AppData\Local\Temp\ccRK5ZRb.s:6103   .debug_str:0000000000001224 .LASF959
C:\Users\liukai\AppData\Local\Temp\ccRK5ZRb.s:6685   .debug_str:00000000000032cb .LASF964
C:\Users\liukai\AppData\Local\Temp\ccRK5ZRb.s:6671   .debug_str:0000000000003233 .LASF960
C:\Users\liukai\AppData\Local\Temp\ccRK5ZRb.s:7741   .debug_str:0000000000006a84 .LASF961
C:\Users\liukai\AppData\Local\Temp\ccRK5ZRb.s:7287   .debug_str:00000000000050a4 .LASF962
C:\Users\liukai\AppData\Local\Temp\ccRK5ZRb.s:6981   .debug_str:0000000000004190 .LASF963
C:\Users\liukai\AppData\Local\Temp\ccRK5ZRb.s:7745   .debug_str:0000000000006aac .LASF965
C:\Users\liukai\AppData\Local\Temp\ccRK5ZRb.s:7175   .debug_str:0000000000004a96 .LASF966
C:\Users\liukai\AppData\Local\Temp\ccRK5ZRb.s:7691   .debug_str:00000000000067f6 .LASF967
C:\Users\liukai\AppData\Local\Temp\ccRK5ZRb.s:6585   .debug_str:0000000000002d33 .LASF1074
C:\Users\liukai\AppData\Local\Temp\ccRK5ZRb.s:7781   .debug_str:0000000000006c37 .LASF968
C:\Users\liukai\AppData\Local\Temp\ccRK5ZRb.s:7769   .debug_str:0000000000006bc5 .LASF969
C:\Users\liukai\AppData\Local\Temp\ccRK5ZRb.s:5773   .debug_str:0000000000000147 .LASF970
C:\Users\liukai\AppData\Local\Temp\ccRK5ZRb.s:7421   .debug_str:0000000000005853 .LASF971
C:\Users\liukai\AppData\Local\Temp\ccRK5ZRb.s:6073   .debug_str:0000000000000fed .LASF972
C:\Users\liukai\AppData\Local\Temp\ccRK5ZRb.s:7241   .debug_str:0000000000004e18 .LASF973
C:\Users\liukai\AppData\Local\Temp\ccRK5ZRb.s:7127   .debug_str:0000000000004857 .LASF974
C:\Users\liukai\AppData\Local\Temp\ccRK5ZRb.s:5785   .debug_str:00000000000001ba .LASF975
C:\Users\liukai\AppData\Local\Temp\ccRK5ZRb.s:6931   .debug_str:0000000000003e9e .LASF976
C:\Users\liukai\AppData\Local\Temp\ccRK5ZRb.s:7393   .debug_str:00000000000056a6 .LASF977
C:\Users\liukai\AppData\Local\Temp\ccRK5ZRb.s:7729   .debug_str:00000000000069ea .LASF978
C:\Users\liukai\AppData\Local\Temp\ccRK5ZRb.s:6777   .debug_str:0000000000003764 .LASF983
C:\Users\liukai\AppData\Local\Temp\ccRK5ZRb.s:7435   .debug_str:0000000000005913 .LASF979
C:\Users\liukai\AppData\Local\Temp\ccRK5ZRb.s:7601   .debug_str:0000000000006338 .LASF980
C:\Users\liukai\AppData\Local\Temp\ccRK5ZRb.s:6933   .debug_str:0000000000003ea9 .LASF981
C:\Users\liukai\AppData\Local\Temp\ccRK5ZRb.s:6575   .debug_str:0000000000002caa .LASF982
C:\Users\liukai\AppData\Local\Temp\ccRK5ZRb.s:5879   .debug_str:000000000000064e .LASF984
C:\Users\liukai\AppData\Local\Temp\ccRK5ZRb.s:5885   .debug_str:0000000000000660 .LASF985
C:\Users\liukai\AppData\Local\Temp\ccRK5ZRb.s:7922   .debug_str:00000000000075c9 .LASF986
C:\Users\liukai\AppData\Local\Temp\ccRK5ZRb.s:7809   .debug_str:0000000000006dae .LASF987
C:\Users\liukai\AppData\Local\Temp\ccRK5ZRb.s:7041   .debug_str:0000000000004481 .LASF988
C:\Users\liukai\AppData\Local\Temp\ccRK5ZRb.s:6181   .debug_str:0000000000001641 .LASF989
C:\Users\liukai\AppData\Local\Temp\ccRK5ZRb.s:7613   .debug_str:00000000000063b9 .LASF990
C:\Users\liukai\AppData\Local\Temp\ccRK5ZRb.s:7817   .debug_str:0000000000006df4 .LASF991
C:\Users\liukai\AppData\Local\Temp\ccRK5ZRb.s:7181   .debug_str:0000000000004abd .LASF992
C:\Users\liukai\AppData\Local\Temp\ccRK5ZRb.s:7889   .debug_str:00000000000071f6 .LASF993
C:\Users\liukai\AppData\Local\Temp\ccRK5ZRb.s:6063   .debug_str:0000000000000f82 .LASF994
C:\Users\liukai\AppData\Local\Temp\ccRK5ZRb.s:7885   .debug_str:00000000000071e5 .LASF995
C:\Users\liukai\AppData\Local\Temp\ccRK5ZRb.s:7309   .debug_str:00000000000051db .LASF996
C:\Users\liukai\AppData\Local\Temp\ccRK5ZRb.s:6163   .debug_str:0000000000001524 .LASF997
C:\Users\liukai\AppData\Local\Temp\ccRK5ZRb.s:7689   .debug_str:00000000000067ee .LASF998
C:\Users\liukai\AppData\Local\Temp\ccRK5ZRb.s:7099   .debug_str:00000000000046fb .LASF999
C:\Users\liukai\AppData\Local\Temp\ccRK5ZRb.s:7663   .debug_str:00000000000066b0 .LASF1000
C:\Users\liukai\AppData\Local\Temp\ccRK5ZRb.s:6379   .debug_str:0000000000002264 .LASF1001
C:\Users\liukai\AppData\Local\Temp\ccRK5ZRb.s:6149   .debug_str:000000000000148c .LASF1002
C:\Users\liukai\AppData\Local\Temp\ccRK5ZRb.s:7363   .debug_str:0000000000005451 .LASF1003
C:\Users\liukai\AppData\Local\Temp\ccRK5ZRb.s:7747   .debug_str:0000000000006ab5 .LASF1004
C:\Users\liukai\AppData\Local\Temp\ccRK5ZRb.s:6689   .debug_str:00000000000032f4 .LASF1005
C:\Users\liukai\AppData\Local\Temp\ccRK5ZRb.s:7081   .debug_str:0000000000004647 .LASF1006
C:\Users\liukai\AppData\Local\Temp\ccRK5ZRb.s:6055   .debug_str:0000000000000f26 .LASF1007
C:\Users\liukai\AppData\Local\Temp\ccRK5ZRb.s:7659   .debug_str:0000000000006693 .LASF1008
C:\Users\liukai\AppData\Local\Temp\ccRK5ZRb.s:6563   .debug_str:0000000000002c15 .LASF1009
C:\Users\liukai\AppData\Local\Temp\ccRK5ZRb.s:5801   .debug_str:0000000000000267 .LASF1010
C:\Users\liukai\AppData\Local\Temp\ccRK5ZRb.s:5937   .debug_str:00000000000009f9 .LASF1011
C:\Users\liukai\AppData\Local\Temp\ccRK5ZRb.s:7221   .debug_str:0000000000004d43 .LASF1012
C:\Users\liukai\AppData\Local\Temp\ccRK5ZRb.s:6393   .debug_str:0000000000002314 .LASF1013
C:\Users\liukai\AppData\Local\Temp\ccRK5ZRb.s:7053   .debug_str:00000000000044df .LASF1014
C:\Users\liukai\AppData\Local\Temp\ccRK5ZRb.s:5883   .debug_str:000000000000065a .LASF1015
C:\Users\liukai\AppData\Local\Temp\ccRK5ZRb.s:7349   .debug_str:00000000000053a2 .LASF1016
C:\Users\liukai\AppData\Local\Temp\ccRK5ZRb.s:6603   .debug_str:0000000000002e6c .LASF1017
C:\Users\liukai\AppData\Local\Temp\ccRK5ZRb.s:7439   .debug_str:0000000000005933 .LASF1018
C:\Users\liukai\AppData\Local\Temp\ccRK5ZRb.s:5929   .debug_str:000000000000098e .LASF1019
C:\Users\liukai\AppData\Local\Temp\ccRK5ZRb.s:7069   .debug_str:0000000000004581 .LASF1020
C:\Users\liukai\AppData\Local\Temp\ccRK5ZRb.s:6975   .debug_str:000000000000415d .LASF1021
C:\Users\liukai\AppData\Local\Temp\ccRK5ZRb.s:6329   .debug_str:0000000000001fb2 .LASF1022
C:\Users\liukai\AppData\Local\Temp\ccRK5ZRb.s:6729   .debug_str:000000000000352b .LASF1023
C:\Users\liukai\AppData\Local\Temp\ccRK5ZRb.s:6431   .debug_str:00000000000024d6 .LASF1024
C:\Users\liukai\AppData\Local\Temp\ccRK5ZRb.s:6261   .debug_str:0000000000001b2a .LASF1025
C:\Users\liukai\AppData\Local\Temp\ccRK5ZRb.s:7059   .debug_str:000000000000452f .LASF1026
C:\Users\liukai\AppData\Local\Temp\ccRK5ZRb.s:7189   .debug_str:0000000000004b57 .LASF1027
C:\Users\liukai\AppData\Local\Temp\ccRK5ZRb.s:6829   .debug_str:00000000000039fc .LASF1028
C:\Users\liukai\AppData\Local\Temp\ccRK5ZRb.s:6313   .debug_str:0000000000001e65 .LASF1029
C:\Users\liukai\AppData\Local\Temp\ccRK5ZRb.s:7727   .debug_str:00000000000069e2 .LASF1030
C:\Users\liukai\AppData\Local\Temp\ccRK5ZRb.s:6691   .debug_str:00000000000032fc .LASF1031
C:\Users\liukai\AppData\Local\Temp\ccRK5ZRb.s:6801   .debug_str:0000000000003880 .LASF1032
C:\Users\liukai\AppData\Local\Temp\ccRK5ZRb.s:7753   .debug_str:0000000000006ae4 .LASF1033
C:\Users\liukai\AppData\Local\Temp\ccRK5ZRb.s:6113   .debug_str:00000000000012a9 .LASF1034
C:\Users\liukai\AppData\Local\Temp\ccRK5ZRb.s:6669   .debug_str:000000000000322e .LASF1035
C:\Users\liukai\AppData\Local\Temp\ccRK5ZRb.s:6921   .debug_str:0000000000003e25 .LASF1036
C:\Users\liukai\AppData\Local\Temp\ccRK5ZRb.s:5843   .debug_str:000000000000046f .LASF1037
C:\Users\liukai\AppData\Local\Temp\ccRK5ZRb.s:5823   .debug_str:0000000000000366 .LASF1038
C:\Users\liukai\AppData\Local\Temp\ccRK5ZRb.s:7049   .debug_str:00000000000044c0 .LASF1039
C:\Users\liukai\AppData\Local\Temp\ccRK5ZRb.s:6803   .debug_str:000000000000388a .LASF1040
C:\Users\liukai\AppData\Local\Temp\ccRK5ZRb.s:6589   .debug_str:0000000000002d52 .LASF1041
C:\Users\liukai\AppData\Local\Temp\ccRK5ZRb.s:7875   .debug_str:0000000000007181 .LASF1042
C:\Users\liukai\AppData\Local\Temp\ccRK5ZRb.s:5789   .debug_str:00000000000001d5 .LASF1043
C:\Users\liukai\AppData\Local\Temp\ccRK5ZRb.s:6369   .debug_str:00000000000021dd .LASF361
C:\Users\liukai\AppData\Local\Temp\ccRK5ZRb.s:7397   .debug_str:00000000000056e2 .LASF1044
C:\Users\liukai\AppData\Local\Temp\ccRK5ZRb.s:6929   .debug_str:0000000000003e98 .LASF1045
C:\Users\liukai\AppData\Local\Temp\ccRK5ZRb.s:6859   .debug_str:0000000000003b27 .LASF1046
C:\Users\liukai\AppData\Local\Temp\ccRK5ZRb.s:6615   .debug_str:0000000000002eec .LASF1047
C:\Users\liukai\AppData\Local\Temp\ccRK5ZRb.s:7319   .debug_str:0000000000005233 .LASF1048
C:\Users\liukai\AppData\Local\Temp\ccRK5ZRb.s:7211   .debug_str:0000000000004cb4 .LASF1049
C:\Users\liukai\AppData\Local\Temp\ccRK5ZRb.s:5963   .debug_str:0000000000000afe .LASF1050
C:\Users\liukai\AppData\Local\Temp\ccRK5ZRb.s:7799   .debug_str:0000000000006d20 .LASF1051
C:\Users\liukai\AppData\Local\Temp\ccRK5ZRb.s:6223   .debug_str:00000000000017e9 .LASF1052
C:\Users\liukai\AppData\Local\Temp\ccRK5ZRb.s:7373   .debug_str:000000000000551b .LASF1053
C:\Users\liukai\AppData\Local\Temp\ccRK5ZRb.s:5839   .debug_str:000000000000044b .LASF1054
C:\Users\liukai\AppData\Local\Temp\ccRK5ZRb.s:6141   .debug_str:0000000000001432 .LASF1055
C:\Users\liukai\AppData\Local\Temp\ccRK5ZRb.s:6895   .debug_str:0000000000003ccc .LASF1056
C:\Users\liukai\AppData\Local\Temp\ccRK5ZRb.s:7077   .debug_str:0000000000004625 .LASF1057
C:\Users\liukai\AppData\Local\Temp\ccRK5ZRb.s:7415   .debug_str:0000000000005807 .LASF1058
C:\Users\liukai\AppData\Local\Temp\ccRK5ZRb.s:7537   .debug_str:0000000000005f02 .LASF1059
C:\Users\liukai\AppData\Local\Temp\ccRK5ZRb.s:7259   .debug_str:0000000000004f4b .LASF1060
C:\Users\liukai\AppData\Local\Temp\ccRK5ZRb.s:7065   .debug_str:0000000000004559 .LASF1061
C:\Users\liukai\AppData\Local\Temp\ccRK5ZRb.s:5895   .debug_str:00000000000006d9 .LASF1062
C:\Users\liukai\AppData\Local\Temp\ccRK5ZRb.s:6749   .debug_str:0000000000003656 .LASF1063
C:\Users\liukai\AppData\Local\Temp\ccRK5ZRb.s:7926   .debug_str:00000000000075e9 .LASF1064
C:\Users\liukai\AppData\Local\Temp\ccRK5ZRb.s:6101   .debug_str:0000000000001216 .LASF1065
C:\Users\liukai\AppData\Local\Temp\ccRK5ZRb.s:7385   .debug_str:00000000000055f2 .LASF1066
C:\Users\liukai\AppData\Local\Temp\ccRK5ZRb.s:7837   .debug_str:0000000000006f4a .LASF1067
C:\Users\liukai\AppData\Local\Temp\ccRK5ZRb.s:7035   .debug_str:0000000000004447 .LASF1068
C:\Users\liukai\AppData\Local\Temp\ccRK5ZRb.s:6955   .debug_str:0000000000003fb7 .LASF1069
C:\Users\liukai\AppData\Local\Temp\ccRK5ZRb.s:7009   .debug_str:000000000000430d .LASF1070
C:\Users\liukai\AppData\Local\Temp\ccRK5ZRb.s:7697   .debug_str:0000000000006835 .LASF1071
C:\Users\liukai\AppData\Local\Temp\ccRK5ZRb.s:6879   .debug_str:0000000000003c37 .LASF1072
C:\Users\liukai\AppData\Local\Temp\ccRK5ZRb.s:6349   .debug_str:00000000000020b3 .LASF1073
C:\Users\liukai\AppData\Local\Temp\ccRK5ZRb.s:5781   .debug_str:0000000000000196 .LASF1075
C:\Users\liukai\AppData\Local\Temp\ccRK5ZRb.s:6107   .debug_str:000000000000125b .LASF1076
C:\Users\liukai\AppData\Local\Temp\ccRK5ZRb.s:6335   .debug_str:000000000000202e .LASF1077
C:\Users\liukai\AppData\Local\Temp\ccRK5ZRb.s:6953   .debug_str:0000000000003fad .LASF1086
C:\Users\liukai\AppData\Local\Temp\ccRK5ZRb.s:304    .text.memset_32:0000000000000000 .LFB6
C:\Users\liukai\AppData\Local\Temp\ccRK5ZRb.s:346    .text.memset_32:000000000000004a .LFE6
C:\Users\liukai\AppData\Local\Temp\ccRK5ZRb.s:7423   .debug_str:000000000000585a .LASF1078
C:\Users\liukai\AppData\Local\Temp\ccRK5ZRb.s:7912   .debug_str:000000000000753f .LASF1079
C:\Users\liukai\AppData\Local\Temp\ccRK5ZRb.s:7303   .debug_str:000000000000518b .LASF1080
C:\Users\liukai\AppData\Local\Temp\ccRK5ZRb.s:7151   .debug_str:000000000000499e .LASF1082
C:\Users\liukai\AppData\Local\Temp\ccRK5ZRb.s:5985   .debug_str:0000000000000bce .LASF1097
C:\Users\liukai\AppData\Local\Temp\ccRK5ZRb.s:251    .text.delay:0000000000000000 .LFB5
C:\Users\liukai\AppData\Local\Temp\ccRK5ZRb.s:297    .text.delay:0000000000000046 .LFE5
C:\Users\liukai\AppData\Local\Temp\ccRK5ZRb.s:7757   .debug_str:0000000000006b10 .LASF1081
C:\Users\liukai\AppData\Local\Temp\ccRK5ZRb.s:6405   .debug_str:000000000000238d .LASF1083
C:\Users\liukai\AppData\Local\Temp\ccRK5ZRb.s:6397   .debug_str:000000000000232a .LASF1084
C:\Users\liukai\AppData\Local\Temp\ccRK5ZRb.s:5871   .debug_str:0000000000000603 .LASF1085
C:\Users\liukai\AppData\Local\Temp\ccRK5ZRb.s:5943   .debug_str:0000000000000a23 .LASF1087
C:\Users\liukai\AppData\Local\Temp\ccRK5ZRb.s:164    .text.stats:0000000000000000 .LFB4
C:\Users\liukai\AppData\Local\Temp\ccRK5ZRb.s:244    .text.stats:00000000000000fe .LFE4
C:\Users\liukai\AppData\Local\Temp\ccRK5ZRb.s:6573   .debug_str:0000000000002c9f .LASF1088
C:\Users\liukai\AppData\Local\Temp\ccRK5ZRb.s:7703   .debug_str:000000000000685c .LASF1089
C:\Users\liukai\AppData\Local\Temp\ccRK5ZRb.s:7207   .debug_str:0000000000004c84 .LASF1098
C:\Users\liukai\AppData\Local\Temp\ccRK5ZRb.s:10     .text.stats_print_dec:0000000000000000 .LFB3
C:\Users\liukai\AppData\Local\Temp\ccRK5ZRb.s:132    .text.stats_print_dec:00000000000000fa .LFE3
C:\Users\liukai\AppData\Local\Temp\ccRK5ZRb.s:5881   .debug_str:0000000000000653 .LASF1090
C:\Users\liukai\AppData\Local\Temp\ccRK5ZRb.s:7551   .debug_str:0000000000005fdd .LASF1091
C:\Users\liukai\AppData\Local\Temp\ccRK5ZRb.s:6555   .debug_str:0000000000002bbb .LASF1092
C:\Users\liukai\AppData\Local\Temp\ccRK5ZRb.s:6351   .debug_str:00000000000020bb .LASF1093
C:\Users\liukai\AppData\Local\Temp\ccRK5ZRb.s:357    .debug_info:0000000000000000 .Ldebug_info0
C:\Users\liukai\AppData\Local\Temp\ccRK5ZRb.s:2719   .debug_macro:0000000000000000 .Ldebug_macro2
C:\Users\liukai\AppData\Local\Temp\ccRK5ZRb.s:7261   .debug_str:0000000000004f59 .LASF311
C:\Users\liukai\AppData\Local\Temp\ccRK5ZRb.s:3657   .debug_macro:0000000000000000 .Ldebug_macro3
C:\Users\liukai\AppData\Local\Temp\ccRK5ZRb.s:6267   .debug_str:0000000000001b9a .LASF317
C:\Users\liukai\AppData\Local\Temp\ccRK5ZRb.s:7143   .debug_str:0000000000004940 .LASF318
C:\Users\liukai\AppData\Local\Temp\ccRK5ZRb.s:6355   .debug_str:00000000000020fe .LASF319
C:\Users\liukai\AppData\Local\Temp\ccRK5ZRb.s:3677   .debug_macro:0000000000000000 .Ldebug_macro4
C:\Users\liukai\AppData\Local\Temp\ccRK5ZRb.s:3697   .debug_macro:0000000000000000 .Ldebug_macro5
C:\Users\liukai\AppData\Local\Temp\ccRK5ZRb.s:3762   .debug_macro:0000000000000000 .Ldebug_macro6
C:\Users\liukai\AppData\Local\Temp\ccRK5ZRb.s:3803   .debug_macro:0000000000000000 .Ldebug_macro7
C:\Users\liukai\AppData\Local\Temp\ccRK5ZRb.s:3919   .debug_macro:0000000000000000 .Ldebug_macro8
C:\Users\liukai\AppData\Local\Temp\ccRK5ZRb.s:3975   .debug_macro:0000000000000000 .Ldebug_macro9
C:\Users\liukai\AppData\Local\Temp\ccRK5ZRb.s:6973   .debug_str:0000000000004151 .LASF472
C:\Users\liukai\AppData\Local\Temp\ccRK5ZRb.s:7391   .debug_str:000000000000569b .LASF473
C:\Users\liukai\AppData\Local\Temp\ccRK5ZRb.s:6951   .debug_str:0000000000003f9f .LASF474
C:\Users\liukai\AppData\Local\Temp\ccRK5ZRb.s:4187   .debug_macro:0000000000000000 .Ldebug_macro10
C:\Users\liukai\AppData\Local\Temp\ccRK5ZRb.s:6885   .debug_str:0000000000003c62 .LASF489
C:\Users\liukai\AppData\Local\Temp\ccRK5ZRb.s:4234   .debug_macro:0000000000000000 .Ldebug_macro11
C:\Users\liukai\AppData\Local\Temp\ccRK5ZRb.s:4248   .debug_macro:0000000000000000 .Ldebug_macro12
C:\Users\liukai\AppData\Local\Temp\ccRK5ZRb.s:4274   .debug_macro:0000000000000000 .Ldebug_macro13
C:\Users\liukai\AppData\Local\Temp\ccRK5ZRb.s:4303   .debug_macro:0000000000000000 .Ldebug_macro14
C:\Users\liukai\AppData\Local\Temp\ccRK5ZRb.s:5961   .debug_str:0000000000000aef .LASF511
C:\Users\liukai\AppData\Local\Temp\ccRK5ZRb.s:4317   .debug_macro:0000000000000000 .Ldebug_macro15
C:\Users\liukai\AppData\Local\Temp\ccRK5ZRb.s:4385   .debug_macro:0000000000000000 .Ldebug_macro16
C:\Users\liukai\AppData\Local\Temp\ccRK5ZRb.s:4750   .debug_macro:0000000000000000 .Ldebug_macro17
C:\Users\liukai\AppData\Local\Temp\ccRK5ZRb.s:6413   .debug_str:00000000000023ce .LASF685
C:\Users\liukai\AppData\Local\Temp\ccRK5ZRb.s:4863   .debug_macro:0000000000000000 .Ldebug_macro18
C:\Users\liukai\AppData\Local\Temp\ccRK5ZRb.s:6523   .debug_str:00000000000029e6 .LASF688
C:\Users\liukai\AppData\Local\Temp\ccRK5ZRb.s:7017   .debug_str:000000000000434f .LASF689
C:\Users\liukai\AppData\Local\Temp\ccRK5ZRb.s:7683   .debug_str:00000000000067af .LASF690
C:\Users\liukai\AppData\Local\Temp\ccRK5ZRb.s:7681   .debug_str:000000000000679c .LASF691
C:\Users\liukai\AppData\Local\Temp\ccRK5ZRb.s:4874   .debug_macro:0000000000000000 .Ldebug_macro19
C:\Users\liukai\AppData\Local\Temp\ccRK5ZRb.s:4921   .debug_macro:0000000000000000 .Ldebug_macro20
C:\Users\liukai\AppData\Local\Temp\ccRK5ZRb.s:4938   .debug_macro:0000000000000000 .Ldebug_macro21
C:\Users\liukai\AppData\Local\Temp\ccRK5ZRb.s:4970   .debug_macro:0000000000000000 .Ldebug_macro22
C:\Users\liukai\AppData\Local\Temp\ccRK5ZRb.s:4987   .debug_macro:0000000000000000 .Ldebug_macro23
C:\Users\liukai\AppData\Local\Temp\ccRK5ZRb.s:5163   .debug_macro:0000000000000000 .Ldebug_macro24
C:\Users\liukai\AppData\Local\Temp\ccRK5ZRb.s:7339   .debug_str:0000000000005335 .LASF774
C:\Users\liukai\AppData\Local\Temp\ccRK5ZRb.s:5174   .debug_macro:0000000000000000 .Ldebug_macro25
C:\Users\liukai\AppData\Local\Temp\ccRK5ZRb.s:5191   .debug_macro:0000000000000000 .Ldebug_macro26
C:\Users\liukai\AppData\Local\Temp\ccRK5ZRb.s:6875   .debug_str:0000000000003bf3 .LASF792
C:\Users\liukai\AppData\Local\Temp\ccRK5ZRb.s:7507   .debug_str:0000000000005ceb .LASF793
C:\Users\liukai\AppData\Local\Temp\ccRK5ZRb.s:5235   .debug_macro:0000000000000000 .Ldebug_macro27
C:\Users\liukai\AppData\Local\Temp\ccRK5ZRb.s:5993   .debug_str:0000000000000c07 .LASF804
C:\Users\liukai\AppData\Local\Temp\ccRK5ZRb.s:7047   .debug_str:00000000000044ad .LASF805
C:\Users\liukai\AppData\Local\Temp\ccRK5ZRb.s:5270   .debug_macro:0000000000000000 .Ldebug_macro28
C:\Users\liukai\AppData\Local\Temp\ccRK5ZRb.s:5281   .debug_macro:0000000000000000 .Ldebug_macro29
C:\Users\liukai\AppData\Local\Temp\ccRK5ZRb.s:5316   .debug_macro:0000000000000000 .Ldebug_macro30
C:\Users\liukai\AppData\Local\Temp\ccRK5ZRb.s:7879   .debug_str:00000000000071ad .LASF850
C:\Users\liukai\AppData\Local\Temp\ccRK5ZRb.s:5417   .debug_macro:0000000000000000 .Ldebug_macro31
C:\Users\liukai\AppData\Local\Temp\ccRK5ZRb.s:5434   .debug_macro:0000000000000000 .Ldebug_macro32
C:\Users\liukai\AppData\Local\Temp\ccRK5ZRb.s:7377   .debug_str:000000000000555c .LASF864
C:\Users\liukai\AppData\Local\Temp\ccRK5ZRb.s:6343   .debug_str:000000000000207d .LASF865
C:\Users\liukai\AppData\Local\Temp\ccRK5ZRb.s:5466   .debug_macro:0000000000000000 .Ldebug_macro33
C:\Users\liukai\AppData\Local\Temp\ccRK5ZRb.s:5480   .debug_macro:0000000000000000 .Ldebug_macro34
C:\Users\liukai\AppData\Local\Temp\ccRK5ZRb.s:5650   .debug_macro:0000000000000000 .Ldebug_macro35
C:\Users\liukai\AppData\Local\Temp\ccRK5ZRb.s:5670   .debug_macro:0000000000000000 .Ldebug_macro36
C:\Users\liukai\AppData\Local\Temp\ccRK5ZRb.s:7771   .debug_str:0000000000006bcd .LASF953
C:\Users\liukai\AppData\Local\Temp\ccRK5ZRb.s:7869   .debug_str:000000000000713d .LASF954
C:\Users\liukai\AppData\Local\Temp\ccRK5ZRb.s:7045   .debug_str:00000000000044a2 .LASF0
C:\Users\liukai\AppData\Local\Temp\ccRK5ZRb.s:6623   .debug_str:0000000000002f42 .LASF1
C:\Users\liukai\AppData\Local\Temp\ccRK5ZRb.s:5877   .debug_str:000000000000063c .LASF2
C:\Users\liukai\AppData\Local\Temp\ccRK5ZRb.s:6287   .debug_str:0000000000001c90 .LASF3
C:\Users\liukai\AppData\Local\Temp\ccRK5ZRb.s:6767   .debug_str:0000000000003704 .LASF4
C:\Users\liukai\AppData\Local\Temp\ccRK5ZRb.s:6679   .debug_str:000000000000328f .LASF5
C:\Users\liukai\AppData\Local\Temp\ccRK5ZRb.s:7443   .debug_str:000000000000595f .LASF6
C:\Users\liukai\AppData\Local\Temp\ccRK5ZRb.s:6251   .debug_str:0000000000001a73 .LASF7
C:\Users\liukai\AppData\Local\Temp\ccRK5ZRb.s:6969   .debug_str:000000000000412f .LASF8
C:\Users\liukai\AppData\Local\Temp\ccRK5ZRb.s:7571   .debug_str:0000000000006132 .LASF9
C:\Users\liukai\AppData\Local\Temp\ccRK5ZRb.s:6307   .debug_str:0000000000001de8 .LASF10
C:\Users\liukai\AppData\Local\Temp\ccRK5ZRb.s:7271   .debug_str:0000000000004fe6 .LASF11
C:\Users\liukai\AppData\Local\Temp\ccRK5ZRb.s:6755   .debug_str:0000000000003685 .LASF12
C:\Users\liukai\AppData\Local\Temp\ccRK5ZRb.s:7902   .debug_str:00000000000074b5 .LASF13
C:\Users\liukai\AppData\Local\Temp\ccRK5ZRb.s:5821   .debug_str:0000000000000353 .LASF14
C:\Users\liukai\AppData\Local\Temp\ccRK5ZRb.s:7341   .debug_str:000000000000534b .LASF15
C:\Users\liukai\AppData\Local\Temp\ccRK5ZRb.s:7737   .debug_str:0000000000006a65 .LASF16
C:\Users\liukai\AppData\Local\Temp\ccRK5ZRb.s:6277   .debug_str:0000000000001c12 .LASF17
C:\Users\liukai\AppData\Local\Temp\ccRK5ZRb.s:5837   .debug_str:0000000000000434 .LASF18
C:\Users\liukai\AppData\Local\Temp\ccRK5ZRb.s:6345   .debug_str:000000000000208d .LASF19
C:\Users\liukai\AppData\Local\Temp\ccRK5ZRb.s:6289   .debug_str:0000000000001ca2 .LASF20
C:\Users\liukai\AppData\Local\Temp\ccRK5ZRb.s:6191   .debug_str:000000000000169f .LASF21
C:\Users\liukai\AppData\Local\Temp\ccRK5ZRb.s:7695   .debug_str:000000000000681b .LASF22
C:\Users\liukai\AppData\Local\Temp\ccRK5ZRb.s:7509   .debug_str:0000000000005cfc .LASF23
C:\Users\liukai\AppData\Local\Temp\ccRK5ZRb.s:7015   .debug_str:0000000000004340 .LASF24
C:\Users\liukai\AppData\Local\Temp\ccRK5ZRb.s:6399   .debug_str:0000000000002337 .LASF25
C:\Users\liukai\AppData\Local\Temp\ccRK5ZRb.s:7277   .debug_str:0000000000005044 .LASF26
C:\Users\liukai\AppData\Local\Temp\ccRK5ZRb.s:5995   .debug_str:0000000000000c19 .LASF27
C:\Users\liukai\AppData\Local\Temp\ccRK5ZRb.s:5861   .debug_str:0000000000000589 .LASF28
C:\Users\liukai\AppData\Local\Temp\ccRK5ZRb.s:6945   .debug_str:0000000000003f35 .LASF29
C:\Users\liukai\AppData\Local\Temp\ccRK5ZRb.s:7055   .debug_str:00000000000044e5 .LASF30
C:\Users\liukai\AppData\Local\Temp\ccRK5ZRb.s:6137   .debug_str:00000000000013f4 .LASF31
C:\Users\liukai\AppData\Local\Temp\ccRK5ZRb.s:5863   .debug_str:00000000000005a3 .LASF32
C:\Users\liukai\AppData\Local\Temp\ccRK5ZRb.s:7295   .debug_str:0000000000005139 .LASF33
C:\Users\liukai\AppData\Local\Temp\ccRK5ZRb.s:6947   .debug_str:0000000000003f5c .LASF34
C:\Users\liukai\AppData\Local\Temp\ccRK5ZRb.s:6963   .debug_str:00000000000040c0 .LASF35
C:\Users\liukai\AppData\Local\Temp\ccRK5ZRb.s:7455   .debug_str:0000000000005a35 .LASF36
C:\Users\liukai\AppData\Local\Temp\ccRK5ZRb.s:6159   .debug_str:00000000000014ec .LASF37
C:\Users\liukai\AppData\Local\Temp\ccRK5ZRb.s:7327   .debug_str:0000000000005288 .LASF38
C:\Users\liukai\AppData\Local\Temp\ccRK5ZRb.s:6173   .debug_str:00000000000015c4 .LASF39
C:\Users\liukai\AppData\Local\Temp\ccRK5ZRb.s:7413   .debug_str:00000000000057ef .LASF40
C:\Users\liukai\AppData\Local\Temp\ccRK5ZRb.s:5869   .debug_str:00000000000005e9 .LASF41
C:\Users\liukai\AppData\Local\Temp\ccRK5ZRb.s:5889   .debug_str:0000000000000678 .LASF42
C:\Users\liukai\AppData\Local\Temp\ccRK5ZRb.s:7906   .debug_str:00000000000074e8 .LASF43
C:\Users\liukai\AppData\Local\Temp\ccRK5ZRb.s:6903   .debug_str:0000000000003d1e .LASF44
C:\Users\liukai\AppData\Local\Temp\ccRK5ZRb.s:7057   .debug_str:0000000000004512 .LASF45
C:\Users\liukai\AppData\Local\Temp\ccRK5ZRb.s:6681   .debug_str:000000000000329a .LASF46
C:\Users\liukai\AppData\Local\Temp\ccRK5ZRb.s:7707   .debug_str:00000000000068a5 .LASF47
C:\Users\liukai\AppData\Local\Temp\ccRK5ZRb.s:6639   .debug_str:0000000000003053 .LASF48
C:\Users\liukai\AppData\Local\Temp\ccRK5ZRb.s:7904   .debug_str:00000000000074c8 .LASF49
C:\Users\liukai\AppData\Local\Temp\ccRK5ZRb.s:7797   .debug_str:0000000000006d01 .LASF50
C:\Users\liukai\AppData\Local\Temp\ccRK5ZRb.s:7257   .debug_str:0000000000004f2d .LASF51
C:\Users\liukai\AppData\Local\Temp\ccRK5ZRb.s:6035   .debug_str:0000000000000e0a .LASF52
C:\Users\liukai\AppData\Local\Temp\ccRK5ZRb.s:6093   .debug_str:0000000000001110 .LASF53
C:\Users\liukai\AppData\Local\Temp\ccRK5ZRb.s:7321   .debug_str:000000000000523b .LASF54
C:\Users\liukai\AppData\Local\Temp\ccRK5ZRb.s:7447   .debug_str:0000000000005988 .LASF55
C:\Users\liukai\AppData\Local\Temp\ccRK5ZRb.s:6735   .debug_str:0000000000003592 .LASF56
C:\Users\liukai\AppData\Local\Temp\ccRK5ZRb.s:6121   .debug_str:0000000000001304 .LASF57
C:\Users\liukai\AppData\Local\Temp\ccRK5ZRb.s:7313   .debug_str:00000000000051f9 .LASF58
C:\Users\liukai\AppData\Local\Temp\ccRK5ZRb.s:6765   .debug_str:00000000000036ec .LASF59
C:\Users\liukai\AppData\Local\Temp\ccRK5ZRb.s:5923   .debug_str:000000000000093c .LASF60
C:\Users\liukai\AppData\Local\Temp\ccRK5ZRb.s:6705   .debug_str:0000000000003398 .LASF61
C:\Users\liukai\AppData\Local\Temp\ccRK5ZRb.s:7765   .debug_str:0000000000006b8c .LASF62
C:\Users\liukai\AppData\Local\Temp\ccRK5ZRb.s:6283   .debug_str:0000000000001c5d .LASF63
C:\Users\liukai\AppData\Local\Temp\ccRK5ZRb.s:6385   .debug_str:0000000000002290 .LASF64
C:\Users\liukai\AppData\Local\Temp\ccRK5ZRb.s:6789   .debug_str:00000000000037ff .LASF65
C:\Users\liukai\AppData\Local\Temp\ccRK5ZRb.s:7493   .debug_str:0000000000005c26 .LASF66
C:\Users\liukai\AppData\Local\Temp\ccRK5ZRb.s:6645   .debug_str:00000000000030a2 .LASF67
C:\Users\liukai\AppData\Local\Temp\ccRK5ZRb.s:6477   .debug_str:00000000000027a5 .LASF68
C:\Users\liukai\AppData\Local\Temp\ccRK5ZRb.s:6449   .debug_str:00000000000025e9 .LASF69
C:\Users\liukai\AppData\Local\Temp\ccRK5ZRb.s:7025   .debug_str:00000000000043c4 .LASF70
C:\Users\liukai\AppData\Local\Temp\ccRK5ZRb.s:7291   .debug_str:00000000000050e3 .LASF71
C:\Users\liukai\AppData\Local\Temp\ccRK5ZRb.s:7942   .debug_str:00000000000076a7 .LASF72
C:\Users\liukai\AppData\Local\Temp\ccRK5ZRb.s:7843   .debug_str:0000000000006f89 .LASF73
C:\Users\liukai\AppData\Local\Temp\ccRK5ZRb.s:7171   .debug_str:0000000000004a59 .LASF74
C:\Users\liukai\AppData\Local\Temp\ccRK5ZRb.s:6381   .debug_str:0000000000002269 .LASF75
C:\Users\liukai\AppData\Local\Temp\ccRK5ZRb.s:6525   .debug_str:00000000000029f8 .LASF76
C:\Users\liukai\AppData\Local\Temp\ccRK5ZRb.s:7299   .debug_str:0000000000005162 .LASF77
C:\Users\liukai\AppData\Local\Temp\ccRK5ZRb.s:7777   .debug_str:0000000000006c04 .LASF78
C:\Users\liukai\AppData\Local\Temp\ccRK5ZRb.s:5793   .debug_str:00000000000001f6 .LASF79
C:\Users\liukai\AppData\Local\Temp\ccRK5ZRb.s:7833   .debug_str:0000000000006f22 .LASF80
C:\Users\liukai\AppData\Local\Temp\ccRK5ZRb.s:6041   .debug_str:0000000000000e6c .LASF81
C:\Users\liukai\AppData\Local\Temp\ccRK5ZRb.s:7073   .debug_str:00000000000045a4 .LASF82
C:\Users\liukai\AppData\Local\Temp\ccRK5ZRb.s:7629   .debug_str:00000000000064c5 .LASF83
C:\Users\liukai\AppData\Local\Temp\ccRK5ZRb.s:6811   .debug_str:00000000000038dd .LASF84
C:\Users\liukai\AppData\Local\Temp\ccRK5ZRb.s:6857   .debug_str:0000000000003b10 .LASF85
C:\Users\liukai\AppData\Local\Temp\ccRK5ZRb.s:7871   .debug_str:000000000000715b .LASF86
C:\Users\liukai\AppData\Local\Temp\ccRK5ZRb.s:6901   .debug_str:0000000000003d0c .LASF87
C:\Users\liukai\AppData\Local\Temp\ccRK5ZRb.s:6017   .debug_str:0000000000000d15 .LASF88
C:\Users\liukai\AppData\Local\Temp\ccRK5ZRb.s:7773   .debug_str:0000000000006bd8 .LASF89
C:\Users\liukai\AppData\Local\Temp\ccRK5ZRb.s:5803   .debug_str:000000000000026d .LASF90
C:\Users\liukai\AppData\Local\Temp\ccRK5ZRb.s:5765   .debug_str:00000000000000b7 .LASF91
C:\Users\liukai\AppData\Local\Temp\ccRK5ZRb.s:7932   .debug_str:0000000000007623 .LASF92
C:\Users\liukai\AppData\Local\Temp\ccRK5ZRb.s:6135   .debug_str:00000000000013dc .LASF93
C:\Users\liukai\AppData\Local\Temp\ccRK5ZRb.s:5857   .debug_str:0000000000000560 .LASF94
C:\Users\liukai\AppData\Local\Temp\ccRK5ZRb.s:7579   .debug_str:000000000000619e .LASF95
C:\Users\liukai\AppData\Local\Temp\ccRK5ZRb.s:6545   .debug_str:0000000000002b0b .LASF96
C:\Users\liukai\AppData\Local\Temp\ccRK5ZRb.s:7647   .debug_str:00000000000065d5 .LASF97
C:\Users\liukai\AppData\Local\Temp\ccRK5ZRb.s:6661   .debug_str:0000000000003188 .LASF98
C:\Users\liukai\AppData\Local\Temp\ccRK5ZRb.s:7619   .debug_str:00000000000063f8 .LASF99
C:\Users\liukai\AppData\Local\Temp\ccRK5ZRb.s:6713   .debug_str:0000000000003454 .LASF100
C:\Users\liukai\AppData\Local\Temp\ccRK5ZRb.s:6787   .debug_str:00000000000037dc .LASF101
C:\Users\liukai\AppData\Local\Temp\ccRK5ZRb.s:6421   .debug_str:000000000000244e .LASF102
C:\Users\liukai\AppData\Local\Temp\ccRK5ZRb.s:7944   .debug_str:00000000000076be .LASF103
C:\Users\liukai\AppData\Local\Temp\ccRK5ZRb.s:6763   .debug_str:00000000000036d0 .LASF104
C:\Users\liukai\AppData\Local\Temp\ccRK5ZRb.s:6611   .debug_str:0000000000002eb6 .LASF105
C:\Users\liukai\AppData\Local\Temp\ccRK5ZRb.s:6629   .debug_str:0000000000002fe2 .LASF106
C:\Users\liukai\AppData\Local\Temp\ccRK5ZRb.s:7191   .debug_str:0000000000004b5c .LASF107
C:\Users\liukai\AppData\Local\Temp\ccRK5ZRb.s:7793   .debug_str:0000000000006cce .LASF108
C:\Users\liukai\AppData\Local\Temp\ccRK5ZRb.s:6455   .debug_str:000000000000261b .LASF109
C:\Users\liukai\AppData\Local\Temp\ccRK5ZRb.s:7881   .debug_str:00000000000071c4 .LASF110
C:\Users\liukai\AppData\Local\Temp\ccRK5ZRb.s:6577   .debug_str:0000000000002caf .LASF111
C:\Users\liukai\AppData\Local\Temp\ccRK5ZRb.s:7667   .debug_str:00000000000066c9 .LASF112
C:\Users\liukai\AppData\Local\Temp\ccRK5ZRb.s:5991   .debug_str:0000000000000bf3 .LASF113
C:\Users\liukai\AppData\Local\Temp\ccRK5ZRb.s:6193   .debug_str:00000000000016b3 .LASF114
C:\Users\liukai\AppData\Local\Temp\ccRK5ZRb.s:6719   .debug_str:000000000000349f .LASF115
C:\Users\liukai\AppData\Local\Temp\ccRK5ZRb.s:7515   .debug_str:0000000000005d41 .LASF116
C:\Users\liukai\AppData\Local\Temp\ccRK5ZRb.s:6655   .debug_str:000000000000313e .LASF117
C:\Users\liukai\AppData\Local\Temp\ccRK5ZRb.s:7381   .debug_str:00000000000055aa .LASF118
C:\Users\liukai\AppData\Local\Temp\ccRK5ZRb.s:5887   .debug_str:0000000000000669 .LASF119
C:\Users\liukai\AppData\Local\Temp\ccRK5ZRb.s:6259   .debug_str:0000000000001b0e .LASF120
C:\Users\liukai\AppData\Local\Temp\ccRK5ZRb.s:7549   .debug_str:0000000000005fcd .LASF121
C:\Users\liukai\AppData\Local\Temp\ccRK5ZRb.s:6647   .debug_str:00000000000030ca .LASF122
C:\Users\liukai\AppData\Local\Temp\ccRK5ZRb.s:6483   .debug_str:000000000000280d .LASF123
C:\Users\liukai\AppData\Local\Temp\ccRK5ZRb.s:7265   .debug_str:0000000000004f77 .LASF124
C:\Users\liukai\AppData\Local\Temp\ccRK5ZRb.s:7249   .debug_str:0000000000004ea6 .LASF125
C:\Users\liukai\AppData\Local\Temp\ccRK5ZRb.s:7675   .debug_str:000000000000675f .LASF126
C:\Users\liukai\AppData\Local\Temp\ccRK5ZRb.s:7027   .debug_str:00000000000043d7 .LASF127
C:\Users\liukai\AppData\Local\Temp\ccRK5ZRb.s:7343   .debug_str:0000000000005362 .LASF128
C:\Users\liukai\AppData\Local\Temp\ccRK5ZRb.s:6045   .debug_str:0000000000000e8d .LASF129
C:\Users\liukai\AppData\Local\Temp\ccRK5ZRb.s:6305   .debug_str:0000000000001dca .LASF130
C:\Users\liukai\AppData\Local\Temp\ccRK5ZRb.s:7685   .debug_str:00000000000067be .LASF131
C:\Users\liukai\AppData\Local\Temp\ccRK5ZRb.s:6109   .debug_str:0000000000001267 .LASF132
C:\Users\liukai\AppData\Local\Temp\ccRK5ZRb.s:5977   .debug_str:0000000000000b7a .LASF133
C:\Users\liukai\AppData\Local\Temp\ccRK5ZRb.s:6023   .debug_str:0000000000000d8f .LASF134
C:\Users\liukai\AppData\Local\Temp\ccRK5ZRb.s:6059   .debug_str:0000000000000f37 .LASF135
C:\Users\liukai\AppData\Local\Temp\ccRK5ZRb.s:6179   .debug_str:0000000000001621 .LASF136
C:\Users\liukai\AppData\Local\Temp\ccRK5ZRb.s:7269   .debug_str:0000000000004fbc .LASF137
C:\Users\liukai\AppData\Local\Temp\ccRK5ZRb.s:6067   .debug_str:0000000000000fa9 .LASF138
C:\Users\liukai\AppData\Local\Temp\ccRK5ZRb.s:6871   .debug_str:0000000000003bc0 .LASF139
C:\Users\liukai\AppData\Local\Temp\ccRK5ZRb.s:7365   .debug_str:0000000000005457 .LASF140
C:\Users\liukai\AppData\Local\Temp\ccRK5ZRb.s:7039   .debug_str:0000000000004471 .LASF141
C:\Users\liukai\AppData\Local\Temp\ccRK5ZRb.s:6675   .debug_str:000000000000324c .LASF142
C:\Users\liukai\AppData\Local\Temp\ccRK5ZRb.s:7019   .debug_str:000000000000435e .LASF143
C:\Users\liukai\AppData\Local\Temp\ccRK5ZRb.s:6697   .debug_str:0000000000003326 .LASF144
C:\Users\liukai\AppData\Local\Temp\ccRK5ZRb.s:6581   .debug_str:0000000000002ce2 .LASF145
C:\Users\liukai\AppData\Local\Temp\ccRK5ZRb.s:6835   .debug_str:0000000000003a1a .LASF146
C:\Users\liukai\AppData\Local\Temp\ccRK5ZRb.s:6761   .debug_str:00000000000036bc .LASF147
C:\Users\liukai\AppData\Local\Temp\ccRK5ZRb.s:7007   .debug_str:00000000000042ff .LASF148
C:\Users\liukai\AppData\Local\Temp\ccRK5ZRb.s:6989   .debug_str:00000000000041fe .LASF149
C:\Users\liukai\AppData\Local\Temp\ccRK5ZRb.s:6217   .debug_str:00000000000017ad .LASF150
C:\Users\liukai\AppData\Local\Temp\ccRK5ZRb.s:6183   .debug_str:000000000000164a .LASF151
C:\Users\liukai\AppData\Local\Temp\ccRK5ZRb.s:6295   .debug_str:0000000000001d13 .LASF152
C:\Users\liukai\AppData\Local\Temp\ccRK5ZRb.s:6221   .debug_str:00000000000017d3 .LASF153
C:\Users\liukai\AppData\Local\Temp\ccRK5ZRb.s:7023   .debug_str:000000000000438d .LASF154
C:\Users\liukai\AppData\Local\Temp\ccRK5ZRb.s:7789   .debug_str:0000000000006c7e .LASF155
C:\Users\liukai\AppData\Local\Temp\ccRK5ZRb.s:6425   .debug_str:0000000000002476 .LASF156
C:\Users\liukai\AppData\Local\Temp\ccRK5ZRb.s:7135   .debug_str:00000000000048a1 .LASF157
C:\Users\liukai\AppData\Local\Temp\ccRK5ZRb.s:5867   .debug_str:00000000000005d4 .LASF158
C:\Users\liukai\AppData\Local\Temp\ccRK5ZRb.s:6657   .debug_str:0000000000003157 .LASF159
C:\Users\liukai\AppData\Local\Temp\ccRK5ZRb.s:6249   .debug_str:0000000000001a5b .LASF160
C:\Users\liukai\AppData\Local\Temp\ccRK5ZRb.s:7934   .debug_str:0000000000007649 .LASF161
C:\Users\liukai\AppData\Local\Temp\ccRK5ZRb.s:7499   .debug_str:0000000000005c9e .LASF162
C:\Users\liukai\AppData\Local\Temp\ccRK5ZRb.s:7201   .debug_str:0000000000004c54 .LASF163
C:\Users\liukai\AppData\Local\Temp\ccRK5ZRb.s:7910   .debug_str:0000000000007525 .LASF164
C:\Users\liukai\AppData\Local\Temp\ccRK5ZRb.s:6751   .debug_str:0000000000003662 .LASF165
C:\Users\liukai\AppData\Local\Temp\ccRK5ZRb.s:5841   .debug_str:0000000000000458 .LASF166
C:\Users\liukai\AppData\Local\Temp\ccRK5ZRb.s:7599   .debug_str:0000000000006321 .LASF167
C:\Users\liukai\AppData\Local\Temp\ccRK5ZRb.s:6565   .debug_str:0000000000002c1d .LASF168
C:\Users\liukai\AppData\Local\Temp\ccRK5ZRb.s:7425   .debug_str:000000000000585f .LASF169
C:\Users\liukai\AppData\Local\Temp\ccRK5ZRb.s:7121   .debug_str:00000000000047e4 .LASF170
C:\Users\liukai\AppData\Local\Temp\ccRK5ZRb.s:7914   .debug_str:0000000000007544 .LASF171
C:\Users\liukai\AppData\Local\Temp\ccRK5ZRb.s:6437   .debug_str:0000000000002526 .LASF172
C:\Users\liukai\AppData\Local\Temp\ccRK5ZRb.s:7577   .debug_str:0000000000006187 .LASF173
C:\Users\liukai\AppData\Local\Temp\ccRK5ZRb.s:7471   .debug_str:0000000000005af1 .LASF174
C:\Users\liukai\AppData\Local\Temp\ccRK5ZRb.s:7149   .debug_str:0000000000004988 .LASF175
C:\Users\liukai\AppData\Local\Temp\ccRK5ZRb.s:7916   .debug_str:000000000000758d .LASF176
C:\Users\liukai\AppData\Local\Temp\ccRK5ZRb.s:6317   .debug_str:0000000000001e98 .LASF177
C:\Users\liukai\AppData\Local\Temp\ccRK5ZRb.s:7449   .debug_str:00000000000059b0 .LASF178
C:\Users\liukai\AppData\Local\Temp\ccRK5ZRb.s:6341   .debug_str:0000000000002066 .LASF179
C:\Users\liukai\AppData\Local\Temp\ccRK5ZRb.s:6199   .debug_str:00000000000016fd .LASF180
C:\Users\liukai\AppData\Local\Temp\ccRK5ZRb.s:5907   .debug_str:0000000000000822 .LASF181
C:\Users\liukai\AppData\Local\Temp\ccRK5ZRb.s:5751   .debug_str:0000000000000017 .LASF182
C:\Users\liukai\AppData\Local\Temp\ccRK5ZRb.s:7243   .debug_str:0000000000004e1f .LASF183
C:\Users\liukai\AppData\Local\Temp\ccRK5ZRb.s:7763   .debug_str:0000000000006b52 .LASF184
C:\Users\liukai\AppData\Local\Temp\ccRK5ZRb.s:7845   .debug_str:0000000000006fa2 .LASF185
C:\Users\liukai\AppData\Local\Temp\ccRK5ZRb.s:6165   .debug_str:000000000000152d .LASF186
C:\Users\liukai\AppData\Local\Temp\ccRK5ZRb.s:7237   .debug_str:0000000000004de5 .LASF187
C:\Users\liukai\AppData\Local\Temp\ccRK5ZRb.s:6531   .debug_str:0000000000002a5d .LASF188
C:\Users\liukai\AppData\Local\Temp\ccRK5ZRb.s:6849   .debug_str:0000000000003ac3 .LASF189
C:\Users\liukai\AppData\Local\Temp\ccRK5ZRb.s:6727   .debug_str:0000000000003515 .LASF190
C:\Users\liukai\AppData\Local\Temp\ccRK5ZRb.s:7219   .debug_str:0000000000004d33 .LASF191
C:\Users\liukai\AppData\Local\Temp\ccRK5ZRb.s:5955   .debug_str:0000000000000aa2 .LASF192
C:\Users\liukai\AppData\Local\Temp\ccRK5ZRb.s:7125   .debug_str:000000000000483c .LASF193
C:\Users\liukai\AppData\Local\Temp\ccRK5ZRb.s:6155   .debug_str:00000000000014bf .LASF194
C:\Users\liukai\AppData\Local\Temp\ccRK5ZRb.s:5939   .debug_str:0000000000000a00 .LASF195
C:\Users\liukai\AppData\Local\Temp\ccRK5ZRb.s:5873   .debug_str:000000000000060a .LASF196
C:\Users\liukai\AppData\Local\Temp\ccRK5ZRb.s:7195   .debug_str:0000000000004bc7 .LASF197
C:\Users\liukai\AppData\Local\Temp\ccRK5ZRb.s:5933   .debug_str:00000000000009a0 .LASF198
C:\Users\liukai\AppData\Local\Temp\ccRK5ZRb.s:6291   .debug_str:0000000000001cb5 .LASF199
C:\Users\liukai\AppData\Local\Temp\ccRK5ZRb.s:6237   .debug_str:0000000000001968 .LASF200
C:\Users\liukai\AppData\Local\Temp\ccRK5ZRb.s:7677   .debug_str:000000000000677c .LASF201
C:\Users\liukai\AppData\Local\Temp\ccRK5ZRb.s:6837   .debug_str:0000000000003a2a .LASF202
C:\Users\liukai\AppData\Local\Temp\ccRK5ZRb.s:6527   .debug_str:0000000000002a1b .LASF203
C:\Users\liukai\AppData\Local\Temp\ccRK5ZRb.s:7813   .debug_str:0000000000006dc9 .LASF204
C:\Users\liukai\AppData\Local\Temp\ccRK5ZRb.s:7783   .debug_str:0000000000006c3e .LASF205
C:\Users\liukai\AppData\Local\Temp\ccRK5ZRb.s:6015   .debug_str:0000000000000cfb .LASF206
C:\Users\liukai\AppData\Local\Temp\ccRK5ZRb.s:5969   .debug_str:0000000000000b30 .LASF207
C:\Users\liukai\AppData\Local\Temp\ccRK5ZRb.s:6881   .debug_str:0000000000003c40 .LASF208
C:\Users\liukai\AppData\Local\Temp\ccRK5ZRb.s:6275   .debug_str:0000000000001bf9 .LASF209
C:\Users\liukai\AppData\Local\Temp\ccRK5ZRb.s:5813   .debug_str:00000000000002ef .LASF210
C:\Users\liukai\AppData\Local\Temp\ccRK5ZRb.s:7717   .debug_str:0000000000006937 .LASF211
C:\Users\liukai\AppData\Local\Temp\ccRK5ZRb.s:6779   .debug_str:000000000000376c .LASF212
C:\Users\liukai\AppData\Local\Temp\ccRK5ZRb.s:7519   .debug_str:0000000000005d6c .LASF213
C:\Users\liukai\AppData\Local\Temp\ccRK5ZRb.s:7823   .debug_str:0000000000006e71 .LASF214
C:\Users\liukai\AppData\Local\Temp\ccRK5ZRb.s:7005   .debug_str:00000000000042e8 .LASF215
C:\Users\liukai\AppData\Local\Temp\ccRK5ZRb.s:5783   .debug_str:00000000000001a1 .LASF216
C:\Users\liukai\AppData\Local\Temp\ccRK5ZRb.s:6991   .debug_str:0000000000004215 .LASF217
C:\Users\liukai\AppData\Local\Temp\ccRK5ZRb.s:7637   .debug_str:000000000000653d .LASF218
C:\Users\liukai\AppData\Local\Temp\ccRK5ZRb.s:6707   .debug_str:00000000000033b9 .LASF219
C:\Users\liukai\AppData\Local\Temp\ccRK5ZRb.s:6129   .debug_str:000000000000135d .LASF220
C:\Users\liukai\AppData\Local\Temp\ccRK5ZRb.s:5761   .debug_str:000000000000007e .LASF221
C:\Users\liukai\AppData\Local\Temp\ccRK5ZRb.s:6459   .debug_str:000000000000267a .LASF222
C:\Users\liukai\AppData\Local\Temp\ccRK5ZRb.s:7037   .debug_str:0000000000004456 .LASF223
C:\Users\liukai\AppData\Local\Temp\ccRK5ZRb.s:7361   .debug_str:0000000000005437 .LASF224
C:\Users\liukai\AppData\Local\Temp\ccRK5ZRb.s:7705   .debug_str:0000000000006866 .LASF225
C:\Users\liukai\AppData\Local\Temp\ccRK5ZRb.s:6363   .debug_str:000000000000216c .LASF226
C:\Users\liukai\AppData\Local\Temp\ccRK5ZRb.s:7031   .debug_str:00000000000043fa .LASF227
C:\Users\liukai\AppData\Local\Temp\ccRK5ZRb.s:7485   .debug_str:0000000000005b9f .LASF228
C:\Users\liukai\AppData\Local\Temp\ccRK5ZRb.s:6809   .debug_str:00000000000038c5 .LASF229
C:\Users\liukai\AppData\Local\Temp\ccRK5ZRb.s:7267   .debug_str:0000000000004fa2 .LASF230
C:\Users\liukai\AppData\Local\Temp\ccRK5ZRb.s:5893   .debug_str:00000000000006be .LASF231
C:\Users\liukai\AppData\Local\Temp\ccRK5ZRb.s:7867   .debug_str:0000000000007126 .LASF232
C:\Users\liukai\AppData\Local\Temp\ccRK5ZRb.s:7331   .debug_str:00000000000052cb .LASF233
C:\Users\liukai\AppData\Local\Temp\ccRK5ZRb.s:7093   .debug_str:00000000000046af .LASF234
C:\Users\liukai\AppData\Local\Temp\ccRK5ZRb.s:6793   .debug_str:0000000000003827 .LASF235
C:\Users\liukai\AppData\Local\Temp\ccRK5ZRb.s:6643   .debug_str:000000000000308a .LASF236
C:\Users\liukai\AppData\Local\Temp\ccRK5ZRb.s:6821   .debug_str:00000000000039a1 .LASF237
C:\Users\liukai\AppData\Local\Temp\ccRK5ZRb.s:6111   .debug_str:000000000000128f .LASF238
C:\Users\liukai\AppData\Local\Temp\ccRK5ZRb.s:7003   .debug_str:00000000000042aa .LASF239
C:\Users\liukai\AppData\Local\Temp\ccRK5ZRb.s:7245   .debug_str:0000000000004e59 .LASF240
C:\Users\liukai\AppData\Local\Temp\ccRK5ZRb.s:7461   .debug_str:0000000000005a76 .LASF241
C:\Users\liukai\AppData\Local\Temp\ccRK5ZRb.s:7547   .debug_str:0000000000005f88 .LASF242
C:\Users\liukai\AppData\Local\Temp\ccRK5ZRb.s:6759   .debug_str:00000000000036a4 .LASF243
C:\Users\liukai\AppData\Local\Temp\ccRK5ZRb.s:6085   .debug_str:0000000000001086 .LASF244
C:\Users\liukai\AppData\Local\Temp\ccRK5ZRb.s:6115   .debug_str:00000000000012b3 .LASF245
C:\Users\liukai\AppData\Local\Temp\ccRK5ZRb.s:6739   .debug_str:00000000000035cd .LASF246
C:\Users\liukai\AppData\Local\Temp\ccRK5ZRb.s:5831   .debug_str:00000000000003cb .LASF247
C:\Users\liukai\AppData\Local\Temp\ccRK5ZRb.s:7217   .debug_str:0000000000004d17 .LASF248
C:\Users\liukai\AppData\Local\Temp\ccRK5ZRb.s:6687   .debug_str:00000000000032d6 .LASF249
C:\Users\liukai\AppData\Local\Temp\ccRK5ZRb.s:7569   .debug_str:0000000000006119 .LASF250
C:\Users\liukai\AppData\Local\Temp\ccRK5ZRb.s:6039   .debug_str:0000000000000e51 .LASF251
C:\Users\liukai\AppData\Local\Temp\ccRK5ZRb.s:5875   .debug_str:0000000000000622 .LASF252
C:\Users\liukai\AppData\Local\Temp\ccRK5ZRb.s:7165   .debug_str:00000000000049ff .LASF253
C:\Users\liukai\AppData\Local\Temp\ccRK5ZRb.s:7429   .debug_str:00000000000058b4 .LASF254
C:\Users\liukai\AppData\Local\Temp\ccRK5ZRb.s:5833   .debug_str:00000000000003dd .LASF255
C:\Users\liukai\AppData\Local\Temp\ccRK5ZRb.s:7199   .debug_str:0000000000004c0e .LASF256
C:\Users\liukai\AppData\Local\Temp\ccRK5ZRb.s:6147   .debug_str:0000000000001474 .LASF257
C:\Users\liukai\AppData\Local\Temp\ccRK5ZRb.s:6559   .debug_str:0000000000002bcf .LASF258
C:\Users\liukai\AppData\Local\Temp\ccRK5ZRb.s:7187   .debug_str:0000000000004b3c .LASF259
C:\Users\liukai\AppData\Local\Temp\ccRK5ZRb.s:7137   .debug_str:00000000000048df .LASF260
C:\Users\liukai\AppData\Local\Temp\ccRK5ZRb.s:6409   .debug_str:00000000000023af .LASF261
C:\Users\liukai\AppData\Local\Temp\ccRK5ZRb.s:6693   .debug_str:0000000000003307 .LASF262
C:\Users\liukai\AppData\Local\Temp\ccRK5ZRb.s:5855   .debug_str:000000000000054a .LASF263
C:\Users\liukai\AppData\Local\Temp\ccRK5ZRb.s:6533   .debug_str:0000000000002a75 .LASF264
C:\Users\liukai\AppData\Local\Temp\ccRK5ZRb.s:6027   .debug_str:0000000000000db8 .LASF265
C:\Users\liukai\AppData\Local\Temp\ccRK5ZRb.s:5807   .debug_str:00000000000002a1 .LASF266
C:\Users\liukai\AppData\Local\Temp\ccRK5ZRb.s:7285   .debug_str:000000000000508e .LASF267
C:\Users\liukai\AppData\Local\Temp\ccRK5ZRb.s:6551   .debug_str:0000000000002b93 .LASF268
C:\Users\liukai\AppData\Local\Temp\ccRK5ZRb.s:5865   .debug_str:00000000000005be .LASF269
C:\Users\liukai\AppData\Local\Temp\ccRK5ZRb.s:7595   .debug_str:00000000000062f9 .LASF270
C:\Users\liukai\AppData\Local\Temp\ccRK5ZRb.s:6207   .debug_str:000000000000174a .LASF271
C:\Users\liukai\AppData\Local\Temp\ccRK5ZRb.s:7785   .debug_str:0000000000006c4f .LASF272
C:\Users\liukai\AppData\Local\Temp\ccRK5ZRb.s:6591   .debug_str:0000000000002d5c .LASF273
C:\Users\liukai\AppData\Local\Temp\ccRK5ZRb.s:7079   .debug_str:0000000000004630 .LASF274
C:\Users\liukai\AppData\Local\Temp\ccRK5ZRb.s:6119   .debug_str:00000000000012e9 .LASF275
C:\Users\liukai\AppData\Local\Temp\ccRK5ZRb.s:6301   .debug_str:0000000000001d74 .LASF276
C:\Users\liukai\AppData\Local\Temp\ccRK5ZRb.s:7513   .debug_str:0000000000005d28 .LASF277
C:\Users\liukai\AppData\Local\Temp\ccRK5ZRb.s:6299   .debug_str:0000000000001d3a .LASF278
C:\Users\liukai\AppData\Local\Temp\ccRK5ZRb.s:5763   .debug_str:000000000000009c .LASF279
C:\Users\liukai\AppData\Local\Temp\ccRK5ZRb.s:7497   .debug_str:0000000000005c59 .LASF280
C:\Users\liukai\AppData\Local\Temp\ccRK5ZRb.s:7495   .debug_str:0000000000005c44 .LASF281
C:\Users\liukai\AppData\Local\Temp\ccRK5ZRb.s:6609   .debug_str:0000000000002e9f .LASF282
C:\Users\liukai\AppData\Local\Temp\ccRK5ZRb.s:7767   .debug_str:0000000000006bae .LASF283
C:\Users\liukai\AppData\Local\Temp\ccRK5ZRb.s:5997   .debug_str:0000000000000c33 .LASF284
C:\Users\liukai\AppData\Local\Temp\ccRK5ZRb.s:5775   .debug_str:0000000000000150 .LASF285
C:\Users\liukai\AppData\Local\Temp\ccRK5ZRb.s:6143   .debug_str:0000000000001441 .LASF286
C:\Users\liukai\AppData\Local\Temp\ccRK5ZRb.s:7095   .debug_str:00000000000046ca .LASF287
C:\Users\liukai\AppData\Local\Temp\ccRK5ZRb.s:6741   .debug_str:00000000000035e5 .LASF288
C:\Users\liukai\AppData\Local\Temp\ccRK5ZRb.s:6253   .debug_str:0000000000001a89 .LASF289
C:\Users\liukai\AppData\Local\Temp\ccRK5ZRb.s:5769   .debug_str:00000000000000e7 .LASF290
C:\Users\liukai\AppData\Local\Temp\ccRK5ZRb.s:6493   .debug_str:0000000000002861 .LASF291
C:\Users\liukai\AppData\Local\Temp\ccRK5ZRb.s:7457   .debug_str:0000000000005a53 .LASF292
C:\Users\liukai\AppData\Local\Temp\ccRK5ZRb.s:6549   .debug_str:0000000000002b75 .LASF293
C:\Users\liukai\AppData\Local\Temp\ccRK5ZRb.s:6873   .debug_str:0000000000003bd4 .LASF294
C:\Users\liukai\AppData\Local\Temp\ccRK5ZRb.s:6515   .debug_str:0000000000002994 .LASF295
C:\Users\liukai\AppData\Local\Temp\ccRK5ZRb.s:6053   .debug_str:0000000000000f05 .LASF296
C:\Users\liukai\AppData\Local\Temp\ccRK5ZRb.s:6665   .debug_str:00000000000031fe .LASF297
C:\Users\liukai\AppData\Local\Temp\ccRK5ZRb.s:6365   .debug_str:00000000000021ab .LASF298
C:\Users\liukai\AppData\Local\Temp\ccRK5ZRb.s:6907   .debug_str:0000000000003d57 .LASF299
C:\Users\liukai\AppData\Local\Temp\ccRK5ZRb.s:7661   .debug_str:000000000000669c .LASF300
C:\Users\liukai\AppData\Local\Temp\ccRK5ZRb.s:7043   .debug_str:000000000000448b .LASF301
C:\Users\liukai\AppData\Local\Temp\ccRK5ZRb.s:5759   .debug_str:0000000000000074 .LASF302
C:\Users\liukai\AppData\Local\Temp\ccRK5ZRb.s:7815   .debug_str:0000000000006ddf .LASF303
C:\Users\liukai\AppData\Local\Temp\ccRK5ZRb.s:6257   .debug_str:0000000000001b00 .LASF304
C:\Users\liukai\AppData\Local\Temp\ccRK5ZRb.s:6211   .debug_str:000000000000177d .LASF305
C:\Users\liukai\AppData\Local\Temp\ccRK5ZRb.s:5825   .debug_str:000000000000036e .LASF306
C:\Users\liukai\AppData\Local\Temp\ccRK5ZRb.s:7353   .debug_str:00000000000053b6 .LASF307
C:\Users\liukai\AppData\Local\Temp\ccRK5ZRb.s:6273   .debug_str:0000000000001be0 .LASF308
C:\Users\liukai\AppData\Local\Temp\ccRK5ZRb.s:6009   .debug_str:0000000000000cad .LASF309
C:\Users\liukai\AppData\Local\Temp\ccRK5ZRb.s:5779   .debug_str:000000000000018c .LASF310
C:\Users\liukai\AppData\Local\Temp\ccRK5ZRb.s:5917   .debug_str:00000000000008c5 .LASF312
C:\Users\liukai\AppData\Local\Temp\ccRK5ZRb.s:7315   .debug_str:0000000000005211 .LASF313
C:\Users\liukai\AppData\Local\Temp\ccRK5ZRb.s:7803   .debug_str:0000000000006d80 .LASF314
C:\Users\liukai\AppData\Local\Temp\ccRK5ZRb.s:6215   .debug_str:00000000000017a1 .LASF315
C:\Users\liukai\AppData\Local\Temp\ccRK5ZRb.s:6213   .debug_str:000000000000178b .LASF316
C:\Users\liukai\AppData\Local\Temp\ccRK5ZRb.s:6825   .debug_str:00000000000039d8 .LASF320
C:\Users\liukai\AppData\Local\Temp\ccRK5ZRb.s:6587   .debug_str:0000000000002d3a .LASF321
C:\Users\liukai\AppData\Local\Temp\ccRK5ZRb.s:6209   .debug_str:0000000000001770 .LASF322
C:\Users\liukai\AppData\Local\Temp\ccRK5ZRb.s:6985   .debug_str:00000000000041af .LASF323
C:\Users\liukai\AppData\Local\Temp\ccRK5ZRb.s:7273   .debug_str:0000000000004ff9 .LASF324
C:\Users\liukai\AppData\Local\Temp\ccRK5ZRb.s:6075   .debug_str:0000000000000ff3 .LASF325
C:\Users\liukai\AppData\Local\Temp\ccRK5ZRb.s:7649   .debug_str:00000000000065ed .LASF326
C:\Users\liukai\AppData\Local\Temp\ccRK5ZRb.s:6745   .debug_str:000000000000362b .LASF327
C:\Users\liukai\AppData\Local\Temp\ccRK5ZRb.s:6725   .debug_str:0000000000003503 .LASF328
C:\Users\liukai\AppData\Local\Temp\ccRK5ZRb.s:6683   .debug_str:00000000000032bd .LASF329
C:\Users\liukai\AppData\Local\Temp\ccRK5ZRb.s:7761   .debug_str:0000000000006b42 .LASF330
C:\Users\liukai\AppData\Local\Temp\ccRK5ZRb.s:7930   .debug_str:0000000000007613 .LASF331
C:\Users\liukai\AppData\Local\Temp\ccRK5ZRb.s:6175   .debug_str:00000000000015e6 .LASF332
C:\Users\liukai\AppData\Local\Temp\ccRK5ZRb.s:6619   .debug_str:0000000000002f0a .LASF333
C:\Users\liukai\AppData\Local\Temp\ccRK5ZRb.s:6937   .debug_str:0000000000003ed4 .LASF334
C:\Users\liukai\AppData\Local\Temp\ccRK5ZRb.s:7097   .debug_str:00000000000046e8 .LASF335
C:\Users\liukai\AppData\Local\Temp\ccRK5ZRb.s:6913   .debug_str:0000000000003d90 .LASF336
C:\Users\liukai\AppData\Local\Temp\ccRK5ZRb.s:7301   .debug_str:000000000000517b .LASF337
C:\Users\liukai\AppData\Local\Temp\ccRK5ZRb.s:7129   .debug_str:000000000000485f .LASF338
C:\Users\liukai\AppData\Local\Temp\ccRK5ZRb.s:6205   .debug_str:0000000000001734 .LASF339
C:\Users\liukai\AppData\Local\Temp\ccRK5ZRb.s:6521   .debug_str:00000000000029d5 .LASF340
C:\Users\liukai\AppData\Local\Temp\ccRK5ZRb.s:5851   .debug_str:00000000000004d0 .LASF341
C:\Users\liukai\AppData\Local\Temp\ccRK5ZRb.s:5757   .debug_str:0000000000000063 .LASF342
C:\Users\liukai\AppData\Local\Temp\ccRK5ZRb.s:7635   .debug_str:000000000000652d .LASF343
C:\Users\liukai\AppData\Local\Temp\ccRK5ZRb.s:6775   .debug_str:000000000000374e .LASF344
C:\Users\liukai\AppData\Local\Temp\ccRK5ZRb.s:6941   .debug_str:0000000000003f01 .LASF345
C:\Users\liukai\AppData\Local\Temp\ccRK5ZRb.s:7345   .debug_str:0000000000005380 .LASF346
C:\Users\liukai\AppData\Local\Temp\ccRK5ZRb.s:7603   .debug_str:0000000000006340 .LASF347
C:\Users\liukai\AppData\Local\Temp\ccRK5ZRb.s:6667   .debug_str:000000000000321a .LASF348
C:\Users\liukai\AppData\Local\Temp\ccRK5ZRb.s:6423   .debug_str:0000000000002461 .LASF349
C:\Users\liukai\AppData\Local\Temp\ccRK5ZRb.s:6893   .debug_str:0000000000003cb7 .LASF350
C:\Users\liukai\AppData\Local\Temp\ccRK5ZRb.s:6145   .debug_str:000000000000145f .LASF351
C:\Users\liukai\AppData\Local\Temp\ccRK5ZRb.s:7051   .debug_str:00000000000044c5 .LASF352
C:\Users\liukai\AppData\Local\Temp\ccRK5ZRb.s:6117   .debug_str:00000000000012ce .LASF353
C:\Users\liukai\AppData\Local\Temp\ccRK5ZRb.s:6601   .debug_str:0000000000002e51 .LASF354
C:\Users\liukai\AppData\Local\Temp\ccRK5ZRb.s:6925   .debug_str:0000000000003e6b .LASF355
C:\Users\liukai\AppData\Local\Temp\ccRK5ZRb.s:7233   .debug_str:0000000000004dc6 .LASF356
C:\Users\liukai\AppData\Local\Temp\ccRK5ZRb.s:7749   .debug_str:0000000000006abb .LASF357
C:\Users\liukai\AppData\Local\Temp\ccRK5ZRb.s:6939   .debug_str:0000000000003ee5 .LASF358
C:\Users\liukai\AppData\Local\Temp\ccRK5ZRb.s:6673   .debug_str:0000000000003245 .LASF359
C:\Users\liukai\AppData\Local\Temp\ccRK5ZRb.s:7533   .debug_str:0000000000005ed5 .LASF360
C:\Users\liukai\AppData\Local\Temp\ccRK5ZRb.s:7459   .debug_str:0000000000005a70 .LASF362
C:\Users\liukai\AppData\Local\Temp\ccRK5ZRb.s:7918   .debug_str:000000000000759d .LASF363
C:\Users\liukai\AppData\Local\Temp\ccRK5ZRb.s:7177   .debug_str:0000000000004aa2 .LASF364
C:\Users\liukai\AppData\Local\Temp\ccRK5ZRb.s:7673   .debug_str:0000000000006755 .LASF365
C:\Users\liukai\AppData\Local\Temp\ccRK5ZRb.s:6757   .debug_str:0000000000003698 .LASF366
C:\Users\liukai\AppData\Local\Temp\ccRK5ZRb.s:7489   .debug_str:0000000000005bf8 .LASF367
C:\Users\liukai\AppData\Local\Temp\ccRK5ZRb.s:7887   .debug_str:00000000000071ed .LASF368
C:\Users\liukai\AppData\Local\Temp\ccRK5ZRb.s:6781   .debug_str:00000000000037a8 .LASF369
C:\Users\liukai\AppData\Local\Temp\ccRK5ZRb.s:6699   .debug_str:0000000000003347 .LASF370
C:\Users\liukai\AppData\Local\Temp\ccRK5ZRb.s:7849   .debug_str:0000000000006ff7 .LASF371
C:\Users\liukai\AppData\Local\Temp\ccRK5ZRb.s:6641   .debug_str:000000000000307a .LASF372
C:\Users\liukai\AppData\Local\Temp\ccRK5ZRb.s:7825   .debug_str:0000000000006eb4 .LASF373
C:\Users\liukai\AppData\Local\Temp\ccRK5ZRb.s:5905   .debug_str:0000000000000816 .LASF374
C:\Users\liukai\AppData\Local\Temp\ccRK5ZRb.s:7029   .debug_str:00000000000043ee .LASF375
C:\Users\liukai\AppData\Local\Temp\ccRK5ZRb.s:7699   .debug_str:000000000000683c .LASF376
C:\Users\liukai\AppData\Local\Temp\ccRK5ZRb.s:6051   .debug_str:0000000000000ef8 .LASF377
C:\Users\liukai\AppData\Local\Temp\ccRK5ZRb.s:7679   .debug_str:0000000000006793 .LASF378
C:\Users\liukai\AppData\Local\Temp\ccRK5ZRb.s:6201   .debug_str:0000000000001716 .LASF379
C:\Users\liukai\AppData\Local\Temp\ccRK5ZRb.s:7645   .debug_str:00000000000065cb .LASF380
C:\Users\liukai\AppData\Local\Temp\ccRK5ZRb.s:6753   .debug_str:0000000000003677 .LASF381
C:\Users\liukai\AppData\Local\Temp\ccRK5ZRb.s:6461   .debug_str:0000000000002693 .LASF382
C:\Users\liukai\AppData\Local\Temp\ccRK5ZRb.s:7557   .debug_str:000000000000603a .LASF383
C:\Users\liukai\AppData\Local\Temp\ccRK5ZRb.s:6049   .debug_str:0000000000000eea .LASF384
C:\Users\liukai\AppData\Local\Temp\ccRK5ZRb.s:7153   .debug_str:00000000000049a7 .LASF385
C:\Users\liukai\AppData\Local\Temp\ccRK5ZRb.s:6011   .debug_str:0000000000000cc5 .LASF386
C:\Users\liukai\AppData\Local\Temp\ccRK5ZRb.s:7735   .debug_str:0000000000006a53 .LASF387
C:\Users\liukai\AppData\Local\Temp\ccRK5ZRb.s:6225   .debug_str:00000000000017f6 .LASF388
C:\Users\liukai\AppData\Local\Temp\ccRK5ZRb.s:6435   .debug_str:0000000000002513 .LASF389
C:\Users\liukai\AppData\Local\Temp\ccRK5ZRb.s:6567   .debug_str:0000000000002c5f .LASF390
C:\Users\liukai\AppData\Local\Temp\ccRK5ZRb.s:7501   .debug_str:0000000000005cad .LASF391
C:\Users\liukai\AppData\Local\Temp\ccRK5ZRb.s:6791   .debug_str:0000000000003813 .LASF392
C:\Users\liukai\AppData\Local\Temp\ccRK5ZRb.s:6773   .debug_str:000000000000373b .LASF393
C:\Users\liukai\AppData\Local\Temp\ccRK5ZRb.s:5799   .debug_str:0000000000000253 .LASF394
C:\Users\liukai\AppData\Local\Temp\ccRK5ZRb.s:7297   .debug_str:000000000000514e .LASF395
C:\Users\liukai\AppData\Local\Temp\ccRK5ZRb.s:7873   .debug_str:000000000000716e .LASF396
C:\Users\liukai\AppData\Local\Temp\ccRK5ZRb.s:7655   .debug_str:0000000000006657 .LASF397
C:\Users\liukai\AppData\Local\Temp\ccRK5ZRb.s:7617   .debug_str:00000000000063e4 .LASF398
C:\Users\liukai\AppData\Local\Temp\ccRK5ZRb.s:7325   .debug_str:0000000000005274 .LASF399
C:\Users\liukai\AppData\Local\Temp\ccRK5ZRb.s:7317   .debug_str:000000000000521e .LASF400
C:\Users\liukai\AppData\Local\Temp\ccRK5ZRb.s:6081   .debug_str:000000000000105d .LASF401
C:\Users\liukai\AppData\Local\Temp\ccRK5ZRb.s:7359   .debug_str:0000000000005422 .LASF402
C:\Users\liukai\AppData\Local\Temp\ccRK5ZRb.s:7847   .debug_str:0000000000006fde .LASF403
C:\Users\liukai\AppData\Local\Temp\ccRK5ZRb.s:7223   .debug_str:0000000000004d49 .LASF404
C:\Users\liukai\AppData\Local\Temp\ccRK5ZRb.s:6607   .debug_str:0000000000002e85 .LASF405
C:\Users\liukai\AppData\Local\Temp\ccRK5ZRb.s:6579   .debug_str:0000000000002cc8 .LASF406
C:\Users\liukai\AppData\Local\Temp\ccRK5ZRb.s:7061   .debug_str:0000000000004537 .LASF407
C:\Users\liukai\AppData\Local\Temp\ccRK5ZRb.s:7021   .debug_str:0000000000004374 .LASF408
C:\Users\liukai\AppData\Local\Temp\ccRK5ZRb.s:5975   .debug_str:0000000000000b61 .LASF409
C:\Users\liukai\AppData\Local\Temp\ccRK5ZRb.s:6337   .debug_str:0000000000002041 .LASF410
C:\Users\liukai\AppData\Local\Temp\ccRK5ZRb.s:6535   .debug_str:0000000000002a91 .LASF411
C:\Users\liukai\AppData\Local\Temp\ccRK5ZRb.s:7561   .debug_str:00000000000060a7 .LASF412
C:\Users\liukai\AppData\Local\Temp\ccRK5ZRb.s:6153   .debug_str:00000000000014a1 .LASF413
C:\Users\liukai\AppData\Local\Temp\ccRK5ZRb.s:7239   .debug_str:0000000000004dfb .LASF414
C:\Users\liukai\AppData\Local\Temp\ccRK5ZRb.s:5927   .debug_str:0000000000000976 .LASF415
C:\Users\liukai\AppData\Local\Temp\ccRK5ZRb.s:7841   .debug_str:0000000000006f6f .LASF416
C:\Users\liukai\AppData\Local\Temp\ccRK5ZRb.s:5797   .debug_str:000000000000022a .LASF417
C:\Users\liukai\AppData\Local\Temp\ccRK5ZRb.s:6037   .debug_str:0000000000000e2d .LASF418
C:\Users\liukai\AppData\Local\Temp\ccRK5ZRb.s:7441   .debug_str:0000000000005939 .LASF419
C:\Users\liukai\AppData\Local\Temp\ccRK5ZRb.s:7131   .debug_str:0000000000004874 .LASF420
C:\Users\liukai\AppData\Local\Temp\ccRK5ZRb.s:5965   .debug_str:0000000000000b04 .LASF421
C:\Users\liukai\AppData\Local\Temp\ccRK5ZRb.s:6905   .debug_str:0000000000003d3b .LASF422
C:\Users\liukai\AppData\Local\Temp\ccRK5ZRb.s:6915   .debug_str:0000000000003da0 .LASF423
C:\Users\liukai\AppData\Local\Temp\ccRK5ZRb.s:5909   .debug_str:0000000000000835 .LASF424
C:\Users\liukai\AppData\Local\Temp\ccRK5ZRb.s:6481   .debug_str:00000000000027e5 .LASF425
C:\Users\liukai\AppData\Local\Temp\ccRK5ZRb.s:6633   .debug_str:0000000000003011 .LASF426
C:\Users\liukai\AppData\Local\Temp\ccRK5ZRb.s:6447   .debug_str:00000000000025cf .LASF427
C:\Users\liukai\AppData\Local\Temp\ccRK5ZRb.s:6841   .debug_str:0000000000003a7b .LASF428
C:\Users\liukai\AppData\Local\Temp\ccRK5ZRb.s:6505   .debug_str:000000000000291e .LASF429
C:\Users\liukai\AppData\Local\Temp\ccRK5ZRb.s:6501   .debug_str:00000000000028c0 .LASF430
C:\Users\liukai\AppData\Local\Temp\ccRK5ZRb.s:6733   .debug_str:000000000000356a .LASF431
C:\Users\liukai\AppData\Local\Temp\ccRK5ZRb.s:7567   .debug_str:00000000000060fa .LASF432
C:\Users\liukai\AppData\Local\Temp\ccRK5ZRb.s:6977   .debug_str:0000000000004165 .LASF433
C:\Users\liukai\AppData\Local\Temp\ccRK5ZRb.s:7581   .debug_str:00000000000061bc .LASF434
C:\Users\liukai\AppData\Local\Temp\ccRK5ZRb.s:6061   .debug_str:0000000000000f57 .LASF435
C:\Users\liukai\AppData\Local\Temp\ccRK5ZRb.s:6013   .debug_str:0000000000000cd5 .LASF436
C:\Users\liukai\AppData\Local\Temp\ccRK5ZRb.s:7289   .debug_str:00000000000050bb .LASF437
C:\Users\liukai\AppData\Local\Temp\ccRK5ZRb.s:7001   .debug_str:0000000000004283 .LASF438
C:\Users\liukai\AppData\Local\Temp\ccRK5ZRb.s:6325   .debug_str:0000000000001f35 .LASF439
C:\Users\liukai\AppData\Local\Temp\ccRK5ZRb.s:6997   .debug_str:0000000000004254 .LASF440
C:\Users\liukai\AppData\Local\Temp\ccRK5ZRb.s:6621   .debug_str:0000000000002f19 .LASF441
C:\Users\liukai\AppData\Local\Temp\ccRK5ZRb.s:5913   .debug_str:000000000000086f .LASF442
C:\Users\liukai\AppData\Local\Temp\ccRK5ZRb.s:6463   .debug_str:00000000000026a1 .LASF443
C:\Users\liukai\AppData\Local\Temp\ccRK5ZRb.s:6087   .debug_str:00000000000010a0 .LASF444
C:\Users\liukai\AppData\Local\Temp\ccRK5ZRb.s:7920   .debug_str:00000000000075a5 .LASF445
C:\Users\liukai\AppData\Local\Temp\ccRK5ZRb.s:7491   .debug_str:0000000000005c00 .LASF446
C:\Users\liukai\AppData\Local\Temp\ccRK5ZRb.s:6139   .debug_str:0000000000001409 .LASF447
C:\Users\liukai\AppData\Local\Temp\ccRK5ZRb.s:7755   .debug_str:0000000000006aec .LASF448
C:\Users\liukai\AppData\Local\Temp\ccRK5ZRb.s:6865   .debug_str:0000000000003b68 .LASF449
C:\Users\liukai\AppData\Local\Temp\ccRK5ZRb.s:6445   .debug_str:00000000000025b3 .LASF450
C:\Users\liukai\AppData\Local\Temp\ccRK5ZRb.s:6233   .debug_str:0000000000001932 .LASF451
C:\Users\liukai\AppData\Local\Temp\ccRK5ZRb.s:6331   .debug_str:0000000000001fb9 .LASF452
C:\Users\liukai\AppData\Local\Temp\ccRK5ZRb.s:5847   .debug_str:0000000000000497 .LASF453
C:\Users\liukai\AppData\Local\Temp\ccRK5ZRb.s:6561   .debug_str:0000000000002be9 .LASF454
C:\Users\liukai\AppData\Local\Temp\ccRK5ZRb.s:6401   .debug_str:0000000000002350 .LASF455
C:\Users\liukai\AppData\Local\Temp\ccRK5ZRb.s:5935   .debug_str:00000000000009db .LASF456
C:\Users\liukai\AppData\Local\Temp\ccRK5ZRb.s:6375   .debug_str:0000000000002212 .LASF457
C:\Users\liukai\AppData\Local\Temp\ccRK5ZRb.s:6245   .debug_str:0000000000001a03 .LASF458
C:\Users\liukai\AppData\Local\Temp\ccRK5ZRb.s:6819   .debug_str:0000000000003987 .LASF459
C:\Users\liukai\AppData\Local\Temp\ccRK5ZRb.s:6861   .debug_str:0000000000003b2e .LASF460
C:\Users\liukai\AppData\Local\Temp\ccRK5ZRb.s:5753   .debug_str:000000000000002f .LASF461
C:\Users\liukai\AppData\Local\Temp\ccRK5ZRb.s:6701   .debug_str:000000000000334e .LASF462
C:\Users\liukai\AppData\Local\Temp\ccRK5ZRb.s:7593   .debug_str:00000000000062e1 .LASF463
C:\Users\liukai\AppData\Local\Temp\ccRK5ZRb.s:5981   .debug_str:0000000000000ba4 .LASF464
C:\Users\liukai\AppData\Local\Temp\ccRK5ZRb.s:7743   .debug_str:0000000000006a92 .LASF465
C:\Users\liukai\AppData\Local\Temp\ccRK5ZRb.s:7473   .debug_str:0000000000005b09 .LASF466
C:\Users\liukai\AppData\Local\Temp\ccRK5ZRb.s:6993   .debug_str:000000000000422f .LASF467
C:\Users\liukai\AppData\Local\Temp\ccRK5ZRb.s:6617   .debug_str:0000000000002ef2 .LASF468
C:\Users\liukai\AppData\Local\Temp\ccRK5ZRb.s:7437   .debug_str:0000000000005919 .LASF469
C:\Users\liukai\AppData\Local\Temp\ccRK5ZRb.s:6373   .debug_str:00000000000021f8 .LASF470
C:\Users\liukai\AppData\Local\Temp\ccRK5ZRb.s:7227   .debug_str:0000000000004d89 .LASF471
C:\Users\liukai\AppData\Local\Temp\ccRK5ZRb.s:6043   .debug_str:0000000000000e7e .LASF475
C:\Users\liukai\AppData\Local\Temp\ccRK5ZRb.s:6957   .debug_str:0000000000003fc8 .LASF476
C:\Users\liukai\AppData\Local\Temp\ccRK5ZRb.s:6083   .debug_str:0000000000001071 .LASF477
C:\Users\liukai\AppData\Local\Temp\ccRK5ZRb.s:7621   .debug_str:000000000000640d .LASF478
C:\Users\liukai\AppData\Local\Temp\ccRK5ZRb.s:6569   .debug_str:0000000000002c72 .LASF479
C:\Users\liukai\AppData\Local\Temp\ccRK5ZRb.s:6443   .debug_str:00000000000025a5 .LASF480
C:\Users\liukai\AppData\Local\Temp\ccRK5ZRb.s:7517   .debug_str:0000000000005d56 .LASF481
C:\Users\liukai\AppData\Local\Temp\ccRK5ZRb.s:6241   .debug_str:00000000000019b9 .LASF482
C:\Users\liukai\AppData\Local\Temp\ccRK5ZRb.s:6897   .debug_str:0000000000003cdb .LASF483
C:\Users\liukai\AppData\Local\Temp\ccRK5ZRb.s:7011   .debug_str:0000000000004316 .LASF484
C:\Users\liukai\AppData\Local\Temp\ccRK5ZRb.s:7173   .debug_str:0000000000004a80 .LASF485
C:\Users\liukai\AppData\Local\Temp\ccRK5ZRb.s:6497   .debug_str:0000000000002894 .LASF486
C:\Users\liukai\AppData\Local\Temp\ccRK5ZRb.s:7665   .debug_str:00000000000066b5 .LASF487
C:\Users\liukai\AppData\Local\Temp\ccRK5ZRb.s:7583   .debug_str:00000000000061d8 .LASF488
C:\Users\liukai\AppData\Local\Temp\ccRK5ZRb.s:7091   .debug_str:0000000000004699 .LASF490
C:\Users\liukai\AppData\Local\Temp\ccRK5ZRb.s:7067   .debug_str:0000000000004567 .LASF491
C:\Users\liukai\AppData\Local\Temp\ccRK5ZRb.s:6529   .debug_str:0000000000002a35 .LASF492
C:\Users\liukai\AppData\Local\Temp\ccRK5ZRb.s:7615   .debug_str:00000000000063c3 .LASF493
C:\Users\liukai\AppData\Local\Temp\ccRK5ZRb.s:5983   .debug_str:0000000000000bbc .LASF494
C:\Users\liukai\AppData\Local\Temp\ccRK5ZRb.s:6057   .debug_str:0000000000000f2c .LASF495
C:\Users\liukai\AppData\Local\Temp\ccRK5ZRb.s:7179   .debug_str:0000000000004aa7 .LASF496
C:\Users\liukai\AppData\Local\Temp\ccRK5ZRb.s:7063   .debug_str:000000000000454f .LASF497
C:\Users\liukai\AppData\Local\Temp\ccRK5ZRb.s:7083   .debug_str:000000000000464e .LASF498
C:\Users\liukai\AppData\Local\Temp\ccRK5ZRb.s:6189   .debug_str:0000000000001682 .LASF499
C:\Users\liukai\AppData\Local\Temp\ccRK5ZRb.s:7105   .debug_str:000000000000474d .LASF500
C:\Users\liukai\AppData\Local\Temp\ccRK5ZRb.s:6471   .debug_str:0000000000002769 .LASF501
C:\Users\liukai\AppData\Local\Temp\ccRK5ZRb.s:6025   .debug_str:0000000000000dae .LASF502
C:\Users\liukai\AppData\Local\Temp\ccRK5ZRb.s:5795   .debug_str:0000000000000211 .LASF503
C:\Users\liukai\AppData\Local\Temp\ccRK5ZRb.s:7573   .debug_str:0000000000006145 .LASF504
C:\Users\liukai\AppData\Local\Temp\ccRK5ZRb.s:5999   .debug_str:0000000000000c43 .LASF505
C:\Users\liukai\AppData\Local\Temp\ccRK5ZRb.s:6123   .debug_str:000000000000131b .LASF506
C:\Users\liukai\AppData\Local\Temp\ccRK5ZRb.s:7477   .debug_str:0000000000005b2d .LASF507
C:\Users\liukai\AppData\Local\Temp\ccRK5ZRb.s:7119   .debug_str:00000000000047db .LASF508
C:\Users\liukai\AppData\Local\Temp\ccRK5ZRb.s:6395   .debug_str:000000000000231b .LASF509
C:\Users\liukai\AppData\Local\Temp\ccRK5ZRb.s:6723   .debug_str:00000000000034f6 .LASF510
C:\Users\liukai\AppData\Local\Temp\ccRK5ZRb.s:6127   .debug_str:0000000000001351 .LASF512
C:\Users\liukai\AppData\Local\Temp\ccRK5ZRb.s:5931   .debug_str:0000000000000994 .LASF513
C:\Users\liukai\AppData\Local\Temp\ccRK5ZRb.s:7155   .debug_str:00000000000049b6 .LASF514
C:\Users\liukai\AppData\Local\Temp\ccRK5ZRb.s:6089   .debug_str:00000000000010c9 .LASF515
C:\Users\liukai\AppData\Local\Temp\ccRK5ZRb.s:6695   .debug_str:000000000000331c .LASF516
C:\Users\liukai\AppData\Local\Temp\ccRK5ZRb.s:5989   .debug_str:0000000000000bea .LASF517
C:\Users\liukai\AppData\Local\Temp\ccRK5ZRb.s:7203   .debug_str:0000000000004c6c .LASF518
C:\Users\liukai\AppData\Local\Temp\ccRK5ZRb.s:6831   .debug_str:0000000000003a07 .LASF519
C:\Users\liukai\AppData\Local\Temp\ccRK5ZRb.s:7389   .debug_str:000000000000568d .LASF520
C:\Users\liukai\AppData\Local\Temp\ccRK5ZRb.s:6983   .debug_str:000000000000419d .LASF521
C:\Users\liukai\AppData\Local\Temp\ccRK5ZRb.s:6961   .debug_str:00000000000040af .LASF522
C:\Users\liukai\AppData\Local\Temp\ccRK5ZRb.s:6281   .debug_str:0000000000001c47 .LASF523
C:\Users\liukai\AppData\Local\Temp\ccRK5ZRb.s:6171   .debug_str:00000000000015b2 .LASF524
C:\Users\liukai\AppData\Local\Temp\ccRK5ZRb.s:6285   .debug_str:0000000000001c7f .LASF525
C:\Users\liukai\AppData\Local\Temp\ccRK5ZRb.s:7719   .debug_str:0000000000006973 .LASF526
C:\Users\liukai\AppData\Local\Temp\ccRK5ZRb.s:7469   .debug_str:0000000000005ae8 .LASF527
C:\Users\liukai\AppData\Local\Temp\ccRK5ZRb.s:5971   .debug_str:0000000000000b4c .LASF528
C:\Users\liukai\AppData\Local\Temp\ccRK5ZRb.s:6827   .debug_str:00000000000039ee .LASF529
C:\Users\liukai\AppData\Local\Temp\ccRK5ZRb.s:6031   .debug_str:0000000000000def .LASF530
C:\Users\liukai\AppData\Local\Temp\ccRK5ZRb.s:6593   .debug_str:0000000000002d8d .LASF531
C:\Users\liukai\AppData\Local\Temp\ccRK5ZRb.s:6851   .debug_str:0000000000003adc .LASF532
C:\Users\liukai\AppData\Local\Temp\ccRK5ZRb.s:6297   .debug_str:0000000000001d29 .LASF533
C:\Users\liukai\AppData\Local\Temp\ccRK5ZRb.s:7283   .debug_str:0000000000005081 .LASF534
C:\Users\liukai\AppData\Local\Temp\ccRK5ZRb.s:6475   .debug_str:000000000000279c .LASF535
C:\Users\liukai\AppData\Local\Temp\ccRK5ZRb.s:7417   .debug_str:000000000000580c .LASF536
C:\Users\liukai\AppData\Local\Temp\ccRK5ZRb.s:6239   .debug_str:00000000000019aa .LASF537
C:\Users\liukai\AppData\Local\Temp\ccRK5ZRb.s:7795   .debug_str:0000000000006ce5 .LASF538
C:\Users\liukai\AppData\Local\Temp\ccRK5ZRb.s:6817   .debug_str:0000000000003971 .LASF539
C:\Users\liukai\AppData\Local\Temp\ccRK5ZRb.s:7839   .debug_str:0000000000006f5b .LASF540
C:\Users\liukai\AppData\Local\Temp\ccRK5ZRb.s:6279   .debug_str:0000000000001c24 .LASF541
C:\Users\liukai\AppData\Local\Temp\ccRK5ZRb.s:7611   .debug_str:00000000000063ab .LASF542
C:\Users\liukai\AppData\Local\Temp\ccRK5ZRb.s:5973   .debug_str:0000000000000b56 .LASF543
C:\Users\liukai\AppData\Local\Temp\ccRK5ZRb.s:5903   .debug_str:0000000000000809 .LASF544
C:\Users\liukai\AppData\Local\Temp\ccRK5ZRb.s:7475   .debug_str:0000000000005b21 .LASF545
C:\Users\liukai\AppData\Local\Temp\ccRK5ZRb.s:6029   .debug_str:0000000000000dd1 .LASF546
C:\Users\liukai\AppData\Local\Temp\ccRK5ZRb.s:6429   .debug_str:00000000000024c3 .LASF547
C:\Users\liukai\AppData\Local\Temp\ccRK5ZRb.s:7409   .debug_str:00000000000057cb .LASF548
C:\Users\liukai\AppData\Local\Temp\ccRK5ZRb.s:7247   .debug_str:0000000000004e97 .LASF549
C:\Users\liukai\AppData\Local\Temp\ccRK5ZRb.s:7527   .debug_str:0000000000005e93 .LASF550
C:\Users\liukai\AppData\Local\Temp\ccRK5ZRb.s:6543   .debug_str:0000000000002afa .LASF551
C:\Users\liukai\AppData\Local\Temp\ccRK5ZRb.s:7709   .debug_str:00000000000068c7 .LASF552
C:\Users\liukai\AppData\Local\Temp\ccRK5ZRb.s:5835   .debug_str:000000000000041e .LASF553
C:\Users\liukai\AppData\Local\Temp\ccRK5ZRb.s:7511   .debug_str:0000000000005d10 .LASF554
C:\Users\liukai\AppData\Local\Temp\ccRK5ZRb.s:5749   .debug_str:0000000000000000 .LASF555
C:\Users\liukai\AppData\Local\Temp\ccRK5ZRb.s:6419   .debug_str:000000000000242b .LASF556
C:\Users\liukai\AppData\Local\Temp\ccRK5ZRb.s:6069   .debug_str:0000000000000fc3 .LASF557
C:\Users\liukai\AppData\Local\Temp\ccRK5ZRb.s:6499   .debug_str:00000000000028a3 .LASF558
C:\Users\liukai\AppData\Local\Temp\ccRK5ZRb.s:7631   .debug_str:00000000000064d6 .LASF559
C:\Users\liukai\AppData\Local\Temp\ccRK5ZRb.s:7693   .debug_str:00000000000067fe .LASF560
C:\Users\liukai\AppData\Local\Temp\ccRK5ZRb.s:7253   .debug_str:0000000000004ed5 .LASF561
C:\Users\liukai\AppData\Local\Temp\ccRK5ZRb.s:7819   .debug_str:0000000000006dfe .LASF562
C:\Users\liukai\AppData\Local\Temp\ccRK5ZRb.s:6359   .debug_str:0000000000002139 .LASF563
C:\Users\liukai\AppData\Local\Temp\ccRK5ZRb.s:6293   .debug_str:0000000000001cf3 .LASF564
C:\Users\liukai\AppData\Local\Temp\ccRK5ZRb.s:6965   .debug_str:00000000000040db .LASF565
C:\Users\liukai\AppData\Local\Temp\ccRK5ZRb.s:7281   .debug_str:000000000000506a .LASF566
C:\Users\liukai\AppData\Local\Temp\ccRK5ZRb.s:7751   .debug_str:0000000000006acb .LASF567
C:\Users\liukai\AppData\Local\Temp\ccRK5ZRb.s:7553   .debug_str:0000000000005fe6 .LASF568
C:\Users\liukai\AppData\Local\Temp\ccRK5ZRb.s:7791   .debug_str:0000000000006cb5 .LASF569
C:\Users\liukai\AppData\Local\Temp\ccRK5ZRb.s:7721   .debug_str:0000000000006980 .LASF570
C:\Users\liukai\AppData\Local\Temp\ccRK5ZRb.s:7479   .debug_str:0000000000005b4f .LASF571
C:\Users\liukai\AppData\Local\Temp\ccRK5ZRb.s:6177   .debug_str:00000000000015fe .LASF572
C:\Users\liukai\AppData\Local\Temp\ccRK5ZRb.s:6347   .debug_str:00000000000020a0 .LASF573
C:\Users\liukai\AppData\Local\Temp\ccRK5ZRb.s:5987   .debug_str:0000000000000bd4 .LASF574
C:\Users\liukai\AppData\Local\Temp\ccRK5ZRb.s:5829   .debug_str:00000000000003ae .LASF575
C:\Users\liukai\AppData\Local\Temp\ccRK5ZRb.s:7111   .debug_str:0000000000004793 .LASF576
C:\Users\liukai\AppData\Local\Temp\ccRK5ZRb.s:7235   .debug_str:0000000000004dcc .LASF577
C:\Users\liukai\AppData\Local\Temp\ccRK5ZRb.s:6169   .debug_str:00000000000015a4 .LASF578
C:\Users\liukai\AppData\Local\Temp\ccRK5ZRb.s:7333   .debug_str:00000000000052dd .LASF579
C:\Users\liukai\AppData\Local\Temp\ccRK5ZRb.s:7089   .debug_str:0000000000004685 .LASF580
C:\Users\liukai\AppData\Local\Temp\ccRK5ZRb.s:7591   .debug_str:00000000000062b9 .LASF581
C:\Users\liukai\AppData\Local\Temp\ccRK5ZRb.s:7225   .debug_str:0000000000004d63 .LASF582
C:\Users\liukai\AppData\Local\Temp\ccRK5ZRb.s:7651   .debug_str:000000000000661a .LASF583
C:\Users\liukai\AppData\Local\Temp\ccRK5ZRb.s:7671   .debug_str:0000000000006730 .LASF584
C:\Users\liukai\AppData\Local\Temp\ccRK5ZRb.s:6415   .debug_str:00000000000023e0 .LASF585
C:\Users\liukai\AppData\Local\Temp\ccRK5ZRb.s:7908   .debug_str:0000000000007500 .LASF586
C:\Users\liukai\AppData\Local\Temp\ccRK5ZRb.s:5891   .debug_str:0000000000000691 .LASF587
C:\Users\liukai\AppData\Local\Temp\ccRK5ZRb.s:6653   .debug_str:0000000000003111 .LASF588
C:\Users\liukai\AppData\Local\Temp\ccRK5ZRb.s:5915   .debug_str:0000000000000893 .LASF589
C:\Users\liukai\AppData\Local\Temp\ccRK5ZRb.s:7521   .debug_str:0000000000005dab .LASF590
C:\Users\liukai\AppData\Local\Temp\ccRK5ZRb.s:6547   .debug_str:0000000000002b38 .LASF591
C:\Users\liukai\AppData\Local\Temp\ccRK5ZRb.s:6715   .debug_str:000000000000346e .LASF592
C:\Users\liukai\AppData\Local\Temp\ccRK5ZRb.s:7107   .debug_str:000000000000475b .LASF593
C:\Users\liukai\AppData\Local\Temp\ccRK5ZRb.s:7715   .debug_str:0000000000006916 .LASF594
C:\Users\liukai\AppData\Local\Temp\ccRK5ZRb.s:7954   .debug_str:00000000000078e9 .LASF595
C:\Users\liukai\AppData\Local\Temp\ccRK5ZRb.s:6357   .debug_str:000000000000210f .LASF596
C:\Users\liukai\AppData\Local\Temp\ccRK5ZRb.s:7851   .debug_str:0000000000006fff .LASF597
C:\Users\liukai\AppData\Local\Temp\ccRK5ZRb.s:6677   .debug_str:0000000000003264 .LASF598
C:\Users\liukai\AppData\Local\Temp\ccRK5ZRb.s:7563   .debug_str:00000000000060c3 .LASF599
C:\Users\liukai\AppData\Local\Temp\ccRK5ZRb.s:7633   .debug_str:00000000000064f2 .LASF600
C:\Users\liukai\AppData\Local\Temp\ccRK5ZRb.s:6465   .debug_str:00000000000026c7 .LASF601
C:\Users\liukai\AppData\Local\Temp\ccRK5ZRb.s:7657   .debug_str:000000000000666b .LASF602
C:\Users\liukai\AppData\Local\Temp\ccRK5ZRb.s:6495   .debug_str:0000000000002880 .LASF603
C:\Users\liukai\AppData\Local\Temp\ccRK5ZRb.s:6269   .debug_str:0000000000001ba5 .LASF604
C:\Users\liukai\AppData\Local\Temp\ccRK5ZRb.s:7103   .debug_str:000000000000471d .LASF605
C:\Users\liukai\AppData\Local\Temp\ccRK5ZRb.s:6721   .debug_str:00000000000034c8 .LASF606
C:\Users\liukai\AppData\Local\Temp\ccRK5ZRb.s:6433   .debug_str:00000000000024dd .LASF607
C:\Users\liukai\AppData\Local\Temp\ccRK5ZRb.s:6377   .debug_str:0000000000002231 .LASF608
C:\Users\liukai\AppData\Local\Temp\ccRK5ZRb.s:6541   .debug_str:0000000000002acd .LASF609
C:\Users\liukai\AppData\Local\Temp\ccRK5ZRb.s:7587   .debug_str:00000000000061fe .LASF610
C:\Users\liukai\AppData\Local\Temp\ccRK5ZRb.s:7387   .debug_str:0000000000005601 .LASF611
C:\Users\liukai\AppData\Local\Temp\ccRK5ZRb.s:7559   .debug_str:0000000000006048 .LASF612
C:\Users\liukai\AppData\Local\Temp\ccRK5ZRb.s:7193   .debug_str:0000000000004b6a .LASF613
C:\Users\liukai\AppData\Local\Temp\ccRK5ZRb.s:6303   .debug_str:0000000000001d8c .LASF614
C:\Users\liukai\AppData\Local\Temp\ccRK5ZRb.s:7641   .debug_str:000000000000655e .LASF615
C:\Users\liukai\AppData\Local\Temp\ccRK5ZRb.s:6095   .debug_str:0000000000001133 .LASF616
C:\Users\liukai\AppData\Local\Temp\ccRK5ZRb.s:7213   .debug_str:0000000000004cba .LASF617
C:\Users\liukai\AppData\Local\Temp\ccRK5ZRb.s:5853   .debug_str:00000000000004e7 .LASF618
C:\Users\liukai\AppData\Local\Temp\ccRK5ZRb.s:6019   .debug_str:0000000000000d2a .LASF619
C:\Users\liukai\AppData\Local\Temp\ccRK5ZRb.s:6815   .debug_str:00000000000038fa .LASF620
C:\Users\liukai\AppData\Local\Temp\ccRK5ZRb.s:7627   .debug_str:0000000000006479 .LASF621
C:\Users\liukai\AppData\Local\Temp\ccRK5ZRb.s:6319   .debug_str:0000000000001eb2 .LASF622
C:\Users\liukai\AppData\Local\Temp\ccRK5ZRb.s:7653   .debug_str:000000000000663d .LASF623
C:\Users\liukai\AppData\Local\Temp\ccRK5ZRb.s:7503   .debug_str:0000000000005cc1 .LASF624
C:\Users\liukai\AppData\Local\Temp\ccRK5ZRb.s:5845   .debug_str:0000000000000477 .LASF625
C:\Users\liukai\AppData\Local\Temp\ccRK5ZRb.s:7071   .debug_str:000000000000458a .LASF626
C:\Users\liukai\AppData\Local\Temp\ccRK5ZRb.s:7185   .debug_str:0000000000004b1f .LASF627
C:\Users\liukai\AppData\Local\Temp\ccRK5ZRb.s:6353   .debug_str:00000000000020c1 .LASF628
C:\Users\liukai\AppData\Local\Temp\ccRK5ZRb.s:7625   .debug_str:0000000000006436 .LASF629
C:\Users\liukai\AppData\Local\Temp\ccRK5ZRb.s:7891   .debug_str:0000000000007201 .LASF630
C:\Users\liukai\AppData\Local\Temp\ccRK5ZRb.s:6071   .debug_str:0000000000000fe3 .LASF631
C:\Users\liukai\AppData\Local\Temp\ccRK5ZRb.s:5941   .debug_str:0000000000000a18 .LASF632
C:\Users\liukai\AppData\Local\Temp\ccRK5ZRb.s:6489   .debug_str:000000000000283c .LASF633
C:\Users\liukai\AppData\Local\Temp\ccRK5ZRb.s:6747   .debug_str:000000000000363b .LASF634
C:\Users\liukai\AppData\Local\Temp\ccRK5ZRb.s:7101   .debug_str:0000000000004703 .LASF635
C:\Users\liukai\AppData\Local\Temp\ccRK5ZRb.s:7383   .debug_str:00000000000055c3 .LASF636
C:\Users\liukai\AppData\Local\Temp\ccRK5ZRb.s:7529   .debug_str:0000000000005ea0 .LASF637
C:\Users\liukai\AppData\Local\Temp\ccRK5ZRb.s:7701   .debug_str:0000000000006848 .LASF638
C:\Users\liukai\AppData\Local\Temp\ccRK5ZRb.s:7759   .debug_str:0000000000006b1d .LASF639
C:\Users\liukai\AppData\Local\Temp\ccRK5ZRb.s:6097   .debug_str:0000000000001196 .LASF640
C:\Users\liukai\AppData\Local\Temp\ccRK5ZRb.s:7669   .debug_str:00000000000066e9 .LASF641
C:\Users\liukai\AppData\Local\Temp\ccRK5ZRb.s:7367   .debug_str:0000000000005473 .LASF642
C:\Users\liukai\AppData\Local\Temp\ccRK5ZRb.s:6627   .debug_str:0000000000002f95 .LASF643
C:\Users\liukai\AppData\Local\Temp\ccRK5ZRb.s:6263   .debug_str:0000000000001b32 .LASF644
C:\Users\liukai\AppData\Local\Temp\ccRK5ZRb.s:6231   .debug_str:00000000000018e5 .LASF645
C:\Users\liukai\AppData\Local\Temp\ccRK5ZRb.s:7731   .debug_str:00000000000069f2 .LASF646
C:\Users\liukai\AppData\Local\Temp\ccRK5ZRb.s:7451   .debug_str:00000000000059cc .LASF647
C:\Users\liukai\AppData\Local\Temp\ccRK5ZRb.s:6469   .debug_str:000000000000271e .LASF648
C:\Users\liukai\AppData\Local\Temp\ccRK5ZRb.s:6711   .debug_str:000000000000340e .LASF649
C:\Users\liukai\AppData\Local\Temp\ccRK5ZRb.s:6247   .debug_str:0000000000001a1d .LASF650
C:\Users\liukai\AppData\Local\Temp\ccRK5ZRb.s:7545   .debug_str:0000000000005f59 .LASF651
C:\Users\liukai\AppData\Local\Temp\ccRK5ZRb.s:7543   .debug_str:0000000000005f24 .LASF652
C:\Users\liukai\AppData\Local\Temp\ccRK5ZRb.s:7541   .debug_str:0000000000005f19 .LASF653
C:\Users\liukai\AppData\Local\Temp\ccRK5ZRb.s:7197   .debug_str:0000000000004c02 .LASF654
C:\Users\liukai\AppData\Local\Temp\ccRK5ZRb.s:6795   .debug_str:0000000000003844 .LASF655
C:\Users\liukai\AppData\Local\Temp\ccRK5ZRb.s:6909   .debug_str:0000000000003d6c .LASF656
C:\Users\liukai\AppData\Local\Temp\ccRK5ZRb.s:6451   .debug_str:0000000000002600 .LASF657
C:\Users\liukai\AppData\Local\Temp\ccRK5ZRb.s:7033   .debug_str:000000000000443b .LASF658
C:\Users\liukai\AppData\Local\Temp\ccRK5ZRb.s:7305   .debug_str:0000000000005192 .LASF659
C:\Users\liukai\AppData\Local\Temp\ccRK5ZRb.s:6125   .debug_str:0000000000001344 .LASF660
C:\Users\liukai\AppData\Local\Temp\ccRK5ZRb.s:6605   .debug_str:0000000000002e74 .LASF661
C:\Users\liukai\AppData\Local\Temp\ccRK5ZRb.s:6769   .debug_str:0000000000003716 .LASF662
C:\Users\liukai\AppData\Local\Temp\ccRK5ZRb.s:7147   .debug_str:0000000000004978 .LASF663
C:\Users\liukai\AppData\Local\Temp\ccRK5ZRb.s:7087   .debug_str:0000000000004670 .LASF664
C:\Users\liukai\AppData\Local\Temp\ccRK5ZRb.s:7597   .debug_str:0000000000006310 .LASF665
C:\Users\liukai\AppData\Local\Temp\ccRK5ZRb.s:6847   .debug_str:0000000000003ab6 .LASF666
C:\Users\liukai\AppData\Local\Temp\ccRK5ZRb.s:7159   .debug_str:00000000000049cb .LASF667
C:\Users\liukai\AppData\Local\Temp\ccRK5ZRb.s:6517   .debug_str:00000000000029b8 .LASF668
C:\Users\liukai\AppData\Local\Temp\ccRK5ZRb.s:6813   .debug_str:00000000000038ef .LASF669
C:\Users\liukai\AppData\Local\Temp\ccRK5ZRb.s:6077   .debug_str:0000000000001047 .LASF670
C:\Users\liukai\AppData\Local\Temp\ccRK5ZRb.s:6883   .debug_str:0000000000003c57 .LASF671
C:\Users\liukai\AppData\Local\Temp\ccRK5ZRb.s:7431   .debug_str:00000000000058f3 .LASF672
C:\Users\liukai\AppData\Local\Temp\ccRK5ZRb.s:6553   .debug_str:0000000000002bac .LASF673
C:\Users\liukai\AppData\Local\Temp\ccRK5ZRb.s:7231   .debug_str:0000000000004db3 .LASF674
C:\Users\liukai\AppData\Local\Temp\ccRK5ZRb.s:5957   .debug_str:0000000000000abb .LASF675
C:\Users\liukai\AppData\Local\Temp\ccRK5ZRb.s:7157   .debug_str:00000000000049bf .LASF676
C:\Users\liukai\AppData\Local\Temp\ccRK5ZRb.s:5979   .debug_str:0000000000000b92 .LASF677
C:\Users\liukai\AppData\Local\Temp\ccRK5ZRb.s:7411   .debug_str:00000000000057de .LASF678
C:\Users\liukai\AppData\Local\Temp\ccRK5ZRb.s:7419   .debug_str:0000000000005845 .LASF679
C:\Users\liukai\AppData\Local\Temp\ccRK5ZRb.s:7013   .debug_str:000000000000432d .LASF680
C:\Users\liukai\AppData\Local\Temp\ccRK5ZRb.s:7739   .debug_str:0000000000006a76 .LASF681
C:\Users\liukai\AppData\Local\Temp\ccRK5ZRb.s:5953   .debug_str:0000000000000a93 .LASF682
C:\Users\liukai\AppData\Local\Temp\ccRK5ZRb.s:6731   .debug_str:0000000000003532 .LASF683
C:\Users\liukai\AppData\Local\Temp\ccRK5ZRb.s:7465   .debug_str:0000000000005aca .LASF684
C:\Users\liukai\AppData\Local\Temp\ccRK5ZRb.s:7827   .debug_str:0000000000006ec4 .LASF686
C:\Users\liukai\AppData\Local\Temp\ccRK5ZRb.s:6537   .debug_str:0000000000002ab2 .LASF687
C:\Users\liukai\AppData\Local\Temp\ccRK5ZRb.s:7936   .debug_str:000000000000765d .LASF692
C:\Users\liukai\AppData\Local\Temp\ccRK5ZRb.s:6315   .debug_str:0000000000001e7e .LASF693
C:\Users\liukai\AppData\Local\Temp\ccRK5ZRb.s:6663   .debug_str:000000000000319a .LASF694
C:\Users\liukai\AppData\Local\Temp\ccRK5ZRb.s:6595   .debug_str:0000000000002d9e .LASF695
C:\Users\liukai\AppData\Local\Temp\ccRK5ZRb.s:6105   .debug_str:000000000000122d .LASF696
C:\Users\liukai\AppData\Local\Temp\ccRK5ZRb.s:7900   .debug_str:0000000000007473 .LASF697
C:\Users\liukai\AppData\Local\Temp\ccRK5ZRb.s:7723   .debug_str:0000000000006998 .LASF698
C:\Users\liukai\AppData\Local\Temp\ccRK5ZRb.s:6709   .debug_str:00000000000033cb .LASF699
C:\Users\liukai\AppData\Local\Temp\ccRK5ZRb.s:7275   .debug_str:0000000000005011 .LASF700
C:\Users\liukai\AppData\Local\Temp\ccRK5ZRb.s:7857   .debug_str:0000000000007087 .LASF701
C:\Users\liukai\AppData\Local\Temp\ccRK5ZRb.s:7357   .debug_str:00000000000053e7 .LASF702
C:\Users\liukai\AppData\Local\Temp\ccRK5ZRb.s:6439   .debug_str:000000000000253b .LASF703
C:\Users\liukai\AppData\Local\Temp\ccRK5ZRb.s:6099   .debug_str:00000000000011e3 .LASF704
C:\Users\liukai\AppData\Local\Temp\ccRK5ZRb.s:7855   .debug_str:0000000000007040 .LASF705
C:\Users\liukai\AppData\Local\Temp\ccRK5ZRb.s:7279   .debug_str:0000000000005061 .LASF706
C:\Users\liukai\AppData\Local\Temp\ccRK5ZRb.s:6637   .debug_str:0000000000003043 .LASF707
C:\Users\liukai\AppData\Local\Temp\ccRK5ZRb.s:7835   .debug_str:0000000000006f3b .LASF708
C:\Users\liukai\AppData\Local\Temp\ccRK5ZRb.s:6391   .debug_str:000000000000230b .LASF709
C:\Users\liukai\AppData\Local\Temp\ccRK5ZRb.s:6799   .debug_str:0000000000003872 .LASF710
C:\Users\liukai\AppData\Local\Temp\ccRK5ZRb.s:6195   .debug_str:00000000000016cc .LASF711
C:\Users\liukai\AppData\Local\Temp\ccRK5ZRb.s:6197   .debug_str:00000000000016e4 .LASF712
C:\Users\liukai\AppData\Local\Temp\ccRK5ZRb.s:7401   .debug_str:000000000000576c .LASF713
C:\Users\liukai\AppData\Local\Temp\ccRK5ZRb.s:6717   .debug_str:0000000000003487 .LASF714
C:\Users\liukai\AppData\Local\Temp\ccRK5ZRb.s:7609   .debug_str:00000000000063a3 .LASF715
C:\Users\liukai\AppData\Local\Temp\ccRK5ZRb.s:7467   .debug_str:0000000000005adc .LASF716
C:\Users\liukai\AppData\Local\Temp\ccRK5ZRb.s:6161   .debug_str:0000000000001514 .LASF717
C:\Users\liukai\AppData\Local\Temp\ccRK5ZRb.s:6583   .debug_str:0000000000002cf8 .LASF718
C:\Users\liukai\AppData\Local\Temp\ccRK5ZRb.s:7938   .debug_str:000000000000766d .LASF719
C:\Users\liukai\AppData\Local\Temp\ccRK5ZRb.s:6805   .debug_str:0000000000003893 .LASF720
C:\Users\liukai\AppData\Local\Temp\ccRK5ZRb.s:6911   .debug_str:0000000000003d78 .LASF721
C:\Users\liukai\AppData\Local\Temp\ccRK5ZRb.s:6919   .debug_str:0000000000003e0d .LASF722
C:\Users\liukai\AppData\Local\Temp\ccRK5ZRb.s:7085   .debug_str:0000000000004658 .LASF723
C:\Users\liukai\AppData\Local\Temp\ccRK5ZRb.s:7687   .debug_str:00000000000067d6 .LASF724
C:\Users\liukai\AppData\Local\Temp\ccRK5ZRb.s:7453   .debug_str:0000000000005a1d .LASF725
C:\Users\liukai\AppData\Local\Temp\ccRK5ZRb.s:7161   .debug_str:00000000000049d8 .LASF726
C:\Users\liukai\AppData\Local\Temp\ccRK5ZRb.s:7853   .debug_str:000000000000702b .LASF727
C:\Users\liukai\AppData\Local\Temp\ccRK5ZRb.s:6185   .debug_str:000000000000165e .LASF728
C:\Users\liukai\AppData\Local\Temp\ccRK5ZRb.s:7924   .debug_str:00000000000075d2 .LASF729
C:\Users\liukai\AppData\Local\Temp\ccRK5ZRb.s:5815   .debug_str:0000000000000308 .LASF730
C:\Users\liukai\AppData\Local\Temp\ccRK5ZRb.s:6079   .debug_str:0000000000001051 .LASF731
C:\Users\liukai\AppData\Local\Temp\ccRK5ZRb.s:7395   .debug_str:00000000000056af .LASF732
C:\Users\liukai\AppData\Local\Temp\ccRK5ZRb.s:7946   .debug_str:00000000000076d4 .LASF733
C:\Users\liukai\AppData\Local\Temp\ccRK5ZRb.s:7893   .debug_str:0000000000007249 .LASF734
C:\Users\liukai\AppData\Local\Temp\ccRK5ZRb.s:7733   .debug_str:0000000000006a39 .LASF735
C:\Users\liukai\AppData\Local\Temp\ccRK5ZRb.s:6033   .debug_str:0000000000000df4 .LASF736
C:\Users\liukai\AppData\Local\Temp\ccRK5ZRb.s:7403   .debug_str:0000000000005786 .LASF737
C:\Users\liukai\AppData\Local\Temp\ccRK5ZRb.s:6869   .debug_str:0000000000003ba1 .LASF738
C:\Users\liukai\AppData\Local\Temp\ccRK5ZRb.s:7483   .debug_str:0000000000005b82 .LASF739
C:\Users\liukai\AppData\Local\Temp\ccRK5ZRb.s:7251   .debug_str:0000000000004ebd .LASF740
C:\Users\liukai\AppData\Local\Temp\ccRK5ZRb.s:6797   .debug_str:0000000000003854 .LASF741
C:\Users\liukai\AppData\Local\Temp\ccRK5ZRb.s:6503   .debug_str:00000000000028e6 .LASF742
C:\Users\liukai\AppData\Local\Temp\ccRK5ZRb.s:6133   .debug_str:00000000000013a6 .LASF743
C:\Users\liukai\AppData\Local\Temp\ccRK5ZRb.s:6091   .debug_str:00000000000010d8 .LASF744
C:\Users\liukai\AppData\Local\Temp\ccRK5ZRb.s:6839   .debug_str:0000000000003a43 .LASF745
C:\Users\liukai\AppData\Local\Temp\ccRK5ZRb.s:6243   .debug_str:00000000000019cd .LASF746
C:\Users\liukai\AppData\Local\Temp\ccRK5ZRb.s:5921   .debug_str:0000000000000915 .LASF747
C:\Users\liukai\AppData\Local\Temp\ccRK5ZRb.s:6265   .debug_str:0000000000001b6f .LASF748
C:\Users\liukai\AppData\Local\Temp\ccRK5ZRb.s:7355   .debug_str:00000000000053c6 .LASF749
C:\Users\liukai\AppData\Local\Temp\ccRK5ZRb.s:5949   .debug_str:0000000000000a4f .LASF750
C:\Users\liukai\AppData\Local\Temp\ccRK5ZRb.s:7337   .debug_str:00000000000052fb .LASF751
C:\Users\liukai\AppData\Local\Temp\ccRK5ZRb.s:7375   .debug_str:0000000000005528 .LASF752
C:\Users\liukai\AppData\Local\Temp\ccRK5ZRb.s:6417   .debug_str:0000000000002401 .LASF753
C:\Users\liukai\AppData\Local\Temp\ccRK5ZRb.s:7821   .debug_str:0000000000006e37 .LASF754
C:\Users\liukai\AppData\Local\Temp\ccRK5ZRb.s:6625   .debug_str:0000000000002f5b .LASF755
C:\Users\liukai\AppData\Local\Temp\ccRK5ZRb.s:6987   .debug_str:00000000000041c2 .LASF756
C:\Users\liukai\AppData\Local\Temp\ccRK5ZRb.s:7307   .debug_str:000000000000519f .LASF757
C:\Users\liukai\AppData\Local\Temp\ccRK5ZRb.s:6923   .debug_str:0000000000003e2f .LASF758
C:\Users\liukai\AppData\Local\Temp\ccRK5ZRb.s:6389   .debug_str:00000000000022cd .LASF759
C:\Users\liukai\AppData\Local\Temp\ccRK5ZRb.s:6917   .debug_str:0000000000003dcb .LASF760
C:\Users\liukai\AppData\Local\Temp\ccRK5ZRb.s:7379   .debug_str:000000000000556c .LASF761
C:\Users\liukai\AppData\Local\Temp\ccRK5ZRb.s:7293   .debug_str:00000000000050f7 .LASF762
C:\Users\liukai\AppData\Local\Temp\ccRK5ZRb.s:6703   .debug_str:0000000000003364 .LASF763
C:\Users\liukai\AppData\Local\Temp\ccRK5ZRb.s:7829   .debug_str:0000000000006ed5 .LASF764
C:\Users\liukai\AppData\Local\Temp\ccRK5ZRb.s:5771   .debug_str:0000000000000108 .LASF765
C:\Users\liukai\AppData\Local\Temp\ccRK5ZRb.s:7183   .debug_str:0000000000004ac7 .LASF766
C:\Users\liukai\AppData\Local\Temp\ccRK5ZRb.s:5819   .debug_str:0000000000000336 .LASF767
C:\Users\liukai\AppData\Local\Temp\ccRK5ZRb.s:7575   .debug_str:000000000000616d .LASF768
C:\Users\liukai\AppData\Local\Temp\ccRK5ZRb.s:6427   .debug_str:00000000000024b0 .LASF769
C:\Users\liukai\AppData\Local\Temp\ccRK5ZRb.s:7607   .debug_str:0000000000006382 .LASF770
C:\Users\liukai\AppData\Local\Temp\ccRK5ZRb.s:5777   .debug_str:0000000000000164 .LASF771
C:\Users\liukai\AppData\Local\Temp\ccRK5ZRb.s:5925   .debug_str:000000000000095e .LASF772
C:\Users\liukai\AppData\Local\Temp\ccRK5ZRb.s:6479   .debug_str:00000000000027d7 .LASF773
C:\Users\liukai\AppData\Local\Temp\ccRK5ZRb.s:6807   .debug_str:00000000000038b1 .LASF775
C:\Users\liukai\AppData\Local\Temp\ccRK5ZRb.s:7811   .debug_str:0000000000006db8 .LASF776
C:\Users\liukai\AppData\Local\Temp\ccRK5ZRb.s:6613   .debug_str:0000000000002edb .LASF777
C:\Users\liukai\AppData\Local\Temp\ccRK5ZRb.s:6441   .debug_str:000000000000258a .LASF778
C:\Users\liukai\AppData\Local\Temp\ccRK5ZRb.s:7117   .debug_str:00000000000047ca .LASF779
C:\Users\liukai\AppData\Local\Temp\ccRK5ZRb.s:5805   .debug_str:0000000000000291 .LASF780
C:\Users\liukai\AppData\Local\Temp\ccRK5ZRb.s:7145   .debug_str:000000000000495b .LASF781
C:\Users\liukai\AppData\Local\Temp\ccRK5ZRb.s:6157   .debug_str:00000000000014d5 .LASF782
C:\Users\liukai\AppData\Local\Temp\ccRK5ZRb.s:7861   .debug_str:00000000000070fb .LASF783
C:\Users\liukai\AppData\Local\Temp\ccRK5ZRb.s:6631   .debug_str:0000000000002ffa .LASF784
C:\Users\liukai\AppData\Local\Temp\ccRK5ZRb.s:6743   .debug_str:0000000000003607 .LASF785
C:\Users\liukai\AppData\Local\Temp\ccRK5ZRb.s:6467   .debug_str:00000000000026fa .LASF786
C:\Users\liukai\AppData\Local\Temp\ccRK5ZRb.s:7535   .debug_str:0000000000005ede .LASF787
C:\Users\liukai\AppData\Local\Temp\ccRK5ZRb.s:5767   .debug_str:00000000000000cd .LASF788
C:\Users\liukai\AppData\Local\Temp\ccRK5ZRb.s:7371   .debug_str:0000000000005501 .LASF789
C:\Users\liukai\AppData\Local\Temp\ccRK5ZRb.s:6007   .debug_str:0000000000000c93 .LASF790
C:\Users\liukai\AppData\Local\Temp\ccRK5ZRb.s:7139   .debug_str:00000000000048f4 .LASF791
C:\Users\liukai\AppData\Local\Temp\ccRK5ZRb.s:6511   .debug_str:000000000000296b .LASF794
C:\Users\liukai\AppData\Local\Temp\ccRK5ZRb.s:7481   .debug_str:0000000000005b6b .LASF795
C:\Users\liukai\AppData\Local\Temp\ccRK5ZRb.s:7167   .debug_str:0000000000004a3e .LASF796
C:\Users\liukai\AppData\Local\Temp\ccRK5ZRb.s:6927   .debug_str:0000000000003e86 .LASF797
C:\Users\liukai\AppData\Local\Temp\ccRK5ZRb.s:6491   .debug_str:000000000000284f .LASF798
C:\Users\liukai\AppData\Local\Temp\ccRK5ZRb.s:6877   .debug_str:0000000000003c02 .LASF799
C:\Users\liukai\AppData\Local\Temp\ccRK5ZRb.s:7141   .debug_str:000000000000490e .LASF800
C:\Users\liukai\AppData\Local\Temp\ccRK5ZRb.s:7399   .debug_str:00000000000056e9 .LASF801
C:\Users\liukai\AppData\Local\Temp\ccRK5ZRb.s:5901   .debug_str:0000000000000732 .LASF802
C:\Users\liukai\AppData\Local\Temp\ccRK5ZRb.s:6959   .debug_str:0000000000003fdf .LASF803
C:\Users\liukai\AppData\Local\Temp\ccRK5ZRb.s:7075   .debug_str:00000000000045b6 .LASF806
C:\Users\liukai\AppData\Local\Temp\ccRK5ZRb.s:7589   .debug_str:000000000000624a .LASF807
C:\Users\liukai\AppData\Local\Temp\ccRK5ZRb.s:5911   .debug_str:000000000000085b .LASF808
C:\Users\liukai\AppData\Local\Temp\ccRK5ZRb.s:6407   .debug_str:000000000000239c .LASF809
C:\Users\liukai\AppData\Local\Temp\ccRK5ZRb.s:7565   .debug_str:00000000000060ec .LASF810
C:\Users\liukai\AppData\Local\Temp\ccRK5ZRb.s:7713   .debug_str:00000000000068f7 .LASF811
C:\Users\liukai\AppData\Local\Temp\ccRK5ZRb.s:5959   .debug_str:0000000000000acd .LASF812
C:\Users\liukai\AppData\Local\Temp\ccRK5ZRb.s:7531   .debug_str:0000000000005ec0 .LASF813
C:\Users\liukai\AppData\Local\Temp\ccRK5ZRb.s:6457   .debug_str:0000000000002636 .LASF814
C:\Users\liukai\AppData\Local\Temp\ccRK5ZRb.s:6047   .debug_str:0000000000000ea5 .LASF815
C:\Users\liukai\AppData\Local\Temp\ccRK5ZRb.s:5919   .debug_str:00000000000008d0 .LASF816
C:\Users\liukai\AppData\Local\Temp\ccRK5ZRb.s:7523   .debug_str:0000000000005ddf .LASF817
C:\Users\liukai\AppData\Local\Temp\ccRK5ZRb.s:7311   .debug_str:00000000000051e7 .LASF818
C:\Users\liukai\AppData\Local\Temp\ccRK5ZRb.s:6339   .debug_str:000000000000205a .LASF819
C:\Users\liukai\AppData\Local\Temp\ccRK5ZRb.s:7433   .debug_str:00000000000058fe .LASF820
C:\Users\liukai\AppData\Local\Temp\ccRK5ZRb.s:5859   .debug_str:0000000000000574 .LASF821
C:\Users\liukai\AppData\Local\Temp\ccRK5ZRb.s:7883   .debug_str:00000000000071d3 .LASF822
C:\Users\liukai\AppData\Local\Temp\ccRK5ZRb.s:7487   .debug_str:0000000000005be5 .LASF823
C:\Users\liukai\AppData\Local\Temp\ccRK5ZRb.s:6771   .debug_str:000000000000372a .LASF824
C:\Users\liukai\AppData\Local\Temp\ccRK5ZRb.s:7940   .debug_str:0000000000007695 .LASF825
C:\Users\liukai\AppData\Local\Temp\ccRK5ZRb.s:6867   .debug_str:0000000000003b8e .LASF826
C:\Users\liukai\AppData\Local\Temp\ccRK5ZRb.s:6203   .debug_str:0000000000001720 .LASF827
C:\Users\liukai\AppData\Local\Temp\ccRK5ZRb.s:7831   .debug_str:0000000000006f0d .LASF828
C:\Users\liukai\AppData\Local\Temp\ccRK5ZRb.s:7427   .debug_str:00000000000058a1 .LASF829
C:\Users\liukai\AppData\Local\Temp\ccRK5ZRb.s:5787   .debug_str:00000000000001c2 .LASF830
C:\Users\liukai\AppData\Local\Temp\ccRK5ZRb.s:5947   .debug_str:0000000000000a3c .LASF831
C:\Users\liukai\AppData\Local\Temp\ccRK5ZRb.s:6519   .debug_str:00000000000029c2 .LASF832
C:\Users\liukai\AppData\Local\Temp\ccRK5ZRb.s:6571   .debug_str:0000000000002c89 .LASF833
C:\Users\liukai\AppData\Local\Temp\ccRK5ZRb.s:7323   .debug_str:0000000000005264 .LASF834
C:\Users\liukai\AppData\Local\Temp\ccRK5ZRb.s:6979   .debug_str:000000000000417f .LASF835
C:\Users\liukai\AppData\Local\Temp\ccRK5ZRb.s:6599   .debug_str:0000000000002e40 .LASF836
C:\Users\liukai\AppData\Local\Temp\ccRK5ZRb.s:6311   .debug_str:0000000000001e54 .LASF837
C:\Users\liukai\AppData\Local\Temp\ccRK5ZRb.s:6387   .debug_str:00000000000022bc .LASF838
C:\Users\liukai\AppData\Local\Temp\ccRK5ZRb.s:7405   .debug_str:000000000000579c .LASF839
C:\Users\liukai\AppData\Local\Temp\ccRK5ZRb.s:6889   .debug_str:0000000000003c90 .LASF840
C:\Users\liukai\AppData\Local\Temp\ccRK5ZRb.s:6005   .debug_str:0000000000000c82 .LASF841
C:\Users\liukai\AppData\Local\Temp\ccRK5ZRb.s:7463   .debug_str:0000000000005ab7 .LASF842
C:\Users\liukai\AppData\Local\Temp\ccRK5ZRb.s:5967   .debug_str:0000000000000b1e .LASF843
C:\Users\liukai\AppData\Local\Temp\ccRK5ZRb.s:5945   .debug_str:0000000000000a29 .LASF844
C:\Users\liukai\AppData\Local\Temp\ccRK5ZRb.s:6361   .debug_str:0000000000002157 .LASF845
C:\Users\liukai\AppData\Local\Temp\ccRK5ZRb.s:7787   .debug_str:0000000000006c69 .LASF846
C:\Users\liukai\AppData\Local\Temp\ccRK5ZRb.s:7123   .debug_str:0000000000004829 .LASF847
C:\Users\liukai\AppData\Local\Temp\ccRK5ZRb.s:6323   .debug_str:0000000000001f22 .LASF848
C:\Users\liukai\AppData\Local\Temp\ccRK5ZRb.s:6403   .debug_str:0000000000002377 .LASF849
C:\Users\liukai\AppData\Local\Temp\ccRK5ZRb.s:7163   .debug_str:00000000000049f0 .LASF851
C:\Users\liukai\AppData\Local\Temp\ccRK5ZRb.s:7205   .debug_str:0000000000004c76 .LASF852
C:\Users\liukai\AppData\Local\Temp\ccRK5ZRb.s:6783   .debug_str:00000000000037b3 .LASF853
C:\Users\liukai\AppData\Local\Temp\ccRK5ZRb.s:7865   .debug_str:000000000000711b .LASF854
C:\Users\liukai\AppData\Local\Temp\ccRK5ZRb.s:7445   .debug_str:0000000000005970 .LASF855
C:\Users\liukai\AppData\Local\Temp\ccRK5ZRb.s:6513   .debug_str:000000000000297d .LASF856
C:\Users\liukai\AppData\Local\Temp\ccRK5ZRb.s:5817   .debug_str:000000000000031e .LASF857
C:\Users\liukai\AppData\Local\Temp\ccRK5ZRb.s:6235   .debug_str:000000000000194f .LASF858
C:\Users\liukai\AppData\Local\Temp\ccRK5ZRb.s:7115   .debug_str:00000000000047b0 .LASF859
C:\Users\liukai\AppData\Local\Temp\ccRK5ZRb.s:6659   .debug_str:000000000000316e .LASF860
C:\Users\liukai\AppData\Local\Temp\ccRK5ZRb.s:7215   .debug_str:0000000000004cdd .LASF861
C:\Users\liukai\AppData\Local\Temp\ccRK5ZRb.s:5897   .debug_str:00000000000006e3 .LASF862
C:\Users\liukai\AppData\Local\Temp\ccRK5ZRb.s:5755   .debug_str:0000000000000047 .LASF863
C:\Users\liukai\AppData\Local\Temp\ccRK5ZRb.s:7505   .debug_str:0000000000005cda .LASF866
C:\Users\liukai\AppData\Local\Temp\ccRK5ZRb.s:6255   .debug_str:0000000000001aab .LASF867
C:\Users\liukai\AppData\Local\Temp\ccRK5ZRb.s:6333   .debug_str:0000000000001fd7 .LASF868
C:\Users\liukai\AppData\Local\Temp\ccRK5ZRb.s:6151   .debug_str:0000000000001493 .LASF869
C:\Users\liukai\AppData\Local\Temp\ccRK5ZRb.s:7229   .debug_str:0000000000004da5 .LASF870
C:\Users\liukai\AppData\Local\Temp\ccRK5ZRb.s:6021   .debug_str:0000000000000d82 .LASF871
C:\Users\liukai\AppData\Local\Temp\ccRK5ZRb.s:7711   .debug_str:00000000000068ea .LASF872
C:\Users\liukai\AppData\Local\Temp\ccRK5ZRb.s:6485   .debug_str:0000000000002823 .LASF873
C:\Users\liukai\AppData\Local\Temp\ccRK5ZRb.s:6971   .debug_str:0000000000004143 .LASF874
C:\Users\liukai\AppData\Local\Temp\ccRK5ZRb.s:6899   .debug_str:0000000000003cfe .LASF875
C:\Users\liukai\AppData\Local\Temp\ccRK5ZRb.s:6003   .debug_str:0000000000000c74 .LASF876
C:\Users\liukai\AppData\Local\Temp\ccRK5ZRb.s:7109   .debug_str:0000000000004785 .LASF877
C:\Users\liukai\AppData\Local\Temp\ccRK5ZRb.s:6001   .debug_str:0000000000000c66 .LASF878
C:\Users\liukai\AppData\Local\Temp\ccRK5ZRb.s:7347   .debug_str:0000000000005394 .LASF879
C:\Users\liukai\AppData\Local\Temp\ccRK5ZRb.s:7807   .debug_str:0000000000006da0 .LASF880
C:\Users\liukai\AppData\Local\Temp\ccRK5ZRb.s:6383   .debug_str:0000000000002282 .LASF881
C:\Users\liukai\AppData\Local\Temp\ccRK5ZRb.s:7133   .debug_str:0000000000004893 .LASF882
C:\Users\liukai\AppData\Local\Temp\ccRK5ZRb.s:6453   .debug_str:000000000000260d .LASF883
C:\Users\liukai\AppData\Local\Temp\ccRK5ZRb.s:7335   .debug_str:00000000000052ed .LASF884
C:\Users\liukai\AppData\Local\Temp\ccRK5ZRb.s:6737   .debug_str:00000000000035bf .LASF885
C:\Users\liukai\AppData\Local\Temp\ccRK5ZRb.s:6833   .debug_str:0000000000003a11 .LASF886
C:\Users\liukai\AppData\Local\Temp\ccRK5ZRb.s:7639   .debug_str:0000000000006555 .LASF887
C:\Users\liukai\AppData\Local\Temp\ccRK5ZRb.s:7169   .debug_str:0000000000004a50 .LASF888
C:\Users\liukai\AppData\Local\Temp\ccRK5ZRb.s:7863   .debug_str:0000000000007112 .LASF889
C:\Users\liukai\AppData\Local\Temp\ccRK5ZRb.s:7643   .debug_str:00000000000065bf .LASF890
C:\Users\liukai\AppData\Local\Temp\ccRK5ZRb.s:6219   .debug_str:00000000000017c6 .LASF891
C:\Users\liukai\AppData\Local\Temp\ccRK5ZRb.s:6845   .debug_str:0000000000003aa4 .LASF892
C:\Users\liukai\AppData\Local\Temp\ccRK5ZRb.s:6367   .debug_str:00000000000021c7 .LASF893
C:\Users\liukai\AppData\Local\Temp\ccRK5ZRb.s:6855   .debug_str:0000000000003b00 .LASF894
C:\Users\liukai\AppData\Local\Temp\ccRK5ZRb.s:5811   .debug_str:00000000000002e4 .LASF895
C:\Users\liukai\AppData\Local\Temp\ccRK5ZRb.s:6187   .debug_str:0000000000001677 .LASF896
C:\Users\liukai\AppData\Local\Temp\ccRK5ZRb.s:7351   .debug_str:00000000000053ab .LASF897
C:\Users\liukai\AppData\Local\Temp\ccRK5ZRb.s:6999   .debug_str:0000000000004278 .LASF898
C:\Users\liukai\AppData\Local\Temp\ccRK5ZRb.s:5899   .debug_str:000000000000071b .LASF899
C:\Users\liukai\AppData\Local\Temp\ccRK5ZRb.s:6065   .debug_str:0000000000000f90 .LASF900
C:\Users\liukai\AppData\Local\Temp\ccRK5ZRb.s:5951   .debug_str:0000000000000a7a .LASF901
C:\Users\liukai\AppData\Local\Temp\ccRK5ZRb.s:6509   .debug_str:0000000000002951 .LASF902
C:\Users\liukai\AppData\Local\Temp\ccRK5ZRb.s:6785   .debug_str:00000000000037c0 .LASF903
C:\Users\liukai\AppData\Local\Temp\ccRK5ZRb.s:5809   .debug_str:00000000000002c8 .LASF904
C:\Users\liukai\AppData\Local\Temp\ccRK5ZRb.s:6853   .debug_str:0000000000003ae8 .LASF905
C:\Users\liukai\AppData\Local\Temp\ccRK5ZRb.s:7801   .debug_str:0000000000006d25 .LASF906
C:\Users\liukai\AppData\Local\Temp\ccRK5ZRb.s:6327   .debug_str:0000000000001f57 .LASF907
C:\Users\liukai\AppData\Local\Temp\ccRK5ZRb.s:6309   .debug_str:0000000000001dfb .LASF908
C:\Users\liukai\AppData\Local\Temp\ccRK5ZRb.s:5827   .debug_str:000000000000037f .LASF909
C:\Users\liukai\AppData\Local\Temp\ccRK5ZRb.s:6949   .debug_str:0000000000003f6f .LASF910
C:\Users\liukai\AppData\Local\Temp\ccRK5ZRb.s:7605   .debug_str:0000000000006350 .LASF911
C:\Users\liukai\AppData\Local\Temp\ccRK5ZRb.s:7555   .debug_str:0000000000006001 .LASF912
C:\Users\liukai\AppData\Local\Temp\ccRK5ZRb.s:7775   .debug_str:0000000000006bea .LASF913
C:\Users\liukai\AppData\Local\Temp\ccRK5ZRb.s:6635   .debug_str:0000000000003030 .LASF914
C:\Users\liukai\AppData\Local\Temp\ccRK5ZRb.s:6649   .debug_str:00000000000030ec .LASF915
C:\Users\liukai\AppData\Local\Temp\ccRK5ZRb.s:7725   .debug_str:00000000000069c7 .LASF916
C:\Users\liukai\AppData\Local\Temp\ccRK5ZRb.s:5791   .debug_str:00000000000001da .LASF917
C:\Users\liukai\AppData\Local\Temp\ccRK5ZRb.s:7329   .debug_str:00000000000052ab .LASF918
C:\Users\liukai\AppData\Local\Temp\ccRK5ZRb.s:7877   .debug_str:0000000000007189 .LASF919
C:\Users\liukai\AppData\Local\Temp\ccRK5ZRb.s:6473   .debug_str:0000000000002775 .LASF920
C:\Users\liukai\AppData\Local\Temp\ccRK5ZRb.s:7952   .debug_str:00000000000078be .LASF921
C:\Users\liukai\AppData\Local\Temp\ccRK5ZRb.s:6597   .debug_str:0000000000002dd8 .LASF922
C:\Users\liukai\AppData\Local\Temp\ccRK5ZRb.s:6843   .debug_str:0000000000003a97 .LASF923
C:\Users\liukai\AppData\Local\Temp\ccRK5ZRb.s:6271   .debug_str:0000000000001bd4 .LASF924
C:\Users\liukai\AppData\Local\Temp\ccRK5ZRb.s:6539   .debug_str:0000000000002ac2 .LASF925
C:\Users\liukai\AppData\Local\Temp\ccRK5ZRb.s:6411   .debug_str:00000000000023c7 .LASF926
C:\Users\liukai\AppData\Local\Temp\ccRK5ZRb.s:6507   .debug_str:0000000000002949 .LASF927
C:\Users\liukai\AppData\Local\Temp\ccRK5ZRb.s:7209   .debug_str:0000000000004c94 .LASF928
C:\Users\liukai\AppData\Local\Temp\ccRK5ZRb.s:7623   .debug_str:0000000000006423 .LASF929
C:\Users\liukai\AppData\Local\Temp\ccRK5ZRb.s:6557   .debug_str:0000000000002bc2 .LASF930
C:\Users\liukai\AppData\Local\Temp\ccRK5ZRb.s:7585   .debug_str:00000000000061f0 .LASF931
C:\Users\liukai\AppData\Local\Temp\ccRK5ZRb.s:6995   .debug_str:0000000000004249 .LASF932
C:\Users\liukai\AppData\Local\Temp\ccRK5ZRb.s:6651   .debug_str:0000000000003103 .LASF933
C:\Users\liukai\AppData\Local\Temp\ccRK5ZRb.s:6371   .debug_str:00000000000021e2 .LASF934
C:\Users\liukai\AppData\Local\Temp\ccRK5ZRb.s:6487   .debug_str:0000000000002830 .LASF935
C:\Users\liukai\AppData\Local\Temp\ccRK5ZRb.s:7263   .debug_str:0000000000004f65 .LASF936
C:\Users\liukai\AppData\Local\Temp\ccRK5ZRb.s:5849   .debug_str:00000000000004af .LASF937
C:\Users\liukai\AppData\Local\Temp\ccRK5ZRb.s:6823   .debug_str:00000000000039bb .LASF938
C:\Users\liukai\AppData\Local\Temp\ccRK5ZRb.s:7928   .debug_str:00000000000075f6 .LASF939
C:\Users\liukai\AppData\Local\Temp\ccRK5ZRb.s:7779   .debug_str:0000000000006c14 .LASF940
C:\Users\liukai\AppData\Local\Temp\ccRK5ZRb.s:6863   .debug_str:0000000000003b46 .LASF941
C:\Users\liukai\AppData\Local\Temp\ccRK5ZRb.s:6321   .debug_str:0000000000001f00 .LASF942
C:\Users\liukai\AppData\Local\Temp\ccRK5ZRb.s:6887   .debug_str:0000000000003c74 .LASF943
C:\Users\liukai\AppData\Local\Temp\ccRK5ZRb.s:7407   .debug_str:00000000000057ad .LASF944
C:\Users\liukai\AppData\Local\Temp\ccRK5ZRb.s:6943   .debug_str:0000000000003f16 .LASF945
C:\Users\liukai\AppData\Local\Temp\ccRK5ZRb.s:7255   .debug_str:0000000000004ef4 .LASF946
C:\Users\liukai\AppData\Local\Temp\ccRK5ZRb.s:7859   .debug_str:00000000000070ce .LASF947
C:\Users\liukai\AppData\Local\Temp\ccRK5ZRb.s:6131   .debug_str:0000000000001379 .LASF948
C:\Users\liukai\AppData\Local\Temp\ccRK5ZRb.s:6967   .debug_str:00000000000040f7 .LASF949
C:\Users\liukai\AppData\Local\Temp\ccRK5ZRb.s:6167   .debug_str:000000000000156e .LASF950
C:\Users\liukai\AppData\Local\Temp\ccRK5ZRb.s:7369   .debug_str:00000000000054c6 .LASF951
C:\Users\liukai\AppData\Local\Temp\ccRK5ZRb.s:7525   .debug_str:0000000000005e63 .LASF952
                           .group:0000000000000000 wm4.0.37aa6d340f8b0e49c613fc152d20c88a
                           .group:0000000000000000 wm4.config.h.15.8a43118bb129bb57a6209f6e7e39cd57
                           .group:0000000000000000 wm4._newlib_version.h.4.875b979a44719054cd750d0952ad3fd6
                           .group:0000000000000000 wm4.features.h.33.318b64d71e0957639cfb30f1db1f7ec8
                           .group:0000000000000000 wm4._default_types.h.15.247e5cd201eca3442cbf5404108c4935
                           .group:0000000000000000 wm4._intsup.h.10.cce27fed8484c08a33f522034c30d2b5
                           .group:0000000000000000 wm4._stdint.h.10.c24fa3af3bc1706662bb5593a907e841
                           .group:0000000000000000 wm4.stdint.h.23.d53047a68f4a85177f80b422d52785ed
                           .group:0000000000000000 wm4.newlib.h.8.9957ed579b08d5b19580d9fda2a8f437
                           .group:0000000000000000 wm4.ieeefp.h.193.a04996ad6548b0579a40a1f708027f95
                           .group:0000000000000000 wm4.config.h.79.b548f69d9f69fceadec535dc005f68c6
                           .group:0000000000000000 wm4._ansi.h.31.de524f58584151836e90d8620a16f8e8
                           .group:0000000000000000 wm4.stdio.h.31.7c0e28c411445f3f9c5b11accf882760
                           .group:0000000000000000 wm4.stddef.h.187.2ff233552538c6ff9b8575ca8ea52cb3
                           .group:0000000000000000 wm4.cdefs.h.47.9b1aff81ebf9fd459c1248694f70fc96
                           .group:0000000000000000 wm4.stddef.h.39.ec95e8feac892e292b69dc7ae75b0d64
                           .group:0000000000000000 wm4.stdarg.h.34.3a23a216c0c293b3d2ea2e89281481e6
                           .group:0000000000000000 wm4.lock.h.2.1461d1fff82dffe8bfddc23307f6484f
                           .group:0000000000000000 wm4._types.h.125.5cf8a495f1f7ef36777ad868a1e32068
                           .group:0000000000000000 wm4.stddef.h.161.5349cb105733e8777bfb0cf53c4e3f34
                           .group:0000000000000000 wm4._types.h.184.7120b8bb2e0149e2359704f4e2251b68
                           .group:0000000000000000 wm4.reent.h.17.87376802c2b370b32a762f0a30482d9e
                           .group:0000000000000000 wm4.types.h.40.e8c16e7ec36ba55f133d0616070e25fc
                           .group:0000000000000000 wm4._endian.h.18.1bf9649e8e5bbc91042012680270b9ed
                           .group:0000000000000000 wm4.endian.h.9.49f3a4695c1b61e8a0808de3c4a106cb
                           .group:0000000000000000 wm4._timeval.h.30.0e8bfd94e85db17dda3286ee81496fe6
                           .group:0000000000000000 wm4.timespec.h.41.d855182eb0e690443ab8651bcedca6e1
                           .group:0000000000000000 wm4.select.h.30.bbece7fa40993a78092dcc5805132560
                           .group:0000000000000000 wm4.types.h.69.ed3eae3cf73030a737515151ebcab7a1
                           .group:0000000000000000 wm4.sched.h.22.c60982713a5c428609783c78f9c78d95
                           .group:0000000000000000 wm4._pthreadtypes.h.36.fcee9961c35163dde6267ef772ad1972
                           .group:0000000000000000 wm4.stdio.h.2.4aa87247282eca6c8f36f9de33d8df1a
                           .group:0000000000000000 wm4.stdio.h.81.932d0c162786b883f622b8d05c120c78
                           .group:0000000000000000 wm4.stdbool.h.29.07dce69c3b78884144b7f7bd19483461
                           .group:0000000000000000 wm4.picorv32.h.23.1beb83b07770a1ba2f5d16665d13d6c4

UNDEFINED SYMBOLS
wbuart_outbyte
printf
