   1              		.file	"printf.c"
   2              		.option nopic
   3              		.text
   4              	.Ltext0:
   5              		.cfi_sections	.debug_frame
   6              		.section	.text.printchar,"ax",@progbits
   7              		.align	1
   9              	printchar:
  10              	.LFB3:
  11              		.file 1 "../src/lib/printf.c"
   1:../src/lib/printf.c **** /*
   2:../src/lib/printf.c **** 	Copyright 2001, 2002 Georges Menie (www.menie.org)
   3:../src/lib/printf.c **** 	stdarg version contributed by Christian Ettinger
   4:../src/lib/printf.c **** 
   5:../src/lib/printf.c ****     This program is free software; you can redistribute it and/or modify
   6:../src/lib/printf.c ****     it under the terms of the GNU Lesser General Public License as published by
   7:../src/lib/printf.c ****     the Free Software Foundation; either version 2 of the License, or
   8:../src/lib/printf.c ****     (at your option) any later version.
   9:../src/lib/printf.c **** 
  10:../src/lib/printf.c ****     This program is distributed in the hope that it will be useful,
  11:../src/lib/printf.c ****     but WITHOUT ANY WARRANTY; without even the implied warranty of
  12:../src/lib/printf.c ****     MERCHANTABILITY or FITNESS FOR A PARTICULAR PURPOSE.  See the
  13:../src/lib/printf.c ****     GNU Lesser General Public License for more details.
  14:../src/lib/printf.c **** 
  15:../src/lib/printf.c ****     You should have received a copy of the GNU Lesser General Public License
  16:../src/lib/printf.c ****     along with this program; if not, write to the Free Software
  17:../src/lib/printf.c ****     Foundation, Inc., 59 Temple Place, Suite 330, Boston, MA  02111-1307  USA
  18:../src/lib/printf.c **** */
  19:../src/lib/printf.c **** 
  20:../src/lib/printf.c **** /*
  21:../src/lib/printf.c **** 	putchar is the only external dependency for this file,
  22:../src/lib/printf.c **** 	if you have a working putchar, leave it commented out.
  23:../src/lib/printf.c **** 	If not, uncomment the define below and
  24:../src/lib/printf.c **** 	replace outbyte(c) by your own function call.
  25:../src/lib/printf.c **** */
  26:../src/lib/printf.c **** #include <stdarg.h>
  27:../src/lib/printf.c **** #include "picorv32.h"
  28:../src/lib/printf.c **** #include "wbuart.h"
  29:../src/lib/printf.c **** #include "simpleuart.h"
  30:../src/lib/printf.c **** 
  31:../src/lib/printf.c **** #ifdef USE_WBUART
  32:../src/lib/printf.c **** #define putchar(c) wbuart_outbyte(c)
  33:../src/lib/printf.c **** #else
  34:../src/lib/printf.c **** #define putchar(c) outbyte(c)
  35:../src/lib/printf.c **** #endif
  36:../src/lib/printf.c **** 
  37:../src/lib/printf.c **** static void  __attribute__((optimize("Os"))) printchar(char **str, int c)
  38:../src/lib/printf.c **** {
  12              		.loc 1 38 1
  13              		.cfi_startproc
  39:../src/lib/printf.c **** 	extern int putchar(int c);
  40:../src/lib/printf.c **** 
  41:../src/lib/printf.c **** 	if (str) {
  14              		.loc 1 41 5
  15 0000 01C9     		beqz	a0,.L2
  42:../src/lib/printf.c **** 		**str = c;
  16              		.loc 1 42 4
  17 0002 1C41     		lw	a5,0(a0)
  18              		.loc 1 42 9
  19 0004 2380B700 		sb	a1,0(a5)
  43:../src/lib/printf.c **** 		++(*str);
  20              		.loc 1 43 3
  21 0008 1C41     		lw	a5,0(a0)
  22 000a 8507     		addi	a5,a5,1
  23 000c 1CC1     		sw	a5,0(a0)
  24 000e 8280     		ret
  25              	.L2:
  38:../src/lib/printf.c **** 	extern int putchar(int c);
  26              		.loc 1 38 1
  27 0010 17030000 		call	t0,__riscv_save_0
  27      E7020300 
  28              		.cfi_offset 1, -4
  29              		.cfi_def_cfa_offset 16
  30 0018 2E85     		mv	a0,a1
  44:../src/lib/printf.c **** 	}
  45:../src/lib/printf.c **** 	else (void)putchar(c);
  31              		.loc 1 45 13
  32 001a 97000000 		call	wbuart_outbyte
  32      E7800000 
  46:../src/lib/printf.c **** }
  33              		.loc 1 46 1
  34 0022 17030000 		tail	__riscv_restore_0
  34      67000300 
  35              		.cfi_restore 1
  36              		.cfi_def_cfa_offset 0
  37              		.cfi_endproc
  38              	.LFE3:
  40              		.section	.text.prints,"ax",@progbits
  41              		.align	1
  43              	prints:
  44              	.LFB4:
  47:../src/lib/printf.c **** 
  48:../src/lib/printf.c **** #define PAD_RIGHT 1
  49:../src/lib/printf.c **** #define PAD_ZERO 2
  50:../src/lib/printf.c **** 
  51:../src/lib/printf.c **** static int  __attribute__((optimize("Os"))) prints(char **out, const char *string, int width, int p
  52:../src/lib/printf.c **** {
  45              		.loc 1 52 1
  46              		.cfi_startproc
  47 0000 17030000 		call	t0,__riscv_save_6
  47      E7020300 
  48              		.cfi_offset 21, -28
  49              		.cfi_offset 20, -24
  50              		.cfi_offset 19, -20
  51              		.cfi_offset 18, -16
  52              		.cfi_offset 9, -12
  53              		.cfi_offset 8, -8
  54              		.cfi_offset 1, -4
  55              		.cfi_def_cfa_offset 32
  56              		.loc 1 52 1
  57 0008 2A8A     		mv	s4,a0
  58 000a AE8A     		mv	s5,a1
  59 000c 3284     		mv	s0,a2
  53:../src/lib/printf.c **** 	register int pc = 0, padchar = ' ';
  60              		.loc 1 53 23
  61 000e 93090002 		li	s3,32
  54:../src/lib/printf.c **** 
  55:../src/lib/printf.c **** 	if (width > 0) {
  62              		.loc 1 55 5
  63 0012 6354C002 		blez	a2,.L9
  64 0016 8147     		li	a5,0
  65 0018 11A0     		j	.L8
  66              	.L10:
  67              	.LBB2:
  56:../src/lib/printf.c **** 		register int len = 0;
  57:../src/lib/printf.c **** 		register const char *ptr;
  58:../src/lib/printf.c **** 		for (ptr = string; *ptr; ++ptr) ++len;
  68              		.loc 1 58 35 discriminator 3
  69 001a 8507     		addi	a5,a5,1
  70              	.L8:
  71              		.loc 1 58 22 discriminator 1
  72 001c 3387FA00 		add	a4,s5,a5
  73              		.loc 1 58 3 discriminator 1
  74 0020 03470700 		lbu	a4,0(a4)
  75 0024 7DFB     		bnez	a4,.L10
  59:../src/lib/printf.c **** 		if (len >= width) width = 0;
  76              		.loc 1 59 6
  77 0026 63DF8700 		bge	a5,s0,.L22
  60:../src/lib/printf.c **** 		else width -= len;
  78              		.loc 1 60 14
  79 002a 1D8C     		sub	s0,s0,a5
  80              	.L11:
  61:../src/lib/printf.c **** 		if (pad & PAD_ZERO) padchar = '0';
  81              		.loc 1 61 11
  82 002c 93F72600 		andi	a5,a3,2
  83              	.LBE2:
  53:../src/lib/printf.c **** 
  84              		.loc 1 53 23
  85 0030 93090002 		li	s3,32
  86              	.LBB3:
  87              		.loc 1 61 6
  88 0034 99C3     		beqz	a5,.L9
  89              		.loc 1 61 31
  90 0036 93090003 		li	s3,48
  91              	.L9:
  92              	.LBE3:
  62:../src/lib/printf.c **** 	}
  63:../src/lib/printf.c **** 	if (!(pad & PAD_RIGHT)) {
  93              		.loc 1 63 12
  94 003a 858A     		andi	a3,a3,1
  53:../src/lib/printf.c **** 
  95              		.loc 1 53 15
  96 003c 8144     		li	s1,0
  97              		.loc 1 63 5
  98 003e 9DE2     		bnez	a3,.L13
  99 0040 A284     		mv	s1,s0
 100 0042 11A8     		j	.L12
 101              	.L22:
 102              	.LBB4:
  59:../src/lib/printf.c **** 		else width -= len;
 103              		.loc 1 59 27
 104 0044 0144     		li	s0,0
 105 0046 DDB7     		j	.L11
 106              	.L14:
 107              	.LBE4:
  64:../src/lib/printf.c **** 		for ( ; width > 0; --width) {
  65:../src/lib/printf.c **** 			printchar (out, padchar);
 108              		.loc 1 65 4 discriminator 2
 109 0048 CE85     		mv	a1,s3
 110 004a 5285     		mv	a0,s4
 111 004c 97000000 		call	printchar
 111      E7800000 
  64:../src/lib/printf.c **** 		for ( ; width > 0; --width) {
 112              		.loc 1 64 22 discriminator 2
 113 0054 FD14     		addi	s1,s1,-1
 114              	.L12:
  64:../src/lib/printf.c **** 		for ( ; width > 0; --width) {
 115              		.loc 1 64 3 discriminator 1
 116 0056 E34990FE 		bgtz	s1,.L14
 117 005a A284     		mv	s1,s0
 118 005c 63530400 		bgez	s0,.L15
 119 0060 8144     		li	s1,0
 120              	.L15:
 121 0062 058C     		sub	s0,s0,s1
 122              	.L13:
  53:../src/lib/printf.c **** 
 123              		.loc 1 53 15 discriminator 1
 124 0064 2689     		mv	s2,s1
 125 0066 39A0     		j	.L16
 126              	.L17:
  66:../src/lib/printf.c **** 			++pc;
  67:../src/lib/printf.c **** 		}
  68:../src/lib/printf.c **** 	}
  69:../src/lib/printf.c **** 	for ( ; *string ; ++string) {
  70:../src/lib/printf.c **** 		printchar (out, *string);
 127              		.loc 1 70 3 discriminator 2
 128 0068 5285     		mv	a0,s4
 129 006a 97000000 		call	printchar
 129      E7800000 
  71:../src/lib/printf.c **** 		++pc;
 130              		.loc 1 71 3 discriminator 2
 131 0072 0509     		addi	s2,s2,1
 132              	.L16:
  69:../src/lib/printf.c **** 		printchar (out, *string);
 133              		.loc 1 69 10 discriminator 1
 134 0074 B3079940 		sub	a5,s2,s1
 135 0078 D697     		add	a5,s5,a5
 136 007a 83C50700 		lbu	a1,0(a5)
  69:../src/lib/printf.c **** 		printchar (out, *string);
 137              		.loc 1 69 2 discriminator 1
 138 007e EDF5     		bnez	a1,.L17
 139 0080 A284     		mv	s1,s0
 140              	.L18:
  72:../src/lib/printf.c **** 	}
  73:../src/lib/printf.c **** 	for ( ; width > 0; --width) {
 141              		.loc 1 73 2 discriminator 1
 142 0082 634B9000 		bgtz	s1,.L19
  74:../src/lib/printf.c **** 		printchar (out, padchar);
  75:../src/lib/printf.c **** 		++pc;
  76:../src/lib/printf.c **** 	}
  77:../src/lib/printf.c **** 
  78:../src/lib/printf.c **** 	return pc;
 143              		.loc 1 78 9
 144 0086 63530400 		bgez	s0,.L20
 145 008a 0144     		li	s0,0
 146              	.L20:
  79:../src/lib/printf.c **** }
 147              		.loc 1 79 1
 148 008c 33052401 		add	a0,s0,s2
 149 0090 17030000 		tail	__riscv_restore_6
 149      67000300 
 150              		.cfi_remember_state
 151              		.cfi_restore 21
 152              		.cfi_restore 20
 153              		.cfi_restore 19
 154              		.cfi_restore 18
 155              		.cfi_restore 9
 156              		.cfi_restore 8
 157              		.cfi_restore 1
 158              		.cfi_def_cfa_offset 0
 159              	.L19:
 160              		.cfi_restore_state
  74:../src/lib/printf.c **** 		printchar (out, padchar);
 161              		.loc 1 74 3 discriminator 2
 162 0098 CE85     		mv	a1,s3
 163 009a 5285     		mv	a0,s4
 164 009c 97000000 		call	printchar
 164      E7800000 
  73:../src/lib/printf.c **** 		printchar (out, padchar);
 165              		.loc 1 73 21 discriminator 2
 166 00a4 FD14     		addi	s1,s1,-1
 167 00a6 F1BF     		j	.L18
 168              		.cfi_endproc
 169              	.LFE4:
 171              		.section	.text.printi,"ax",@progbits
 172              		.align	1
 174              	printi:
 175              	.LFB5:
  80:../src/lib/printf.c **** 
  81:../src/lib/printf.c **** /* the following should be enough for 32 bit int */
  82:../src/lib/printf.c **** #define PRINT_BUF_LEN 12
  83:../src/lib/printf.c **** 
  84:../src/lib/printf.c **** static int  __attribute__((optimize("Os"))) printi(char **out, int i, int b, int sg, int width, int
  85:../src/lib/printf.c **** {
 176              		.loc 1 85 1
 177              		.cfi_startproc
 178 0000 17030000 		call	t0,__riscv_save_3
 178      E7020300 
 179              		.cfi_offset 18, -16
 180              		.cfi_offset 9, -12
 181              		.cfi_offset 8, -8
 182              		.cfi_offset 1, -4
 183              		.cfi_def_cfa_offset 16
 184 0008 3684     		mv	s0,a3
 185 000a 0111     		addi	sp,sp,-32
 186              		.cfi_def_cfa_offset 48
 187              		.loc 1 85 1
 188 000c BE86     		mv	a3,a5
  86:../src/lib/printf.c **** 	char print_buf[PRINT_BUF_LEN];
  87:../src/lib/printf.c **** 	register char *s;
  88:../src/lib/printf.c **** 	register int t, neg = 0, pc = 0;
  89:../src/lib/printf.c **** 	register unsigned int u = i;
  90:../src/lib/printf.c **** 
  91:../src/lib/printf.c **** 	if (i == 0) {
 189              		.loc 1 91 5
 190 000e 85E1     		bnez	a1,.L30
  92:../src/lib/printf.c **** 		print_buf[0] = '0';
 191              		.loc 1 92 16
 192 0010 93070003 		li	a5,48
  93:../src/lib/printf.c **** 		print_buf[1] = '\0';
  94:../src/lib/printf.c **** 		return prints (out, print_buf, width, pad);
 193              		.loc 1 94 10
 194 0014 3A86     		mv	a2,a4
 195 0016 4C08     		addi	a1,sp,20
  92:../src/lib/printf.c **** 		print_buf[0] = '0';
 196              		.loc 1 92 16
 197 0018 231AF100 		sh	a5,20(sp)
 198              		.loc 1 94 10
 199 001c 97000000 		call	prints
 199      E7800000 
 200              	.L29:
  95:../src/lib/printf.c **** 	}
  96:../src/lib/printf.c **** 
  97:../src/lib/printf.c **** 	if (sg && b == 10 && i < 0) {
  98:../src/lib/printf.c **** 		neg = 1;
  99:../src/lib/printf.c **** 		u = -i;
 100:../src/lib/printf.c **** 	}
 101:../src/lib/printf.c **** 
 102:../src/lib/printf.c **** 	s = print_buf + PRINT_BUF_LEN-1;
 103:../src/lib/printf.c **** 	*s = '\0';
 104:../src/lib/printf.c **** 
 105:../src/lib/printf.c **** 	while (u) {
 106:../src/lib/printf.c **** 		t = u % b;
 107:../src/lib/printf.c **** 		if( t >= 10 )
 108:../src/lib/printf.c **** 			t += letbase - '0' - 10;
 109:../src/lib/printf.c **** 		*--s = t + '0';
 110:../src/lib/printf.c **** 		u /= b;
 111:../src/lib/printf.c **** 	}
 112:../src/lib/printf.c **** 
 113:../src/lib/printf.c **** 	if (neg) {
 114:../src/lib/printf.c **** 		if( width && (pad & PAD_ZERO) ) {
 115:../src/lib/printf.c **** 			printchar (out, '-');
 116:../src/lib/printf.c **** 			++pc;
 117:../src/lib/printf.c **** 			--width;
 118:../src/lib/printf.c **** 		}
 119:../src/lib/printf.c **** 		else {
 120:../src/lib/printf.c **** 			*--s = '-';
 121:../src/lib/printf.c **** 		}
 122:../src/lib/printf.c **** 	}
 123:../src/lib/printf.c **** 
 124:../src/lib/printf.c **** 	return pc + prints (out, s, width, pad);
 125:../src/lib/printf.c **** }
 201              		.loc 1 125 1
 202 0024 0561     		addi	sp,sp,32
 203              		.cfi_remember_state
 204              		.cfi_def_cfa_offset 0
 205 0026 17030000 		tail	__riscv_restore_3
 205      67000300 
 206              		.cfi_restore 18
 207              		.cfi_restore 9
 208              		.cfi_restore 8
 209              		.cfi_restore 1
 210              		.cfi_def_cfa_offset -16
 211              	.L30:
 212              		.cfi_restore_state
 213 002e 2A89     		mv	s2,a0
  97:../src/lib/printf.c **** 		neg = 1;
 214              		.loc 1 97 5
 215 0030 11C8     		beqz	s0,.L32
  97:../src/lib/printf.c **** 		neg = 1;
 216              		.loc 1 97 9 discriminator 1
 217 0032 A947     		li	a5,10
  88:../src/lib/printf.c **** 	register unsigned int u = i;
 218              		.loc 1 88 18 discriminator 1
 219 0034 0144     		li	s0,0
  97:../src/lib/printf.c **** 		neg = 1;
 220              		.loc 1 97 9 discriminator 1
 221 0036 6317F600 		bne	a2,a5,.L32
  97:../src/lib/printf.c **** 		neg = 1;
 222              		.loc 1 97 20 discriminator 2
 223 003a 63D50500 		bgez	a1,.L32
  99:../src/lib/printf.c **** 	}
 224              		.loc 1 99 7
 225 003e B305B040 		neg	a1,a1
  98:../src/lib/printf.c **** 		u = -i;
 226              		.loc 1 98 7
 227 0042 0544     		li	s0,1
 228              	.L32:
 103:../src/lib/printf.c **** 
 229              		.loc 1 103 5
 230 0044 A30F0100 		sb	zero,31(sp)
 102:../src/lib/printf.c **** 	*s = '\0';
 231              		.loc 1 102 4
 232 0048 9308F101 		addi	a7,sp,31
 107:../src/lib/printf.c **** 			t += letbase - '0' - 10;
 233              		.loc 1 107 5
 234 004c 2543     		li	t1,9
 108:../src/lib/printf.c **** 		*--s = t + '0';
 235              		.loc 1 108 23
 236 004e 130868FC 		addi	a6,a6,-58
 237              	.L34:
 106:../src/lib/printf.c **** 		if( t >= 10 )
 238              		.loc 1 106 9
 239 0052 33F5C502 		remu	a0,a1,a2
 107:../src/lib/printf.c **** 			t += letbase - '0' - 10;
 240              		.loc 1 107 5
 241 0056 6353A300 		ble	a0,t1,.L33
 108:../src/lib/printf.c **** 		*--s = t + '0';
 242              		.loc 1 108 6
 243 005a 4295     		add	a0,a0,a6
 244              	.L33:
 109:../src/lib/printf.c **** 		u /= b;
 245              		.loc 1 109 12
 246 005c 13050503 		addi	a0,a0,48
 109:../src/lib/printf.c **** 		u /= b;
 247              		.loc 1 109 8
 248 0060 A38FA8FE 		sb	a0,-1(a7)
 249 0064 9384F8FF 		addi	s1,a7,-1
 110:../src/lib/printf.c **** 	}
 250              		.loc 1 110 5
 251 0068 B3D7C502 		divu	a5,a1,a2
 105:../src/lib/printf.c **** 		t = u % b;
 252              		.loc 1 105 8
 253 006c 63FCC502 		bleu	a2,a1,.L39
 113:../src/lib/printf.c **** 		if( width && (pad & PAD_ZERO) ) {
 254              		.loc 1 113 5
 255 0070 0DC0     		beqz	s0,.L35
 114:../src/lib/printf.c **** 			printchar (out, '-');
 256              		.loc 1 114 5
 257 0072 05CF     		beqz	a4,.L36
 114:../src/lib/printf.c **** 			printchar (out, '-');
 258              		.loc 1 114 21 discriminator 1
 259 0074 93F72600 		andi	a5,a3,2
 114:../src/lib/printf.c **** 			printchar (out, '-');
 260              		.loc 1 114 13 discriminator 1
 261 0078 8DCB     		beqz	a5,.L36
 115:../src/lib/printf.c **** 			++pc;
 262              		.loc 1 115 4
 263 007a 9305D002 		li	a1,45
 264 007e 4A85     		mv	a0,s2
 265 0080 36C6     		sw	a3,12(sp)
 266 0082 3AC4     		sw	a4,8(sp)
 267 0084 97000000 		call	printchar
 267      E7800000 
 117:../src/lib/printf.c **** 		}
 268              		.loc 1 117 4
 269 008c 2247     		lw	a4,8(sp)
 270 008e B246     		lw	a3,12(sp)
 271 0090 7D17     		addi	a4,a4,-1
 272              	.L35:
 124:../src/lib/printf.c **** }
 273              		.loc 1 124 14
 274 0092 3A86     		mv	a2,a4
 275 0094 A685     		mv	a1,s1
 276 0096 4A85     		mv	a0,s2
 277 0098 97000000 		call	prints
 277      E7800000 
 124:../src/lib/printf.c **** }
 278              		.loc 1 124 12
 279 00a0 2295     		add	a0,a0,s0
 280 00a2 49B7     		j	.L29
 281              	.L39:
 110:../src/lib/printf.c **** 	}
 282              		.loc 1 110 5
 283 00a4 BE85     		mv	a1,a5
 284 00a6 A688     		mv	a7,s1
 285 00a8 6DB7     		j	.L34
 286              	.L36:
 120:../src/lib/printf.c **** 		}
 287              		.loc 1 120 9
 288 00aa 9307D002 		li	a5,45
 289 00ae A38FF4FE 		sb	a5,-1(s1)
  88:../src/lib/printf.c **** 	register unsigned int u = i;
 290              		.loc 1 88 27
 291 00b2 0144     		li	s0,0
 120:../src/lib/printf.c **** 		}
 292              		.loc 1 120 9
 293 00b4 9384E8FF 		addi	s1,a7,-2
 294 00b8 E9BF     		j	.L35
 295              		.cfi_endproc
 296              	.LFE5:
 298              		.section	.rodata.print.str1.4,"aMS",@progbits,1
 299              		.align	2
 300              	.LC0:
 301 0000 286E756C 		.string	"(null)"
 301      6C2900
 302              		.section	.text.print,"ax",@progbits
 303              		.align	1
 305              	print:
 306              	.LFB6:
 126:../src/lib/printf.c **** 
 127:../src/lib/printf.c **** static int  __attribute__((optimize("Os"))) print( char **out, const char *format, va_list args )
 128:../src/lib/printf.c **** {
 307              		.loc 1 128 1
 308              		.cfi_startproc
 309 0000 17030000 		call	t0,__riscv_save_10
 309      E7020300 
 310              		.cfi_offset 25, -44
 311              		.cfi_offset 24, -40
 312              		.cfi_offset 23, -36
 313              		.cfi_offset 22, -32
 314              		.cfi_offset 21, -28
 315              		.cfi_offset 20, -24
 316              		.cfi_offset 19, -20
 317              		.cfi_offset 18, -16
 318              		.cfi_offset 9, -12
 319              		.cfi_offset 8, -8
 320              		.cfi_offset 1, -4
 321              		.cfi_def_cfa_offset 48
 322 0008 4111     		addi	sp,sp,-16
 323              		.cfi_def_cfa_offset 64
 324              		.loc 1 128 1
 325 000a AA89     		mv	s3,a0
 326 000c 2E89     		mv	s2,a1
 327 000e 3284     		mv	s0,a2
 129:../src/lib/printf.c **** 	register int width, pad;
 130:../src/lib/printf.c **** 	register int pc = 0;
 328              		.loc 1 130 15
 329 0010 8144     		li	s1,0
 131:../src/lib/printf.c **** 	char scr[2];
 132:../src/lib/printf.c **** 
 133:../src/lib/printf.c **** 	for (; *format != 0; ++format) {
 134:../src/lib/printf.c **** 		if (*format == '%') {
 330              		.loc 1 134 6
 331 0012 130A5002 		li	s4,37
 135:../src/lib/printf.c **** 			++format;
 136:../src/lib/printf.c **** 			width = pad = 0;
 137:../src/lib/printf.c **** 			if (*format == '\0') break;
 138:../src/lib/printf.c **** 			if (*format == '%') goto out;
 139:../src/lib/printf.c **** 			if (*format == '-') {
 332              		.loc 1 139 7
 333 0016 930AD002 		li	s5,45
 140:../src/lib/printf.c **** 				++format;
 141:../src/lib/printf.c **** 				pad = PAD_RIGHT;
 142:../src/lib/printf.c **** 			}
 143:../src/lib/printf.c **** 			while (*format == '0') {
 334              		.loc 1 143 10
 335 001a 130B0003 		li	s6,48
 144:../src/lib/printf.c **** 				++format;
 145:../src/lib/printf.c **** 				pad |= PAD_ZERO;
 146:../src/lib/printf.c **** 			}
 147:../src/lib/printf.c **** 			for ( ; *format >= '0' && *format <= '9'; ++format) {
 148:../src/lib/printf.c **** 				width *= 10;
 336              		.loc 1 148 11
 337 001e A94B     		li	s7,10
 338              	.LBB5:
 149:../src/lib/printf.c **** 				width += *format - '0';
 150:../src/lib/printf.c **** 			}
 151:../src/lib/printf.c **** 			if( *format == 's' ) {
 152:../src/lib/printf.c **** 				register char *s = (char *)((long)va_arg( args, int ));
 153:../src/lib/printf.c **** 				pc += prints (out, s?s:"(null)", width, pad);
 339              		.loc 1 153 11
 340 0020 170C0000 		lla	s8,.LC0
 340      130C0C00 
 341              	.L54:
 342              	.LBE5:
 133:../src/lib/printf.c **** 		if (*format == '%') {
 343              		.loc 1 133 9 discriminator 1
 344 0028 83470900 		lbu	a5,0(s2)
 133:../src/lib/printf.c **** 		if (*format == '%') {
 345              		.loc 1 133 2 discriminator 1
 346 002c 89EF     		bnez	a5,.L69
 347              	.L56:
 154:../src/lib/printf.c **** 				continue;
 155:../src/lib/printf.c **** 			}
 156:../src/lib/printf.c **** 			if( *format == 'd' ) {
 157:../src/lib/printf.c **** 				pc += printi (out, va_arg( args, int ), 10, 1, width, pad, 'a');
 158:../src/lib/printf.c **** 				continue;
 159:../src/lib/printf.c **** 			}
 160:../src/lib/printf.c **** 			if( *format == 'x' ) {
 161:../src/lib/printf.c **** 				pc += printi (out, va_arg( args, int ), 16, 0, width, pad, 'a');
 162:../src/lib/printf.c **** 				continue;
 163:../src/lib/printf.c **** 			}
 164:../src/lib/printf.c **** 			if( *format == 'X' ) {
 165:../src/lib/printf.c **** 				pc += printi (out, va_arg( args, int ), 16, 0, width, pad, 'A');
 166:../src/lib/printf.c **** 				continue;
 167:../src/lib/printf.c **** 			}
 168:../src/lib/printf.c **** 			if( *format == 'u' ) {
 169:../src/lib/printf.c **** 				pc += printi (out, va_arg( args, int ), 10, 0, width, pad, 'a');
 170:../src/lib/printf.c **** 				continue;
 171:../src/lib/printf.c **** 			}
 172:../src/lib/printf.c **** 			if( *format == 'c' ) {
 173:../src/lib/printf.c **** 				/* char are converted to int then pushed on the stack */
 174:../src/lib/printf.c **** 				scr[0] = (char)va_arg( args, int );
 175:../src/lib/printf.c **** 				scr[1] = '\0';
 176:../src/lib/printf.c **** 				pc += prints (out, scr, width, pad);
 177:../src/lib/printf.c **** 				continue;
 178:../src/lib/printf.c **** 			}
 179:../src/lib/printf.c **** 		}
 180:../src/lib/printf.c **** 		else {
 181:../src/lib/printf.c **** 		out:
 182:../src/lib/printf.c **** 			printchar (out, *format);
 183:../src/lib/printf.c **** 			++pc;
 184:../src/lib/printf.c **** 		}
 185:../src/lib/printf.c **** 	}
 186:../src/lib/printf.c **** 	if (out) **out = '\0';
 348              		.loc 1 186 5
 349 002e 63860900 		beqz	s3,.L53
 350              		.loc 1 186 12 discriminator 1
 351 0032 83A70900 		lw	a5,0(s3)
 352              		.loc 1 186 17 discriminator 1
 353 0036 23800700 		sb	zero,0(a5)
 354              	.L53:
 187:../src/lib/printf.c **** 	va_end( args );
 188:../src/lib/printf.c **** 	return pc;
 189:../src/lib/printf.c **** }
 355              		.loc 1 189 1
 356 003a 2685     		mv	a0,s1
 357 003c 4101     		addi	sp,sp,16
 358              		.cfi_remember_state
 359              		.cfi_def_cfa_offset 0
 360 003e 17030000 		tail	__riscv_restore_10
 360      67000300 
 361              		.cfi_restore 25
 362              		.cfi_restore 24
 363              		.cfi_restore 23
 364              		.cfi_restore 22
 365              		.cfi_restore 21
 366              		.cfi_restore 20
 367              		.cfi_restore 19
 368              		.cfi_restore 18
 369              		.cfi_restore 9
 370              		.cfi_restore 8
 371              		.cfi_restore 1
 372              		.cfi_def_cfa_offset -48
 373              	.L69:
 374              		.cfi_restore_state
 134:../src/lib/printf.c **** 			++format;
 375              		.loc 1 134 6
 376 0046 639F470F 		bne	a5,s4,.L55
 137:../src/lib/printf.c **** 			if (*format == '%') goto out;
 377              		.loc 1 137 8
 378 004a 83461900 		lbu	a3,1(s2)
 137:../src/lib/printf.c **** 			if (*format == '%') goto out;
 379              		.loc 1 137 7
 380 004e E5D2     		beqz	a3,.L56
 381 0050 13071900 		addi	a4,s2,1
 138:../src/lib/printf.c **** 			if (*format == '-') {
 382              		.loc 1 138 7
 383 0054 6387460F 		beq	a3,s4,.L71
 136:../src/lib/printf.c **** 			if (*format == '\0') break;
 384              		.loc 1 136 16
 385 0058 8147     		li	a5,0
 139:../src/lib/printf.c **** 				++format;
 386              		.loc 1 139 7
 387 005a 63955601 		bne	a3,s5,.L57
 140:../src/lib/printf.c **** 				pad = PAD_RIGHT;
 388              		.loc 1 140 5
 389 005e 13072900 		addi	a4,s2,2
 141:../src/lib/printf.c **** 			}
 390              		.loc 1 141 9
 391 0062 8547     		li	a5,1
 392              	.L57:
 136:../src/lib/printf.c **** 			if (*format == '\0') break;
 393              		.loc 1 136 16
 394 0064 3A89     		mv	s2,a4
 395              	.L58:
 143:../src/lib/printf.c **** 				++format;
 396              		.loc 1 143 10
 397 0066 03470900 		lbu	a4,0(s2)
 398 006a 93061900 		addi	a3,s2,1
 399 006e 63006705 		beq	a4,s6,.L59
 136:../src/lib/printf.c **** 			if (*format == '\0') break;
 400              		.loc 1 136 10
 401 0072 0147     		li	a4,0
 147:../src/lib/printf.c **** 				width *= 10;
 402              		.loc 1 147 4
 403 0074 2545     		li	a0,9
 404              	.L60:
 147:../src/lib/printf.c **** 				width *= 10;
 405              		.loc 1 147 12 discriminator 1
 406 0076 83460900 		lbu	a3,0(s2)
 407 007a 13081900 		addi	a6,s2,1
 147:../src/lib/printf.c **** 				width *= 10;
 408              		.loc 1 147 27 discriminator 1
 409 007e 938506FD 		addi	a1,a3,-48
 147:../src/lib/printf.c **** 				width *= 10;
 410              		.loc 1 147 4 discriminator 1
 411 0082 13F6F50F 		andi	a2,a1,0xff
 412 0086 6378C502 		bleu	a2,a0,.L61
 151:../src/lib/printf.c **** 				register char *s = (char *)((long)va_arg( args, int ));
 413              		.loc 1 151 6
 414 008a 13063007 		li	a2,115
 415 008e 6399C602 		bne	a3,a2,.L62
 416              	.LBB6:
 152:../src/lib/printf.c **** 				pc += prints (out, s?s:"(null)", width, pad);
 417              		.loc 1 152 39
 418 0092 1440     		lw	a3,0(s0)
 419 0094 930C4400 		addi	s9,s0,4
 153:../src/lib/printf.c **** 				continue;
 420              		.loc 1 153 11
 421 0098 E285     		mv	a1,s8
 422 009a 91C2     		beqz	a3,.L63
 152:../src/lib/printf.c **** 				pc += prints (out, s?s:"(null)", width, pad);
 423              		.loc 1 152 20
 424 009c B685     		mv	a1,a3
 425              	.L63:
 153:../src/lib/printf.c **** 				continue;
 426              		.loc 1 153 11 discriminator 4
 427 009e BE86     		mv	a3,a5
 428 00a0 3A86     		mv	a2,a4
 429              	.L86:
 430              	.LBE6:
 176:../src/lib/printf.c **** 				continue;
 431              		.loc 1 176 11
 432 00a2 4E85     		mv	a0,s3
 433 00a4 97000000 		call	prints
 433      E7800000 
 434 00ac 15A8     		j	.L82
 435              	.L59:
 145:../src/lib/printf.c **** 			}
 436              		.loc 1 145 9
 437 00ae 93E72700 		ori	a5,a5,2
 144:../src/lib/printf.c **** 				pad |= PAD_ZERO;
 438              		.loc 1 144 5
 439 00b2 3689     		mv	s2,a3
 440 00b4 4DBF     		j	.L58
 441              	.L61:
 148:../src/lib/printf.c **** 				width += *format - '0';
 442              		.loc 1 148 11 discriminator 2
 443 00b6 33077703 		mul	a4,a4,s7
 147:../src/lib/printf.c **** 				width *= 10;
 444              		.loc 1 147 46 discriminator 2
 445 00ba 4289     		mv	s2,a6
 149:../src/lib/printf.c **** 			}
 446              		.loc 1 149 11 discriminator 2
 447 00bc 2E97     		add	a4,a1,a4
 448 00be 65BF     		j	.L60
 449              	.L62:
 156:../src/lib/printf.c **** 				pc += printi (out, va_arg( args, int ), 10, 1, width, pad, 'a');
 450              		.loc 1 156 6
 451 00c0 13064006 		li	a2,100
 452 00c4 6392C602 		bne	a3,a2,.L65
 157:../src/lib/printf.c **** 				continue;
 453              		.loc 1 157 11
 454 00c8 930C4400 		addi	s9,s0,4
 455 00cc 13081006 		li	a6,97
 456 00d0 8546     		li	a3,1
 457              	.L84:
 458 00d2 2946     		li	a2,10
 459              	.L83:
 460 00d4 0C40     		lw	a1,0(s0)
 461 00d6 4E85     		mv	a0,s3
 462 00d8 97000000 		call	printi
 462      E7800000 
 463              	.L82:
 157:../src/lib/printf.c **** 				continue;
 464              		.loc 1 157 8
 465 00e0 AA94     		add	s1,s1,a0
 157:../src/lib/printf.c **** 				continue;
 466              		.loc 1 157 11
 467 00e2 6684     		mv	s0,s9
 468              	.L64:
 133:../src/lib/printf.c **** 		if (*format == '%') {
 469              		.loc 1 133 23
 470 00e4 0509     		addi	s2,s2,1
 471 00e6 89B7     		j	.L54
 472              	.L65:
 160:../src/lib/printf.c **** 				pc += printi (out, va_arg( args, int ), 16, 0, width, pad, 'a');
 473              		.loc 1 160 6
 474 00e8 13068007 		li	a2,120
 475 00ec 6399C600 		bne	a3,a2,.L66
 161:../src/lib/printf.c **** 				continue;
 476              		.loc 1 161 11
 477 00f0 930C4400 		addi	s9,s0,4
 478 00f4 13081006 		li	a6,97
 479              	.L85:
 165:../src/lib/printf.c **** 				continue;
 480              		.loc 1 165 11
 481 00f8 8146     		li	a3,0
 482 00fa 4146     		li	a2,16
 483 00fc E1BF     		j	.L83
 484              	.L66:
 164:../src/lib/printf.c **** 				pc += printi (out, va_arg( args, int ), 16, 0, width, pad, 'A');
 485              		.loc 1 164 6
 486 00fe 13068005 		li	a2,88
 487 0102 6397C600 		bne	a3,a2,.L67
 165:../src/lib/printf.c **** 				continue;
 488              		.loc 1 165 11
 489 0106 930C4400 		addi	s9,s0,4
 490 010a 13081004 		li	a6,65
 491 010e EDB7     		j	.L85
 492              	.L67:
 168:../src/lib/printf.c **** 				pc += printi (out, va_arg( args, int ), 10, 0, width, pad, 'a');
 493              		.loc 1 168 6
 494 0110 13065007 		li	a2,117
 495 0114 6398C600 		bne	a3,a2,.L68
 169:../src/lib/printf.c **** 				continue;
 496              		.loc 1 169 11
 497 0118 930C4400 		addi	s9,s0,4
 498 011c 13081006 		li	a6,97
 499 0120 8146     		li	a3,0
 500 0122 45BF     		j	.L84
 501              	.L68:
 172:../src/lib/printf.c **** 				/* char are converted to int then pushed on the stack */
 502              		.loc 1 172 6
 503 0124 13063006 		li	a2,99
 504 0128 E39EC6FA 		bne	a3,a2,.L64
 174:../src/lib/printf.c **** 				scr[1] = '\0';
 505              		.loc 1 174 14
 506 012c 1440     		lw	a3,0(s0)
 174:../src/lib/printf.c **** 				scr[1] = '\0';
 507              		.loc 1 174 20
 508 012e 930C4400 		addi	s9,s0,4
 175:../src/lib/printf.c **** 				pc += prints (out, scr, width, pad);
 509              		.loc 1 175 12
 510 0132 A3060100 		sb	zero,13(sp)
 174:../src/lib/printf.c **** 				scr[1] = '\0';
 511              		.loc 1 174 14
 512 0136 2306D100 		sb	a3,12(sp)
 176:../src/lib/printf.c **** 				continue;
 513              		.loc 1 176 11
 514 013a 3A86     		mv	a2,a4
 515 013c BE86     		mv	a3,a5
 516 013e 6C00     		addi	a1,sp,12
 517 0140 8DB7     		j	.L86
 518              	.L71:
 135:../src/lib/printf.c **** 			width = pad = 0;
 519              		.loc 1 135 4
 520 0142 3A89     		mv	s2,a4
 521              	.L55:
 182:../src/lib/printf.c **** 			++pc;
 522              		.loc 1 182 4
 523 0144 83450900 		lbu	a1,0(s2)
 524 0148 4E85     		mv	a0,s3
 183:../src/lib/printf.c **** 		}
 525              		.loc 1 183 4
 526 014a 8504     		addi	s1,s1,1
 182:../src/lib/printf.c **** 			++pc;
 527              		.loc 1 182 4
 528 014c 97000000 		call	printchar
 528      E7800000 
 529 0154 41BF     		j	.L64
 530              		.cfi_endproc
 531              	.LFE6:
 533              		.section	.text.printf,"ax",@progbits
 534              		.align	1
 535              		.globl	printf
 537              	printf:
 538              	.LFB7:
 190:../src/lib/printf.c **** 
 191:../src/lib/printf.c **** int  __attribute__((optimize("Os"))) printf(const char *format, ...)
 192:../src/lib/printf.c **** {
 539              		.loc 1 192 1
 540              		.cfi_startproc
 541 0000 3971     		addi	sp,sp,-64
 542              		.cfi_def_cfa_offset 64
 543 0002 2ED2     		sw	a1,36(sp)
 544 0004 32D4     		sw	a2,40(sp)
 193:../src/lib/printf.c ****         va_list args;
 194:../src/lib/printf.c **** 
 195:../src/lib/printf.c ****         va_start( args, format );
 196:../src/lib/printf.c ****         return print( 0, format, args );
 545              		.loc 1 196 16
 546 0006 AA85     		mv	a1,a0
 195:../src/lib/printf.c ****         return print( 0, format, args );
 547              		.loc 1 195 9
 548 0008 5010     		addi	a2,sp,36
 549              		.loc 1 196 16
 550 000a 0145     		li	a0,0
 192:../src/lib/printf.c ****         va_list args;
 551              		.loc 1 192 1
 552 000c 06CE     		sw	ra,28(sp)
 553              		.cfi_offset 1, -36
 192:../src/lib/printf.c ****         va_list args;
 554              		.loc 1 192 1
 555 000e 36D6     		sw	a3,44(sp)
 556 0010 3AD8     		sw	a4,48(sp)
 557 0012 3EDA     		sw	a5,52(sp)
 558 0014 42DC     		sw	a6,56(sp)
 559 0016 46DE     		sw	a7,60(sp)
 195:../src/lib/printf.c ****         return print( 0, format, args );
 560              		.loc 1 195 9
 561 0018 32C6     		sw	a2,12(sp)
 562              		.loc 1 196 16
 563 001a 97000000 		call	print
 563      E7800000 
 197:../src/lib/printf.c **** }
 564              		.loc 1 197 1
 565 0022 F240     		lw	ra,28(sp)
 566              		.cfi_restore 1
 567 0024 2161     		addi	sp,sp,64
 568              		.cfi_def_cfa_offset 0
 569 0026 8280     		jr	ra
 570              		.cfi_endproc
 571              	.LFE7:
 573              		.section	.text.sprintf,"ax",@progbits
 574              		.align	1
 575              		.globl	sprintf
 577              	sprintf:
 578              	.LFB8:
 198:../src/lib/printf.c **** 
 199:../src/lib/printf.c **** int  __attribute__((optimize("Os"))) sprintf(char *out, const char *format, ...)
 200:../src/lib/printf.c **** {
 579              		.loc 1 200 1
 580              		.cfi_startproc
 581 0000 5D71     		addi	sp,sp,-80
 582              		.cfi_def_cfa_offset 80
 583 0002 2AC6     		sw	a0,12(sp)
 584 0004 32DC     		sw	a2,56(sp)
 201:../src/lib/printf.c ****         va_list args;
 202:../src/lib/printf.c **** 
 203:../src/lib/printf.c ****         va_start( args, format );
 204:../src/lib/printf.c ****         return print( &out, format, args );
 585              		.loc 1 204 16
 586 0006 6800     		addi	a0,sp,12
 203:../src/lib/printf.c ****         return print( &out, format, args );
 587              		.loc 1 203 9
 588 0008 3018     		addi	a2,sp,56
 200:../src/lib/printf.c ****         va_list args;
 589              		.loc 1 200 1
 590 000a 06D6     		sw	ra,44(sp)
 591              		.cfi_offset 1, -36
 200:../src/lib/printf.c ****         va_list args;
 592              		.loc 1 200 1
 593 000c 36DE     		sw	a3,60(sp)
 594 000e BAC0     		sw	a4,64(sp)
 595 0010 BEC2     		sw	a5,68(sp)
 596 0012 C2C4     		sw	a6,72(sp)
 597 0014 C6C6     		sw	a7,76(sp)
 203:../src/lib/printf.c ****         return print( &out, format, args );
 598              		.loc 1 203 9
 599 0016 32CE     		sw	a2,28(sp)
 600              		.loc 1 204 16
 601 0018 97000000 		call	print
 601      E7800000 
 205:../src/lib/printf.c **** }
 602              		.loc 1 205 1
 603 0020 B250     		lw	ra,44(sp)
 604              		.cfi_restore 1
 605 0022 6161     		addi	sp,sp,80
 606              		.cfi_def_cfa_offset 0
 607 0024 8280     		jr	ra
 608              		.cfi_endproc
 609              	.LFE8:
 611              		.section	.text.snprintf,"ax",@progbits
 612              		.align	1
 613              		.globl	snprintf
 615              	snprintf:
 616              	.LFB9:
 206:../src/lib/printf.c **** 
 207:../src/lib/printf.c **** int  __attribute__((optimize("Os"))) snprintf( char *buf, unsigned int count, const char *format, .
 208:../src/lib/printf.c **** {
 617              		.loc 1 208 1
 618              		.cfi_startproc
 619 0000 5D71     		addi	sp,sp,-80
 620              		.cfi_def_cfa_offset 80
 621 0002 2AC6     		sw	a0,12(sp)
 622 0004 B285     		mv	a1,a2
 209:../src/lib/printf.c ****         va_list args;
 210:../src/lib/printf.c **** 
 211:../src/lib/printf.c ****         ( void ) count;
 212:../src/lib/printf.c **** 
 213:../src/lib/printf.c ****         va_start( args, format );
 214:../src/lib/printf.c ****         return print( &buf, format, args );
 623              		.loc 1 214 16
 624 0006 6800     		addi	a0,sp,12
 213:../src/lib/printf.c ****         return print( &buf, format, args );
 625              		.loc 1 213 9
 626 0008 7018     		addi	a2,sp,60
 208:../src/lib/printf.c ****         va_list args;
 627              		.loc 1 208 1
 628 000a 06D6     		sw	ra,44(sp)
 629              		.cfi_offset 1, -36
 208:../src/lib/printf.c ****         va_list args;
 630              		.loc 1 208 1
 631 000c 36DE     		sw	a3,60(sp)
 632 000e BAC0     		sw	a4,64(sp)
 633 0010 BEC2     		sw	a5,68(sp)
 634 0012 C2C4     		sw	a6,72(sp)
 635 0014 C6C6     		sw	a7,76(sp)
 213:../src/lib/printf.c ****         return print( &buf, format, args );
 636              		.loc 1 213 9
 637 0016 32CE     		sw	a2,28(sp)
 638              		.loc 1 214 16
 639 0018 97000000 		call	print
 639      E7800000 
 215:../src/lib/printf.c **** }
 640              		.loc 1 215 1
 641 0020 B250     		lw	ra,44(sp)
 642              		.cfi_restore 1
 643 0022 6161     		addi	sp,sp,80
 644              		.cfi_def_cfa_offset 0
 645 0024 8280     		jr	ra
 646              		.cfi_endproc
 647              	.LFE9:
 649              		.section	.text.write,"ax",@progbits
 650              		.align	1
 651              		.globl	write
 653              	write:
 654              	.LFB10:
 216:../src/lib/printf.c **** 
 217:../src/lib/printf.c **** /* To keep linker happy. */
 218:../src/lib/printf.c **** int	 __attribute__((optimize("Os"))) write( int i, char* c, int n)
 219:../src/lib/printf.c **** {
 655              		.loc 1 219 1
 656              		.cfi_startproc
 220:../src/lib/printf.c **** 	return 0;
 221:../src/lib/printf.c **** }
 657              		.loc 1 221 1
 658 0000 0145     		li	a0,0
 659 0002 8280     		ret
 660              		.cfi_endproc
 661              	.LFE10:
 663              		.text
 664              	.Letext0:
 665              		.file 2 "c:\\gmd\\toolchain\\risc-v_toolchain\\lib\\gcc\\riscv-none-embed\\8.2.0\\include\\stdarg.
 666              		.file 3 "c:\\gmd\\toolchain\\risc-v_toolchain\\riscv-none-embed\\include\\sys\\lock.h"
 667              		.file 4 "c:\\gmd\\toolchain\\risc-v_toolchain\\riscv-none-embed\\include\\sys\\_types.h"
 668              		.file 5 "c:\\gmd\\toolchain\\risc-v_toolchain\\lib\\gcc\\riscv-none-embed\\8.2.0\\include\\stddef.
 669              		.file 6 "c:\\gmd\\toolchain\\risc-v_toolchain\\riscv-none-embed\\include\\sys\\reent.h"
 670              		.file 7 "c:\\gmd\\toolchain\\risc-v_toolchain\\riscv-none-embed\\include\\stdio.h"
DEFINED SYMBOLS
                            *ABS*:0000000000000000 printf.c
C:\Users\liukai\AppData\Local\Temp\ccZI6e3r.s:9      .text.printchar:0000000000000000 printchar
C:\Users\liukai\AppData\Local\Temp\ccZI6e3r.s:13     .text.printchar:0000000000000000 .L0 
C:\Users\liukai\AppData\Local\Temp\ccZI6e3r.s:14     .text.printchar:0000000000000000 .L0 
C:\Users\liukai\AppData\Local\Temp\ccZI6e3r.s:15     .text.printchar:0000000000000000 .L0 
C:\Users\liukai\AppData\Local\Temp\ccZI6e3r.s:17     .text.printchar:0000000000000002 .L0 
C:\Users\liukai\AppData\Local\Temp\ccZI6e3r.s:19     .text.printchar:0000000000000004 .L0 
C:\Users\liukai\AppData\Local\Temp\ccZI6e3r.s:21     .text.printchar:0000000000000008 .L0 
C:\Users\liukai\AppData\Local\Temp\ccZI6e3r.s:27     .text.printchar:0000000000000010 .L0 
C:\Users\liukai\AppData\Local\Temp\ccZI6e3r.s:28     .text.printchar:0000000000000018 .L0 
C:\Users\liukai\AppData\Local\Temp\ccZI6e3r.s:29     .text.printchar:0000000000000018 .L0 
C:\Users\liukai\AppData\Local\Temp\ccZI6e3r.s:32     .text.printchar:000000000000001a .L0 
C:\Users\liukai\AppData\Local\Temp\ccZI6e3r.s:34     .text.printchar:0000000000000022 .L0 
C:\Users\liukai\AppData\Local\Temp\ccZI6e3r.s:35     .text.printchar:000000000000002a .L0 
C:\Users\liukai\AppData\Local\Temp\ccZI6e3r.s:36     .text.printchar:000000000000002a .L0 
C:\Users\liukai\AppData\Local\Temp\ccZI6e3r.s:37     .text.printchar:000000000000002a .L0 
C:\Users\liukai\AppData\Local\Temp\ccZI6e3r.s:43     .text.prints:0000000000000000 prints
C:\Users\liukai\AppData\Local\Temp\ccZI6e3r.s:46     .text.prints:0000000000000000 .L0 
C:\Users\liukai\AppData\Local\Temp\ccZI6e3r.s:47     .text.prints:0000000000000000 .L0 
C:\Users\liukai\AppData\Local\Temp\ccZI6e3r.s:48     .text.prints:0000000000000008 .L0 
C:\Users\liukai\AppData\Local\Temp\ccZI6e3r.s:49     .text.prints:0000000000000008 .L0 
C:\Users\liukai\AppData\Local\Temp\ccZI6e3r.s:50     .text.prints:0000000000000008 .L0 
C:\Users\liukai\AppData\Local\Temp\ccZI6e3r.s:51     .text.prints:0000000000000008 .L0 
C:\Users\liukai\AppData\Local\Temp\ccZI6e3r.s:52     .text.prints:0000000000000008 .L0 
C:\Users\liukai\AppData\Local\Temp\ccZI6e3r.s:53     .text.prints:0000000000000008 .L0 
C:\Users\liukai\AppData\Local\Temp\ccZI6e3r.s:54     .text.prints:0000000000000008 .L0 
C:\Users\liukai\AppData\Local\Temp\ccZI6e3r.s:55     .text.prints:0000000000000008 .L0 
C:\Users\liukai\AppData\Local\Temp\ccZI6e3r.s:57     .text.prints:0000000000000008 .L0 
C:\Users\liukai\AppData\Local\Temp\ccZI6e3r.s:61     .text.prints:000000000000000e .L0 
C:\Users\liukai\AppData\Local\Temp\ccZI6e3r.s:63     .text.prints:0000000000000012 .L0 
C:\Users\liukai\AppData\Local\Temp\ccZI6e3r.s:69     .text.prints:000000000000001a .L0 
C:\Users\liukai\AppData\Local\Temp\ccZI6e3r.s:72     .text.prints:000000000000001c .L0 
C:\Users\liukai\AppData\Local\Temp\ccZI6e3r.s:74     .text.prints:0000000000000020 .L0 
C:\Users\liukai\AppData\Local\Temp\ccZI6e3r.s:77     .text.prints:0000000000000026 .L0 
C:\Users\liukai\AppData\Local\Temp\ccZI6e3r.s:79     .text.prints:000000000000002a .L0 
C:\Users\liukai\AppData\Local\Temp\ccZI6e3r.s:82     .text.prints:000000000000002c .L0 
C:\Users\liukai\AppData\Local\Temp\ccZI6e3r.s:85     .text.prints:0000000000000030 .L0 
C:\Users\liukai\AppData\Local\Temp\ccZI6e3r.s:88     .text.prints:0000000000000034 .L0 
C:\Users\liukai\AppData\Local\Temp\ccZI6e3r.s:90     .text.prints:0000000000000036 .L0 
C:\Users\liukai\AppData\Local\Temp\ccZI6e3r.s:94     .text.prints:000000000000003a .L0 
C:\Users\liukai\AppData\Local\Temp\ccZI6e3r.s:96     .text.prints:000000000000003c .L0 
C:\Users\liukai\AppData\Local\Temp\ccZI6e3r.s:98     .text.prints:000000000000003e .L0 
C:\Users\liukai\AppData\Local\Temp\ccZI6e3r.s:104    .text.prints:0000000000000044 .L0 
C:\Users\liukai\AppData\Local\Temp\ccZI6e3r.s:109    .text.prints:0000000000000048 .L0 
C:\Users\liukai\AppData\Local\Temp\ccZI6e3r.s:113    .text.prints:0000000000000054 .L0 
C:\Users\liukai\AppData\Local\Temp\ccZI6e3r.s:116    .text.prints:0000000000000056 .L0 
C:\Users\liukai\AppData\Local\Temp\ccZI6e3r.s:124    .text.prints:0000000000000064 .L0 
C:\Users\liukai\AppData\Local\Temp\ccZI6e3r.s:128    .text.prints:0000000000000068 .L0 
C:\Users\liukai\AppData\Local\Temp\ccZI6e3r.s:131    .text.prints:0000000000000072 .L0 
C:\Users\liukai\AppData\Local\Temp\ccZI6e3r.s:134    .text.prints:0000000000000074 .L0 
C:\Users\liukai\AppData\Local\Temp\ccZI6e3r.s:138    .text.prints:000000000000007e .L0 
C:\Users\liukai\AppData\Local\Temp\ccZI6e3r.s:142    .text.prints:0000000000000082 .L0 
C:\Users\liukai\AppData\Local\Temp\ccZI6e3r.s:144    .text.prints:0000000000000086 .L0 
C:\Users\liukai\AppData\Local\Temp\ccZI6e3r.s:148    .text.prints:000000000000008c .L0 
C:\Users\liukai\AppData\Local\Temp\ccZI6e3r.s:150    .text.prints:0000000000000098 .L0 
C:\Users\liukai\AppData\Local\Temp\ccZI6e3r.s:151    .text.prints:0000000000000098 .L0 
C:\Users\liukai\AppData\Local\Temp\ccZI6e3r.s:152    .text.prints:0000000000000098 .L0 
C:\Users\liukai\AppData\Local\Temp\ccZI6e3r.s:153    .text.prints:0000000000000098 .L0 
C:\Users\liukai\AppData\Local\Temp\ccZI6e3r.s:154    .text.prints:0000000000000098 .L0 
C:\Users\liukai\AppData\Local\Temp\ccZI6e3r.s:155    .text.prints:0000000000000098 .L0 
C:\Users\liukai\AppData\Local\Temp\ccZI6e3r.s:156    .text.prints:0000000000000098 .L0 
C:\Users\liukai\AppData\Local\Temp\ccZI6e3r.s:157    .text.prints:0000000000000098 .L0 
C:\Users\liukai\AppData\Local\Temp\ccZI6e3r.s:158    .text.prints:0000000000000098 .L0 
C:\Users\liukai\AppData\Local\Temp\ccZI6e3r.s:160    .text.prints:0000000000000098 .L0 
C:\Users\liukai\AppData\Local\Temp\ccZI6e3r.s:162    .text.prints:0000000000000098 .L0 
C:\Users\liukai\AppData\Local\Temp\ccZI6e3r.s:166    .text.prints:00000000000000a4 .L0 
C:\Users\liukai\AppData\Local\Temp\ccZI6e3r.s:168    .text.prints:00000000000000a8 .L0 
C:\Users\liukai\AppData\Local\Temp\ccZI6e3r.s:174    .text.printi:0000000000000000 printi
C:\Users\liukai\AppData\Local\Temp\ccZI6e3r.s:177    .text.printi:0000000000000000 .L0 
C:\Users\liukai\AppData\Local\Temp\ccZI6e3r.s:178    .text.printi:0000000000000000 .L0 
C:\Users\liukai\AppData\Local\Temp\ccZI6e3r.s:179    .text.printi:0000000000000008 .L0 
C:\Users\liukai\AppData\Local\Temp\ccZI6e3r.s:180    .text.printi:0000000000000008 .L0 
C:\Users\liukai\AppData\Local\Temp\ccZI6e3r.s:181    .text.printi:0000000000000008 .L0 
C:\Users\liukai\AppData\Local\Temp\ccZI6e3r.s:182    .text.printi:0000000000000008 .L0 
C:\Users\liukai\AppData\Local\Temp\ccZI6e3r.s:183    .text.printi:0000000000000008 .L0 
C:\Users\liukai\AppData\Local\Temp\ccZI6e3r.s:186    .text.printi:000000000000000c .L0 
C:\Users\liukai\AppData\Local\Temp\ccZI6e3r.s:188    .text.printi:000000000000000c .L0 
C:\Users\liukai\AppData\Local\Temp\ccZI6e3r.s:190    .text.printi:000000000000000e .L0 
C:\Users\liukai\AppData\Local\Temp\ccZI6e3r.s:192    .text.printi:0000000000000010 .L0 
C:\Users\liukai\AppData\Local\Temp\ccZI6e3r.s:194    .text.printi:0000000000000014 .L0 
C:\Users\liukai\AppData\Local\Temp\ccZI6e3r.s:197    .text.printi:0000000000000018 .L0 
C:\Users\liukai\AppData\Local\Temp\ccZI6e3r.s:199    .text.printi:000000000000001c .L0 
C:\Users\liukai\AppData\Local\Temp\ccZI6e3r.s:202    .text.printi:0000000000000024 .L0 
C:\Users\liukai\AppData\Local\Temp\ccZI6e3r.s:203    .text.printi:0000000000000026 .L0 
C:\Users\liukai\AppData\Local\Temp\ccZI6e3r.s:204    .text.printi:0000000000000026 .L0 
C:\Users\liukai\AppData\Local\Temp\ccZI6e3r.s:206    .text.printi:000000000000002e .L0 
C:\Users\liukai\AppData\Local\Temp\ccZI6e3r.s:207    .text.printi:000000000000002e .L0 
C:\Users\liukai\AppData\Local\Temp\ccZI6e3r.s:208    .text.printi:000000000000002e .L0 
C:\Users\liukai\AppData\Local\Temp\ccZI6e3r.s:209    .text.printi:000000000000002e .L0 
C:\Users\liukai\AppData\Local\Temp\ccZI6e3r.s:210    .text.printi:000000000000002e .L0 
C:\Users\liukai\AppData\Local\Temp\ccZI6e3r.s:212    .text.printi:000000000000002e .L0 
C:\Users\liukai\AppData\Local\Temp\ccZI6e3r.s:215    .text.printi:0000000000000030 .L0 
C:\Users\liukai\AppData\Local\Temp\ccZI6e3r.s:217    .text.printi:0000000000000032 .L0 
C:\Users\liukai\AppData\Local\Temp\ccZI6e3r.s:219    .text.printi:0000000000000034 .L0 
C:\Users\liukai\AppData\Local\Temp\ccZI6e3r.s:221    .text.printi:0000000000000036 .L0 
C:\Users\liukai\AppData\Local\Temp\ccZI6e3r.s:223    .text.printi:000000000000003a .L0 
C:\Users\liukai\AppData\Local\Temp\ccZI6e3r.s:225    .text.printi:000000000000003e .L0 
C:\Users\liukai\AppData\Local\Temp\ccZI6e3r.s:227    .text.printi:0000000000000042 .L0 
C:\Users\liukai\AppData\Local\Temp\ccZI6e3r.s:230    .text.printi:0000000000000044 .L0 
C:\Users\liukai\AppData\Local\Temp\ccZI6e3r.s:232    .text.printi:0000000000000048 .L0 
C:\Users\liukai\AppData\Local\Temp\ccZI6e3r.s:234    .text.printi:000000000000004c .L0 
C:\Users\liukai\AppData\Local\Temp\ccZI6e3r.s:236    .text.printi:000000000000004e .L0 
C:\Users\liukai\AppData\Local\Temp\ccZI6e3r.s:239    .text.printi:0000000000000052 .L0 
C:\Users\liukai\AppData\Local\Temp\ccZI6e3r.s:241    .text.printi:0000000000000056 .L0 
C:\Users\liukai\AppData\Local\Temp\ccZI6e3r.s:243    .text.printi:000000000000005a .L0 
C:\Users\liukai\AppData\Local\Temp\ccZI6e3r.s:246    .text.printi:000000000000005c .L0 
C:\Users\liukai\AppData\Local\Temp\ccZI6e3r.s:248    .text.printi:0000000000000060 .L0 
C:\Users\liukai\AppData\Local\Temp\ccZI6e3r.s:251    .text.printi:0000000000000068 .L0 
C:\Users\liukai\AppData\Local\Temp\ccZI6e3r.s:253    .text.printi:000000000000006c .L0 
C:\Users\liukai\AppData\Local\Temp\ccZI6e3r.s:255    .text.printi:0000000000000070 .L0 
C:\Users\liukai\AppData\Local\Temp\ccZI6e3r.s:257    .text.printi:0000000000000072 .L0 
C:\Users\liukai\AppData\Local\Temp\ccZI6e3r.s:259    .text.printi:0000000000000074 .L0 
C:\Users\liukai\AppData\Local\Temp\ccZI6e3r.s:261    .text.printi:0000000000000078 .L0 
C:\Users\liukai\AppData\Local\Temp\ccZI6e3r.s:263    .text.printi:000000000000007a .L0 
C:\Users\liukai\AppData\Local\Temp\ccZI6e3r.s:269    .text.printi:000000000000008c .L0 
C:\Users\liukai\AppData\Local\Temp\ccZI6e3r.s:274    .text.printi:0000000000000092 .L0 
C:\Users\liukai\AppData\Local\Temp\ccZI6e3r.s:279    .text.printi:00000000000000a0 .L0 
C:\Users\liukai\AppData\Local\Temp\ccZI6e3r.s:283    .text.printi:00000000000000a4 .L0 
C:\Users\liukai\AppData\Local\Temp\ccZI6e3r.s:288    .text.printi:00000000000000aa .L0 
C:\Users\liukai\AppData\Local\Temp\ccZI6e3r.s:291    .text.printi:00000000000000b2 .L0 
C:\Users\liukai\AppData\Local\Temp\ccZI6e3r.s:293    .text.printi:00000000000000b4 .L0 
C:\Users\liukai\AppData\Local\Temp\ccZI6e3r.s:295    .text.printi:00000000000000ba .L0 
C:\Users\liukai\AppData\Local\Temp\ccZI6e3r.s:305    .text.print:0000000000000000 print
C:\Users\liukai\AppData\Local\Temp\ccZI6e3r.s:308    .text.print:0000000000000000 .L0 
C:\Users\liukai\AppData\Local\Temp\ccZI6e3r.s:309    .text.print:0000000000000000 .L0 
C:\Users\liukai\AppData\Local\Temp\ccZI6e3r.s:310    .text.print:0000000000000008 .L0 
C:\Users\liukai\AppData\Local\Temp\ccZI6e3r.s:311    .text.print:0000000000000008 .L0 
C:\Users\liukai\AppData\Local\Temp\ccZI6e3r.s:312    .text.print:0000000000000008 .L0 
C:\Users\liukai\AppData\Local\Temp\ccZI6e3r.s:313    .text.print:0000000000000008 .L0 
C:\Users\liukai\AppData\Local\Temp\ccZI6e3r.s:314    .text.print:0000000000000008 .L0 
C:\Users\liukai\AppData\Local\Temp\ccZI6e3r.s:315    .text.print:0000000000000008 .L0 
C:\Users\liukai\AppData\Local\Temp\ccZI6e3r.s:316    .text.print:0000000000000008 .L0 
C:\Users\liukai\AppData\Local\Temp\ccZI6e3r.s:317    .text.print:0000000000000008 .L0 
C:\Users\liukai\AppData\Local\Temp\ccZI6e3r.s:318    .text.print:0000000000000008 .L0 
C:\Users\liukai\AppData\Local\Temp\ccZI6e3r.s:319    .text.print:0000000000000008 .L0 
C:\Users\liukai\AppData\Local\Temp\ccZI6e3r.s:320    .text.print:0000000000000008 .L0 
C:\Users\liukai\AppData\Local\Temp\ccZI6e3r.s:321    .text.print:0000000000000008 .L0 
C:\Users\liukai\AppData\Local\Temp\ccZI6e3r.s:323    .text.print:000000000000000a .L0 
C:\Users\liukai\AppData\Local\Temp\ccZI6e3r.s:325    .text.print:000000000000000a .L0 
C:\Users\liukai\AppData\Local\Temp\ccZI6e3r.s:329    .text.print:0000000000000010 .L0 
C:\Users\liukai\AppData\Local\Temp\ccZI6e3r.s:331    .text.print:0000000000000012 .L0 
C:\Users\liukai\AppData\Local\Temp\ccZI6e3r.s:333    .text.print:0000000000000016 .L0 
C:\Users\liukai\AppData\Local\Temp\ccZI6e3r.s:335    .text.print:000000000000001a .L0 
C:\Users\liukai\AppData\Local\Temp\ccZI6e3r.s:337    .text.print:000000000000001e .L0 
C:\Users\liukai\AppData\Local\Temp\ccZI6e3r.s:340    .text.print:0000000000000020 .L0 
C:\Users\liukai\AppData\Local\Temp\ccZI6e3r.s:344    .text.print:0000000000000028 .L0 
C:\Users\liukai\AppData\Local\Temp\ccZI6e3r.s:346    .text.print:000000000000002c .L0 
C:\Users\liukai\AppData\Local\Temp\ccZI6e3r.s:349    .text.print:000000000000002e .L0 
C:\Users\liukai\AppData\Local\Temp\ccZI6e3r.s:351    .text.print:0000000000000032 .L0 
C:\Users\liukai\AppData\Local\Temp\ccZI6e3r.s:353    .text.print:0000000000000036 .L0 
C:\Users\liukai\AppData\Local\Temp\ccZI6e3r.s:356    .text.print:000000000000003a .L0 
C:\Users\liukai\AppData\Local\Temp\ccZI6e3r.s:358    .text.print:000000000000003e .L0 
C:\Users\liukai\AppData\Local\Temp\ccZI6e3r.s:359    .text.print:000000000000003e .L0 
C:\Users\liukai\AppData\Local\Temp\ccZI6e3r.s:361    .text.print:0000000000000046 .L0 
C:\Users\liukai\AppData\Local\Temp\ccZI6e3r.s:362    .text.print:0000000000000046 .L0 
C:\Users\liukai\AppData\Local\Temp\ccZI6e3r.s:363    .text.print:0000000000000046 .L0 
C:\Users\liukai\AppData\Local\Temp\ccZI6e3r.s:364    .text.print:0000000000000046 .L0 
C:\Users\liukai\AppData\Local\Temp\ccZI6e3r.s:365    .text.print:0000000000000046 .L0 
C:\Users\liukai\AppData\Local\Temp\ccZI6e3r.s:366    .text.print:0000000000000046 .L0 
C:\Users\liukai\AppData\Local\Temp\ccZI6e3r.s:367    .text.print:0000000000000046 .L0 
C:\Users\liukai\AppData\Local\Temp\ccZI6e3r.s:368    .text.print:0000000000000046 .L0 
C:\Users\liukai\AppData\Local\Temp\ccZI6e3r.s:369    .text.print:0000000000000046 .L0 
C:\Users\liukai\AppData\Local\Temp\ccZI6e3r.s:370    .text.print:0000000000000046 .L0 
C:\Users\liukai\AppData\Local\Temp\ccZI6e3r.s:371    .text.print:0000000000000046 .L0 
C:\Users\liukai\AppData\Local\Temp\ccZI6e3r.s:372    .text.print:0000000000000046 .L0 
C:\Users\liukai\AppData\Local\Temp\ccZI6e3r.s:374    .text.print:0000000000000046 .L0 
C:\Users\liukai\AppData\Local\Temp\ccZI6e3r.s:376    .text.print:0000000000000046 .L0 
C:\Users\liukai\AppData\Local\Temp\ccZI6e3r.s:378    .text.print:000000000000004a .L0 
C:\Users\liukai\AppData\Local\Temp\ccZI6e3r.s:380    .text.print:000000000000004e .L0 
C:\Users\liukai\AppData\Local\Temp\ccZI6e3r.s:383    .text.print:0000000000000054 .L0 
C:\Users\liukai\AppData\Local\Temp\ccZI6e3r.s:385    .text.print:0000000000000058 .L0 
C:\Users\liukai\AppData\Local\Temp\ccZI6e3r.s:387    .text.print:000000000000005a .L0 
C:\Users\liukai\AppData\Local\Temp\ccZI6e3r.s:389    .text.print:000000000000005e .L0 
C:\Users\liukai\AppData\Local\Temp\ccZI6e3r.s:391    .text.print:0000000000000062 .L0 
C:\Users\liukai\AppData\Local\Temp\ccZI6e3r.s:394    .text.print:0000000000000064 .L0 
C:\Users\liukai\AppData\Local\Temp\ccZI6e3r.s:397    .text.print:0000000000000066 .L0 
C:\Users\liukai\AppData\Local\Temp\ccZI6e3r.s:401    .text.print:0000000000000072 .L0 
C:\Users\liukai\AppData\Local\Temp\ccZI6e3r.s:403    .text.print:0000000000000074 .L0 
C:\Users\liukai\AppData\Local\Temp\ccZI6e3r.s:406    .text.print:0000000000000076 .L0 
C:\Users\liukai\AppData\Local\Temp\ccZI6e3r.s:409    .text.print:000000000000007e .L0 
C:\Users\liukai\AppData\Local\Temp\ccZI6e3r.s:411    .text.print:0000000000000082 .L0 
C:\Users\liukai\AppData\Local\Temp\ccZI6e3r.s:414    .text.print:000000000000008a .L0 
C:\Users\liukai\AppData\Local\Temp\ccZI6e3r.s:418    .text.print:0000000000000092 .L0 
C:\Users\liukai\AppData\Local\Temp\ccZI6e3r.s:421    .text.print:0000000000000098 .L0 
C:\Users\liukai\AppData\Local\Temp\ccZI6e3r.s:424    .text.print:000000000000009c .L0 
C:\Users\liukai\AppData\Local\Temp\ccZI6e3r.s:427    .text.print:000000000000009e .L0 
C:\Users\liukai\AppData\Local\Temp\ccZI6e3r.s:432    .text.print:00000000000000a2 .L0 
C:\Users\liukai\AppData\Local\Temp\ccZI6e3r.s:437    .text.print:00000000000000ae .L0 
C:\Users\liukai\AppData\Local\Temp\ccZI6e3r.s:439    .text.print:00000000000000b2 .L0 
C:\Users\liukai\AppData\Local\Temp\ccZI6e3r.s:443    .text.print:00000000000000b6 .L0 
C:\Users\liukai\AppData\Local\Temp\ccZI6e3r.s:445    .text.print:00000000000000ba .L0 
C:\Users\liukai\AppData\Local\Temp\ccZI6e3r.s:447    .text.print:00000000000000bc .L0 
C:\Users\liukai\AppData\Local\Temp\ccZI6e3r.s:451    .text.print:00000000000000c0 .L0 
C:\Users\liukai\AppData\Local\Temp\ccZI6e3r.s:454    .text.print:00000000000000c8 .L0 
C:\Users\liukai\AppData\Local\Temp\ccZI6e3r.s:465    .text.print:00000000000000e0 .L0 
C:\Users\liukai\AppData\Local\Temp\ccZI6e3r.s:467    .text.print:00000000000000e2 .L0 
C:\Users\liukai\AppData\Local\Temp\ccZI6e3r.s:470    .text.print:00000000000000e4 .L0 
C:\Users\liukai\AppData\Local\Temp\ccZI6e3r.s:474    .text.print:00000000000000e8 .L0 
C:\Users\liukai\AppData\Local\Temp\ccZI6e3r.s:477    .text.print:00000000000000f0 .L0 
C:\Users\liukai\AppData\Local\Temp\ccZI6e3r.s:481    .text.print:00000000000000f8 .L0 
C:\Users\liukai\AppData\Local\Temp\ccZI6e3r.s:486    .text.print:00000000000000fe .L0 
C:\Users\liukai\AppData\Local\Temp\ccZI6e3r.s:489    .text.print:0000000000000106 .L0 
C:\Users\liukai\AppData\Local\Temp\ccZI6e3r.s:494    .text.print:0000000000000110 .L0 
C:\Users\liukai\AppData\Local\Temp\ccZI6e3r.s:497    .text.print:0000000000000118 .L0 
C:\Users\liukai\AppData\Local\Temp\ccZI6e3r.s:503    .text.print:0000000000000124 .L0 
C:\Users\liukai\AppData\Local\Temp\ccZI6e3r.s:506    .text.print:000000000000012c .L0 
C:\Users\liukai\AppData\Local\Temp\ccZI6e3r.s:508    .text.print:000000000000012e .L0 
C:\Users\liukai\AppData\Local\Temp\ccZI6e3r.s:510    .text.print:0000000000000132 .L0 
C:\Users\liukai\AppData\Local\Temp\ccZI6e3r.s:512    .text.print:0000000000000136 .L0 
C:\Users\liukai\AppData\Local\Temp\ccZI6e3r.s:514    .text.print:000000000000013a .L0 
C:\Users\liukai\AppData\Local\Temp\ccZI6e3r.s:520    .text.print:0000000000000142 .L0 
C:\Users\liukai\AppData\Local\Temp\ccZI6e3r.s:523    .text.print:0000000000000144 .L0 
C:\Users\liukai\AppData\Local\Temp\ccZI6e3r.s:526    .text.print:000000000000014a .L0 
C:\Users\liukai\AppData\Local\Temp\ccZI6e3r.s:528    .text.print:000000000000014c .L0 
C:\Users\liukai\AppData\Local\Temp\ccZI6e3r.s:530    .text.print:0000000000000156 .L0 
C:\Users\liukai\AppData\Local\Temp\ccZI6e3r.s:537    .text.printf:0000000000000000 printf
C:\Users\liukai\AppData\Local\Temp\ccZI6e3r.s:540    .text.printf:0000000000000000 .L0 
C:\Users\liukai\AppData\Local\Temp\ccZI6e3r.s:541    .text.printf:0000000000000000 .L0 
C:\Users\liukai\AppData\Local\Temp\ccZI6e3r.s:542    .text.printf:0000000000000002 .L0 
C:\Users\liukai\AppData\Local\Temp\ccZI6e3r.s:546    .text.printf:0000000000000006 .L0 
C:\Users\liukai\AppData\Local\Temp\ccZI6e3r.s:548    .text.printf:0000000000000008 .L0 
C:\Users\liukai\AppData\Local\Temp\ccZI6e3r.s:550    .text.printf:000000000000000a .L0 
C:\Users\liukai\AppData\Local\Temp\ccZI6e3r.s:552    .text.printf:000000000000000c .L0 
C:\Users\liukai\AppData\Local\Temp\ccZI6e3r.s:553    .text.printf:000000000000000e .L0 
C:\Users\liukai\AppData\Local\Temp\ccZI6e3r.s:555    .text.printf:000000000000000e .L0 
C:\Users\liukai\AppData\Local\Temp\ccZI6e3r.s:561    .text.printf:0000000000000018 .L0 
C:\Users\liukai\AppData\Local\Temp\ccZI6e3r.s:563    .text.printf:000000000000001a .L0 
C:\Users\liukai\AppData\Local\Temp\ccZI6e3r.s:565    .text.printf:0000000000000022 .L0 
C:\Users\liukai\AppData\Local\Temp\ccZI6e3r.s:566    .text.printf:0000000000000024 .L0 
C:\Users\liukai\AppData\Local\Temp\ccZI6e3r.s:568    .text.printf:0000000000000026 .L0 
C:\Users\liukai\AppData\Local\Temp\ccZI6e3r.s:570    .text.printf:0000000000000028 .L0 
C:\Users\liukai\AppData\Local\Temp\ccZI6e3r.s:577    .text.sprintf:0000000000000000 sprintf
C:\Users\liukai\AppData\Local\Temp\ccZI6e3r.s:580    .text.sprintf:0000000000000000 .L0 
C:\Users\liukai\AppData\Local\Temp\ccZI6e3r.s:581    .text.sprintf:0000000000000000 .L0 
C:\Users\liukai\AppData\Local\Temp\ccZI6e3r.s:582    .text.sprintf:0000000000000002 .L0 
C:\Users\liukai\AppData\Local\Temp\ccZI6e3r.s:586    .text.sprintf:0000000000000006 .L0 
C:\Users\liukai\AppData\Local\Temp\ccZI6e3r.s:588    .text.sprintf:0000000000000008 .L0 
C:\Users\liukai\AppData\Local\Temp\ccZI6e3r.s:590    .text.sprintf:000000000000000a .L0 
C:\Users\liukai\AppData\Local\Temp\ccZI6e3r.s:591    .text.sprintf:000000000000000c .L0 
C:\Users\liukai\AppData\Local\Temp\ccZI6e3r.s:593    .text.sprintf:000000000000000c .L0 
C:\Users\liukai\AppData\Local\Temp\ccZI6e3r.s:599    .text.sprintf:0000000000000016 .L0 
C:\Users\liukai\AppData\Local\Temp\ccZI6e3r.s:601    .text.sprintf:0000000000000018 .L0 
C:\Users\liukai\AppData\Local\Temp\ccZI6e3r.s:603    .text.sprintf:0000000000000020 .L0 
C:\Users\liukai\AppData\Local\Temp\ccZI6e3r.s:604    .text.sprintf:0000000000000022 .L0 
C:\Users\liukai\AppData\Local\Temp\ccZI6e3r.s:606    .text.sprintf:0000000000000024 .L0 
C:\Users\liukai\AppData\Local\Temp\ccZI6e3r.s:608    .text.sprintf:0000000000000026 .L0 
C:\Users\liukai\AppData\Local\Temp\ccZI6e3r.s:615    .text.snprintf:0000000000000000 snprintf
C:\Users\liukai\AppData\Local\Temp\ccZI6e3r.s:618    .text.snprintf:0000000000000000 .L0 
C:\Users\liukai\AppData\Local\Temp\ccZI6e3r.s:619    .text.snprintf:0000000000000000 .L0 
C:\Users\liukai\AppData\Local\Temp\ccZI6e3r.s:620    .text.snprintf:0000000000000002 .L0 
C:\Users\liukai\AppData\Local\Temp\ccZI6e3r.s:624    .text.snprintf:0000000000000006 .L0 
C:\Users\liukai\AppData\Local\Temp\ccZI6e3r.s:626    .text.snprintf:0000000000000008 .L0 
C:\Users\liukai\AppData\Local\Temp\ccZI6e3r.s:628    .text.snprintf:000000000000000a .L0 
C:\Users\liukai\AppData\Local\Temp\ccZI6e3r.s:629    .text.snprintf:000000000000000c .L0 
C:\Users\liukai\AppData\Local\Temp\ccZI6e3r.s:631    .text.snprintf:000000000000000c .L0 
C:\Users\liukai\AppData\Local\Temp\ccZI6e3r.s:637    .text.snprintf:0000000000000016 .L0 
C:\Users\liukai\AppData\Local\Temp\ccZI6e3r.s:639    .text.snprintf:0000000000000018 .L0 
C:\Users\liukai\AppData\Local\Temp\ccZI6e3r.s:641    .text.snprintf:0000000000000020 .L0 
C:\Users\liukai\AppData\Local\Temp\ccZI6e3r.s:642    .text.snprintf:0000000000000022 .L0 
C:\Users\liukai\AppData\Local\Temp\ccZI6e3r.s:644    .text.snprintf:0000000000000024 .L0 
C:\Users\liukai\AppData\Local\Temp\ccZI6e3r.s:646    .text.snprintf:0000000000000026 .L0 
C:\Users\liukai\AppData\Local\Temp\ccZI6e3r.s:653    .text.write:0000000000000000 write
C:\Users\liukai\AppData\Local\Temp\ccZI6e3r.s:656    .text.write:0000000000000000 .L0 
C:\Users\liukai\AppData\Local\Temp\ccZI6e3r.s:657    .text.write:0000000000000000 .L0 
C:\Users\liukai\AppData\Local\Temp\ccZI6e3r.s:658    .text.write:0000000000000000 .L0 
C:\Users\liukai\AppData\Local\Temp\ccZI6e3r.s:660    .text.write:0000000000000004 .L0 
C:\Users\liukai\AppData\Local\Temp\ccZI6e3r.s:40     .text.printchar:000000000000002a .L0 
C:\Users\liukai\AppData\Local\Temp\ccZI6e3r.s:171    .text.prints:00000000000000a8 .L0 
C:\Users\liukai\AppData\Local\Temp\ccZI6e3r.s:298    .text.printi:00000000000000ba .L0 
C:\Users\liukai\AppData\Local\Temp\ccZI6e3r.s:533    .text.print:0000000000000156 .L0 
C:\Users\liukai\AppData\Local\Temp\ccZI6e3r.s:573    .text.printf:0000000000000028 .L0 
C:\Users\liukai\AppData\Local\Temp\ccZI6e3r.s:611    .text.sprintf:0000000000000026 .L0 
C:\Users\liukai\AppData\Local\Temp\ccZI6e3r.s:649    .text.snprintf:0000000000000026 .L0 
C:\Users\liukai\AppData\Local\Temp\ccZI6e3r.s:663    .text.write:0000000000000004 .L0 
                     .debug_frame:0000000000000000 .L0 
C:\Users\liukai\AppData\Local\Temp\ccZI6e3r.s:25     .text.printchar:0000000000000010 .L2
C:\Users\liukai\AppData\Local\Temp\ccZI6e3r.s:91     .text.prints:000000000000003a .L9
C:\Users\liukai\AppData\Local\Temp\ccZI6e3r.s:70     .text.prints:000000000000001c .L8
C:\Users\liukai\AppData\Local\Temp\ccZI6e3r.s:66     .text.prints:000000000000001a .L10
C:\Users\liukai\AppData\Local\Temp\ccZI6e3r.s:101    .text.prints:0000000000000044 .L22
C:\Users\liukai\AppData\Local\Temp\ccZI6e3r.s:122    .text.prints:0000000000000064 .L13
C:\Users\liukai\AppData\Local\Temp\ccZI6e3r.s:114    .text.prints:0000000000000056 .L12
C:\Users\liukai\AppData\Local\Temp\ccZI6e3r.s:80     .text.prints:000000000000002c .L11
C:\Users\liukai\AppData\Local\Temp\ccZI6e3r.s:106    .text.prints:0000000000000048 .L14
C:\Users\liukai\AppData\Local\Temp\ccZI6e3r.s:120    .text.prints:0000000000000062 .L15
C:\Users\liukai\AppData\Local\Temp\ccZI6e3r.s:132    .text.prints:0000000000000074 .L16
C:\Users\liukai\AppData\Local\Temp\ccZI6e3r.s:126    .text.prints:0000000000000068 .L17
C:\Users\liukai\AppData\Local\Temp\ccZI6e3r.s:159    .text.prints:0000000000000098 .L19
C:\Users\liukai\AppData\Local\Temp\ccZI6e3r.s:146    .text.prints:000000000000008c .L20
C:\Users\liukai\AppData\Local\Temp\ccZI6e3r.s:140    .text.prints:0000000000000082 .L18
C:\Users\liukai\AppData\Local\Temp\ccZI6e3r.s:211    .text.printi:000000000000002e .L30
C:\Users\liukai\AppData\Local\Temp\ccZI6e3r.s:228    .text.printi:0000000000000044 .L32
C:\Users\liukai\AppData\Local\Temp\ccZI6e3r.s:244    .text.printi:000000000000005c .L33
C:\Users\liukai\AppData\Local\Temp\ccZI6e3r.s:281    .text.printi:00000000000000a4 .L39
C:\Users\liukai\AppData\Local\Temp\ccZI6e3r.s:272    .text.printi:0000000000000092 .L35
C:\Users\liukai\AppData\Local\Temp\ccZI6e3r.s:286    .text.printi:00000000000000aa .L36
C:\Users\liukai\AppData\Local\Temp\ccZI6e3r.s:200    .text.printi:0000000000000024 .L29
C:\Users\liukai\AppData\Local\Temp\ccZI6e3r.s:237    .text.printi:0000000000000052 .L34
C:\Users\liukai\AppData\Local\Temp\ccZI6e3r.s:300    .rodata.print.str1.4:0000000000000000 .LC0
C:\Users\liukai\AppData\Local\Temp\ccZI6e3r.s:340    .text.print:0000000000000020 .L0 
C:\Users\liukai\AppData\Local\Temp\ccZI6e3r.s:373    .text.print:0000000000000046 .L69
C:\Users\liukai\AppData\Local\Temp\ccZI6e3r.s:354    .text.print:000000000000003a .L53
C:\Users\liukai\AppData\Local\Temp\ccZI6e3r.s:521    .text.print:0000000000000144 .L55
C:\Users\liukai\AppData\Local\Temp\ccZI6e3r.s:347    .text.print:000000000000002e .L56
C:\Users\liukai\AppData\Local\Temp\ccZI6e3r.s:518    .text.print:0000000000000142 .L71
C:\Users\liukai\AppData\Local\Temp\ccZI6e3r.s:392    .text.print:0000000000000064 .L57
C:\Users\liukai\AppData\Local\Temp\ccZI6e3r.s:435    .text.print:00000000000000ae .L59
C:\Users\liukai\AppData\Local\Temp\ccZI6e3r.s:441    .text.print:00000000000000b6 .L61
C:\Users\liukai\AppData\Local\Temp\ccZI6e3r.s:449    .text.print:00000000000000c0 .L62
C:\Users\liukai\AppData\Local\Temp\ccZI6e3r.s:425    .text.print:000000000000009e .L63
C:\Users\liukai\AppData\Local\Temp\ccZI6e3r.s:463    .text.print:00000000000000e0 .L82
C:\Users\liukai\AppData\Local\Temp\ccZI6e3r.s:395    .text.print:0000000000000066 .L58
C:\Users\liukai\AppData\Local\Temp\ccZI6e3r.s:404    .text.print:0000000000000076 .L60
C:\Users\liukai\AppData\Local\Temp\ccZI6e3r.s:472    .text.print:00000000000000e8 .L65
C:\Users\liukai\AppData\Local\Temp\ccZI6e3r.s:341    .text.print:0000000000000028 .L54
C:\Users\liukai\AppData\Local\Temp\ccZI6e3r.s:484    .text.print:00000000000000fe .L66
C:\Users\liukai\AppData\Local\Temp\ccZI6e3r.s:459    .text.print:00000000000000d4 .L83
C:\Users\liukai\AppData\Local\Temp\ccZI6e3r.s:492    .text.print:0000000000000110 .L67
C:\Users\liukai\AppData\Local\Temp\ccZI6e3r.s:479    .text.print:00000000000000f8 .L85
C:\Users\liukai\AppData\Local\Temp\ccZI6e3r.s:501    .text.print:0000000000000124 .L68
C:\Users\liukai\AppData\Local\Temp\ccZI6e3r.s:457    .text.print:00000000000000d2 .L84
C:\Users\liukai\AppData\Local\Temp\ccZI6e3r.s:468    .text.print:00000000000000e4 .L64
C:\Users\liukai\AppData\Local\Temp\ccZI6e3r.s:429    .text.print:00000000000000a2 .L86
C:\Users\liukai\AppData\Local\Temp\ccZI6e3r.s:2344   .debug_abbrev:0000000000000000 .Ldebug_abbrev0
C:\Users\liukai\AppData\Local\Temp\ccZI6e3r.s:6978   .debug_str:00000000000017f1 .LASF1102
C:\Users\liukai\AppData\Local\Temp\ccZI6e3r.s:7914   .debug_str:00000000000049cf .LASF1103
C:\Users\liukai\AppData\Local\Temp\ccZI6e3r.s:7698   .debug_str:0000000000003f1f .LASF1104
C:\Users\liukai\AppData\Local\Temp\ccZI6e3r.s:3084   .debug_ranges:0000000000000000 .Ldebug_ranges0
C:\Users\liukai\AppData\Local\Temp\ccZI6e3r.s:6502   .debug_line:0000000000000000 .Ldebug_line0
C:\Users\liukai\AppData\Local\Temp\ccZI6e3r.s:3118   .debug_macro:0000000000000000 .Ldebug_macro0
C:\Users\liukai\AppData\Local\Temp\ccZI6e3r.s:7106   .debug_str:00000000000020c0 .LASF964
C:\Users\liukai\AppData\Local\Temp\ccZI6e3r.s:7088   .debug_str:0000000000002025 .LASF1105
C:\Users\liukai\AppData\Local\Temp\ccZI6e3r.s:6846   .debug_str:000000000000118a .LASF965
C:\Users\liukai\AppData\Local\Temp\ccZI6e3r.s:6980   .debug_str:00000000000018c1 .LASF966
C:\Users\liukai\AppData\Local\Temp\ccZI6e3r.s:7880   .debug_str:0000000000004846 .LASF967
C:\Users\liukai\AppData\Local\Temp\ccZI6e3r.s:8310   .debug_str:0000000000005fd3 .LASF968
C:\Users\liukai\AppData\Local\Temp\ccZI6e3r.s:8572   .debug_str:0000000000006e0e .LASF969
C:\Users\liukai\AppData\Local\Temp\ccZI6e3r.s:6852   .debug_str:00000000000011d3 .LASF970
C:\Users\liukai\AppData\Local\Temp\ccZI6e3r.s:7432   .debug_str:000000000000326f .LASF971
C:\Users\liukai\AppData\Local\Temp\ccZI6e3r.s:8510   .debug_str:0000000000006ae4 .LASF972
C:\Users\liukai\AppData\Local\Temp\ccZI6e3r.s:8048   .debug_str:0000000000005135 .LASF973
C:\Users\liukai\AppData\Local\Temp\ccZI6e3r.s:7744   .debug_str:00000000000041d6 .LASF974
C:\Users\liukai\AppData\Local\Temp\ccZI6e3r.s:7940   .debug_str:0000000000004aea .LASF975
C:\Users\liukai\AppData\Local\Temp\ccZI6e3r.s:8464   .debug_str:00000000000068ad .LASF976
C:\Users\liukai\AppData\Local\Temp\ccZI6e3r.s:7344   .debug_str:0000000000002d52 .LASF1083
C:\Users\liukai\AppData\Local\Temp\ccZI6e3r.s:8548   .debug_str:0000000000006cab .LASF977
C:\Users\liukai\AppData\Local\Temp\ccZI6e3r.s:8536   .debug_str:0000000000006c39 .LASF978
C:\Users\liukai\AppData\Local\Temp\ccZI6e3r.s:6524   .debug_str:000000000000011a .LASF979
C:\Users\liukai\AppData\Local\Temp\ccZI6e3r.s:8188   .debug_str:0000000000005915 .LASF980
C:\Users\liukai\AppData\Local\Temp\ccZI6e3r.s:6818   .debug_str:0000000000000f95 .LASF981
C:\Users\liukai\AppData\Local\Temp\ccZI6e3r.s:6948   .debug_str:00000000000016ad .LASF982
C:\Users\liukai\AppData\Local\Temp\ccZI6e3r.s:7894   .debug_str:00000000000048da .LASF983
C:\Users\liukai\AppData\Local\Temp\ccZI6e3r.s:6536   .debug_str:000000000000018d .LASF984
C:\Users\liukai\AppData\Local\Temp\ccZI6e3r.s:7692   .debug_str:0000000000003eee .LASF985
C:\Users\liukai\AppData\Local\Temp\ccZI6e3r.s:8156   .debug_str:0000000000005729 .LASF986
C:\Users\liukai\AppData\Local\Temp\ccZI6e3r.s:8498   .debug_str:0000000000006a4a .LASF987
C:\Users\liukai\AppData\Local\Temp\ccZI6e3r.s:7538   .debug_str:00000000000037ae .LASF992
C:\Users\liukai\AppData\Local\Temp\ccZI6e3r.s:8202   .debug_str:00000000000059d1 .LASF988
C:\Users\liukai\AppData\Local\Temp\ccZI6e3r.s:8374   .debug_str:0000000000006411 .LASF989
C:\Users\liukai\AppData\Local\Temp\ccZI6e3r.s:7694   .debug_str:0000000000003ef9 .LASF990
C:\Users\liukai\AppData\Local\Temp\ccZI6e3r.s:7334   .debug_str:0000000000002cd4 .LASF991
C:\Users\liukai\AppData\Local\Temp\ccZI6e3r.s:6630   .debug_str:0000000000000642 .LASF993
C:\Users\liukai\AppData\Local\Temp\ccZI6e3r.s:6636   .debug_str:000000000000065e .LASF994
C:\Users\liukai\AppData\Local\Temp\ccZI6e3r.s:7114   .debug_str:0000000000002122 .LASF995
C:\Users\liukai\AppData\Local\Temp\ccZI6e3r.s:8576   .debug_str:0000000000006e2f .LASF996
C:\Users\liukai\AppData\Local\Temp\ccZI6e3r.s:7806   .debug_str:00000000000044eb .LASF997
C:\Users\liukai\AppData\Local\Temp\ccZI6e3r.s:6932   .debug_str:000000000000160a .LASF998
C:\Users\liukai\AppData\Local\Temp\ccZI6e3r.s:8386   .debug_str:0000000000006492 .LASF999
C:\Users\liukai\AppData\Local\Temp\ccZI6e3r.s:8586   .debug_str:0000000000006e7d .LASF1000
C:\Users\liukai\AppData\Local\Temp\ccZI6e3r.s:7946   .debug_str:0000000000004b05 .LASF1001
C:\Users\liukai\AppData\Local\Temp\ccZI6e3r.s:8656   .debug_str:000000000000724c .LASF1002
C:\Users\liukai\AppData\Local\Temp\ccZI6e3r.s:6810   .debug_str:0000000000000f43 .LASF1003
C:\Users\liukai\AppData\Local\Temp\ccZI6e3r.s:8652   .debug_str:000000000000723b .LASF1004
C:\Users\liukai\AppData\Local\Temp\ccZI6e3r.s:8072   .debug_str:0000000000005286 .LASF1005
C:\Users\liukai\AppData\Local\Temp\ccZI6e3r.s:6914   .debug_str:00000000000014e7 .LASF1006
C:\Users\liukai\AppData\Local\Temp\ccZI6e3r.s:8462   .debug_str:00000000000068a5 .LASF1007
C:\Users\liukai\AppData\Local\Temp\ccZI6e3r.s:7866   .debug_str:000000000000479f .LASF1008
C:\Users\liukai\AppData\Local\Temp\ccZI6e3r.s:8434   .debug_str:0000000000006764 .LASF1009
C:\Users\liukai\AppData\Local\Temp\ccZI6e3r.s:7136   .debug_str:0000000000002249 .LASF1010
C:\Users\liukai\AppData\Local\Temp\ccZI6e3r.s:6900   .debug_str:000000000000144f .LASF1011
C:\Users\liukai\AppData\Local\Temp\ccZI6e3r.s:8126   .debug_str:0000000000005501 .LASF1012
C:\Users\liukai\AppData\Local\Temp\ccZI6e3r.s:6666   .debug_str:000000000000086f .LASF1013
C:\Users\liukai\AppData\Local\Temp\ccZI6e3r.s:8578   .debug_str:0000000000006e39 .LASF1014
C:\Users\liukai\AppData\Local\Temp\ccZI6e3r.s:7848   .debug_str:00000000000046eb .LASF1015
C:\Users\liukai\AppData\Local\Temp\ccZI6e3r.s:6820   .debug_str:0000000000000f9b .LASF1016
C:\Users\liukai\AppData\Local\Temp\ccZI6e3r.s:8430   .debug_str:0000000000006747 .LASF1017
C:\Users\liukai\AppData\Local\Temp\ccZI6e3r.s:7326   .debug_str:0000000000002c61 .LASF1018
C:\Users\liukai\AppData\Local\Temp\ccZI6e3r.s:6552   .debug_str:000000000000023a .LASF1019
C:\Users\liukai\AppData\Local\Temp\ccZI6e3r.s:6686   .debug_str:000000000000099e .LASF1020
C:\Users\liukai\AppData\Local\Temp\ccZI6e3r.s:7984   .debug_str:0000000000004dad .LASF1021
C:\Users\liukai\AppData\Local\Temp\ccZI6e3r.s:7148   .debug_str:00000000000022e0 .LASF1022
C:\Users\liukai\AppData\Local\Temp\ccZI6e3r.s:7818   .debug_str:0000000000004549 .LASF1023
C:\Users\liukai\AppData\Local\Temp\ccZI6e3r.s:6994   .debug_str:00000000000019b5 .LASF1024
C:\Users\liukai\AppData\Local\Temp\ccZI6e3r.s:8112   .debug_str:0000000000005452 .LASF1025
C:\Users\liukai\AppData\Local\Temp\ccZI6e3r.s:7364   .debug_str:0000000000002ea8 .LASF1026
C:\Users\liukai\AppData\Local\Temp\ccZI6e3r.s:8206   .debug_str:00000000000059f0 .LASF1027
C:\Users\liukai\AppData\Local\Temp\ccZI6e3r.s:6678   .debug_str:0000000000000933 .LASF1028
C:\Users\liukai\AppData\Local\Temp\ccZI6e3r.s:7836   .debug_str:0000000000004625 .LASF1029
C:\Users\liukai\AppData\Local\Temp\ccZI6e3r.s:7736   .debug_str:000000000000419c .LASF1030
C:\Users\liukai\AppData\Local\Temp\ccZI6e3r.s:7080   .debug_str:0000000000001f96 .LASF1031
C:\Users\liukai\AppData\Local\Temp\ccZI6e3r.s:7488   .debug_str:0000000000003576 .LASF1032
C:\Users\liukai\AppData\Local\Temp\ccZI6e3r.s:7186   .debug_str:00000000000024ed .LASF1033
C:\Users\liukai\AppData\Local\Temp\ccZI6e3r.s:7012   .debug_str:0000000000001ae2 .LASF1034
C:\Users\liukai\AppData\Local\Temp\ccZI6e3r.s:7824   .debug_str:0000000000004599 .LASF1035
C:\Users\liukai\AppData\Local\Temp\ccZI6e3r.s:7112   .debug_str:000000000000211d .LASF1036
C:\Users\liukai\AppData\Local\Temp\ccZI6e3r.s:7592   .debug_str:0000000000003a48 .LASF1037
C:\Users\liukai\AppData\Local\Temp\ccZI6e3r.s:7064   .debug_str:0000000000001e49 .LASF1038
C:\Users\liukai\AppData\Local\Temp\ccZI6e3r.s:8496   .debug_str:0000000000006a42 .LASF1039
C:\Users\liukai\AppData\Local\Temp\ccZI6e3r.s:7452   .debug_str:0000000000003359 .LASF1040
C:\Users\liukai\AppData\Local\Temp\ccZI6e3r.s:7562   .debug_str:00000000000038ca .LASF1041
C:\Users\liukai\AppData\Local\Temp\ccZI6e3r.s:8520   .debug_str:0000000000006b49 .LASF1042
C:\Users\liukai\AppData\Local\Temp\ccZI6e3r.s:6864   .debug_str:000000000000126c .LASF1043
C:\Users\liukai\AppData\Local\Temp\ccZI6e3r.s:7430   .debug_str:000000000000326a .LASF1044
C:\Users\liukai\AppData\Local\Temp\ccZI6e3r.s:7682   .debug_str:0000000000003e75 .LASF1045
C:\Users\liukai\AppData\Local\Temp\ccZI6e3r.s:6594   .debug_str:0000000000000442 .LASF1046
C:\Users\liukai\AppData\Local\Temp\ccZI6e3r.s:6574   .debug_str:0000000000000339 .LASF1047
C:\Users\liukai\AppData\Local\Temp\ccZI6e3r.s:7814   .debug_str:000000000000452a .LASF1048
C:\Users\liukai\AppData\Local\Temp\ccZI6e3r.s:7564   .debug_str:00000000000038d4 .LASF1049
C:\Users\liukai\AppData\Local\Temp\ccZI6e3r.s:7348   .debug_str:0000000000002d71 .LASF1050
C:\Users\liukai\AppData\Local\Temp\ccZI6e3r.s:8642   .debug_str:00000000000071e1 .LASF1051
C:\Users\liukai\AppData\Local\Temp\ccZI6e3r.s:6540   .debug_str:00000000000001a8 .LASF1052
C:\Users\liukai\AppData\Local\Temp\ccZI6e3r.s:7126   .debug_str:00000000000021cf .LASF370
C:\Users\liukai\AppData\Local\Temp\ccZI6e3r.s:8160   .debug_str:0000000000005765 .LASF1053
C:\Users\liukai\AppData\Local\Temp\ccZI6e3r.s:7690   .debug_str:0000000000003ee8 .LASF1054
C:\Users\liukai\AppData\Local\Temp\ccZI6e3r.s:7620   .debug_str:0000000000003b51 .LASF1055
C:\Users\liukai\AppData\Local\Temp\ccZI6e3r.s:7376   .debug_str:0000000000002f28 .LASF1056
C:\Users\liukai\AppData\Local\Temp\ccZI6e3r.s:8080   .debug_str:00000000000052d1 .LASF1057
C:\Users\liukai\AppData\Local\Temp\ccZI6e3r.s:7972   .debug_str:0000000000004cd9 .LASF1058
C:\Users\liukai\AppData\Local\Temp\ccZI6e3r.s:6710   .debug_str:0000000000000a9b .LASF1059
C:\Users\liukai\AppData\Local\Temp\ccZI6e3r.s:8566   .debug_str:0000000000006d94 .LASF1060
C:\Users\liukai\AppData\Local\Temp\ccZI6e3r.s:6974   .debug_str:00000000000017d1 .LASF1061
C:\Users\liukai\AppData\Local\Temp\ccZI6e3r.s:8136   .debug_str:000000000000559f .LASF1062
C:\Users\liukai\AppData\Local\Temp\ccZI6e3r.s:6590   .debug_str:000000000000041e .LASF1063
C:\Users\liukai\AppData\Local\Temp\ccZI6e3r.s:6892   .debug_str:00000000000013f5 .LASF1064
C:\Users\liukai\AppData\Local\Temp\ccZI6e3r.s:7656   .debug_str:0000000000003d2b .LASF1065
C:\Users\liukai\AppData\Local\Temp\ccZI6e3r.s:7844   .debug_str:00000000000046c9 .LASF1066
C:\Users\liukai\AppData\Local\Temp\ccZI6e3r.s:8182   .debug_str:00000000000058c9 .LASF1067
C:\Users\liukai\AppData\Local\Temp\ccZI6e3r.s:8308   .debug_str:0000000000005fc6 .LASF1068
C:\Users\liukai\AppData\Local\Temp\ccZI6e3r.s:8020   .debug_str:0000000000004fab .LASF1069
C:\Users\liukai\AppData\Local\Temp\ccZI6e3r.s:7832   .debug_str:00000000000045fd .LASF1070
C:\Users\liukai\AppData\Local\Temp\ccZI6e3r.s:6646   .debug_str:00000000000006d7 .LASF1071
C:\Users\liukai\AppData\Local\Temp\ccZI6e3r.s:7506   .debug_str:0000000000003691 .LASF1072
C:\Users\liukai\AppData\Local\Temp\ccZI6e3r.s:6708   .debug_str:0000000000000a8e .LASF1073
C:\Users\liukai\AppData\Local\Temp\ccZI6e3r.s:6850   .debug_str:00000000000011c5 .LASF1074
C:\Users\liukai\AppData\Local\Temp\ccZI6e3r.s:8146   .debug_str:000000000000565d .LASF1075
C:\Users\liukai\AppData\Local\Temp\ccZI6e3r.s:8604   .debug_str:0000000000006f9a .LASF1076
C:\Users\liukai\AppData\Local\Temp\ccZI6e3r.s:7800   .debug_str:00000000000044b1 .LASF1077
C:\Users\liukai\AppData\Local\Temp\ccZI6e3r.s:6632   .debug_str:0000000000000647 .LASF1078
C:\Users\liukai\AppData\Local\Temp\ccZI6e3r.s:7772   .debug_str:000000000000434f .LASF1079
C:\Users\liukai\AppData\Local\Temp\ccZI6e3r.s:8470   .debug_str:00000000000068ec .LASF1080
C:\Users\liukai\AppData\Local\Temp\ccZI6e3r.s:7642   .debug_str:0000000000003cac .LASF1081
C:\Users\liukai\AppData\Local\Temp\ccZI6e3r.s:7104   .debug_str:00000000000020b8 .LASF1082
C:\Users\liukai\AppData\Local\Temp\ccZI6e3r.s:6532   .debug_str:0000000000000169 .LASF1084
C:\Users\liukai\AppData\Local\Temp\ccZI6e3r.s:6858   .debug_str:000000000000121e .LASF1085
C:\Users\liukai\AppData\Local\Temp\ccZI6e3r.s:7086   .debug_str:0000000000002012 .LASF1086
C:\Users\liukai\AppData\Local\Temp\ccZI6e3r.s:6634   .debug_str:0000000000000658 .LASF1087
C:\Users\liukai\AppData\Local\Temp\ccZI6e3r.s:654    .text.write:0000000000000000 .LFB10
C:\Users\liukai\AppData\Local\Temp\ccZI6e3r.s:661    .text.write:0000000000000004 .LFE10
C:\Users\liukai\AppData\Local\Temp\ccZI6e3r.s:7568   .debug_str:00000000000038fb .LASF1088
C:\Users\liukai\AppData\Local\Temp\ccZI6e3r.s:616    .text.snprintf:0000000000000000 .LFB9
C:\Users\liukai\AppData\Local\Temp\ccZI6e3r.s:647    .text.snprintf:0000000000000026 .LFE9
C:\Users\liukai\AppData\Local\Temp\ccZI6e3r.s:7720   .debug_str:0000000000004029 .LASF1089
C:\Users\liukai\AppData\Local\Temp\ccZI6e3r.s:8280   .debug_str:0000000000005dce .LASF1090
C:\Users\liukai\AppData\Local\Temp\ccZI6e3r.s:8222   .debug_str:0000000000005af2 .LASF1092
C:\Users\liukai\AppData\Local\Temp\ccZI6e3r.s:7516   .debug_str:00000000000036df .LASF1091
C:\Users\liukai\AppData\Local\Temp\ccZI6e3r.s:578    .text.sprintf:0000000000000000 .LFB8
C:\Users\liukai\AppData\Local\Temp\ccZI6e3r.s:609    .text.sprintf:0000000000000026 .LFE8
C:\Users\liukai\AppData\Local\Temp\ccZI6e3r.s:7300   .debug_str:0000000000002b47 .LASF1093
C:\Users\liukai\AppData\Local\Temp\ccZI6e3r.s:538    .text.printf:0000000000000000 .LFB7
C:\Users\liukai\AppData\Local\Temp\ccZI6e3r.s:571    .text.printf:0000000000000028 .LFE7
C:\Users\liukai\AppData\Local\Temp\ccZI6e3r.s:7908   .debug_str:0000000000004991 .LASF1094
C:\Users\liukai\AppData\Local\Temp\ccZI6e3r.s:306    .text.print:0000000000000000 .LFB6
C:\Users\liukai\AppData\Local\Temp\ccZI6e3r.s:531    .text.print:0000000000000156 .LFE6
C:\Users\liukai\AppData\Local\Temp\ccZI6e3r.s:7616   .debug_str:0000000000003b34 .LASF1096
C:\Users\liukai\AppData\Local\Temp\ccZI6e3r.s:7306   .debug_str:0000000000002b8c .LASF1095
C:\Users\liukai\AppData\Local\Temp\ccZI6e3r.s:175    .text.printi:0000000000000000 .LFB5
C:\Users\liukai\AppData\Local\Temp\ccZI6e3r.s:296    .text.printi:00000000000000ba .LFE5
C:\Users\liukai\AppData\Local\Temp\ccZI6e3r.s:7702   .debug_str:0000000000003f55 .LASF1097
C:\Users\liukai\AppData\Local\Temp\ccZI6e3r.s:6658   .debug_str:00000000000007fb .LASF1098
C:\Users\liukai\AppData\Local\Temp\ccZI6e3r.s:7320   .debug_str:0000000000002c14 .LASF1099
C:\Users\liukai\AppData\Local\Temp\ccZI6e3r.s:44     .text.prints:0000000000000000 .LFB4
C:\Users\liukai\AppData\Local\Temp\ccZI6e3r.s:169    .text.prints:00000000000000a8 .LFE4
C:\Users\liukai\AppData\Local\Temp\ccZI6e3r.s:7740   .debug_str:00000000000041be .LASF1100
C:\Users\liukai\AppData\Local\Temp\ccZI6e3r.s:8192   .debug_str:000000000000595e .LASF1101
C:\Users\liukai\AppData\Local\Temp\ccZI6e3r.s:7944   .debug_str:0000000000004afb .LASF1106
C:\Users\liukai\AppData\Local\Temp\ccZI6e3r.s:10     .text.printchar:0000000000000000 .LFB3
C:\Users\liukai\AppData\Local\Temp\ccZI6e3r.s:38     .text.printchar:000000000000002a .LFE3
C:\Users\liukai\AppData\Local\Temp\ccZI6e3r.s:8600   .debug_str:0000000000006f7c .LASF1107
C:\Users\liukai\AppData\Local\Temp\ccZI6e3r.s:672    .debug_info:0000000000000000 .Ldebug_info0
C:\Users\liukai\AppData\Local\Temp\ccZI6e3r.s:67     .text.prints:000000000000001a .LBB2
C:\Users\liukai\AppData\Local\Temp\ccZI6e3r.s:83     .text.prints:0000000000000030 .LBE2
C:\Users\liukai\AppData\Local\Temp\ccZI6e3r.s:86     .text.prints:0000000000000034 .LBB3
C:\Users\liukai\AppData\Local\Temp\ccZI6e3r.s:92     .text.prints:000000000000003a .LBE3
C:\Users\liukai\AppData\Local\Temp\ccZI6e3r.s:102    .text.prints:0000000000000044 .LBB4
C:\Users\liukai\AppData\Local\Temp\ccZI6e3r.s:107    .text.prints:0000000000000048 .LBE4
C:\Users\liukai\AppData\Local\Temp\ccZI6e3r.s:338    .text.print:0000000000000020 .LBB5
C:\Users\liukai\AppData\Local\Temp\ccZI6e3r.s:342    .text.print:0000000000000028 .LBE5
C:\Users\liukai\AppData\Local\Temp\ccZI6e3r.s:416    .text.print:0000000000000092 .LBB6
C:\Users\liukai\AppData\Local\Temp\ccZI6e3r.s:430    .text.print:00000000000000a2 .LBE6
C:\Users\liukai\AppData\Local\Temp\ccZI6e3r.s:3458   .debug_macro:0000000000000000 .Ldebug_macro2
C:\Users\liukai\AppData\Local\Temp\ccZI6e3r.s:4396   .debug_macro:0000000000000000 .Ldebug_macro3
C:\Users\liukai\AppData\Local\Temp\ccZI6e3r.s:7734   .debug_str:0000000000004190 .LASF325
C:\Users\liukai\AppData\Local\Temp\ccZI6e3r.s:7018   .debug_str:0000000000001b52 .LASF326
C:\Users\liukai\AppData\Local\Temp\ccZI6e3r.s:7910   .debug_str:0000000000004997 .LASF327
C:\Users\liukai\AppData\Local\Temp\ccZI6e3r.s:7110   .debug_str:000000000000210c .LASF328
C:\Users\liukai\AppData\Local\Temp\ccZI6e3r.s:4443   .debug_macro:0000000000000000 .Ldebug_macro4
C:\Users\liukai\AppData\Local\Temp\ccZI6e3r.s:4463   .debug_macro:0000000000000000 .Ldebug_macro5
C:\Users\liukai\AppData\Local\Temp\ccZI6e3r.s:4528   .debug_macro:0000000000000000 .Ldebug_macro6
C:\Users\liukai\AppData\Local\Temp\ccZI6e3r.s:4569   .debug_macro:0000000000000000 .Ldebug_macro7
C:\Users\liukai\AppData\Local\Temp\ccZI6e3r.s:4685   .debug_macro:0000000000000000 .Ldebug_macro8
C:\Users\liukai\AppData\Local\Temp\ccZI6e3r.s:4741   .debug_macro:0000000000000000 .Ldebug_macro9
C:\Users\liukai\AppData\Local\Temp\ccZI6e3r.s:8154   .debug_str:000000000000571e .LASF481
C:\Users\liukai\AppData\Local\Temp\ccZI6e3r.s:7714   .debug_str:0000000000003ffb .LASF482
C:\Users\liukai\AppData\Local\Temp\ccZI6e3r.s:4953   .debug_macro:0000000000000000 .Ldebug_macro10
C:\Users\liukai\AppData\Local\Temp\ccZI6e3r.s:7648   .debug_str:0000000000003cd7 .LASF497
C:\Users\liukai\AppData\Local\Temp\ccZI6e3r.s:5000   .debug_macro:0000000000000000 .Ldebug_macro11
C:\Users\liukai\AppData\Local\Temp\ccZI6e3r.s:5014   .debug_macro:0000000000000000 .Ldebug_macro12
C:\Users\liukai\AppData\Local\Temp\ccZI6e3r.s:5040   .debug_macro:0000000000000000 .Ldebug_macro13
C:\Users\liukai\AppData\Local\Temp\ccZI6e3r.s:5069   .debug_macro:0000000000000000 .Ldebug_macro14
C:\Users\liukai\AppData\Local\Temp\ccZI6e3r.s:8458   .debug_str:000000000000687e .LASF519
C:\Users\liukai\AppData\Local\Temp\ccZI6e3r.s:5083   .debug_macro:0000000000000000 .Ldebug_macro15
C:\Users\liukai\AppData\Local\Temp\ccZI6e3r.s:5151   .debug_macro:0000000000000000 .Ldebug_macro16
C:\Users\liukai\AppData\Local\Temp\ccZI6e3r.s:5516   .debug_macro:0000000000000000 .Ldebug_macro17
C:\Users\liukai\AppData\Local\Temp\ccZI6e3r.s:7166   .debug_str:00000000000023a8 .LASF693
C:\Users\liukai\AppData\Local\Temp\ccZI6e3r.s:7780   .debug_str:0000000000004391 .LASF694
C:\Users\liukai\AppData\Local\Temp\ccZI6e3r.s:8454   .debug_str:0000000000006857 .LASF695
C:\Users\liukai\AppData\Local\Temp\ccZI6e3r.s:8452   .debug_str:0000000000006844 .LASF696
C:\Users\liukai\AppData\Local\Temp\ccZI6e3r.s:5629   .debug_macro:0000000000000000 .Ldebug_macro18
C:\Users\liukai\AppData\Local\Temp\ccZI6e3r.s:5676   .debug_macro:0000000000000000 .Ldebug_macro19
C:\Users\liukai\AppData\Local\Temp\ccZI6e3r.s:5693   .debug_macro:0000000000000000 .Ldebug_macro20
C:\Users\liukai\AppData\Local\Temp\ccZI6e3r.s:5725   .debug_macro:0000000000000000 .Ldebug_macro21
C:\Users\liukai\AppData\Local\Temp\ccZI6e3r.s:5742   .debug_macro:0000000000000000 .Ldebug_macro22
C:\Users\liukai\AppData\Local\Temp\ccZI6e3r.s:5918   .debug_macro:0000000000000000 .Ldebug_macro23
C:\Users\liukai\AppData\Local\Temp\ccZI6e3r.s:8100   .debug_str:00000000000053d3 .LASF779
C:\Users\liukai\AppData\Local\Temp\ccZI6e3r.s:5929   .debug_macro:0000000000000000 .Ldebug_macro24
C:\Users\liukai\AppData\Local\Temp\ccZI6e3r.s:5946   .debug_macro:0000000000000000 .Ldebug_macro25
C:\Users\liukai\AppData\Local\Temp\ccZI6e3r.s:7638   .debug_str:0000000000003c68 .LASF797
C:\Users\liukai\AppData\Local\Temp\ccZI6e3r.s:8276   .debug_str:0000000000005da9 .LASF798
C:\Users\liukai\AppData\Local\Temp\ccZI6e3r.s:5990   .debug_macro:0000000000000000 .Ldebug_macro26
C:\Users\liukai\AppData\Local\Temp\ccZI6e3r.s:6738   .debug_str:0000000000000b9e .LASF809
C:\Users\liukai\AppData\Local\Temp\ccZI6e3r.s:7812   .debug_str:0000000000004517 .LASF810
C:\Users\liukai\AppData\Local\Temp\ccZI6e3r.s:6025   .debug_macro:0000000000000000 .Ldebug_macro27
C:\Users\liukai\AppData\Local\Temp\ccZI6e3r.s:6036   .debug_macro:0000000000000000 .Ldebug_macro28
C:\Users\liukai\AppData\Local\Temp\ccZI6e3r.s:6071   .debug_macro:0000000000000000 .Ldebug_macro29
C:\Users\liukai\AppData\Local\Temp\ccZI6e3r.s:8646   .debug_str:000000000000720d .LASF855
C:\Users\liukai\AppData\Local\Temp\ccZI6e3r.s:6172   .debug_macro:0000000000000000 .Ldebug_macro30
C:\Users\liukai\AppData\Local\Temp\ccZI6e3r.s:6189   .debug_macro:0000000000000000 .Ldebug_macro31
C:\Users\liukai\AppData\Local\Temp\ccZI6e3r.s:8140   .debug_str:00000000000055e0 .LASF869
C:\Users\liukai\AppData\Local\Temp\ccZI6e3r.s:7096   .debug_str:0000000000002073 .LASF870
C:\Users\liukai\AppData\Local\Temp\ccZI6e3r.s:6221   .debug_macro:0000000000000000 .Ldebug_macro32
C:\Users\liukai\AppData\Local\Temp\ccZI6e3r.s:6235   .debug_macro:0000000000000000 .Ldebug_macro33
C:\Users\liukai\AppData\Local\Temp\ccZI6e3r.s:6405   .debug_macro:0000000000000000 .Ldebug_macro34
C:\Users\liukai\AppData\Local\Temp\ccZI6e3r.s:6425   .debug_macro:0000000000000000 .Ldebug_macro35
C:\Users\liukai\AppData\Local\Temp\ccZI6e3r.s:8538   .debug_str:0000000000006c41 .LASF958
C:\Users\liukai\AppData\Local\Temp\ccZI6e3r.s:7098   .debug_str:0000000000002083 .LASF959
C:\Users\liukai\AppData\Local\Temp\ccZI6e3r.s:8711   .debug_str:0000000000007748 .LASF960
C:\Users\liukai\AppData\Local\Temp\ccZI6e3r.s:8062   .debug_str:0000000000005209 .LASF961
C:\Users\liukai\AppData\Local\Temp\ccZI6e3r.s:7340   .debug_str:0000000000002d0c .LASF962
C:\Users\liukai\AppData\Local\Temp\ccZI6e3r.s:8703   .debug_str:00000000000076e2 .LASF963
C:\Users\liukai\AppData\Local\Temp\ccZI6e3r.s:7810   .debug_str:000000000000450c .LASF0
C:\Users\liukai\AppData\Local\Temp\ccZI6e3r.s:7384   .debug_str:0000000000002f7e .LASF1
C:\Users\liukai\AppData\Local\Temp\ccZI6e3r.s:6628   .debug_str:0000000000000630 .LASF2
C:\Users\liukai\AppData\Local\Temp\ccZI6e3r.s:7038   .debug_str:0000000000001c74 .LASF3
C:\Users\liukai\AppData\Local\Temp\ccZI6e3r.s:7528   .debug_str:000000000000374e .LASF4
C:\Users\liukai\AppData\Local\Temp\ccZI6e3r.s:7440   .debug_str:00000000000032cb .LASF5
C:\Users\liukai\AppData\Local\Temp\ccZI6e3r.s:8210   .debug_str:0000000000005a1c .LASF6
C:\Users\liukai\AppData\Local\Temp\ccZI6e3r.s:7002   .debug_str:0000000000001a2b .LASF7
C:\Users\liukai\AppData\Local\Temp\ccZI6e3r.s:7730   .debug_str:000000000000416e .LASF8
C:\Users\liukai\AppData\Local\Temp\ccZI6e3r.s:8344   .debug_str:0000000000006203 .LASF9
C:\Users\liukai\AppData\Local\Temp\ccZI6e3r.s:7058   .debug_str:0000000000001dcc .LASF10
C:\Users\liukai\AppData\Local\Temp\ccZI6e3r.s:8030   .debug_str:000000000000503a .LASF11
C:\Users\liukai\AppData\Local\Temp\ccZI6e3r.s:7512   .debug_str:00000000000036c0 .LASF12
C:\Users\liukai\AppData\Local\Temp\ccZI6e3r.s:8669   .debug_str:000000000000750b .LASF13
C:\Users\liukai\AppData\Local\Temp\ccZI6e3r.s:6572   .debug_str:0000000000000326 .LASF14
C:\Users\liukai\AppData\Local\Temp\ccZI6e3r.s:8102   .debug_str:00000000000053e9 .LASF15
C:\Users\liukai\AppData\Local\Temp\ccZI6e3r.s:8506   .debug_str:0000000000006ac5 .LASF16
C:\Users\liukai\AppData\Local\Temp\ccZI6e3r.s:7028   .debug_str:0000000000001bf6 .LASF17
C:\Users\liukai\AppData\Local\Temp\ccZI6e3r.s:6588   .debug_str:0000000000000407 .LASF18
C:\Users\liukai\AppData\Local\Temp\ccZI6e3r.s:7100   .debug_str:0000000000002092 .LASF19
C:\Users\liukai\AppData\Local\Temp\ccZI6e3r.s:7040   .debug_str:0000000000001c86 .LASF20
C:\Users\liukai\AppData\Local\Temp\ccZI6e3r.s:6942   .debug_str:0000000000001668 .LASF21
C:\Users\liukai\AppData\Local\Temp\ccZI6e3r.s:8468   .debug_str:00000000000068d2 .LASF22
C:\Users\liukai\AppData\Local\Temp\ccZI6e3r.s:8278   .debug_str:0000000000005dba .LASF23
C:\Users\liukai\AppData\Local\Temp\ccZI6e3r.s:7778   .debug_str:0000000000004382 .LASF24
C:\Users\liukai\AppData\Local\Temp\ccZI6e3r.s:7152   .debug_str:00000000000022f6 .LASF25
C:\Users\liukai\AppData\Local\Temp\ccZI6e3r.s:8438   .debug_str:000000000000677d .LASF26
C:\Users\liukai\AppData\Local\Temp\ccZI6e3r.s:6740   .debug_str:0000000000000bb0 .LASF27
C:\Users\liukai\AppData\Local\Temp\ccZI6e3r.s:6612   .debug_str:000000000000055c .LASF28
C:\Users\liukai\AppData\Local\Temp\ccZI6e3r.s:7708   .debug_str:0000000000003f91 .LASF29
C:\Users\liukai\AppData\Local\Temp\ccZI6e3r.s:7820   .debug_str:000000000000454f .LASF30
C:\Users\liukai\AppData\Local\Temp\ccZI6e3r.s:6888   .debug_str:00000000000013b7 .LASF31
C:\Users\liukai\AppData\Local\Temp\ccZI6e3r.s:6614   .debug_str:0000000000000576 .LASF32
C:\Users\liukai\AppData\Local\Temp\ccZI6e3r.s:8056   .debug_str:00000000000051ca .LASF33
C:\Users\liukai\AppData\Local\Temp\ccZI6e3r.s:7710   .debug_str:0000000000003fb8 .LASF34
C:\Users\liukai\AppData\Local\Temp\ccZI6e3r.s:7724   .debug_str:00000000000040ff .LASF35
C:\Users\liukai\AppData\Local\Temp\ccZI6e3r.s:8630   .debug_str:0000000000007164 .LASF36
C:\Users\liukai\AppData\Local\Temp\ccZI6e3r.s:6910   .debug_str:00000000000014af .LASF37
C:\Users\liukai\AppData\Local\Temp\ccZI6e3r.s:8088   .debug_str:0000000000005326 .LASF38
C:\Users\liukai\AppData\Local\Temp\ccZI6e3r.s:6924   .debug_str:000000000000158d .LASF39
C:\Users\liukai\AppData\Local\Temp\ccZI6e3r.s:8180   .debug_str:00000000000058b1 .LASF40
C:\Users\liukai\AppData\Local\Temp\ccZI6e3r.s:6620   .debug_str:00000000000005bc .LASF41
C:\Users\liukai\AppData\Local\Temp\ccZI6e3r.s:6640   .debug_str:0000000000000676 .LASF42
C:\Users\liukai\AppData\Local\Temp\ccZI6e3r.s:8673   .debug_str:000000000000753e .LASF43
C:\Users\liukai\AppData\Local\Temp\ccZI6e3r.s:7664   .debug_str:0000000000003d7d .LASF44
C:\Users\liukai\AppData\Local\Temp\ccZI6e3r.s:7822   .debug_str:000000000000457c .LASF45
C:\Users\liukai\AppData\Local\Temp\ccZI6e3r.s:7442   .debug_str:00000000000032d6 .LASF46
C:\Users\liukai\AppData\Local\Temp\ccZI6e3r.s:8478   .debug_str:0000000000006952 .LASF47
C:\Users\liukai\AppData\Local\Temp\ccZI6e3r.s:7400   .debug_str:000000000000308f .LASF48
C:\Users\liukai\AppData\Local\Temp\ccZI6e3r.s:8671   .debug_str:000000000000751e .LASF49
C:\Users\liukai\AppData\Local\Temp\ccZI6e3r.s:8564   .debug_str:0000000000006d75 .LASF50
C:\Users\liukai\AppData\Local\Temp\ccZI6e3r.s:8018   .debug_str:0000000000004f8d .LASF51
C:\Users\liukai\AppData\Local\Temp\ccZI6e3r.s:6782   .debug_str:0000000000000dbb .LASF52
C:\Users\liukai\AppData\Local\Temp\ccZI6e3r.s:6840   .debug_str:00000000000010b7 .LASF53
C:\Users\liukai\AppData\Local\Temp\ccZI6e3r.s:8082   .debug_str:00000000000052d9 .LASF54
C:\Users\liukai\AppData\Local\Temp\ccZI6e3r.s:8214   .debug_str:0000000000005a45 .LASF55
C:\Users\liukai\AppData\Local\Temp\ccZI6e3r.s:7494   .debug_str:00000000000035dd .LASF56
C:\Users\liukai\AppData\Local\Temp\ccZI6e3r.s:6872   .debug_str:00000000000012c7 .LASF57
C:\Users\liukai\AppData\Local\Temp\ccZI6e3r.s:8076   .debug_str:00000000000052a4 .LASF58
C:\Users\liukai\AppData\Local\Temp\ccZI6e3r.s:7524   .debug_str:000000000000372b .LASF59
C:\Users\liukai\AppData\Local\Temp\ccZI6e3r.s:6672   .debug_str:00000000000008e1 .LASF60
C:\Users\liukai\AppData\Local\Temp\ccZI6e3r.s:7466   .debug_str:00000000000033f5 .LASF61
C:\Users\liukai\AppData\Local\Temp\ccZI6e3r.s:8530   .debug_str:0000000000006be4 .LASF62
C:\Users\liukai\AppData\Local\Temp\ccZI6e3r.s:7034   .debug_str:0000000000001c41 .LASF63
C:\Users\liukai\AppData\Local\Temp\ccZI6e3r.s:7140   .debug_str:000000000000225c .LASF64
C:\Users\liukai\AppData\Local\Temp\ccZI6e3r.s:7550   .debug_str:0000000000003849 .LASF65
C:\Users\liukai\AppData\Local\Temp\ccZI6e3r.s:8262   .debug_str:0000000000005ce4 .LASF66
C:\Users\liukai\AppData\Local\Temp\ccZI6e3r.s:7406   .debug_str:00000000000030de .LASF67
C:\Users\liukai\AppData\Local\Temp\ccZI6e3r.s:7232   .debug_str:00000000000027bc .LASF68
C:\Users\liukai\AppData\Local\Temp\ccZI6e3r.s:7204   .debug_str:0000000000002600 .LASF69
C:\Users\liukai\AppData\Local\Temp\ccZI6e3r.s:7788   .debug_str:0000000000004406 .LASF70
C:\Users\liukai\AppData\Local\Temp\ccZI6e3r.s:8052   .debug_str:0000000000005174 .LASF71
C:\Users\liukai\AppData\Local\Temp\ccZI6e3r.s:8713   .debug_str:0000000000007765 .LASF72
C:\Users\liukai\AppData\Local\Temp\ccZI6e3r.s:8610   .debug_str:0000000000006fda .LASF73
C:\Users\liukai\AppData\Local\Temp\ccZI6e3r.s:7936   .debug_str:0000000000004aad .LASF74
C:\Users\liukai\AppData\Local\Temp\ccZI6e3r.s:8204   .debug_str:00000000000059d7 .LASF75
C:\Users\liukai\AppData\Local\Temp\ccZI6e3r.s:7280   .debug_str:0000000000002a2b .LASF76
C:\Users\liukai\AppData\Local\Temp\ccZI6e3r.s:8060   .debug_str:00000000000051f0 .LASF77
C:\Users\liukai\AppData\Local\Temp\ccZI6e3r.s:8544   .debug_str:0000000000006c78 .LASF78
C:\Users\liukai\AppData\Local\Temp\ccZI6e3r.s:6544   .debug_str:00000000000001c9 .LASF79
C:\Users\liukai\AppData\Local\Temp\ccZI6e3r.s:7588   .debug_str:0000000000003a21 .LASF80
C:\Users\liukai\AppData\Local\Temp\ccZI6e3r.s:6788   .debug_str:0000000000000e1d .LASF81
C:\Users\liukai\AppData\Local\Temp\ccZI6e3r.s:7840   .debug_str:0000000000004648 .LASF82
C:\Users\liukai\AppData\Local\Temp\ccZI6e3r.s:8402   .debug_str:0000000000006597 .LASF83
C:\Users\liukai\AppData\Local\Temp\ccZI6e3r.s:7574   .debug_str:000000000000392a .LASF84
C:\Users\liukai\AppData\Local\Temp\ccZI6e3r.s:7618   .debug_str:0000000000003b3a .LASF85
C:\Users\liukai\AppData\Local\Temp\ccZI6e3r.s:8638   .debug_str:00000000000071bb .LASF86
C:\Users\liukai\AppData\Local\Temp\ccZI6e3r.s:7662   .debug_str:0000000000003d6b .LASF87
C:\Users\liukai\AppData\Local\Temp\ccZI6e3r.s:6764   .debug_str:0000000000000cc6 .LASF88
C:\Users\liukai\AppData\Local\Temp\ccZI6e3r.s:8540   .debug_str:0000000000006c4c .LASF89
C:\Users\liukai\AppData\Local\Temp\ccZI6e3r.s:6554   .debug_str:0000000000000240 .LASF90
C:\Users\liukai\AppData\Local\Temp\ccZI6e3r.s:8727   .debug_str:00000000000079e5 .LASF91
C:\Users\liukai\AppData\Local\Temp\ccZI6e3r.s:8699   .debug_str:00000000000076a8 .LASF92
C:\Users\liukai\AppData\Local\Temp\ccZI6e3r.s:6886   .debug_str:000000000000139f .LASF93
C:\Users\liukai\AppData\Local\Temp\ccZI6e3r.s:6608   .debug_str:0000000000000533 .LASF94
C:\Users\liukai\AppData\Local\Temp\ccZI6e3r.s:8040   .debug_str:00000000000050dd .LASF95
C:\Users\liukai\AppData\Local\Temp\ccZI6e3r.s:7304   .debug_str:0000000000002b5f .LASF96
C:\Users\liukai\AppData\Local\Temp\ccZI6e3r.s:8420   .debug_str:00000000000066a7 .LASF97
C:\Users\liukai\AppData\Local\Temp\ccZI6e3r.s:7422   .debug_str:00000000000031c4 .LASF98
C:\Users\liukai\AppData\Local\Temp\ccZI6e3r.s:8392   .debug_str:00000000000064ca .LASF99
C:\Users\liukai\AppData\Local\Temp\ccZI6e3r.s:7472   .debug_str:000000000000349f .LASF100
C:\Users\liukai\AppData\Local\Temp\ccZI6e3r.s:7548   .debug_str:0000000000003826 .LASF101
C:\Users\liukai\AppData\Local\Temp\ccZI6e3r.s:7176   .debug_str:0000000000002465 .LASF102
C:\Users\liukai\AppData\Local\Temp\ccZI6e3r.s:8715   .debug_str:000000000000777c .LASF103
C:\Users\liukai\AppData\Local\Temp\ccZI6e3r.s:7450   .debug_str:000000000000333d .LASF104
C:\Users\liukai\AppData\Local\Temp\ccZI6e3r.s:7372   .debug_str:0000000000002ef2 .LASF105
C:\Users\liukai\AppData\Local\Temp\ccZI6e3r.s:7390   .debug_str:000000000000301e .LASF106
C:\Users\liukai\AppData\Local\Temp\ccZI6e3r.s:7956   .debug_str:0000000000004bb1 .LASF107
C:\Users\liukai\AppData\Local\Temp\ccZI6e3r.s:8560   .debug_str:0000000000006d42 .LASF108
C:\Users\liukai\AppData\Local\Temp\ccZI6e3r.s:7210   .debug_str:0000000000002632 .LASF109
C:\Users\liukai\AppData\Local\Temp\ccZI6e3r.s:8132   .debug_str:0000000000005576 .LASF110
C:\Users\liukai\AppData\Local\Temp\ccZI6e3r.s:7336   .debug_str:0000000000002cd9 .LASF111
C:\Users\liukai\AppData\Local\Temp\ccZI6e3r.s:7696   .debug_str:0000000000003eff .LASF112
C:\Users\liukai\AppData\Local\Temp\ccZI6e3r.s:6736   .debug_str:0000000000000b8a .LASF113
C:\Users\liukai\AppData\Local\Temp\ccZI6e3r.s:6944   .debug_str:000000000000167c .LASF114
C:\Users\liukai\AppData\Local\Temp\ccZI6e3r.s:7478   .debug_str:00000000000034ea .LASF115
C:\Users\liukai\AppData\Local\Temp\ccZI6e3r.s:8286   .debug_str:0000000000005e05 .LASF116
C:\Users\liukai\AppData\Local\Temp\ccZI6e3r.s:7416   .debug_str:000000000000317a .LASF117
C:\Users\liukai\AppData\Local\Temp\ccZI6e3r.s:7308   .debug_str:0000000000002b93 .LASF118
C:\Users\liukai\AppData\Local\Temp\ccZI6e3r.s:6638   .debug_str:0000000000000667 .LASF119
C:\Users\liukai\AppData\Local\Temp\ccZI6e3r.s:7010   .debug_str:0000000000001ac6 .LASF120
C:\Users\liukai\AppData\Local\Temp\ccZI6e3r.s:8322   .debug_str:0000000000006086 .LASF121
C:\Users\liukai\AppData\Local\Temp\ccZI6e3r.s:7408   .debug_str:0000000000003106 .LASF122
C:\Users\liukai\AppData\Local\Temp\ccZI6e3r.s:7238   .debug_str:0000000000002824 .LASF123
C:\Users\liukai\AppData\Local\Temp\ccZI6e3r.s:8024   .debug_str:0000000000004fcb .LASF124
C:\Users\liukai\AppData\Local\Temp\ccZI6e3r.s:8012   .debug_str:0000000000004f1e .LASF125
C:\Users\liukai\AppData\Local\Temp\ccZI6e3r.s:6954   .debug_str:00000000000016d7 .LASF126
C:\Users\liukai\AppData\Local\Temp\ccZI6e3r.s:7792   .debug_str:0000000000004441 .LASF127
C:\Users\liukai\AppData\Local\Temp\ccZI6e3r.s:8106   .debug_str:0000000000005412 .LASF128
C:\Users\liukai\AppData\Local\Temp\ccZI6e3r.s:6792   .debug_str:0000000000000e3e .LASF129
C:\Users\liukai\AppData\Local\Temp\ccZI6e3r.s:7056   .debug_str:0000000000001dae .LASF130
C:\Users\liukai\AppData\Local\Temp\ccZI6e3r.s:8456   .debug_str:0000000000006866 .LASF131
C:\Users\liukai\AppData\Local\Temp\ccZI6e3r.s:6860   .debug_str:000000000000122a .LASF132
C:\Users\liukai\AppData\Local\Temp\ccZI6e3r.s:6724   .debug_str:0000000000000b17 .LASF133
C:\Users\liukai\AppData\Local\Temp\ccZI6e3r.s:6770   .debug_str:0000000000000d40 .LASF134
C:\Users\liukai\AppData\Local\Temp\ccZI6e3r.s:6806   .debug_str:0000000000000ef8 .LASF135
C:\Users\liukai\AppData\Local\Temp\ccZI6e3r.s:6930   .debug_str:00000000000015ea .LASF136
C:\Users\liukai\AppData\Local\Temp\ccZI6e3r.s:8028   .debug_str:0000000000005010 .LASF137
C:\Users\liukai\AppData\Local\Temp\ccZI6e3r.s:6812   .debug_str:0000000000000f51 .LASF138
C:\Users\liukai\AppData\Local\Temp\ccZI6e3r.s:8446   .debug_str:0000000000006810 .LASF139
C:\Users\liukai\AppData\Local\Temp\ccZI6e3r.s:8128   .debug_str:0000000000005507 .LASF140
C:\Users\liukai\AppData\Local\Temp\ccZI6e3r.s:7804   .debug_str:00000000000044db .LASF141
C:\Users\liukai\AppData\Local\Temp\ccZI6e3r.s:7436   .debug_str:0000000000003288 .LASF142
C:\Users\liukai\AppData\Local\Temp\ccZI6e3r.s:7782   .debug_str:00000000000043a0 .LASF143
C:\Users\liukai\AppData\Local\Temp\ccZI6e3r.s:7458   .debug_str:0000000000003383 .LASF144
C:\Users\liukai\AppData\Local\Temp\ccZI6e3r.s:7754   .debug_str:000000000000425b .LASF145
C:\Users\liukai\AppData\Local\Temp\ccZI6e3r.s:7598   .debug_str:0000000000003a66 .LASF146
C:\Users\liukai\AppData\Local\Temp\ccZI6e3r.s:7520   .debug_str:00000000000036ff .LASF147
C:\Users\liukai\AppData\Local\Temp\ccZI6e3r.s:7770   .debug_str:0000000000004341 .LASF148
C:\Users\liukai\AppData\Local\Temp\ccZI6e3r.s:7752   .debug_str:0000000000004244 .LASF149
C:\Users\liukai\AppData\Local\Temp\ccZI6e3r.s:6968   .debug_str:0000000000001795 .LASF150
C:\Users\liukai\AppData\Local\Temp\ccZI6e3r.s:6934   .debug_str:0000000000001613 .LASF151
C:\Users\liukai\AppData\Local\Temp\ccZI6e3r.s:7046   .debug_str:0000000000001cf7 .LASF152
C:\Users\liukai\AppData\Local\Temp\ccZI6e3r.s:6972   .debug_str:00000000000017bb .LASF153
C:\Users\liukai\AppData\Local\Temp\ccZI6e3r.s:7786   .debug_str:00000000000043cf .LASF154
C:\Users\liukai\AppData\Local\Temp\ccZI6e3r.s:8556   .debug_str:0000000000006cf2 .LASF155
C:\Users\liukai\AppData\Local\Temp\ccZI6e3r.s:7180   .debug_str:000000000000248d .LASF156
C:\Users\liukai\AppData\Local\Temp\ccZI6e3r.s:7902   .debug_str:0000000000004924 .LASF157
C:\Users\liukai\AppData\Local\Temp\ccZI6e3r.s:6618   .debug_str:00000000000005a7 .LASF158
C:\Users\liukai\AppData\Local\Temp\ccZI6e3r.s:7418   .debug_str:0000000000003193 .LASF159
C:\Users\liukai\AppData\Local\Temp\ccZI6e3r.s:7000   .debug_str:0000000000001a13 .LASF160
C:\Users\liukai\AppData\Local\Temp\ccZI6e3r.s:8701   .debug_str:00000000000076ce .LASF161
C:\Users\liukai\AppData\Local\Temp\ccZI6e3r.s:8268   .debug_str:0000000000005d5c .LASF162
C:\Users\liukai\AppData\Local\Temp\ccZI6e3r.s:7966   .debug_str:0000000000004ca9 .LASF163
C:\Users\liukai\AppData\Local\Temp\ccZI6e3r.s:8677   .debug_str:000000000000757b .LASF164
C:\Users\liukai\AppData\Local\Temp\ccZI6e3r.s:7508   .debug_str:000000000000369d .LASF165
C:\Users\liukai\AppData\Local\Temp\ccZI6e3r.s:6592   .debug_str:000000000000042b .LASF166
C:\Users\liukai\AppData\Local\Temp\ccZI6e3r.s:8372   .debug_str:00000000000063fa .LASF167
C:\Users\liukai\AppData\Local\Temp\ccZI6e3r.s:7328   .debug_str:0000000000002c69 .LASF168
C:\Users\liukai\AppData\Local\Temp\ccZI6e3r.s:8190   .debug_str:000000000000591c .LASF169
C:\Users\liukai\AppData\Local\Temp\ccZI6e3r.s:7980   .debug_str:0000000000004d58 .LASF170
C:\Users\liukai\AppData\Local\Temp\ccZI6e3r.s:8681   .debug_str:00000000000075aa .LASF171
C:\Users\liukai\AppData\Local\Temp\ccZI6e3r.s:7192   .debug_str:000000000000253d .LASF172
C:\Users\liukai\AppData\Local\Temp\ccZI6e3r.s:8350   .debug_str:0000000000006258 .LASF173
C:\Users\liukai\AppData\Local\Temp\ccZI6e3r.s:8238   .debug_str:0000000000005b95 .LASF174
C:\Users\liukai\AppData\Local\Temp\ccZI6e3r.s:7918   .debug_str:00000000000049f3 .LASF175
C:\Users\liukai\AppData\Local\Temp\ccZI6e3r.s:8683   .debug_str:00000000000075f3 .LASF176
C:\Users\liukai\AppData\Local\Temp\ccZI6e3r.s:7068   .debug_str:0000000000001e7c .LASF177
C:\Users\liukai\AppData\Local\Temp\ccZI6e3r.s:8216   .debug_str:0000000000005a6d .LASF178
C:\Users\liukai\AppData\Local\Temp\ccZI6e3r.s:7094   .debug_str:000000000000205c .LASF179
C:\Users\liukai\AppData\Local\Temp\ccZI6e3r.s:6950   .debug_str:00000000000016b4 .LASF180
C:\Users\liukai\AppData\Local\Temp\ccZI6e3r.s:6656   .debug_str:00000000000007e8 .LASF181
C:\Users\liukai\AppData\Local\Temp\ccZI6e3r.s:7446   .debug_str:0000000000003307 .LASF182
C:\Users\liukai\AppData\Local\Temp\ccZI6e3r.s:7828   .debug_str:00000000000045b9 .LASF183
C:\Users\liukai\AppData\Local\Temp\ccZI6e3r.s:8528   .debug_str:0000000000006baa .LASF184
C:\Users\liukai\AppData\Local\Temp\ccZI6e3r.s:8612   .debug_str:0000000000006ff3 .LASF185
C:\Users\liukai\AppData\Local\Temp\ccZI6e3r.s:6916   .debug_str:00000000000014f0 .LASF186
C:\Users\liukai\AppData\Local\Temp\ccZI6e3r.s:8002   .debug_str:0000000000004e8a .LASF187
C:\Users\liukai\AppData\Local\Temp\ccZI6e3r.s:7286   .debug_str:0000000000002a90 .LASF188
C:\Users\liukai\AppData\Local\Temp\ccZI6e3r.s:7612   .debug_str:0000000000003b0f .LASF189
C:\Users\liukai\AppData\Local\Temp\ccZI6e3r.s:7486   .debug_str:0000000000003560 .LASF190
C:\Users\liukai\AppData\Local\Temp\ccZI6e3r.s:7982   .debug_str:0000000000004d9d .LASF191
C:\Users\liukai\AppData\Local\Temp\ccZI6e3r.s:6702   .debug_str:0000000000000a41 .LASF192
C:\Users\liukai\AppData\Local\Temp\ccZI6e3r.s:7892   .debug_str:00000000000048bf .LASF193
C:\Users\liukai\AppData\Local\Temp\ccZI6e3r.s:6906   .debug_str:0000000000001482 .LASF194
C:\Users\liukai\AppData\Local\Temp\ccZI6e3r.s:6688   .debug_str:00000000000009a5 .LASF195
C:\Users\liukai\AppData\Local\Temp\ccZI6e3r.s:6624   .debug_str:00000000000005fe .LASF196
C:\Users\liukai\AppData\Local\Temp\ccZI6e3r.s:7960   .debug_str:0000000000004c1c .LASF197
C:\Users\liukai\AppData\Local\Temp\ccZI6e3r.s:6682   .debug_str:0000000000000945 .LASF198
C:\Users\liukai\AppData\Local\Temp\ccZI6e3r.s:7042   .debug_str:0000000000001c99 .LASF199
C:\Users\liukai\AppData\Local\Temp\ccZI6e3r.s:6988   .debug_str:0000000000001950 .LASF200
C:\Users\liukai\AppData\Local\Temp\ccZI6e3r.s:8448   .debug_str:0000000000006824 .LASF201
C:\Users\liukai\AppData\Local\Temp\ccZI6e3r.s:7600   .debug_str:0000000000003a76 .LASF202
C:\Users\liukai\AppData\Local\Temp\ccZI6e3r.s:7282   .debug_str:0000000000002a4e .LASF203
C:\Users\liukai\AppData\Local\Temp\ccZI6e3r.s:8582   .debug_str:0000000000006e52 .LASF204
C:\Users\liukai\AppData\Local\Temp\ccZI6e3r.s:8550   .debug_str:0000000000006cb2 .LASF205
C:\Users\liukai\AppData\Local\Temp\ccZI6e3r.s:6760   .debug_str:0000000000000c92 .LASF206
C:\Users\liukai\AppData\Local\Temp\ccZI6e3r.s:6716   .debug_str:0000000000000acd .LASF207
C:\Users\liukai\AppData\Local\Temp\ccZI6e3r.s:7644   .debug_str:0000000000003cb5 .LASF208
C:\Users\liukai\AppData\Local\Temp\ccZI6e3r.s:7026   .debug_str:0000000000001bdd .LASF209
C:\Users\liukai\AppData\Local\Temp\ccZI6e3r.s:6564   .debug_str:00000000000002c2 .LASF210
C:\Users\liukai\AppData\Local\Temp\ccZI6e3r.s:8036   .debug_str:0000000000005098 .LASF211
C:\Users\liukai\AppData\Local\Temp\ccZI6e3r.s:7540   .debug_str:00000000000037b6 .LASF212
C:\Users\liukai\AppData\Local\Temp\ccZI6e3r.s:8290   .debug_str:0000000000005e30 .LASF213
C:\Users\liukai\AppData\Local\Temp\ccZI6e3r.s:8592   .debug_str:0000000000006ee0 .LASF214
C:\Users\liukai\AppData\Local\Temp\ccZI6e3r.s:7768   .debug_str:000000000000432a .LASF215
C:\Users\liukai\AppData\Local\Temp\ccZI6e3r.s:6534   .debug_str:0000000000000174 .LASF216
C:\Users\liukai\AppData\Local\Temp\ccZI6e3r.s:6762   .debug_str:0000000000000cac .LASF217
C:\Users\liukai\AppData\Local\Temp\ccZI6e3r.s:8410   .debug_str:000000000000660f .LASF218
C:\Users\liukai\AppData\Local\Temp\ccZI6e3r.s:7954   .debug_str:0000000000004b9f .LASF219
C:\Users\liukai\AppData\Local\Temp\ccZI6e3r.s:6880   .debug_str:0000000000001320 .LASF220
C:\Users\liukai\AppData\Local\Temp\ccZI6e3r.s:6512   .debug_str:000000000000004e .LASF221
C:\Users\liukai\AppData\Local\Temp\ccZI6e3r.s:7214   .debug_str:0000000000002691 .LASF222
C:\Users\liukai\AppData\Local\Temp\ccZI6e3r.s:7802   .debug_str:00000000000044c0 .LASF223
C:\Users\liukai\AppData\Local\Temp\ccZI6e3r.s:8124   .debug_str:00000000000054e7 .LASF224
C:\Users\liukai\AppData\Local\Temp\ccZI6e3r.s:8476   .debug_str:0000000000006913 .LASF225
C:\Users\liukai\AppData\Local\Temp\ccZI6e3r.s:7120   .debug_str:000000000000215e .LASF226
C:\Users\liukai\AppData\Local\Temp\ccZI6e3r.s:7796   .debug_str:0000000000004464 .LASF227
C:\Users\liukai\AppData\Local\Temp\ccZI6e3r.s:8254   .debug_str:0000000000005c57 .LASF228
C:\Users\liukai\AppData\Local\Temp\ccZI6e3r.s:7570   .debug_str:0000000000003904 .LASF229
C:\Users\liukai\AppData\Local\Temp\ccZI6e3r.s:8026   .debug_str:0000000000004ff6 .LASF230
C:\Users\liukai\AppData\Local\Temp\ccZI6e3r.s:6644   .debug_str:00000000000006bc .LASF231
C:\Users\liukai\AppData\Local\Temp\ccZI6e3r.s:8636   .debug_str:00000000000071a4 .LASF232
C:\Users\liukai\AppData\Local\Temp\ccZI6e3r.s:8092   .debug_str:0000000000005369 .LASF233
C:\Users\liukai\AppData\Local\Temp\ccZI6e3r.s:7860   .debug_str:0000000000004753 .LASF234
C:\Users\liukai\AppData\Local\Temp\ccZI6e3r.s:7554   .debug_str:0000000000003871 .LASF235
C:\Users\liukai\AppData\Local\Temp\ccZI6e3r.s:7404   .debug_str:00000000000030c6 .LASF236
C:\Users\liukai\AppData\Local\Temp\ccZI6e3r.s:7290   .debug_str:0000000000002ac4 .LASF237
C:\Users\liukai\AppData\Local\Temp\ccZI6e3r.s:6862   .debug_str:0000000000001252 .LASF238
C:\Users\liukai\AppData\Local\Temp\ccZI6e3r.s:7766   .debug_str:00000000000042ec .LASF239
C:\Users\liukai\AppData\Local\Temp\ccZI6e3r.s:8008   .debug_str:0000000000004ed1 .LASF240
C:\Users\liukai\AppData\Local\Temp\ccZI6e3r.s:8228   .debug_str:0000000000005b1a .LASF241
C:\Users\liukai\AppData\Local\Temp\ccZI6e3r.s:7024   .debug_str:0000000000001b98 .LASF242
C:\Users\liukai\AppData\Local\Temp\ccZI6e3r.s:7518   .debug_str:00000000000036e7 .LASF243
C:\Users\liukai\AppData\Local\Temp\ccZI6e3r.s:6832   .debug_str:000000000000102d .LASF244
C:\Users\liukai\AppData\Local\Temp\ccZI6e3r.s:6866   .debug_str:0000000000001276 .LASF245
C:\Users\liukai\AppData\Local\Temp\ccZI6e3r.s:7498   .debug_str:0000000000003618 .LASF246
C:\Users\liukai\AppData\Local\Temp\ccZI6e3r.s:6582   .debug_str:000000000000039e .LASF247
C:\Users\liukai\AppData\Local\Temp\ccZI6e3r.s:7978   .debug_str:0000000000004d3c .LASF248
C:\Users\liukai\AppData\Local\Temp\ccZI6e3r.s:7448   .debug_str:000000000000331f .LASF249
C:\Users\liukai\AppData\Local\Temp\ccZI6e3r.s:8342   .debug_str:00000000000061ea .LASF250
C:\Users\liukai\AppData\Local\Temp\ccZI6e3r.s:6786   .debug_str:0000000000000e02 .LASF251
C:\Users\liukai\AppData\Local\Temp\ccZI6e3r.s:6626   .debug_str:0000000000000616 .LASF252
C:\Users\liukai\AppData\Local\Temp\ccZI6e3r.s:7930   .debug_str:0000000000004a49 .LASF253
C:\Users\liukai\AppData\Local\Temp\ccZI6e3r.s:8194   .debug_str:0000000000005966 .LASF254
C:\Users\liukai\AppData\Local\Temp\ccZI6e3r.s:6584   .debug_str:00000000000003b0 .LASF255
C:\Users\liukai\AppData\Local\Temp\ccZI6e3r.s:7964   .debug_str:0000000000004c63 .LASF256
C:\Users\liukai\AppData\Local\Temp\ccZI6e3r.s:6898   .debug_str:0000000000001437 .LASF257
C:\Users\liukai\AppData\Local\Temp\ccZI6e3r.s:7322   .debug_str:0000000000002c1b .LASF258
C:\Users\liukai\AppData\Local\Temp\ccZI6e3r.s:7952   .debug_str:0000000000004b84 .LASF259
C:\Users\liukai\AppData\Local\Temp\ccZI6e3r.s:7904   .debug_str:0000000000004962 .LASF260
C:\Users\liukai\AppData\Local\Temp\ccZI6e3r.s:7162   .debug_str:0000000000002389 .LASF261
C:\Users\liukai\AppData\Local\Temp\ccZI6e3r.s:7454   .debug_str:0000000000003364 .LASF262
C:\Users\liukai\AppData\Local\Temp\ccZI6e3r.s:6606   .debug_str:000000000000051d .LASF263
C:\Users\liukai\AppData\Local\Temp\ccZI6e3r.s:7288   .debug_str:0000000000002aa8 .LASF264
C:\Users\liukai\AppData\Local\Temp\ccZI6e3r.s:6774   .debug_str:0000000000000d69 .LASF265
C:\Users\liukai\AppData\Local\Temp\ccZI6e3r.s:6558   .debug_str:0000000000000274 .LASF266
C:\Users\liukai\AppData\Local\Temp\ccZI6e3r.s:8046   .debug_str:000000000000511f .LASF267
C:\Users\liukai\AppData\Local\Temp\ccZI6e3r.s:7312   .debug_str:0000000000002bca .LASF268
C:\Users\liukai\AppData\Local\Temp\ccZI6e3r.s:6616   .debug_str:0000000000000591 .LASF269
C:\Users\liukai\AppData\Local\Temp\ccZI6e3r.s:8368   .debug_str:00000000000063d2 .LASF270
C:\Users\liukai\AppData\Local\Temp\ccZI6e3r.s:6958   .debug_str:000000000000170a .LASF271
C:\Users\liukai\AppData\Local\Temp\ccZI6e3r.s:8552   .debug_str:0000000000006cc3 .LASF272
C:\Users\liukai\AppData\Local\Temp\ccZI6e3r.s:7350   .debug_str:0000000000002d7b .LASF273
C:\Users\liukai\AppData\Local\Temp\ccZI6e3r.s:7846   .debug_str:00000000000046d4 .LASF274
C:\Users\liukai\AppData\Local\Temp\ccZI6e3r.s:6870   .debug_str:00000000000012ac .LASF275
C:\Users\liukai\AppData\Local\Temp\ccZI6e3r.s:7052   .debug_str:0000000000001d58 .LASF276
C:\Users\liukai\AppData\Local\Temp\ccZI6e3r.s:8284   .debug_str:0000000000005dec .LASF277
C:\Users\liukai\AppData\Local\Temp\ccZI6e3r.s:7050   .debug_str:0000000000001d1e .LASF278
C:\Users\liukai\AppData\Local\Temp\ccZI6e3r.s:6514   .debug_str:000000000000006c .LASF279
C:\Users\liukai\AppData\Local\Temp\ccZI6e3r.s:8266   .debug_str:0000000000005d17 .LASF280
C:\Users\liukai\AppData\Local\Temp\ccZI6e3r.s:8264   .debug_str:0000000000005d02 .LASF281
C:\Users\liukai\AppData\Local\Temp\ccZI6e3r.s:7370   .debug_str:0000000000002edb .LASF282
C:\Users\liukai\AppData\Local\Temp\ccZI6e3r.s:8534   .debug_str:0000000000006c22 .LASF283
C:\Users\liukai\AppData\Local\Temp\ccZI6e3r.s:6742   .debug_str:0000000000000bca .LASF284
C:\Users\liukai\AppData\Local\Temp\ccZI6e3r.s:6526   .debug_str:0000000000000123 .LASF285
C:\Users\liukai\AppData\Local\Temp\ccZI6e3r.s:6894   .debug_str:0000000000001404 .LASF286
C:\Users\liukai\AppData\Local\Temp\ccZI6e3r.s:7862   .debug_str:000000000000476e .LASF287
C:\Users\liukai\AppData\Local\Temp\ccZI6e3r.s:7500   .debug_str:0000000000003630 .LASF288
C:\Users\liukai\AppData\Local\Temp\ccZI6e3r.s:7004   .debug_str:0000000000001a41 .LASF289
C:\Users\liukai\AppData\Local\Temp\ccZI6e3r.s:6520   .debug_str:00000000000000ba .LASF290
C:\Users\liukai\AppData\Local\Temp\ccZI6e3r.s:7248   .debug_str:0000000000002878 .LASF291
C:\Users\liukai\AppData\Local\Temp\ccZI6e3r.s:8224   .debug_str:0000000000005af7 .LASF292
C:\Users\liukai\AppData\Local\Temp\ccZI6e3r.s:7310   .debug_str:0000000000002bac .LASF293
C:\Users\liukai\AppData\Local\Temp\ccZI6e3r.s:7636   .debug_str:0000000000003c49 .LASF294
C:\Users\liukai\AppData\Local\Temp\ccZI6e3r.s:7268   .debug_str:0000000000002991 .LASF295
C:\Users\liukai\AppData\Local\Temp\ccZI6e3r.s:6800   .debug_str:0000000000000eb6 .LASF296
C:\Users\liukai\AppData\Local\Temp\ccZI6e3r.s:7426   .debug_str:000000000000323a .LASF297
C:\Users\liukai\AppData\Local\Temp\ccZI6e3r.s:7122   .debug_str:000000000000219d .LASF298
C:\Users\liukai\AppData\Local\Temp\ccZI6e3r.s:7670   .debug_str:0000000000003dbf .LASF299
C:\Users\liukai\AppData\Local\Temp\ccZI6e3r.s:8432   .debug_str:0000000000006750 .LASF300
C:\Users\liukai\AppData\Local\Temp\ccZI6e3r.s:7808   .debug_str:00000000000044f5 .LASF301
C:\Users\liukai\AppData\Local\Temp\ccZI6e3r.s:6510   .debug_str:0000000000000044 .LASF302
C:\Users\liukai\AppData\Local\Temp\ccZI6e3r.s:8584   .debug_str:0000000000006e68 .LASF303
C:\Users\liukai\AppData\Local\Temp\ccZI6e3r.s:7008   .debug_str:0000000000001ab8 .LASF304
C:\Users\liukai\AppData\Local\Temp\ccZI6e3r.s:6964   .debug_str:0000000000001755 .LASF305
C:\Users\liukai\AppData\Local\Temp\ccZI6e3r.s:6576   .debug_str:0000000000000341 .LASF306
C:\Users\liukai\AppData\Local\Temp\ccZI6e3r.s:8116   .debug_str:0000000000005466 .LASF307
C:\Users\liukai\AppData\Local\Temp\ccZI6e3r.s:6516   .debug_str:0000000000000087 .LASF308
C:\Users\liukai\AppData\Local\Temp\ccZI6e3r.s:6754   .debug_str:0000000000000c44 .LASF309
C:\Users\liukai\AppData\Local\Temp\ccZI6e3r.s:6530   .debug_str:000000000000015f .LASF310
C:\Users\liukai\AppData\Local\Temp\ccZI6e3r.s:7526   .debug_str:0000000000003743 .LASF311
C:\Users\liukai\AppData\Local\Temp\ccZI6e3r.s:8198   .debug_str:00000000000059b0 .LASF312
C:\Users\liukai\AppData\Local\Temp\ccZI6e3r.s:8596   .debug_str:0000000000006f33 .LASF313
C:\Users\liukai\AppData\Local\Temp\ccZI6e3r.s:7292   .debug_str:0000000000002ade .LASF314
C:\Users\liukai\AppData\Local\Temp\ccZI6e3r.s:7134   .debug_str:0000000000002223 .LASF315
C:\Users\liukai\AppData\Local\Temp\ccZI6e3r.s:8428   .debug_str:0000000000006729 .LASF316
C:\Users\liukai\AppData\Local\Temp\ccZI6e3r.s:8318   .debug_str:000000000000604c .LASF317
C:\Users\liukai\AppData\Local\Temp\ccZI6e3r.s:7888   .debug_str:0000000000004888 .LASF318
C:\Users\liukai\AppData\Local\Temp\ccZI6e3r.s:8164   .debug_str:00000000000057ef .LASF319
C:\Users\liukai\AppData\Local\Temp\ccZI6e3r.s:8695   .debug_str:000000000000768d .LASF320
C:\Users\liukai\AppData\Local\Temp\ccZI6e3r.s:8648   .debug_str:0000000000007224 .LASF321
C:\Users\liukai\AppData\Local\Temp\ccZI6e3r.s:7276   .debug_str:00000000000029e3 .LASF322
C:\Users\liukai\AppData\Local\Temp\ccZI6e3r.s:6830   .debug_str:000000000000101f .LASF323
C:\Users\liukai\AppData\Local\Temp\ccZI6e3r.s:8650   .debug_str:000000000000722e .LASF324
C:\Users\liukai\AppData\Local\Temp\ccZI6e3r.s:7586   .debug_str:0000000000003a0b .LASF329
C:\Users\liukai\AppData\Local\Temp\ccZI6e3r.s:7346   .debug_str:0000000000002d59 .LASF330
C:\Users\liukai\AppData\Local\Temp\ccZI6e3r.s:6962   .debug_str:0000000000001748 .LASF331
C:\Users\liukai\AppData\Local\Temp\ccZI6e3r.s:7748   .debug_str:00000000000041f5 .LASF332
C:\Users\liukai\AppData\Local\Temp\ccZI6e3r.s:8032   .debug_str:000000000000504d .LASF333
C:\Users\liukai\AppData\Local\Temp\ccZI6e3r.s:6822   .debug_str:0000000000000fa1 .LASF334
C:\Users\liukai\AppData\Local\Temp\ccZI6e3r.s:8422   .debug_str:00000000000066bf .LASF335
C:\Users\liukai\AppData\Local\Temp\ccZI6e3r.s:8486   .debug_str:00000000000069c3 .LASF336
C:\Users\liukai\AppData\Local\Temp\ccZI6e3r.s:7484   .debug_str:000000000000354e .LASF337
C:\Users\liukai\AppData\Local\Temp\ccZI6e3r.s:7444   .debug_str:00000000000032f9 .LASF338
C:\Users\liukai\AppData\Local\Temp\ccZI6e3r.s:8526   .debug_str:0000000000006b9a .LASF339
C:\Users\liukai\AppData\Local\Temp\ccZI6e3r.s:8697   .debug_str:0000000000007698 .LASF340
C:\Users\liukai\AppData\Local\Temp\ccZI6e3r.s:6926   .debug_str:00000000000015af .LASF341
C:\Users\liukai\AppData\Local\Temp\ccZI6e3r.s:7380   .debug_str:0000000000002f46 .LASF342
C:\Users\liukai\AppData\Local\Temp\ccZI6e3r.s:7700   .debug_str:0000000000003f44 .LASF343
C:\Users\liukai\AppData\Local\Temp\ccZI6e3r.s:7864   .debug_str:000000000000478c .LASF344
C:\Users\liukai\AppData\Local\Temp\ccZI6e3r.s:7676   .debug_str:0000000000003df8 .LASF345
C:\Users\liukai\AppData\Local\Temp\ccZI6e3r.s:8064   .debug_str:0000000000005215 .LASF346
C:\Users\liukai\AppData\Local\Temp\ccZI6e3r.s:7896   .debug_str:00000000000048e2 .LASF347
C:\Users\liukai\AppData\Local\Temp\ccZI6e3r.s:6956   .debug_str:00000000000016f4 .LASF348
C:\Users\liukai\AppData\Local\Temp\ccZI6e3r.s:7274   .debug_str:00000000000029d2 .LASF349
C:\Users\liukai\AppData\Local\Temp\ccZI6e3r.s:6602   .debug_str:00000000000004a3 .LASF350
C:\Users\liukai\AppData\Local\Temp\ccZI6e3r.s:6508   .debug_str:0000000000000033 .LASF351
C:\Users\liukai\AppData\Local\Temp\ccZI6e3r.s:8408   .debug_str:00000000000065ff .LASF352
C:\Users\liukai\AppData\Local\Temp\ccZI6e3r.s:7536   .debug_str:0000000000003798 .LASF353
C:\Users\liukai\AppData\Local\Temp\ccZI6e3r.s:7704   .debug_str:0000000000003f5d .LASF354
C:\Users\liukai\AppData\Local\Temp\ccZI6e3r.s:8108   .debug_str:0000000000005430 .LASF355
C:\Users\liukai\AppData\Local\Temp\ccZI6e3r.s:8376   .debug_str:0000000000006419 .LASF356
C:\Users\liukai\AppData\Local\Temp\ccZI6e3r.s:7428   .debug_str:0000000000003256 .LASF357
C:\Users\liukai\AppData\Local\Temp\ccZI6e3r.s:7178   .debug_str:0000000000002478 .LASF358
C:\Users\liukai\AppData\Local\Temp\ccZI6e3r.s:7654   .debug_str:0000000000003d16 .LASF359
C:\Users\liukai\AppData\Local\Temp\ccZI6e3r.s:6896   .debug_str:0000000000001422 .LASF360
C:\Users\liukai\AppData\Local\Temp\ccZI6e3r.s:7816   .debug_str:000000000000452f .LASF361
C:\Users\liukai\AppData\Local\Temp\ccZI6e3r.s:6868   .debug_str:0000000000001291 .LASF362
C:\Users\liukai\AppData\Local\Temp\ccZI6e3r.s:7362   .debug_str:0000000000002e8d .LASF363
C:\Users\liukai\AppData\Local\Temp\ccZI6e3r.s:7686   .debug_str:0000000000003ebb .LASF364
C:\Users\liukai\AppData\Local\Temp\ccZI6e3r.s:7998   .debug_str:0000000000004e6b .LASF365
C:\Users\liukai\AppData\Local\Temp\ccZI6e3r.s:8516   .debug_str:0000000000006b20 .LASF366
C:\Users\liukai\AppData\Local\Temp\ccZI6e3r.s:8532   .debug_str:0000000000006c06 .LASF367
C:\Users\liukai\AppData\Local\Temp\ccZI6e3r.s:7434   .debug_str:0000000000003281 .LASF368
C:\Users\liukai\AppData\Local\Temp\ccZI6e3r.s:8304   .debug_str:0000000000005f99 .LASF369
C:\Users\liukai\AppData\Local\Temp\ccZI6e3r.s:8226   .debug_str:0000000000005b14 .LASF371
C:\Users\liukai\AppData\Local\Temp\ccZI6e3r.s:8685   .debug_str:0000000000007603 .LASF372
C:\Users\liukai\AppData\Local\Temp\ccZI6e3r.s:7942   .debug_str:0000000000004af6 .LASF373
C:\Users\liukai\AppData\Local\Temp\ccZI6e3r.s:8444   .debug_str:0000000000006806 .LASF374
C:\Users\liukai\AppData\Local\Temp\ccZI6e3r.s:7514   .debug_str:00000000000036d3 .LASF375
C:\Users\liukai\AppData\Local\Temp\ccZI6e3r.s:8258   .debug_str:0000000000005cb6 .LASF376
C:\Users\liukai\AppData\Local\Temp\ccZI6e3r.s:8654   .debug_str:0000000000007243 .LASF377
C:\Users\liukai\AppData\Local\Temp\ccZI6e3r.s:7542   .debug_str:00000000000037f2 .LASF378
C:\Users\liukai\AppData\Local\Temp\ccZI6e3r.s:7460   .debug_str:00000000000033a4 .LASF379
C:\Users\liukai\AppData\Local\Temp\ccZI6e3r.s:8616   .debug_str:0000000000007048 .LASF380
C:\Users\liukai\AppData\Local\Temp\ccZI6e3r.s:7402   .debug_str:00000000000030b6 .LASF381
C:\Users\liukai\AppData\Local\Temp\ccZI6e3r.s:8594   .debug_str:0000000000006f23 .LASF382
C:\Users\liukai\AppData\Local\Temp\ccZI6e3r.s:6654   .debug_str:00000000000007dc .LASF383
C:\Users\liukai\AppData\Local\Temp\ccZI6e3r.s:7794   .debug_str:0000000000004458 .LASF384
C:\Users\liukai\AppData\Local\Temp\ccZI6e3r.s:8472   .debug_str:00000000000068f3 .LASF385
C:\Users\liukai\AppData\Local\Temp\ccZI6e3r.s:6798   .debug_str:0000000000000ea9 .LASF386
C:\Users\liukai\AppData\Local\Temp\ccZI6e3r.s:8450   .debug_str:000000000000683b .LASF387
C:\Users\liukai\AppData\Local\Temp\ccZI6e3r.s:6952   .debug_str:00000000000016cd .LASF388
C:\Users\liukai\AppData\Local\Temp\ccZI6e3r.s:8418   .debug_str:000000000000669d .LASF389
C:\Users\liukai\AppData\Local\Temp\ccZI6e3r.s:7510   .debug_str:00000000000036b2 .LASF390
C:\Users\liukai\AppData\Local\Temp\ccZI6e3r.s:7216   .debug_str:00000000000026aa .LASF391
C:\Users\liukai\AppData\Local\Temp\ccZI6e3r.s:8330   .debug_str:000000000000610b .LASF392
C:\Users\liukai\AppData\Local\Temp\ccZI6e3r.s:6796   .debug_str:0000000000000e9b .LASF393
C:\Users\liukai\AppData\Local\Temp\ccZI6e3r.s:7920   .debug_str:0000000000004a09 .LASF394
C:\Users\liukai\AppData\Local\Temp\ccZI6e3r.s:6756   .debug_str:0000000000000c5c .LASF395
C:\Users\liukai\AppData\Local\Temp\ccZI6e3r.s:8504   .debug_str:0000000000006ab3 .LASF396
C:\Users\liukai\AppData\Local\Temp\ccZI6e3r.s:6976   .debug_str:00000000000017de .LASF397
C:\Users\liukai\AppData\Local\Temp\ccZI6e3r.s:7190   .debug_str:000000000000252a .LASF398
C:\Users\liukai\AppData\Local\Temp\ccZI6e3r.s:7330   .debug_str:0000000000002cab .LASF399
C:\Users\liukai\AppData\Local\Temp\ccZI6e3r.s:8270   .debug_str:0000000000005d6b .LASF400
C:\Users\liukai\AppData\Local\Temp\ccZI6e3r.s:7552   .debug_str:000000000000385d .LASF401
C:\Users\liukai\AppData\Local\Temp\ccZI6e3r.s:7534   .debug_str:0000000000003785 .LASF402
C:\Users\liukai\AppData\Local\Temp\ccZI6e3r.s:6550   .debug_str:0000000000000226 .LASF403
C:\Users\liukai\AppData\Local\Temp\ccZI6e3r.s:6856   .debug_str:000000000000120a .LASF404
C:\Users\liukai\AppData\Local\Temp\ccZI6e3r.s:8640   .debug_str:00000000000071ce .LASF405
C:\Users\liukai\AppData\Local\Temp\ccZI6e3r.s:6920   .debug_str:0000000000001567 .LASF406
C:\Users\liukai\AppData\Local\Temp\ccZI6e3r.s:8390   .debug_str:00000000000064b6 .LASF407
C:\Users\liukai\AppData\Local\Temp\ccZI6e3r.s:8086   .debug_str:0000000000005312 .LASF408
C:\Users\liukai\AppData\Local\Temp\ccZI6e3r.s:8078   .debug_str:00000000000052bc .LASF409
C:\Users\liukai\AppData\Local\Temp\ccZI6e3r.s:6828   .debug_str:000000000000100b .LASF410
C:\Users\liukai\AppData\Local\Temp\ccZI6e3r.s:8122   .debug_str:00000000000054d2 .LASF411
C:\Users\liukai\AppData\Local\Temp\ccZI6e3r.s:8614   .debug_str:000000000000702f .LASF412
C:\Users\liukai\AppData\Local\Temp\ccZI6e3r.s:7986   .debug_str:0000000000004db3 .LASF413
C:\Users\liukai\AppData\Local\Temp\ccZI6e3r.s:7368   .debug_str:0000000000002ec1 .LASF414
C:\Users\liukai\AppData\Local\Temp\ccZI6e3r.s:7338   .debug_str:0000000000002cf2 .LASF415
C:\Users\liukai\AppData\Local\Temp\ccZI6e3r.s:6960   .debug_str:0000000000001730 .LASF416
C:\Users\liukai\AppData\Local\Temp\ccZI6e3r.s:7784   .debug_str:00000000000043b6 .LASF417
C:\Users\liukai\AppData\Local\Temp\ccZI6e3r.s:6722   .debug_str:0000000000000afe .LASF418
C:\Users\liukai\AppData\Local\Temp\ccZI6e3r.s:7090   .debug_str:0000000000002037 .LASF419
C:\Users\liukai\AppData\Local\Temp\ccZI6e3r.s:8693   .debug_str:000000000000766c .LASF420
C:\Users\liukai\AppData\Local\Temp\ccZI6e3r.s:8334   .debug_str:0000000000006178 .LASF421
C:\Users\liukai\AppData\Local\Temp\ccZI6e3r.s:6904   .debug_str:0000000000001464 .LASF422
C:\Users\liukai\AppData\Local\Temp\ccZI6e3r.s:8004   .debug_str:0000000000004ea0 .LASF423
C:\Users\liukai\AppData\Local\Temp\ccZI6e3r.s:6676   .debug_str:000000000000091b .LASF424
C:\Users\liukai\AppData\Local\Temp\ccZI6e3r.s:8608   .debug_str:0000000000006fc0 .LASF425
C:\Users\liukai\AppData\Local\Temp\ccZI6e3r.s:6548   .debug_str:00000000000001fd .LASF426
C:\Users\liukai\AppData\Local\Temp\ccZI6e3r.s:6784   .debug_str:0000000000000dde .LASF427
C:\Users\liukai\AppData\Local\Temp\ccZI6e3r.s:8208   .debug_str:00000000000059f6 .LASF428
C:\Users\liukai\AppData\Local\Temp\ccZI6e3r.s:7898   .debug_str:00000000000048f7 .LASF429
C:\Users\liukai\AppData\Local\Temp\ccZI6e3r.s:6712   .debug_str:0000000000000aa1 .LASF430
C:\Users\liukai\AppData\Local\Temp\ccZI6e3r.s:7666   .debug_str:0000000000003d9a .LASF431
C:\Users\liukai\AppData\Local\Temp\ccZI6e3r.s:7678   .debug_str:0000000000003e08 .LASF432
C:\Users\liukai\AppData\Local\Temp\ccZI6e3r.s:8689   .debug_str:000000000000762f .LASF433
C:\Users\liukai\AppData\Local\Temp\ccZI6e3r.s:7236   .debug_str:00000000000027fc .LASF434
C:\Users\liukai\AppData\Local\Temp\ccZI6e3r.s:7394   .debug_str:000000000000304d .LASF435
C:\Users\liukai\AppData\Local\Temp\ccZI6e3r.s:7202   .debug_str:00000000000025e6 .LASF436
C:\Users\liukai\AppData\Local\Temp\ccZI6e3r.s:7604   .debug_str:0000000000003ac7 .LASF437
C:\Users\liukai\AppData\Local\Temp\ccZI6e3r.s:7260   .debug_str:0000000000002935 .LASF438
C:\Users\liukai\AppData\Local\Temp\ccZI6e3r.s:7256   .debug_str:00000000000028d7 .LASF439
C:\Users\liukai\AppData\Local\Temp\ccZI6e3r.s:7492   .debug_str:00000000000035b5 .LASF440
C:\Users\liukai\AppData\Local\Temp\ccZI6e3r.s:8340   .debug_str:00000000000061cb .LASF441
C:\Users\liukai\AppData\Local\Temp\ccZI6e3r.s:7738   .debug_str:00000000000041a4 .LASF442
C:\Users\liukai\AppData\Local\Temp\ccZI6e3r.s:8354   .debug_str:0000000000006295 .LASF443
C:\Users\liukai\AppData\Local\Temp\ccZI6e3r.s:6808   .debug_str:0000000000000f18 .LASF444
C:\Users\liukai\AppData\Local\Temp\ccZI6e3r.s:6758   .debug_str:0000000000000c6c .LASF445
C:\Users\liukai\AppData\Local\Temp\ccZI6e3r.s:8050   .debug_str:000000000000514c .LASF446
C:\Users\liukai\AppData\Local\Temp\ccZI6e3r.s:7764   .debug_str:00000000000042c5 .LASF447
C:\Users\liukai\AppData\Local\Temp\ccZI6e3r.s:7076   .debug_str:0000000000001f19 .LASF448
C:\Users\liukai\AppData\Local\Temp\ccZI6e3r.s:7760   .debug_str:0000000000004296 .LASF449
C:\Users\liukai\AppData\Local\Temp\ccZI6e3r.s:7382   .debug_str:0000000000002f55 .LASF450
C:\Users\liukai\AppData\Local\Temp\ccZI6e3r.s:6662   .debug_str:0000000000000819 .LASF451
C:\Users\liukai\AppData\Local\Temp\ccZI6e3r.s:7218   .debug_str:00000000000026b8 .LASF452
C:\Users\liukai\AppData\Local\Temp\ccZI6e3r.s:6834   .debug_str:0000000000001047 .LASF453
C:\Users\liukai\AppData\Local\Temp\ccZI6e3r.s:8687   .debug_str:000000000000760b .LASF454
C:\Users\liukai\AppData\Local\Temp\ccZI6e3r.s:8260   .debug_str:0000000000005cbe .LASF455
C:\Users\liukai\AppData\Local\Temp\ccZI6e3r.s:6890   .debug_str:00000000000013cc .LASF456
C:\Users\liukai\AppData\Local\Temp\ccZI6e3r.s:8522   .debug_str:0000000000006b51 .LASF457
C:\Users\liukai\AppData\Local\Temp\ccZI6e3r.s:8352   .debug_str:000000000000626f .LASF458
C:\Users\liukai\AppData\Local\Temp\ccZI6e3r.s:7200   .debug_str:00000000000025ca .LASF459
C:\Users\liukai\AppData\Local\Temp\ccZI6e3r.s:6984   .debug_str:000000000000191a .LASF460
C:\Users\liukai\AppData\Local\Temp\ccZI6e3r.s:7082   .debug_str:0000000000001f9d .LASF461
C:\Users\liukai\AppData\Local\Temp\ccZI6e3r.s:6598   .debug_str:000000000000046a .LASF462
C:\Users\liukai\AppData\Local\Temp\ccZI6e3r.s:7324   .debug_str:0000000000002c35 .LASF463
C:\Users\liukai\AppData\Local\Temp\ccZI6e3r.s:7154   .debug_str:000000000000230f .LASF464
C:\Users\liukai\AppData\Local\Temp\ccZI6e3r.s:6684   .debug_str:0000000000000980 .LASF465
C:\Users\liukai\AppData\Local\Temp\ccZI6e3r.s:7132   .debug_str:0000000000002204 .LASF466
C:\Users\liukai\AppData\Local\Temp\ccZI6e3r.s:6996   .debug_str:00000000000019bb .LASF467
C:\Users\liukai\AppData\Local\Temp\ccZI6e3r.s:7582   .debug_str:00000000000039d4 .LASF468
C:\Users\liukai\AppData\Local\Temp\ccZI6e3r.s:7622   .debug_str:0000000000003b58 .LASF469
C:\Users\liukai\AppData\Local\Temp\ccZI6e3r.s:8150   .debug_str:00000000000056f8 .LASF470
C:\Users\liukai\AppData\Local\Temp\ccZI6e3r.s:7462   .debug_str:00000000000033ab .LASF471
C:\Users\liukai\AppData\Local\Temp\ccZI6e3r.s:8366   .debug_str:00000000000063ba .LASF472
C:\Users\liukai\AppData\Local\Temp\ccZI6e3r.s:6728   .debug_str:0000000000000b41 .LASF473
C:\Users\liukai\AppData\Local\Temp\ccZI6e3r.s:8512   .debug_str:0000000000006af2 .LASF474
C:\Users\liukai\AppData\Local\Temp\ccZI6e3r.s:8242   .debug_str:0000000000005bc1 .LASF475
C:\Users\liukai\AppData\Local\Temp\ccZI6e3r.s:7756   .debug_str:0000000000004271 .LASF476
C:\Users\liukai\AppData\Local\Temp\ccZI6e3r.s:7378   .debug_str:0000000000002f2e .LASF477
C:\Users\liukai\AppData\Local\Temp\ccZI6e3r.s:8388   .debug_str:000000000000649c .LASF478
C:\Users\liukai\AppData\Local\Temp\ccZI6e3r.s:7130   .debug_str:00000000000021ea .LASF479
C:\Users\liukai\AppData\Local\Temp\ccZI6e3r.s:7992   .debug_str:0000000000004e2e .LASF480
C:\Users\liukai\AppData\Local\Temp\ccZI6e3r.s:6790   .debug_str:0000000000000e2f .LASF483
C:\Users\liukai\AppData\Local\Temp\ccZI6e3r.s:7718   .debug_str:0000000000004012 .LASF484
C:\Users\liukai\AppData\Local\Temp\ccZI6e3r.s:8679   .debug_str:0000000000007595 .LASF485
C:\Users\liukai\AppData\Local\Temp\ccZI6e3r.s:8394   .debug_str:00000000000064df .LASF486
C:\Users\liukai\AppData\Local\Temp\ccZI6e3r.s:8282   .debug_str:0000000000005dd5 .LASF487
C:\Users\liukai\AppData\Local\Temp\ccZI6e3r.s:7198   .debug_str:00000000000025bc .LASF488
C:\Users\liukai\AppData\Local\Temp\ccZI6e3r.s:8288   .debug_str:0000000000005e1a .LASF489
C:\Users\liukai\AppData\Local\Temp\ccZI6e3r.s:6992   .debug_str:00000000000019a1 .LASF490
C:\Users\liukai\AppData\Local\Temp\ccZI6e3r.s:7658   .debug_str:0000000000003d3a .LASF491
C:\Users\liukai\AppData\Local\Temp\ccZI6e3r.s:7774   .debug_str:0000000000004358 .LASF492
C:\Users\liukai\AppData\Local\Temp\ccZI6e3r.s:7938   .debug_str:0000000000004ad4 .LASF493
C:\Users\liukai\AppData\Local\Temp\ccZI6e3r.s:7252   .debug_str:00000000000028ab .LASF494
C:\Users\liukai\AppData\Local\Temp\ccZI6e3r.s:8436   .debug_str:0000000000006769 .LASF495
C:\Users\liukai\AppData\Local\Temp\ccZI6e3r.s:8356   .debug_str:00000000000062b1 .LASF496
C:\Users\liukai\AppData\Local\Temp\ccZI6e3r.s:7858   .debug_str:000000000000473d .LASF498
C:\Users\liukai\AppData\Local\Temp\ccZI6e3r.s:7834   .debug_str:000000000000460b .LASF499
C:\Users\liukai\AppData\Local\Temp\ccZI6e3r.s:7284   .debug_str:0000000000002a68 .LASF500
C:\Users\liukai\AppData\Local\Temp\ccZI6e3r.s:8324   .debug_str:0000000000006096 .LASF501
C:\Users\liukai\AppData\Local\Temp\ccZI6e3r.s:6730   .debug_str:0000000000000b59 .LASF502
C:\Users\liukai\AppData\Local\Temp\ccZI6e3r.s:6804   .debug_str:0000000000000eed .LASF503
C:\Users\liukai\AppData\Local\Temp\ccZI6e3r.s:6802   .debug_str:0000000000000ed7 .LASF504
C:\Users\liukai\AppData\Local\Temp\ccZI6e3r.s:7830   .debug_str:00000000000045f3 .LASF505
C:\Users\liukai\AppData\Local\Temp\ccZI6e3r.s:7850   .debug_str:00000000000046f2 .LASF506
C:\Users\liukai\AppData\Local\Temp\ccZI6e3r.s:6940   .debug_str:000000000000164b .LASF507
C:\Users\liukai\AppData\Local\Temp\ccZI6e3r.s:7872   .debug_str:00000000000047f1 .LASF508
C:\Users\liukai\AppData\Local\Temp\ccZI6e3r.s:7226   .debug_str:0000000000002780 .LASF509
C:\Users\liukai\AppData\Local\Temp\ccZI6e3r.s:6772   .debug_str:0000000000000d5f .LASF510
C:\Users\liukai\AppData\Local\Temp\ccZI6e3r.s:6546   .debug_str:00000000000001e4 .LASF511
C:\Users\liukai\AppData\Local\Temp\ccZI6e3r.s:8346   .debug_str:0000000000006216 .LASF512
C:\Users\liukai\AppData\Local\Temp\ccZI6e3r.s:6744   .debug_str:0000000000000bda .LASF513
C:\Users\liukai\AppData\Local\Temp\ccZI6e3r.s:6874   .debug_str:00000000000012de .LASF514
C:\Users\liukai\AppData\Local\Temp\ccZI6e3r.s:8246   .debug_str:0000000000005be5 .LASF515
C:\Users\liukai\AppData\Local\Temp\ccZI6e3r.s:7886   .debug_str:000000000000487f .LASF516
C:\Users\liukai\AppData\Local\Temp\ccZI6e3r.s:7150   .debug_str:00000000000022e7 .LASF517
C:\Users\liukai\AppData\Local\Temp\ccZI6e3r.s:7482   .debug_str:0000000000003541 .LASF518
C:\Users\liukai\AppData\Local\Temp\ccZI6e3r.s:6878   .debug_str:0000000000001314 .LASF520
C:\Users\liukai\AppData\Local\Temp\ccZI6e3r.s:6680   .debug_str:0000000000000939 .LASF521
C:\Users\liukai\AppData\Local\Temp\ccZI6e3r.s:7922   .debug_str:0000000000004a18 .LASF522
C:\Users\liukai\AppData\Local\Temp\ccZI6e3r.s:6836   .debug_str:0000000000001070 .LASF523
C:\Users\liukai\AppData\Local\Temp\ccZI6e3r.s:7456   .debug_str:0000000000003379 .LASF524
C:\Users\liukai\AppData\Local\Temp\ccZI6e3r.s:6734   .debug_str:0000000000000b81 .LASF525
C:\Users\liukai\AppData\Local\Temp\ccZI6e3r.s:7968   .debug_str:0000000000004cc1 .LASF526
C:\Users\liukai\AppData\Local\Temp\ccZI6e3r.s:7594   .debug_str:0000000000003a53 .LASF527
C:\Users\liukai\AppData\Local\Temp\ccZI6e3r.s:8152   .debug_str:0000000000005710 .LASF528
C:\Users\liukai\AppData\Local\Temp\ccZI6e3r.s:7746   .debug_str:00000000000041e3 .LASF529
C:\Users\liukai\AppData\Local\Temp\ccZI6e3r.s:8058   .debug_str:00000000000051df .LASF530
C:\Users\liukai\AppData\Local\Temp\ccZI6e3r.s:7032   .debug_str:0000000000001c2b .LASF531
C:\Users\liukai\AppData\Local\Temp\ccZI6e3r.s:6922   .debug_str:000000000000157b .LASF532
C:\Users\liukai\AppData\Local\Temp\ccZI6e3r.s:7036   .debug_str:0000000000001c63 .LASF533
C:\Users\liukai\AppData\Local\Temp\ccZI6e3r.s:8488   .debug_str:00000000000069d3 .LASF534
C:\Users\liukai\AppData\Local\Temp\ccZI6e3r.s:8236   .debug_str:0000000000005b8c .LASF535
C:\Users\liukai\AppData\Local\Temp\ccZI6e3r.s:6718   .debug_str:0000000000000ae9 .LASF536
C:\Users\liukai\AppData\Local\Temp\ccZI6e3r.s:7590   .debug_str:0000000000003a3a .LASF537
C:\Users\liukai\AppData\Local\Temp\ccZI6e3r.s:6778   .debug_str:0000000000000da0 .LASF538
C:\Users\liukai\AppData\Local\Temp\ccZI6e3r.s:7354   .debug_str:0000000000002dc9 .LASF539
C:\Users\liukai\AppData\Local\Temp\ccZI6e3r.s:7614   .debug_str:0000000000003b28 .LASF540
C:\Users\liukai\AppData\Local\Temp\ccZI6e3r.s:7048   .debug_str:0000000000001d0d .LASF541
C:\Users\liukai\AppData\Local\Temp\ccZI6e3r.s:8044   .debug_str:0000000000005112 .LASF542
C:\Users\liukai\AppData\Local\Temp\ccZI6e3r.s:7230   .debug_str:00000000000027b3 .LASF543
C:\Users\liukai\AppData\Local\Temp\ccZI6e3r.s:8184   .debug_str:00000000000058ce .LASF544
C:\Users\liukai\AppData\Local\Temp\ccZI6e3r.s:6990   .debug_str:0000000000001992 .LASF545
C:\Users\liukai\AppData\Local\Temp\ccZI6e3r.s:8562   .debug_str:0000000000006d59 .LASF546
C:\Users\liukai\AppData\Local\Temp\ccZI6e3r.s:7580   .debug_str:00000000000039be .LASF547
C:\Users\liukai\AppData\Local\Temp\ccZI6e3r.s:7250   .debug_str:0000000000002897 .LASF548
C:\Users\liukai\AppData\Local\Temp\ccZI6e3r.s:7030   .debug_str:0000000000001c08 .LASF549
C:\Users\liukai\AppData\Local\Temp\ccZI6e3r.s:8384   .debug_str:0000000000006484 .LASF550
C:\Users\liukai\AppData\Local\Temp\ccZI6e3r.s:6720   .debug_str:0000000000000af3 .LASF551
C:\Users\liukai\AppData\Local\Temp\ccZI6e3r.s:6652   .debug_str:00000000000007cf .LASF552
C:\Users\liukai\AppData\Local\Temp\ccZI6e3r.s:8244   .debug_str:0000000000005bd9 .LASF553
C:\Users\liukai\AppData\Local\Temp\ccZI6e3r.s:6776   .debug_str:0000000000000d82 .LASF554
C:\Users\liukai\AppData\Local\Temp\ccZI6e3r.s:7184   .debug_str:00000000000024da .LASF555
C:\Users\liukai\AppData\Local\Temp\ccZI6e3r.s:8176   .debug_str:000000000000588d .LASF556
C:\Users\liukai\AppData\Local\Temp\ccZI6e3r.s:8010   .debug_str:0000000000004f0f .LASF557
C:\Users\liukai\AppData\Local\Temp\ccZI6e3r.s:8298   .debug_str:0000000000005f57 .LASF558
C:\Users\liukai\AppData\Local\Temp\ccZI6e3r.s:7302   .debug_str:0000000000002b4e .LASF559
C:\Users\liukai\AppData\Local\Temp\ccZI6e3r.s:8480   .debug_str:0000000000006974 .LASF560
C:\Users\liukai\AppData\Local\Temp\ccZI6e3r.s:6586   .debug_str:00000000000003f1 .LASF561
C:\Users\liukai\AppData\Local\Temp\ccZI6e3r.s:8320   .debug_str:000000000000606e .LASF562
C:\Users\liukai\AppData\Local\Temp\ccZI6e3r.s:6504   .debug_str:0000000000000000 .LASF563
C:\Users\liukai\AppData\Local\Temp\ccZI6e3r.s:7174   .debug_str:0000000000002442 .LASF564
C:\Users\liukai\AppData\Local\Temp\ccZI6e3r.s:6814   .debug_str:0000000000000f6b .LASF565
C:\Users\liukai\AppData\Local\Temp\ccZI6e3r.s:7254   .debug_str:00000000000028ba .LASF566
C:\Users\liukai\AppData\Local\Temp\ccZI6e3r.s:8404   .debug_str:00000000000065a8 .LASF567
C:\Users\liukai\AppData\Local\Temp\ccZI6e3r.s:8466   .debug_str:00000000000068b5 .LASF568
C:\Users\liukai\AppData\Local\Temp\ccZI6e3r.s:8014   .debug_str:0000000000004f35 .LASF569
C:\Users\liukai\AppData\Local\Temp\ccZI6e3r.s:8588   .debug_str:0000000000006e87 .LASF570
C:\Users\liukai\AppData\Local\Temp\ccZI6e3r.s:7116   .debug_str:000000000000212b .LASF571
C:\Users\liukai\AppData\Local\Temp\ccZI6e3r.s:7044   .debug_str:0000000000001cd7 .LASF572
C:\Users\liukai\AppData\Local\Temp\ccZI6e3r.s:7726   .debug_str:000000000000411a .LASF573
C:\Users\liukai\AppData\Local\Temp\ccZI6e3r.s:8042   .debug_str:00000000000050fb .LASF574
C:\Users\liukai\AppData\Local\Temp\ccZI6e3r.s:8518   .debug_str:0000000000006b30 .LASF575
C:\Users\liukai\AppData\Local\Temp\ccZI6e3r.s:8326   .debug_str:00000000000060b7 .LASF576
C:\Users\liukai\AppData\Local\Temp\ccZI6e3r.s:8558   .debug_str:0000000000006d29 .LASF577
C:\Users\liukai\AppData\Local\Temp\ccZI6e3r.s:8490   .debug_str:00000000000069e0 .LASF578
C:\Users\liukai\AppData\Local\Temp\ccZI6e3r.s:8248   .debug_str:0000000000005c07 .LASF579
C:\Users\liukai\AppData\Local\Temp\ccZI6e3r.s:6928   .debug_str:00000000000015c7 .LASF580
C:\Users\liukai\AppData\Local\Temp\ccZI6e3r.s:7102   .debug_str:00000000000020a5 .LASF581
C:\Users\liukai\AppData\Local\Temp\ccZI6e3r.s:6732   .debug_str:0000000000000b6b .LASF582
C:\Users\liukai\AppData\Local\Temp\ccZI6e3r.s:6580   .debug_str:0000000000000381 .LASF583
C:\Users\liukai\AppData\Local\Temp\ccZI6e3r.s:7878   .debug_str:0000000000004837 .LASF584
C:\Users\liukai\AppData\Local\Temp\ccZI6e3r.s:8000   .debug_str:0000000000004e71 .LASF585
C:\Users\liukai\AppData\Local\Temp\ccZI6e3r.s:7572   .debug_str:000000000000391c .LASF586
C:\Users\liukai\AppData\Local\Temp\ccZI6e3r.s:8094   .debug_str:000000000000537b .LASF587
C:\Users\liukai\AppData\Local\Temp\ccZI6e3r.s:7856   .debug_str:0000000000004729 .LASF588
C:\Users\liukai\AppData\Local\Temp\ccZI6e3r.s:8364   .debug_str:0000000000006392 .LASF589
C:\Users\liukai\AppData\Local\Temp\ccZI6e3r.s:7988   .debug_str:0000000000004dcd .LASF590
C:\Users\liukai\AppData\Local\Temp\ccZI6e3r.s:8424   .debug_str:00000000000066ec .LASF591
C:\Users\liukai\AppData\Local\Temp\ccZI6e3r.s:8442   .debug_str:00000000000067e1 .LASF592
C:\Users\liukai\AppData\Local\Temp\ccZI6e3r.s:7168   .debug_str:00000000000023ba .LASF593
C:\Users\liukai\AppData\Local\Temp\ccZI6e3r.s:8675   .debug_str:0000000000007556 .LASF594
C:\Users\liukai\AppData\Local\Temp\ccZI6e3r.s:6642   .debug_str:000000000000068f .LASF595
C:\Users\liukai\AppData\Local\Temp\ccZI6e3r.s:7414   .debug_str:000000000000314d .LASF596
C:\Users\liukai\AppData\Local\Temp\ccZI6e3r.s:6664   .debug_str:000000000000083d .LASF597
C:\Users\liukai\AppData\Local\Temp\ccZI6e3r.s:8292   .debug_str:0000000000005e6f .LASF598
C:\Users\liukai\AppData\Local\Temp\ccZI6e3r.s:7170   .debug_str:00000000000023db .LASF599
C:\Users\liukai\AppData\Local\Temp\ccZI6e3r.s:7474   .debug_str:00000000000034b9 .LASF600
C:\Users\liukai\AppData\Local\Temp\ccZI6e3r.s:7874   .debug_str:00000000000047ff .LASF601
C:\Users\liukai\AppData\Local\Temp\ccZI6e3r.s:7296   .debug_str:0000000000002af9 .LASF602
C:\Users\liukai\AppData\Local\Temp\ccZI6e3r.s:8725   .debug_str:00000000000079a7 .LASF603
C:\Users\liukai\AppData\Local\Temp\ccZI6e3r.s:7156   .debug_str:0000000000002336 .LASF604
C:\Users\liukai\AppData\Local\Temp\ccZI6e3r.s:8620   .debug_str:0000000000007068 .LASF605
C:\Users\liukai\AppData\Local\Temp\ccZI6e3r.s:7438   .debug_str:00000000000032a0 .LASF606
C:\Users\liukai\AppData\Local\Temp\ccZI6e3r.s:8336   .debug_str:0000000000006194 .LASF607
C:\Users\liukai\AppData\Local\Temp\ccZI6e3r.s:8406   .debug_str:00000000000065c4 .LASF608
C:\Users\liukai\AppData\Local\Temp\ccZI6e3r.s:7220   .debug_str:00000000000026de .LASF609
C:\Users\liukai\AppData\Local\Temp\ccZI6e3r.s:7790   .debug_str:0000000000004419 .LASF610
C:\Users\liukai\AppData\Local\Temp\ccZI6e3r.s:8514   .debug_str:0000000000006b0c .LASF611
C:\Users\liukai\AppData\Local\Temp\ccZI6e3r.s:7020   .debug_str:0000000000001b5d .LASF612
C:\Users\liukai\AppData\Local\Temp\ccZI6e3r.s:7870   .debug_str:00000000000047c1 .LASF613
C:\Users\liukai\AppData\Local\Temp\ccZI6e3r.s:7480   .debug_str:0000000000003513 .LASF614
C:\Users\liukai\AppData\Local\Temp\ccZI6e3r.s:7188   .debug_str:00000000000024f4 .LASF615
C:\Users\liukai\AppData\Local\Temp\ccZI6e3r.s:8707   .debug_str:0000000000007703 .LASF616
C:\Users\liukai\AppData\Local\Temp\ccZI6e3r.s:7298   .debug_str:0000000000002b1a .LASF617
C:\Users\liukai\AppData\Local\Temp\ccZI6e3r.s:8360   .debug_str:00000000000062d7 .LASF618
C:\Users\liukai\AppData\Local\Temp\ccZI6e3r.s:8148   .debug_str:000000000000566c .LASF619
C:\Users\liukai\AppData\Local\Temp\ccZI6e3r.s:8332   .debug_str:0000000000006119 .LASF620
C:\Users\liukai\AppData\Local\Temp\ccZI6e3r.s:7958   .debug_str:0000000000004bbf .LASF621
C:\Users\liukai\AppData\Local\Temp\ccZI6e3r.s:7054   .debug_str:0000000000001d70 .LASF622
C:\Users\liukai\AppData\Local\Temp\ccZI6e3r.s:8414   .debug_str:0000000000006630 .LASF623
C:\Users\liukai\AppData\Local\Temp\ccZI6e3r.s:6842   .debug_str:00000000000010da .LASF624
C:\Users\liukai\AppData\Local\Temp\ccZI6e3r.s:7974   .debug_str:0000000000004cdf .LASF625
C:\Users\liukai\AppData\Local\Temp\ccZI6e3r.s:6604   .debug_str:00000000000004ba .LASF626
C:\Users\liukai\AppData\Local\Temp\ccZI6e3r.s:6766   .debug_str:0000000000000cdb .LASF627
C:\Users\liukai\AppData\Local\Temp\ccZI6e3r.s:7578   .debug_str:0000000000003947 .LASF628
C:\Users\liukai\AppData\Local\Temp\ccZI6e3r.s:8400   .debug_str:000000000000654b .LASF629
C:\Users\liukai\AppData\Local\Temp\ccZI6e3r.s:7070   .debug_str:0000000000001e96 .LASF630
C:\Users\liukai\AppData\Local\Temp\ccZI6e3r.s:8426   .debug_str:000000000000670f .LASF631
C:\Users\liukai\AppData\Local\Temp\ccZI6e3r.s:8272   .debug_str:0000000000005d7f .LASF632
C:\Users\liukai\AppData\Local\Temp\ccZI6e3r.s:6596   .debug_str:000000000000044a .LASF633
C:\Users\liukai\AppData\Local\Temp\ccZI6e3r.s:7838   .debug_str:000000000000462e .LASF634
C:\Users\liukai\AppData\Local\Temp\ccZI6e3r.s:7950   .debug_str:0000000000004b67 .LASF635
C:\Users\liukai\AppData\Local\Temp\ccZI6e3r.s:7108   .debug_str:00000000000020cf .LASF636
C:\Users\liukai\AppData\Local\Temp\ccZI6e3r.s:8398   .debug_str:0000000000006508 .LASF637
C:\Users\liukai\AppData\Local\Temp\ccZI6e3r.s:8658   .debug_str:0000000000007257 .LASF638
C:\Users\liukai\AppData\Local\Temp\ccZI6e3r.s:6816   .debug_str:0000000000000f8b .LASF639
C:\Users\liukai\AppData\Local\Temp\ccZI6e3r.s:6690   .debug_str:00000000000009bd .LASF640
C:\Users\liukai\AppData\Local\Temp\ccZI6e3r.s:7244   .debug_str:0000000000002853 .LASF641
C:\Users\liukai\AppData\Local\Temp\ccZI6e3r.s:7504   .debug_str:0000000000003676 .LASF642
C:\Users\liukai\AppData\Local\Temp\ccZI6e3r.s:7868   .debug_str:00000000000047a7 .LASF643
C:\Users\liukai\AppData\Local\Temp\ccZI6e3r.s:8144   .debug_str:000000000000562e .LASF644
C:\Users\liukai\AppData\Local\Temp\ccZI6e3r.s:8300   .debug_str:0000000000005f64 .LASF645
C:\Users\liukai\AppData\Local\Temp\ccZI6e3r.s:8474   .debug_str:00000000000068ff .LASF646
C:\Users\liukai\AppData\Local\Temp\ccZI6e3r.s:8524   .debug_str:0000000000006b75 .LASF647
C:\Users\liukai\AppData\Local\Temp\ccZI6e3r.s:6844   .debug_str:000000000000113d .LASF648
C:\Users\liukai\AppData\Local\Temp\ccZI6e3r.s:8440   .debug_str:000000000000679a .LASF649
C:\Users\liukai\AppData\Local\Temp\ccZI6e3r.s:8130   .debug_str:0000000000005523 .LASF650
C:\Users\liukai\AppData\Local\Temp\ccZI6e3r.s:7388   .debug_str:0000000000002fd1 .LASF651
C:\Users\liukai\AppData\Local\Temp\ccZI6e3r.s:7014   .debug_str:0000000000001aea .LASF652
C:\Users\liukai\AppData\Local\Temp\ccZI6e3r.s:6982   .debug_str:00000000000018cd .LASF653
C:\Users\liukai\AppData\Local\Temp\ccZI6e3r.s:8500   .debug_str:0000000000006a52 .LASF654
C:\Users\liukai\AppData\Local\Temp\ccZI6e3r.s:8218   .debug_str:0000000000005a89 .LASF655
C:\Users\liukai\AppData\Local\Temp\ccZI6e3r.s:7224   .debug_str:0000000000002735 .LASF656
C:\Users\liukai\AppData\Local\Temp\ccZI6e3r.s:7470   .debug_str:0000000000003459 .LASF657
C:\Users\liukai\AppData\Local\Temp\ccZI6e3r.s:6998   .debug_str:00000000000019d5 .LASF658
C:\Users\liukai\AppData\Local\Temp\ccZI6e3r.s:8316   .debug_str:000000000000601d .LASF659
C:\Users\liukai\AppData\Local\Temp\ccZI6e3r.s:8314   .debug_str:0000000000005fe8 .LASF660
C:\Users\liukai\AppData\Local\Temp\ccZI6e3r.s:8312   .debug_str:0000000000005fdd .LASF661
C:\Users\liukai\AppData\Local\Temp\ccZI6e3r.s:7962   .debug_str:0000000000004c57 .LASF662
C:\Users\liukai\AppData\Local\Temp\ccZI6e3r.s:7556   .debug_str:000000000000388e .LASF663
C:\Users\liukai\AppData\Local\Temp\ccZI6e3r.s:7672   .debug_str:0000000000003dd4 .LASF664
C:\Users\liukai\AppData\Local\Temp\ccZI6e3r.s:7206   .debug_str:0000000000002617 .LASF665
C:\Users\liukai\AppData\Local\Temp\ccZI6e3r.s:7798   .debug_str:00000000000044a5 .LASF666
C:\Users\liukai\AppData\Local\Temp\ccZI6e3r.s:8068   .debug_str:000000000000523d .LASF667
C:\Users\liukai\AppData\Local\Temp\ccZI6e3r.s:6876   .debug_str:0000000000001307 .LASF668
C:\Users\liukai\AppData\Local\Temp\ccZI6e3r.s:7366   .debug_str:0000000000002eb0 .LASF669
C:\Users\liukai\AppData\Local\Temp\ccZI6e3r.s:7530   .debug_str:0000000000003760 .LASF670
C:\Users\liukai\AppData\Local\Temp\ccZI6e3r.s:7916   .debug_str:00000000000049e3 .LASF671
C:\Users\liukai\AppData\Local\Temp\ccZI6e3r.s:7854   .debug_str:0000000000004714 .LASF672
C:\Users\liukai\AppData\Local\Temp\ccZI6e3r.s:8370   .debug_str:00000000000063e9 .LASF673
C:\Users\liukai\AppData\Local\Temp\ccZI6e3r.s:7610   .debug_str:0000000000003b02 .LASF674
C:\Users\liukai\AppData\Local\Temp\ccZI6e3r.s:7926   .debug_str:0000000000004a2d .LASF675
C:\Users\liukai\AppData\Local\Temp\ccZI6e3r.s:7270   .debug_str:00000000000029b5 .LASF676
C:\Users\liukai\AppData\Local\Temp\ccZI6e3r.s:7576   .debug_str:000000000000393c .LASF677
C:\Users\liukai\AppData\Local\Temp\ccZI6e3r.s:6824   .debug_str:0000000000000ff5 .LASF678
C:\Users\liukai\AppData\Local\Temp\ccZI6e3r.s:7646   .debug_str:0000000000003ccc .LASF679
C:\Users\liukai\AppData\Local\Temp\ccZI6e3r.s:8196   .debug_str:00000000000059a5 .LASF680
C:\Users\liukai\AppData\Local\Temp\ccZI6e3r.s:7314   .debug_str:0000000000002be3 .LASF681
C:\Users\liukai\AppData\Local\Temp\ccZI6e3r.s:7996   .debug_str:0000000000004e58 .LASF682
C:\Users\liukai\AppData\Local\Temp\ccZI6e3r.s:6704   .debug_str:0000000000000a5a .LASF683
C:\Users\liukai\AppData\Local\Temp\ccZI6e3r.s:7924   .debug_str:0000000000004a21 .LASF684
C:\Users\liukai\AppData\Local\Temp\ccZI6e3r.s:6726   .debug_str:0000000000000b2f .LASF685
C:\Users\liukai\AppData\Local\Temp\ccZI6e3r.s:8178   .debug_str:00000000000058a0 .LASF686
C:\Users\liukai\AppData\Local\Temp\ccZI6e3r.s:8186   .debug_str:0000000000005907 .LASF687
C:\Users\liukai\AppData\Local\Temp\ccZI6e3r.s:7776   .debug_str:000000000000436f .LASF688
C:\Users\liukai\AppData\Local\Temp\ccZI6e3r.s:8508   .debug_str:0000000000006ad6 .LASF689
C:\Users\liukai\AppData\Local\Temp\ccZI6e3r.s:6700   .debug_str:0000000000000a32 .LASF690
C:\Users\liukai\AppData\Local\Temp\ccZI6e3r.s:7490   .debug_str:000000000000357d .LASF691
C:\Users\liukai\AppData\Local\Temp\ccZI6e3r.s:8232   .debug_str:0000000000005b6e .LASF692
C:\Users\liukai\AppData\Local\Temp\ccZI6e3r.s:8705   .debug_str:00000000000076f3 .LASF697
C:\Users\liukai\AppData\Local\Temp\ccZI6e3r.s:7066   .debug_str:0000000000001e62 .LASF698
C:\Users\liukai\AppData\Local\Temp\ccZI6e3r.s:7424   .debug_str:00000000000031d6 .LASF699
C:\Users\liukai\AppData\Local\Temp\ccZI6e3r.s:7356   .debug_str:0000000000002dda .LASF700
C:\Users\liukai\AppData\Local\Temp\ccZI6e3r.s:6854   .debug_str:00000000000011dc .LASF701
C:\Users\liukai\AppData\Local\Temp\ccZI6e3r.s:8667   .debug_str:00000000000074c9 .LASF702
C:\Users\liukai\AppData\Local\Temp\ccZI6e3r.s:8492   .debug_str:00000000000069f8 .LASF703
C:\Users\liukai\AppData\Local\Temp\ccZI6e3r.s:7468   .debug_str:0000000000003416 .LASF704
C:\Users\liukai\AppData\Local\Temp\ccZI6e3r.s:8034   .debug_str:0000000000005065 .LASF705
C:\Users\liukai\AppData\Local\Temp\ccZI6e3r.s:8626   .debug_str:00000000000070f0 .LASF706
C:\Users\liukai\AppData\Local\Temp\ccZI6e3r.s:8120   .debug_str:0000000000005497 .LASF707
C:\Users\liukai\AppData\Local\Temp\ccZI6e3r.s:7194   .debug_str:0000000000002552 .LASF708
C:\Users\liukai\AppData\Local\Temp\ccZI6e3r.s:6848   .debug_str:0000000000001192 .LASF709
C:\Users\liukai\AppData\Local\Temp\ccZI6e3r.s:8624   .debug_str:00000000000070a9 .LASF710
C:\Users\liukai\AppData\Local\Temp\ccZI6e3r.s:8038   .debug_str:00000000000050d4 .LASF711
C:\Users\liukai\AppData\Local\Temp\ccZI6e3r.s:7398   .debug_str:000000000000307f .LASF712
C:\Users\liukai\AppData\Local\Temp\ccZI6e3r.s:8602   .debug_str:0000000000006f8b .LASF713
C:\Users\liukai\AppData\Local\Temp\ccZI6e3r.s:7146   .debug_str:00000000000022d7 .LASF714
C:\Users\liukai\AppData\Local\Temp\ccZI6e3r.s:7560   .debug_str:00000000000038bc .LASF715
C:\Users\liukai\AppData\Local\Temp\ccZI6e3r.s:6946   .debug_str:0000000000001695 .LASF716
C:\Users\liukai\AppData\Local\Temp\ccZI6e3r.s:8166   .debug_str:0000000000005815 .LASF717
C:\Users\liukai\AppData\Local\Temp\ccZI6e3r.s:8168   .debug_str:000000000000582e .LASF718
C:\Users\liukai\AppData\Local\Temp\ccZI6e3r.s:7476   .debug_str:00000000000034d2 .LASF719
C:\Users\liukai\AppData\Local\Temp\ccZI6e3r.s:8382   .debug_str:000000000000647c .LASF720
C:\Users\liukai\AppData\Local\Temp\ccZI6e3r.s:8234   .debug_str:0000000000005b80 .LASF721
C:\Users\liukai\AppData\Local\Temp\ccZI6e3r.s:6912   .debug_str:00000000000014d7 .LASF722
C:\Users\liukai\AppData\Local\Temp\ccZI6e3r.s:7342   .debug_str:0000000000002d17 .LASF723
C:\Users\liukai\AppData\Local\Temp\ccZI6e3r.s:6622   .debug_str:00000000000005d6 .LASF724
C:\Users\liukai\AppData\Local\Temp\ccZI6e3r.s:7566   .debug_str:00000000000038dd .LASF725
C:\Users\liukai\AppData\Local\Temp\ccZI6e3r.s:7674   .debug_str:0000000000003de0 .LASF726
C:\Users\liukai\AppData\Local\Temp\ccZI6e3r.s:7522   .debug_str:0000000000003713 .LASF727
C:\Users\liukai\AppData\Local\Temp\ccZI6e3r.s:7852   .debug_str:00000000000046fc .LASF728
C:\Users\liukai\AppData\Local\Temp\ccZI6e3r.s:8460   .debug_str:000000000000688d .LASF729
C:\Users\liukai\AppData\Local\Temp\ccZI6e3r.s:8220   .debug_str:0000000000005ada .LASF730
C:\Users\liukai\AppData\Local\Temp\ccZI6e3r.s:8066   .debug_str:0000000000005225 .LASF731
C:\Users\liukai\AppData\Local\Temp\ccZI6e3r.s:8622   .debug_str:0000000000007094 .LASF732
C:\Users\liukai\AppData\Local\Temp\ccZI6e3r.s:6936   .debug_str:0000000000001627 .LASF733
C:\Users\liukai\AppData\Local\Temp\ccZI6e3r.s:8691   .debug_str:0000000000007655 .LASF734
C:\Users\liukai\AppData\Local\Temp\ccZI6e3r.s:6566   .debug_str:00000000000002db .LASF735
C:\Users\liukai\AppData\Local\Temp\ccZI6e3r.s:6826   .debug_str:0000000000000fff .LASF736
C:\Users\liukai\AppData\Local\Temp\ccZI6e3r.s:8158   .debug_str:0000000000005732 .LASF737
C:\Users\liukai\AppData\Local\Temp\ccZI6e3r.s:8717   .debug_str:0000000000007792 .LASF738
C:\Users\liukai\AppData\Local\Temp\ccZI6e3r.s:8660   .debug_str:000000000000729f .LASF739
C:\Users\liukai\AppData\Local\Temp\ccZI6e3r.s:8502   .debug_str:0000000000006a99 .LASF740
C:\Users\liukai\AppData\Local\Temp\ccZI6e3r.s:6780   .debug_str:0000000000000da5 .LASF741
C:\Users\liukai\AppData\Local\Temp\ccZI6e3r.s:8170   .debug_str:0000000000005848 .LASF742
C:\Users\liukai\AppData\Local\Temp\ccZI6e3r.s:7632   .debug_str:0000000000003c17 .LASF743
C:\Users\liukai\AppData\Local\Temp\ccZI6e3r.s:8252   .debug_str:0000000000005c3a .LASF744
C:\Users\liukai\AppData\Local\Temp\ccZI6e3r.s:7826   .debug_str:00000000000045a1 .LASF745
C:\Users\liukai\AppData\Local\Temp\ccZI6e3r.s:7558   .debug_str:000000000000389e .LASF746
C:\Users\liukai\AppData\Local\Temp\ccZI6e3r.s:7258   .debug_str:00000000000028fd .LASF747
C:\Users\liukai\AppData\Local\Temp\ccZI6e3r.s:6884   .debug_str:0000000000001369 .LASF748
C:\Users\liukai\AppData\Local\Temp\ccZI6e3r.s:6838   .debug_str:000000000000107f .LASF749
C:\Users\liukai\AppData\Local\Temp\ccZI6e3r.s:7602   .debug_str:0000000000003a8f .LASF750
C:\Users\liukai\AppData\Local\Temp\ccZI6e3r.s:7278   .debug_str:00000000000029f5 .LASF751
C:\Users\liukai\AppData\Local\Temp\ccZI6e3r.s:6670   .debug_str:00000000000008ba .LASF752
C:\Users\liukai\AppData\Local\Temp\ccZI6e3r.s:7016   .debug_str:0000000000001b27 .LASF753
C:\Users\liukai\AppData\Local\Temp\ccZI6e3r.s:8118   .debug_str:0000000000005476 .LASF754
C:\Users\liukai\AppData\Local\Temp\ccZI6e3r.s:6696   .debug_str:00000000000009ee .LASF755
C:\Users\liukai\AppData\Local\Temp\ccZI6e3r.s:8098   .debug_str:0000000000005399 .LASF756
C:\Users\liukai\AppData\Local\Temp\ccZI6e3r.s:8138   .debug_str:00000000000055ac .LASF757
C:\Users\liukai\AppData\Local\Temp\ccZI6e3r.s:7172   .debug_str:0000000000002418 .LASF758
C:\Users\liukai\AppData\Local\Temp\ccZI6e3r.s:7628   .debug_str:0000000000003bca .LASF759
C:\Users\liukai\AppData\Local\Temp\ccZI6e3r.s:7386   .debug_str:0000000000002f97 .LASF760
C:\Users\liukai\AppData\Local\Temp\ccZI6e3r.s:7750   .debug_str:0000000000004208 .LASF761
C:\Users\liukai\AppData\Local\Temp\ccZI6e3r.s:8070   .debug_str:000000000000524a .LASF762
C:\Users\liukai\AppData\Local\Temp\ccZI6e3r.s:7684   .debug_str:0000000000003e7f .LASF763
C:\Users\liukai\AppData\Local\Temp\ccZI6e3r.s:7144   .debug_str:0000000000002299 .LASF764
C:\Users\liukai\AppData\Local\Temp\ccZI6e3r.s:7680   .debug_str:0000000000003e33 .LASF765
C:\Users\liukai\AppData\Local\Temp\ccZI6e3r.s:8142   .debug_str:00000000000055f0 .LASF766
C:\Users\liukai\AppData\Local\Temp\ccZI6e3r.s:8054   .debug_str:0000000000005188 .LASF767
C:\Users\liukai\AppData\Local\Temp\ccZI6e3r.s:7464   .debug_str:00000000000033c1 .LASF768
C:\Users\liukai\AppData\Local\Temp\ccZI6e3r.s:8598   .debug_str:0000000000006f44 .LASF769
C:\Users\liukai\AppData\Local\Temp\ccZI6e3r.s:6522   .debug_str:00000000000000db .LASF770
C:\Users\liukai\AppData\Local\Temp\ccZI6e3r.s:7948   .debug_str:0000000000004b0f .LASF771
C:\Users\liukai\AppData\Local\Temp\ccZI6e3r.s:6570   .debug_str:0000000000000309 .LASF772
C:\Users\liukai\AppData\Local\Temp\ccZI6e3r.s:8348   .debug_str:000000000000623e .LASF773
C:\Users\liukai\AppData\Local\Temp\ccZI6e3r.s:7182   .debug_str:00000000000024c7 .LASF774
C:\Users\liukai\AppData\Local\Temp\ccZI6e3r.s:8380   .debug_str:000000000000645b .LASF775
C:\Users\liukai\AppData\Local\Temp\ccZI6e3r.s:6528   .debug_str:0000000000000137 .LASF776
C:\Users\liukai\AppData\Local\Temp\ccZI6e3r.s:6674   .debug_str:0000000000000903 .LASF777
C:\Users\liukai\AppData\Local\Temp\ccZI6e3r.s:7234   .debug_str:00000000000027ee .LASF778
C:\Users\liukai\AppData\Local\Temp\ccZI6e3r.s:8240   .debug_str:0000000000005bad .LASF780
C:\Users\liukai\AppData\Local\Temp\ccZI6e3r.s:8580   .debug_str:0000000000006e41 .LASF781
C:\Users\liukai\AppData\Local\Temp\ccZI6e3r.s:7374   .debug_str:0000000000002f17 .LASF782
C:\Users\liukai\AppData\Local\Temp\ccZI6e3r.s:7196   .debug_str:00000000000025a1 .LASF783
C:\Users\liukai\AppData\Local\Temp\ccZI6e3r.s:7884   .debug_str:000000000000486e .LASF784
C:\Users\liukai\AppData\Local\Temp\ccZI6e3r.s:6556   .debug_str:0000000000000264 .LASF785
C:\Users\liukai\AppData\Local\Temp\ccZI6e3r.s:7912   .debug_str:00000000000049b2 .LASF786
C:\Users\liukai\AppData\Local\Temp\ccZI6e3r.s:6908   .debug_str:0000000000001498 .LASF787
C:\Users\liukai\AppData\Local\Temp\ccZI6e3r.s:8632   .debug_str:0000000000007182 .LASF788
C:\Users\liukai\AppData\Local\Temp\ccZI6e3r.s:7392   .debug_str:0000000000003036 .LASF789
C:\Users\liukai\AppData\Local\Temp\ccZI6e3r.s:7502   .debug_str:0000000000003652 .LASF790
C:\Users\liukai\AppData\Local\Temp\ccZI6e3r.s:7222   .debug_str:0000000000002711 .LASF791
C:\Users\liukai\AppData\Local\Temp\ccZI6e3r.s:8306   .debug_str:0000000000005fa2 .LASF792
C:\Users\liukai\AppData\Local\Temp\ccZI6e3r.s:6518   .debug_str:00000000000000a0 .LASF793
C:\Users\liukai\AppData\Local\Temp\ccZI6e3r.s:8134   .debug_str:0000000000005585 .LASF794
C:\Users\liukai\AppData\Local\Temp\ccZI6e3r.s:6752   .debug_str:0000000000000c2a .LASF795
C:\Users\liukai\AppData\Local\Temp\ccZI6e3r.s:7906   .debug_str:0000000000004977 .LASF796
C:\Users\liukai\AppData\Local\Temp\ccZI6e3r.s:7264   .debug_str:0000000000002968 .LASF799
C:\Users\liukai\AppData\Local\Temp\ccZI6e3r.s:8250   .debug_str:0000000000005c23 .LASF800
C:\Users\liukai\AppData\Local\Temp\ccZI6e3r.s:7932   .debug_str:0000000000004a88 .LASF801
C:\Users\liukai\AppData\Local\Temp\ccZI6e3r.s:7688   .debug_str:0000000000003ed6 .LASF802
C:\Users\liukai\AppData\Local\Temp\ccZI6e3r.s:7246   .debug_str:0000000000002866 .LASF803
C:\Users\liukai\AppData\Local\Temp\ccZI6e3r.s:7640   .debug_str:0000000000003c77 .LASF804
C:\Users\liukai\AppData\Local\Temp\ccZI6e3r.s:6966   .debug_str:0000000000001763 .LASF805
C:\Users\liukai\AppData\Local\Temp\ccZI6e3r.s:8162   .debug_str:000000000000576c .LASF806
C:\Users\liukai\AppData\Local\Temp\ccZI6e3r.s:6650   .debug_str:00000000000006f8 .LASF807
C:\Users\liukai\AppData\Local\Temp\ccZI6e3r.s:7722   .debug_str:000000000000402f .LASF808
C:\Users\liukai\AppData\Local\Temp\ccZI6e3r.s:7842   .debug_str:000000000000465a .LASF811
C:\Users\liukai\AppData\Local\Temp\ccZI6e3r.s:8362   .debug_str:0000000000006323 .LASF812
C:\Users\liukai\AppData\Local\Temp\ccZI6e3r.s:6660   .debug_str:0000000000000805 .LASF813
C:\Users\liukai\AppData\Local\Temp\ccZI6e3r.s:7160   .debug_str:0000000000002376 .LASF814
C:\Users\liukai\AppData\Local\Temp\ccZI6e3r.s:8338   .debug_str:00000000000061bd .LASF815
C:\Users\liukai\AppData\Local\Temp\ccZI6e3r.s:8484   .debug_str:00000000000069a4 .LASF816
C:\Users\liukai\AppData\Local\Temp\ccZI6e3r.s:6706   .debug_str:0000000000000a6c .LASF817
C:\Users\liukai\AppData\Local\Temp\ccZI6e3r.s:8302   .debug_str:0000000000005f84 .LASF818
C:\Users\liukai\AppData\Local\Temp\ccZI6e3r.s:7212   .debug_str:000000000000264d .LASF819
C:\Users\liukai\AppData\Local\Temp\ccZI6e3r.s:6794   .debug_str:0000000000000e56 .LASF820
C:\Users\liukai\AppData\Local\Temp\ccZI6e3r.s:6668   .debug_str:0000000000000875 .LASF821
C:\Users\liukai\AppData\Local\Temp\ccZI6e3r.s:8294   .debug_str:0000000000005ea3 .LASF822
C:\Users\liukai\AppData\Local\Temp\ccZI6e3r.s:8074   .debug_str:0000000000005292 .LASF823
C:\Users\liukai\AppData\Local\Temp\ccZI6e3r.s:7092   .debug_str:0000000000002050 .LASF824
C:\Users\liukai\AppData\Local\Temp\ccZI6e3r.s:8606   .debug_str:0000000000006fab .LASF825
C:\Users\liukai\AppData\Local\Temp\ccZI6e3r.s:6610   .debug_str:0000000000000547 .LASF826
C:\Users\liukai\AppData\Local\Temp\ccZI6e3r.s:8104   .debug_str:0000000000005400 .LASF827
C:\Users\liukai\AppData\Local\Temp\ccZI6e3r.s:7634   .debug_str:0000000000003c36 .LASF828
C:\Users\liukai\AppData\Local\Temp\ccZI6e3r.s:7532   .debug_str:0000000000003774 .LASF829
C:\Users\liukai\AppData\Local\Temp\ccZI6e3r.s:8709   .debug_str:0000000000007736 .LASF830
C:\Users\liukai\AppData\Local\Temp\ccZI6e3r.s:7630   .debug_str:0000000000003c04 .LASF831
C:\Users\liukai\AppData\Local\Temp\ccZI6e3r.s:8006   .debug_str:0000000000004ebd .LASF832
C:\Users\liukai\AppData\Local\Temp\ccZI6e3r.s:7316   .debug_str:0000000000002bf2 .LASF833
C:\Users\liukai\AppData\Local\Temp\ccZI6e3r.s:7934   .debug_str:0000000000004a9a .LASF834
C:\Users\liukai\AppData\Local\Temp\ccZI6e3r.s:6538   .debug_str:0000000000000195 .LASF835
C:\Users\liukai\AppData\Local\Temp\ccZI6e3r.s:6694   .debug_str:00000000000009db .LASF836
C:\Users\liukai\AppData\Local\Temp\ccZI6e3r.s:7272   .debug_str:00000000000029bf .LASF837
C:\Users\liukai\AppData\Local\Temp\ccZI6e3r.s:7332   .debug_str:0000000000002cbe .LASF838
C:\Users\liukai\AppData\Local\Temp\ccZI6e3r.s:8084   .debug_str:0000000000005302 .LASF839
C:\Users\liukai\AppData\Local\Temp\ccZI6e3r.s:7742   .debug_str:00000000000041c5 .LASF840
C:\Users\liukai\AppData\Local\Temp\ccZI6e3r.s:7360   .debug_str:0000000000002e7c .LASF841
C:\Users\liukai\AppData\Local\Temp\ccZI6e3r.s:7062   .debug_str:0000000000001e38 .LASF842
C:\Users\liukai\AppData\Local\Temp\ccZI6e3r.s:7142   .debug_str:0000000000002288 .LASF843
C:\Users\liukai\AppData\Local\Temp\ccZI6e3r.s:8172   .debug_str:000000000000585e .LASF844
C:\Users\liukai\AppData\Local\Temp\ccZI6e3r.s:7652   .debug_str:0000000000003d05 .LASF845
C:\Users\liukai\AppData\Local\Temp\ccZI6e3r.s:6750   .debug_str:0000000000000c19 .LASF846
C:\Users\liukai\AppData\Local\Temp\ccZI6e3r.s:8230   .debug_str:0000000000005b5b .LASF847
C:\Users\liukai\AppData\Local\Temp\ccZI6e3r.s:6714   .debug_str:0000000000000abb .LASF848
C:\Users\liukai\AppData\Local\Temp\ccZI6e3r.s:6692   .debug_str:00000000000009c8 .LASF849
C:\Users\liukai\AppData\Local\Temp\ccZI6e3r.s:7118   .debug_str:0000000000002149 .LASF850
C:\Users\liukai\AppData\Local\Temp\ccZI6e3r.s:8554   .debug_str:0000000000006cdd .LASF851
C:\Users\liukai\AppData\Local\Temp\ccZI6e3r.s:7890   .debug_str:00000000000048ac .LASF852
C:\Users\liukai\AppData\Local\Temp\ccZI6e3r.s:7074   .debug_str:0000000000001f06 .LASF853
C:\Users\liukai\AppData\Local\Temp\ccZI6e3r.s:7158   .debug_str:0000000000002360 .LASF854
C:\Users\liukai\AppData\Local\Temp\ccZI6e3r.s:7928   .debug_str:0000000000004a3a .LASF856
C:\Users\liukai\AppData\Local\Temp\ccZI6e3r.s:7970   .debug_str:0000000000004ccb .LASF857
C:\Users\liukai\AppData\Local\Temp\ccZI6e3r.s:7544   .debug_str:00000000000037fd .LASF858
C:\Users\liukai\AppData\Local\Temp\ccZI6e3r.s:8634   .debug_str:0000000000007199 .LASF859
C:\Users\liukai\AppData\Local\Temp\ccZI6e3r.s:8212   .debug_str:0000000000005a2d .LASF860
C:\Users\liukai\AppData\Local\Temp\ccZI6e3r.s:7266   .debug_str:000000000000297a .LASF861
C:\Users\liukai\AppData\Local\Temp\ccZI6e3r.s:6568   .debug_str:00000000000002f1 .LASF862
C:\Users\liukai\AppData\Local\Temp\ccZI6e3r.s:6986   .debug_str:0000000000001937 .LASF863
C:\Users\liukai\AppData\Local\Temp\ccZI6e3r.s:7882   .debug_str:0000000000004854 .LASF864
C:\Users\liukai\AppData\Local\Temp\ccZI6e3r.s:7420   .debug_str:00000000000031aa .LASF865
C:\Users\liukai\AppData\Local\Temp\ccZI6e3r.s:7976   .debug_str:0000000000004d02 .LASF866
C:\Users\liukai\AppData\Local\Temp\ccZI6e3r.s:7624   .debug_str:0000000000003b70 .LASF867
C:\Users\liukai\AppData\Local\Temp\ccZI6e3r.s:6506   .debug_str:0000000000000017 .LASF868
C:\Users\liukai\AppData\Local\Temp\ccZI6e3r.s:8274   .debug_str:0000000000005d98 .LASF871
C:\Users\liukai\AppData\Local\Temp\ccZI6e3r.s:7006   .debug_str:0000000000001a63 .LASF872
C:\Users\liukai\AppData\Local\Temp\ccZI6e3r.s:7084   .debug_str:0000000000001fbb .LASF873
C:\Users\liukai\AppData\Local\Temp\ccZI6e3r.s:6902   .debug_str:0000000000001456 .LASF874
C:\Users\liukai\AppData\Local\Temp\ccZI6e3r.s:7994   .debug_str:0000000000004e4a .LASF875
C:\Users\liukai\AppData\Local\Temp\ccZI6e3r.s:6768   .debug_str:0000000000000d33 .LASF876
C:\Users\liukai\AppData\Local\Temp\ccZI6e3r.s:8482   .debug_str:0000000000006997 .LASF877
C:\Users\liukai\AppData\Local\Temp\ccZI6e3r.s:7240   .debug_str:000000000000283a .LASF878
C:\Users\liukai\AppData\Local\Temp\ccZI6e3r.s:7732   .debug_str:0000000000004182 .LASF879
C:\Users\liukai\AppData\Local\Temp\ccZI6e3r.s:7660   .debug_str:0000000000003d5d .LASF880
C:\Users\liukai\AppData\Local\Temp\ccZI6e3r.s:6748   .debug_str:0000000000000c0b .LASF881
C:\Users\liukai\AppData\Local\Temp\ccZI6e3r.s:7876   .debug_str:0000000000004829 .LASF882
C:\Users\liukai\AppData\Local\Temp\ccZI6e3r.s:6746   .debug_str:0000000000000bfd .LASF883
C:\Users\liukai\AppData\Local\Temp\ccZI6e3r.s:8110   .debug_str:0000000000005444 .LASF884
C:\Users\liukai\AppData\Local\Temp\ccZI6e3r.s:8574   .debug_str:0000000000006e21 .LASF885
C:\Users\liukai\AppData\Local\Temp\ccZI6e3r.s:7138   .debug_str:000000000000224e .LASF886
C:\Users\liukai\AppData\Local\Temp\ccZI6e3r.s:7900   .debug_str:0000000000004916 .LASF887
C:\Users\liukai\AppData\Local\Temp\ccZI6e3r.s:7208   .debug_str:0000000000002624 .LASF888
C:\Users\liukai\AppData\Local\Temp\ccZI6e3r.s:8096   .debug_str:000000000000538b .LASF889
C:\Users\liukai\AppData\Local\Temp\ccZI6e3r.s:7496   .debug_str:000000000000360a .LASF890
C:\Users\liukai\AppData\Local\Temp\ccZI6e3r.s:7596   .debug_str:0000000000003a5d .LASF891
C:\Users\liukai\AppData\Local\Temp\ccZI6e3r.s:8412   .debug_str:0000000000006627 .LASF892
C:\Users\liukai\AppData\Local\Temp\ccZI6e3r.s:7668   .debug_str:0000000000003db6 .LASF893
C:\Users\liukai\AppData\Local\Temp\ccZI6e3r.s:7716   .debug_str:0000000000004009 .LASF894
C:\Users\liukai\AppData\Local\Temp\ccZI6e3r.s:8416   .debug_str:0000000000006691 .LASF895
C:\Users\liukai\AppData\Local\Temp\ccZI6e3r.s:6970   .debug_str:00000000000017ae .LASF896
C:\Users\liukai\AppData\Local\Temp\ccZI6e3r.s:7608   .debug_str:0000000000003af0 .LASF897
C:\Users\liukai\AppData\Local\Temp\ccZI6e3r.s:7124   .debug_str:00000000000021b9 .LASF898
C:\Users\liukai\AppData\Local\Temp\ccZI6e3r.s:8200   .debug_str:00000000000059c1 .LASF899
C:\Users\liukai\AppData\Local\Temp\ccZI6e3r.s:6562   .debug_str:00000000000002b7 .LASF900
C:\Users\liukai\AppData\Local\Temp\ccZI6e3r.s:6938   .debug_str:0000000000001640 .LASF901
C:\Users\liukai\AppData\Local\Temp\ccZI6e3r.s:8114   .debug_str:000000000000545b .LASF902
C:\Users\liukai\AppData\Local\Temp\ccZI6e3r.s:7762   .debug_str:00000000000042ba .LASF903
C:\Users\liukai\AppData\Local\Temp\ccZI6e3r.s:6648   .debug_str:00000000000006e1 .LASF904
C:\Users\liukai\AppData\Local\Temp\ccZI6e3r.s:8256   .debug_str:0000000000005c9d .LASF905
C:\Users\liukai\AppData\Local\Temp\ccZI6e3r.s:6698   .debug_str:0000000000000a19 .LASF906
C:\Users\liukai\AppData\Local\Temp\ccZI6e3r.s:8570   .debug_str:0000000000006df4 .LASF907
C:\Users\liukai\AppData\Local\Temp\ccZI6e3r.s:7546   .debug_str:000000000000380a .LASF908
C:\Users\liukai\AppData\Local\Temp\ccZI6e3r.s:6560   .debug_str:000000000000029b .LASF909
C:\Users\liukai\AppData\Local\Temp\ccZI6e3r.s:8618   .debug_str:0000000000007050 .LASF910
C:\Users\liukai\AppData\Local\Temp\ccZI6e3r.s:8568   .debug_str:0000000000006d99 .LASF911
C:\Users\liukai\AppData\Local\Temp\ccZI6e3r.s:7078   .debug_str:0000000000001f3b .LASF912
C:\Users\liukai\AppData\Local\Temp\ccZI6e3r.s:7060   .debug_str:0000000000001ddf .LASF913
C:\Users\liukai\AppData\Local\Temp\ccZI6e3r.s:6578   .debug_str:0000000000000352 .LASF914
C:\Users\liukai\AppData\Local\Temp\ccZI6e3r.s:7712   .debug_str:0000000000003fcb .LASF915
C:\Users\liukai\AppData\Local\Temp\ccZI6e3r.s:8378   .debug_str:0000000000006429 .LASF916
C:\Users\liukai\AppData\Local\Temp\ccZI6e3r.s:8328   .debug_str:00000000000060d2 .LASF917
C:\Users\liukai\AppData\Local\Temp\ccZI6e3r.s:8542   .debug_str:0000000000006c5e .LASF918
C:\Users\liukai\AppData\Local\Temp\ccZI6e3r.s:7396   .debug_str:000000000000306c .LASF919
C:\Users\liukai\AppData\Local\Temp\ccZI6e3r.s:7410   .debug_str:0000000000003128 .LASF920
C:\Users\liukai\AppData\Local\Temp\ccZI6e3r.s:8494   .debug_str:0000000000006a27 .LASF921
C:\Users\liukai\AppData\Local\Temp\ccZI6e3r.s:6542   .debug_str:00000000000001ad .LASF922
C:\Users\liukai\AppData\Local\Temp\ccZI6e3r.s:8090   .debug_str:0000000000005349 .LASF923
C:\Users\liukai\AppData\Local\Temp\ccZI6e3r.s:8644   .debug_str:00000000000071e9 .LASF924
C:\Users\liukai\AppData\Local\Temp\ccZI6e3r.s:7228   .debug_str:000000000000278c .LASF925
C:\Users\liukai\AppData\Local\Temp\ccZI6e3r.s:8723   .debug_str:000000000000797c .LASF926
C:\Users\liukai\AppData\Local\Temp\ccZI6e3r.s:7358   .debug_str:0000000000002e14 .LASF927
C:\Users\liukai\AppData\Local\Temp\ccZI6e3r.s:7606   .debug_str:0000000000003ae3 .LASF928
C:\Users\liukai\AppData\Local\Temp\ccZI6e3r.s:7022   .debug_str:0000000000001b8c .LASF929
C:\Users\liukai\AppData\Local\Temp\ccZI6e3r.s:7294   .debug_str:0000000000002aee .LASF930
C:\Users\liukai\AppData\Local\Temp\ccZI6e3r.s:7164   .debug_str:00000000000023a1 .LASF931
C:\Users\liukai\AppData\Local\Temp\ccZI6e3r.s:7262   .debug_str:0000000000002960 .LASF932
C:\Users\liukai\AppData\Local\Temp\ccZI6e3r.s:8590   .debug_str:0000000000006ec0 .LASF933
C:\Users\liukai\AppData\Local\Temp\ccZI6e3r.s:8396   .debug_str:00000000000064f5 .LASF934
C:\Users\liukai\AppData\Local\Temp\ccZI6e3r.s:7318   .debug_str:0000000000002c07 .LASF935
C:\Users\liukai\AppData\Local\Temp\ccZI6e3r.s:8358   .debug_str:00000000000062c9 .LASF936
C:\Users\liukai\AppData\Local\Temp\ccZI6e3r.s:7758   .debug_str:000000000000428b .LASF937
C:\Users\liukai\AppData\Local\Temp\ccZI6e3r.s:7412   .debug_str:000000000000313f .LASF938
C:\Users\liukai\AppData\Local\Temp\ccZI6e3r.s:7128   .debug_str:00000000000021d4 .LASF939
C:\Users\liukai\AppData\Local\Temp\ccZI6e3r.s:7242   .debug_str:0000000000002847 .LASF940
C:\Users\liukai\AppData\Local\Temp\ccZI6e3r.s:8022   .debug_str:0000000000004fb9 .LASF941
C:\Users\liukai\AppData\Local\Temp\ccZI6e3r.s:6600   .debug_str:0000000000000482 .LASF942
C:\Users\liukai\AppData\Local\Temp\ccZI6e3r.s:7584   .debug_str:00000000000039ee .LASF943
C:\Users\liukai\AppData\Local\Temp\ccZI6e3r.s:7352   .debug_str:0000000000002dac .LASF944
C:\Users\liukai\AppData\Local\Temp\ccZI6e3r.s:8546   .debug_str:0000000000006c88 .LASF945
C:\Users\liukai\AppData\Local\Temp\ccZI6e3r.s:7626   .debug_str:0000000000003ba8 .LASF946
C:\Users\liukai\AppData\Local\Temp\ccZI6e3r.s:7072   .debug_str:0000000000001ee4 .LASF947
C:\Users\liukai\AppData\Local\Temp\ccZI6e3r.s:7650   .debug_str:0000000000003ce9 .LASF948
C:\Users\liukai\AppData\Local\Temp\ccZI6e3r.s:8174   .debug_str:000000000000586f .LASF949
C:\Users\liukai\AppData\Local\Temp\ccZI6e3r.s:7706   .debug_str:0000000000003f72 .LASF950
C:\Users\liukai\AppData\Local\Temp\ccZI6e3r.s:8016   .debug_str:0000000000004f54 .LASF951
C:\Users\liukai\AppData\Local\Temp\ccZI6e3r.s:8628   .debug_str:0000000000007137 .LASF952
C:\Users\liukai\AppData\Local\Temp\ccZI6e3r.s:6882   .debug_str:000000000000133c .LASF953
C:\Users\liukai\AppData\Local\Temp\ccZI6e3r.s:7728   .debug_str:0000000000004136 .LASF954
C:\Users\liukai\AppData\Local\Temp\ccZI6e3r.s:6918   .debug_str:0000000000001531 .LASF955
C:\Users\liukai\AppData\Local\Temp\ccZI6e3r.s:7990   .debug_str:0000000000004df3 .LASF956
C:\Users\liukai\AppData\Local\Temp\ccZI6e3r.s:8296   .debug_str:0000000000005f27 .LASF957
                           .group:0000000000000000 wm4.0.37aa6d340f8b0e49c613fc152d20c88a
                           .group:0000000000000000 wm4.stdarg.h.31.b55da1089056868966f25de5dbfc7d3c
                           .group:0000000000000000 wm4._newlib_version.h.4.875b979a44719054cd750d0952ad3fd6
                           .group:0000000000000000 wm4.features.h.33.318b64d71e0957639cfb30f1db1f7ec8
                           .group:0000000000000000 wm4._default_types.h.15.247e5cd201eca3442cbf5404108c4935
                           .group:0000000000000000 wm4._intsup.h.10.cce27fed8484c08a33f522034c30d2b5
                           .group:0000000000000000 wm4._stdint.h.10.c24fa3af3bc1706662bb5593a907e841
                           .group:0000000000000000 wm4.stdint.h.23.d53047a68f4a85177f80b422d52785ed
                           .group:0000000000000000 wm4.newlib.h.8.9957ed579b08d5b19580d9fda2a8f437
                           .group:0000000000000000 wm4.ieeefp.h.193.a04996ad6548b0579a40a1f708027f95
                           .group:0000000000000000 wm4.config.h.79.b548f69d9f69fceadec535dc005f68c6
                           .group:0000000000000000 wm4._ansi.h.31.de524f58584151836e90d8620a16f8e8
                           .group:0000000000000000 wm4.stdio.h.31.7c0e28c411445f3f9c5b11accf882760
                           .group:0000000000000000 wm4.stddef.h.187.2ff233552538c6ff9b8575ca8ea52cb3
                           .group:0000000000000000 wm4.cdefs.h.47.9b1aff81ebf9fd459c1248694f70fc96
                           .group:0000000000000000 wm4.stddef.h.39.ec95e8feac892e292b69dc7ae75b0d64
                           .group:0000000000000000 wm4.lock.h.2.1461d1fff82dffe8bfddc23307f6484f
                           .group:0000000000000000 wm4._types.h.125.5cf8a495f1f7ef36777ad868a1e32068
                           .group:0000000000000000 wm4.stddef.h.161.5349cb105733e8777bfb0cf53c4e3f34
                           .group:0000000000000000 wm4._types.h.184.7120b8bb2e0149e2359704f4e2251b68
                           .group:0000000000000000 wm4.reent.h.17.87376802c2b370b32a762f0a30482d9e
                           .group:0000000000000000 wm4.types.h.40.e8c16e7ec36ba55f133d0616070e25fc
                           .group:0000000000000000 wm4._endian.h.18.1bf9649e8e5bbc91042012680270b9ed
                           .group:0000000000000000 wm4.endian.h.9.49f3a4695c1b61e8a0808de3c4a106cb
                           .group:0000000000000000 wm4._timeval.h.30.0e8bfd94e85db17dda3286ee81496fe6
                           .group:0000000000000000 wm4.timespec.h.41.d855182eb0e690443ab8651bcedca6e1
                           .group:0000000000000000 wm4.select.h.30.bbece7fa40993a78092dcc5805132560
                           .group:0000000000000000 wm4.types.h.69.ed3eae3cf73030a737515151ebcab7a1
                           .group:0000000000000000 wm4.sched.h.22.c60982713a5c428609783c78f9c78d95
                           .group:0000000000000000 wm4._pthreadtypes.h.36.fcee9961c35163dde6267ef772ad1972
                           .group:0000000000000000 wm4.stdio.h.2.4aa87247282eca6c8f36f9de33d8df1a
                           .group:0000000000000000 wm4.stdio.h.81.932d0c162786b883f622b8d05c120c78
                           .group:0000000000000000 wm4.stdbool.h.29.07dce69c3b78884144b7f7bd19483461
                           .group:0000000000000000 wm4.picorv32.h.23.1beb83b07770a1ba2f5d16665d13d6c4

UNDEFINED SYMBOLS
__riscv_save_0
wbuart_outbyte
__riscv_restore_0
__riscv_save_6
__riscv_restore_6
__riscv_save_3
__riscv_restore_3
__riscv_save_10
__riscv_restore_10
