   1              		.file	"advspi.c"
   2              		.option nopic
   3              		.text
   4              	.Ltext0:
   5              		.cfi_sections	.debug_frame
   6              		.section	.sdata.SPI_FLASH_Reg,"aw"
   7              		.align	2
  10              	SPI_FLASH_Reg:
  11 0000 00400011 		.word	285229056
  12              		.section	.text.SelectSpi,"ax",@progbits
  13              		.align	1
  14              		.globl	SelectSpi
  16              	SelectSpi:
  17              	.LFB3:
  18              		.file 1 "../src/bsp/advspi.c"
   1:../src/bsp/advspi.c **** /*
   2:../src/bsp/advspi.c ****  * *****************************************************************************************
   3:../src/bsp/advspi.c ****  *
   4:../src/bsp/advspi.c ****  * 		Copyright (C) 2014-2020 Gowin Semiconductor Technology Co.,Ltd.
   5:../src/bsp/advspi.c ****  *
   6:../src/bsp/advspi.c ****  * @file		advspi.c
   7:../src/bsp/advspi.c ****  * @author		Embedded Development Team
   8:../src/bsp/advspi.c ****  * @version		V1.2
   9:../src/bsp/advspi.c ****  * @date		2020-6-30 09:00:00
  10:../src/bsp/advspi.c ****  * @brief		ADV SPI-Flash Peripheral.
  11:../src/bsp/advspi.c ****  ******************************************************************************************
  12:../src/bsp/advspi.c ****  */
  13:../src/bsp/advspi.c **** 
  14:../src/bsp/advspi.c **** /* Includes --------------------------------------------------------------------- */
  15:../src/bsp/advspi.c **** #include "advspi.h"
  16:../src/bsp/advspi.c **** 
  17:../src/bsp/advspi.c **** /* Declarations--------------------------------------------------------------------- */
  18:../src/bsp/advspi.c **** static SPI_FLASH_RegDef *SPI_FLASH_Reg = (SPI_FLASH_RegDef *)PICO_SPI_FLASH;
  19:../src/bsp/advspi.c **** 
  20:../src/bsp/advspi.c **** /* Functions --------------------------------------------------------------------- */
  21:../src/bsp/advspi.c **** void SelectSpi(SPI_FLASH_RegDef *SPI_Num)
  22:../src/bsp/advspi.c **** {
  19              		.loc 1 22 1
  20              		.cfi_startproc
  21 0000 0111     		addi	sp,sp,-32
  22              		.cfi_def_cfa_offset 32
  23 0002 22CE     		sw	s0,28(sp)
  24              		.cfi_offset 8, -4
  25 0004 0010     		addi	s0,sp,32
  26              		.cfi_def_cfa 8, 0
  27 0006 2326A4FE 		sw	a0,-20(s0)
  23:../src/bsp/advspi.c **** 	SPI_FLASH_Reg = SPI_Num;
  28              		.loc 1 23 16
  29 000a 97070000 		lla	a5,SPI_FLASH_Reg
  29      93870700 
  30 0012 0327C4FE 		lw	a4,-20(s0)
  31 0016 98C3     		sw	a4,0(a5)
  24:../src/bsp/advspi.c **** }
  32              		.loc 1 24 1
  33 0018 0100     		nop
  34 001a 7244     		lw	s0,28(sp)
  35              		.cfi_restore 8
  36 001c 0561     		addi	sp,sp,32
  37              		.cfi_def_cfa_register 2
  38 001e 8280     		jr	ra
  39              		.cfi_endproc
  40              	.LFE3:
  42              		.section	.text.SPI_reset,"ax",@progbits
  43              		.align	1
  44              		.globl	SPI_reset
  46              	SPI_reset:
  47              	.LFB4:
  25:../src/bsp/advspi.c **** 
  26:../src/bsp/advspi.c **** void SPI_reset(void)
  27:../src/bsp/advspi.c **** {
  48              		.loc 1 27 1
  49              		.cfi_startproc
  50 0000 4111     		addi	sp,sp,-16
  51              		.cfi_def_cfa_offset 16
  52 0002 22C6     		sw	s0,12(sp)
  53              		.cfi_offset 8, -4
  54 0004 0008     		addi	s0,sp,16
  55              		.cfi_def_cfa 8, 0
  28:../src/bsp/advspi.c **** 	SPI_FLASH_Reg->CTRL |= 0x01;         //reset spi
  56              		.loc 1 28 22
  57 0006 97070000 		lla	a5,SPI_FLASH_Reg
  57      93870700 
  58 000e 9C43     		lw	a5,0(a5)
  59 0010 985B     		lw	a4,48(a5)
  60 0012 97070000 		lla	a5,SPI_FLASH_Reg
  60      93870700 
  61 001a 9C43     		lw	a5,0(a5)
  62 001c 13671700 		ori	a4,a4,1
  63 0020 98DB     		sw	a4,48(a5)
  29:../src/bsp/advspi.c **** 	while((SPI_FLASH_Reg->CTRL & 0x01)); //wait until spi reset complete
  64              		.loc 1 29 7
  65 0022 0100     		nop
  66              	.L3:
  67              		.loc 1 29 22 discriminator 1
  68 0024 97070000 		lla	a5,SPI_FLASH_Reg
  68      93870700 
  69 002c 9C43     		lw	a5,0(a5)
  70 002e 9C5B     		lw	a5,48(a5)
  71              		.loc 1 29 29 discriminator 1
  72 0030 858B     		andi	a5,a5,1
  73              		.loc 1 29 7 discriminator 1
  74 0032 EDFB     		bnez	a5,.L3
  30:../src/bsp/advspi.c **** 	return;
  75              		.loc 1 30 2
  76 0034 0100     		nop
  31:../src/bsp/advspi.c **** }
  77              		.loc 1 31 1
  78 0036 3244     		lw	s0,12(sp)
  79              		.cfi_restore 8
  80 0038 4101     		addi	sp,sp,16
  81              		.cfi_def_cfa_register 2
  82 003a 8280     		jr	ra
  83              		.cfi_endproc
  84              	.LFE4:
  86              		.section	.text.SPI_set_mode,"ax",@progbits
  87              		.align	1
  88              		.globl	SPI_set_mode
  90              	SPI_set_mode:
  91              	.LFB5:
  32:../src/bsp/advspi.c **** 
  33:../src/bsp/advspi.c **** //select the slave mode or master mode
  34:../src/bsp/advspi.c **** //but need the hardware support
  35:../src/bsp/advspi.c **** void SPI_set_mode(uint32_t spi_mode)
  36:../src/bsp/advspi.c **** {
  92              		.loc 1 36 1
  93              		.cfi_startproc
  94 0000 7971     		addi	sp,sp,-48
  95              		.cfi_def_cfa_offset 48
  96 0002 22D6     		sw	s0,44(sp)
  97              		.cfi_offset 8, -4
  98 0004 0018     		addi	s0,sp,48
  99              		.cfi_def_cfa 8, 0
 100 0006 232EA4FC 		sw	a0,-36(s0)
  37:../src/bsp/advspi.c **** 	uint32_t buff = SPI_FLASH_Reg->TRANSFMT;
 101              		.loc 1 37 31
 102 000a 97070000 		lla	a5,SPI_FLASH_Reg
 102      93870700 
 103 0012 9C43     		lw	a5,0(a5)
 104              		.loc 1 37 11
 105 0014 9C4B     		lw	a5,16(a5)
 106 0016 2326F4FE 		sw	a5,-20(s0)
  38:../src/bsp/advspi.c **** 	SPI_FLASH_Reg->TRANSFMT = (buff & (~(1UL << 2))) + spi_mode;
 107              		.loc 1 38 34
 108 001a 8327C4FE 		lw	a5,-20(s0)
 109 001e 93F6B7FF 		andi	a3,a5,-5
 110              		.loc 1 38 15
 111 0022 97070000 		lla	a5,SPI_FLASH_Reg
 111      93870700 
 112 002a 9C43     		lw	a5,0(a5)
 113              		.loc 1 38 51
 114 002c 0327C4FD 		lw	a4,-36(s0)
 115 0030 3697     		add	a4,a3,a4
 116              		.loc 1 38 26
 117 0032 98CB     		sw	a4,16(a5)
  39:../src/bsp/advspi.c **** 	return;
 118              		.loc 1 39 2
 119 0034 0100     		nop
  40:../src/bsp/advspi.c **** }
 120              		.loc 1 40 1
 121 0036 3254     		lw	s0,44(sp)
 122              		.cfi_restore 8
 123 0038 4561     		addi	sp,sp,48
 124              		.cfi_def_cfa_register 2
 125 003a 8280     		jr	ra
 126              		.cfi_endproc
 127              	.LFE5:
 129              		.section	.text.SPI_set_addr_format,"ax",@progbits
 130              		.align	1
 131              		.globl	SPI_set_addr_format
 133              	SPI_set_addr_format:
 134              	.LFB6:
  41:../src/bsp/advspi.c **** 
  42:../src/bsp/advspi.c **** //addrLen = SPI_ADDR_LEN_1_BYTE / SPI_ADDR_LEN_2_BYTE / SPI_ADDR_LEN_3_BYTE / SPI_ADDR_LEN_4_BYTE
  43:../src/bsp/advspi.c **** //addrFmt = ADDRFMT_REGULAR / ADDRFMT_ASDATA
  44:../src/bsp/advspi.c **** void SPI_set_addr_format(uint8_t addrEn, uint32_t addrLen, uint32_t addrFmt)
  45:../src/bsp/advspi.c **** {
 135              		.loc 1 45 1
 136              		.cfi_startproc
 137 0000 7971     		addi	sp,sp,-48
 138              		.cfi_def_cfa_offset 48
 139 0002 22D6     		sw	s0,44(sp)
 140              		.cfi_offset 8, -4
 141 0004 0018     		addi	s0,sp,48
 142              		.cfi_def_cfa 8, 0
 143 0006 AA87     		mv	a5,a0
 144 0008 232CB4FC 		sw	a1,-40(s0)
 145 000c 232AC4FC 		sw	a2,-44(s0)
 146 0010 A30FF4FC 		sb	a5,-33(s0)
  46:../src/bsp/advspi.c **** 	uint32_t buff;
  47:../src/bsp/advspi.c **** 	if(0 == addrEn)
 147              		.loc 1 47 4
 148 0014 8347F4FD 		lbu	a5,-33(s0)
 149 0018 B5C7     		beqz	a5,.L10
  48:../src/bsp/advspi.c **** 	{
  49:../src/bsp/advspi.c **** 		return;
  50:../src/bsp/advspi.c **** 	}
  51:../src/bsp/advspi.c **** 	else
  52:../src/bsp/advspi.c **** 	{
  53:../src/bsp/advspi.c **** 		//set the addr enable && addr fomat
  54:../src/bsp/advspi.c **** 		buff = SPI_FLASH_Reg->TRANSCTRL;
 150              		.loc 1 54 23
 151 001a 97070000 		lla	a5,SPI_FLASH_Reg
 151      93870700 
 152 0022 9C43     		lw	a5,0(a5)
 153              		.loc 1 54 8
 154 0024 9C53     		lw	a5,32(a5)
 155 0026 2326F4FE 		sw	a5,-20(s0)
  55:../src/bsp/advspi.c **** 		SPI_FLASH_Reg->TRANSCTRL = (buff & (~(3UL << 28))) + addrFmt + SPI_ADDREN;
 156              		.loc 1 55 36
 157 002a 0327C4FE 		lw	a4,-20(s0)
 158 002e B70700D0 		li	a5,-805306368
 159 0032 FD17     		addi	a5,a5,-1
 160 0034 7D8F     		and	a4,a4,a5
 161              		.loc 1 55 54
 162 0036 832744FD 		lw	a5,-44(s0)
 163 003a B306F700 		add	a3,a4,a5
 164              		.loc 1 55 16
 165 003e 97070000 		lla	a5,SPI_FLASH_Reg
 165      93870700 
 166 0046 9C43     		lw	a5,0(a5)
 167              		.loc 1 55 64
 168 0048 37070020 		li	a4,536870912
 169 004c 3697     		add	a4,a3,a4
 170              		.loc 1 55 28
 171 004e 98D3     		sw	a4,32(a5)
  56:../src/bsp/advspi.c **** 		//set the width of the addr length
  57:../src/bsp/advspi.c **** 		buff = SPI_FLASH_Reg->TRANSFMT;
 172              		.loc 1 57 23
 173 0050 97070000 		lla	a5,SPI_FLASH_Reg
 173      93870700 
 174 0058 9C43     		lw	a5,0(a5)
 175              		.loc 1 57 8
 176 005a 9C4B     		lw	a5,16(a5)
 177 005c 2326F4FE 		sw	a5,-20(s0)
  58:../src/bsp/advspi.c **** 		SPI_FLASH_Reg->TRANSFMT  = (buff & (~(3UL << 16))) + addrLen;
 178              		.loc 1 58 36
 179 0060 0327C4FE 		lw	a4,-20(s0)
 180 0064 B707FDFF 		li	a5,-196608
 181 0068 FD17     		addi	a5,a5,-1
 182 006a B376F700 		and	a3,a4,a5
 183              		.loc 1 58 16
 184 006e 97070000 		lla	a5,SPI_FLASH_Reg
 184      93870700 
 185 0076 9C43     		lw	a5,0(a5)
 186              		.loc 1 58 54
 187 0078 032784FD 		lw	a4,-40(s0)
 188 007c 3697     		add	a4,a3,a4
 189              		.loc 1 58 28
 190 007e 98CB     		sw	a4,16(a5)
  59:../src/bsp/advspi.c **** 	}
  60:../src/bsp/advspi.c **** 	return;
 191              		.loc 1 60 2
 192 0080 0100     		nop
 193 0082 11A0     		j	.L7
 194              	.L10:
  49:../src/bsp/advspi.c **** 	}
 195              		.loc 1 49 3
 196 0084 0100     		nop
 197              	.L7:
  61:../src/bsp/advspi.c **** }
 198              		.loc 1 61 1
 199 0086 3254     		lw	s0,44(sp)
 200              		.cfi_restore 8
 201 0088 4561     		addi	sp,sp,48
 202              		.cfi_def_cfa_register 2
 203 008a 8280     		jr	ra
 204              		.cfi_endproc
 205              	.LFE6:
 207              		.section	.text.SPI_set_cmd_format,"ax",@progbits
 208              		.align	1
 209              		.globl	SPI_set_cmd_format
 211              	SPI_set_cmd_format:
 212              	.LFB7:
  62:../src/bsp/advspi.c **** 
  63:../src/bsp/advspi.c **** void SPI_set_cmd_format(uint8_t cmdEn)
  64:../src/bsp/advspi.c **** {
 213              		.loc 1 64 1
 214              		.cfi_startproc
 215 0000 7971     		addi	sp,sp,-48
 216              		.cfi_def_cfa_offset 48
 217 0002 22D6     		sw	s0,44(sp)
 218              		.cfi_offset 8, -4
 219 0004 0018     		addi	s0,sp,48
 220              		.cfi_def_cfa 8, 0
 221 0006 AA87     		mv	a5,a0
 222 0008 A30FF4FC 		sb	a5,-33(s0)
  65:../src/bsp/advspi.c **** 	uint32_t buff;
  66:../src/bsp/advspi.c **** 	if(0 == cmdEn)
 223              		.loc 1 66 4
 224 000c 8347F4FD 		lbu	a5,-33(s0)
 225 0010 9DCB     		beqz	a5,.L14
  67:../src/bsp/advspi.c **** 	{
  68:../src/bsp/advspi.c **** 		return;
  69:../src/bsp/advspi.c **** 	}
  70:../src/bsp/advspi.c **** 
  71:../src/bsp/advspi.c **** 	else
  72:../src/bsp/advspi.c **** 	{
  73:../src/bsp/advspi.c **** 		//open the spi cmd phase
  74:../src/bsp/advspi.c **** 		buff = SPI_FLASH_Reg->TRANSCTRL;
 226              		.loc 1 74 23
 227 0012 97070000 		lla	a5,SPI_FLASH_Reg
 227      93870700 
 228 001a 9C43     		lw	a5,0(a5)
 229              		.loc 1 74 8
 230 001c 9C53     		lw	a5,32(a5)
 231 001e 2326F4FE 		sw	a5,-20(s0)
  75:../src/bsp/advspi.c **** 		SPI_FLASH_Reg->TRANSCTRL = (buff & (~(1UL << 30))) + SPI_CMDEN;
 232              		.loc 1 75 36
 233 0022 0327C4FE 		lw	a4,-20(s0)
 234 0026 B70700C0 		li	a5,-1073741824
 235 002a FD17     		addi	a5,a5,-1
 236 002c B376F700 		and	a3,a4,a5
 237              		.loc 1 75 16
 238 0030 97070000 		lla	a5,SPI_FLASH_Reg
 238      93870700 
 239 0038 9C43     		lw	a5,0(a5)
 240              		.loc 1 75 54
 241 003a 37070040 		li	a4,1073741824
 242 003e 3697     		add	a4,a3,a4
 243              		.loc 1 75 28
 244 0040 98D3     		sw	a4,32(a5)
  76:../src/bsp/advspi.c **** 	}
  77:../src/bsp/advspi.c **** 	return;
 245              		.loc 1 77 2
 246 0042 0100     		nop
 247 0044 11A0     		j	.L11
 248              	.L14:
  68:../src/bsp/advspi.c **** 	}
 249              		.loc 1 68 3
 250 0046 0100     		nop
 251              	.L11:
  78:../src/bsp/advspi.c **** }
 252              		.loc 1 78 1
 253 0048 3254     		lw	s0,44(sp)
 254              		.cfi_restore 8
 255 004a 4561     		addi	sp,sp,48
 256              		.cfi_def_cfa_register 2
 257 004c 8280     		jr	ra
 258              		.cfi_endproc
 259              	.LFE7:
 261              		.section	.text.SPI_set_data_format,"ax",@progbits
 262              		.align	1
 263              		.globl	SPI_set_data_format
 265              	SPI_set_data_format:
 266              	.LFB8:
  79:../src/bsp/advspi.c **** 
  80:../src/bsp/advspi.c **** //dataMerge takes effect only when data length is 8
  81:../src/bsp/advspi.c **** void SPI_set_data_format(uint8_t dataBits, uint8_t dataMerge)
  82:../src/bsp/advspi.c **** {
 267              		.loc 1 82 1
 268              		.cfi_startproc
 269 0000 7971     		addi	sp,sp,-48
 270              		.cfi_def_cfa_offset 48
 271 0002 22D6     		sw	s0,44(sp)
 272              		.cfi_offset 8, -4
 273 0004 0018     		addi	s0,sp,48
 274              		.cfi_def_cfa 8, 0
 275 0006 AA87     		mv	a5,a0
 276 0008 2E87     		mv	a4,a1
 277 000a A30FF4FC 		sb	a5,-33(s0)
 278 000e BA87     		mv	a5,a4
 279 0010 230FF4FC 		sb	a5,-34(s0)
  83:../src/bsp/advspi.c **** 	uint32_t buff;
  84:../src/bsp/advspi.c **** 	buff = SPI_FLASH_Reg->TRANSFMT;
 280              		.loc 1 84 22
 281 0014 97070000 		lla	a5,SPI_FLASH_Reg
 281      93870700 
 282 001c 9C43     		lw	a5,0(a5)
 283              		.loc 1 84 7
 284 001e 9C4B     		lw	a5,16(a5)
 285 0020 2326F4FE 		sw	a5,-20(s0)
  85:../src/bsp/advspi.c **** 	SPI_FLASH_Reg->TRANSFMT = (buff &(~(0xf << 8))) + (((dataBits - 1) & 0xf) << 8);
 286              		.loc 1 85 34
 287 0024 0327C4FE 		lw	a4,-20(s0)
 288 0028 FD77     		li	a5,-4096
 289 002a 9387F70F 		addi	a5,a5,255
 290 002e B376F700 		and	a3,a4,a5
 291              		.loc 1 85 64
 292 0032 8347F4FD 		lbu	a5,-33(s0)
 293 0036 FD17     		addi	a5,a5,-1
 294              		.loc 1 85 76
 295 0038 A207     		slli	a5,a5,8
 296 003a 3E87     		mv	a4,a5
 297 003c 8567     		li	a5,4096
 298 003e 938707F0 		addi	a5,a5,-256
 299 0042 7D8F     		and	a4,a4,a5
 300              		.loc 1 85 15
 301 0044 97070000 		lla	a5,SPI_FLASH_Reg
 301      93870700 
 302 004c 9C43     		lw	a5,0(a5)
 303              		.loc 1 85 50
 304 004e 558F     		or	a4,a3,a4
 305              		.loc 1 85 26
 306 0050 98CB     		sw	a4,16(a5)
  86:../src/bsp/advspi.c **** 	if(8 == dataBits)
 307              		.loc 1 86 4
 308 0052 0347F4FD 		lbu	a4,-33(s0)
 309 0056 A147     		li	a5,8
 310 0058 631BF702 		bne	a4,a5,.L18
  87:../src/bsp/advspi.c **** 	{
  88:../src/bsp/advspi.c **** 		buff = SPI_FLASH_Reg->TRANSFMT;
 311              		.loc 1 88 23
 312 005c 97070000 		lla	a5,SPI_FLASH_Reg
 312      93870700 
 313 0064 9C43     		lw	a5,0(a5)
 314              		.loc 1 88 8
 315 0066 9C4B     		lw	a5,16(a5)
 316 0068 2326F4FE 		sw	a5,-20(s0)
  89:../src/bsp/advspi.c **** 		SPI_FLASH_Reg->TRANSFMT = (buff &(~(0x1 << 7))) + ((dataMerge & 0x1) << 8);
 317              		.loc 1 89 35
 318 006c 8327C4FE 		lw	a5,-20(s0)
 319 0070 93F6F7F7 		andi	a3,a5,-129
 320              		.loc 1 89 72
 321 0074 8347E4FD 		lbu	a5,-34(s0)
 322 0078 A207     		slli	a5,a5,8
 323 007a 13F70710 		andi	a4,a5,256
 324              		.loc 1 89 16
 325 007e 97070000 		lla	a5,SPI_FLASH_Reg
 325      93870700 
 326 0086 9C43     		lw	a5,0(a5)
 327              		.loc 1 89 51
 328 0088 3697     		add	a4,a3,a4
 329              		.loc 1 89 27
 330 008a 98CB     		sw	a4,16(a5)
  90:../src/bsp/advspi.c **** 	}
  91:../src/bsp/advspi.c **** 	return;
 331              		.loc 1 91 2
 332 008c 0100     		nop
 333              	.L18:
 334 008e 0100     		nop
  92:../src/bsp/advspi.c **** }
 335              		.loc 1 92 1
 336 0090 3254     		lw	s0,44(sp)
 337              		.cfi_restore 8
 338 0092 4561     		addi	sp,sp,48
 339              		.cfi_def_cfa_register 2
 340 0094 8280     		jr	ra
 341              		.cfi_endproc
 342              	.LFE8:
 344              		.section	.text.SPI_set_transfer_format,"ax",@progbits
 345              		.align	1
 346              		.globl	SPI_set_transfer_format
 348              	SPI_set_transfer_format:
 349              	.LFB9:
  93:../src/bsp/advspi.c **** 
  94:../src/bsp/advspi.c **** //mosiDir = SPI_MOSIBIDIR / SPI_MOSIUINDIR
  95:../src/bsp/advspi.c **** //lsbmsb  = SPI_LSB / SPI_MSB
  96:../src/bsp/advspi.c **** //cpol    = 0 / 1
  97:../src/bsp/advspi.c **** //cpha    = 0 / 1
  98:../src/bsp/advspi.c **** void SPI_set_transfer_format(uint32_t mosiDir, uint32_t lsbmsb, uint32_t cpol, uint32_t cpha)
  99:../src/bsp/advspi.c **** {
 350              		.loc 1 99 1
 351              		.cfi_startproc
 352 0000 7971     		addi	sp,sp,-48
 353              		.cfi_def_cfa_offset 48
 354 0002 22D6     		sw	s0,44(sp)
 355              		.cfi_offset 8, -4
 356 0004 0018     		addi	s0,sp,48
 357              		.cfi_def_cfa 8, 0
 358 0006 232EA4FC 		sw	a0,-36(s0)
 359 000a 232CB4FC 		sw	a1,-40(s0)
 360 000e 232AC4FC 		sw	a2,-44(s0)
 361 0012 2328D4FC 		sw	a3,-48(s0)
 100:../src/bsp/advspi.c **** 	uint32_t buff;
 101:../src/bsp/advspi.c **** 	uint32_t tmp;
 102:../src/bsp/advspi.c **** 	buff = SPI_FLASH_Reg->TRANSFMT;
 362              		.loc 1 102 22
 363 0016 97070000 		lla	a5,SPI_FLASH_Reg
 363      93870700 
 364 001e 9C43     		lw	a5,0(a5)
 365              		.loc 1 102 7
 366 0020 9C4B     		lw	a5,16(a5)
 367 0022 2326F4FE 		sw	a5,-20(s0)
 103:../src/bsp/advspi.c **** 	tmp = mosiDir + lsbmsb + ((cpol & 0x1) << 1) + (cpha & 0x1);
 368              		.loc 1 103 16
 369 0026 0327C4FD 		lw	a4,-36(s0)
 370 002a 832784FD 		lw	a5,-40(s0)
 371 002e 3E97     		add	a4,a4,a5
 372              		.loc 1 103 41
 373 0030 832744FD 		lw	a5,-44(s0)
 374 0034 8607     		slli	a5,a5,1
 375 0036 898B     		andi	a5,a5,2
 376              		.loc 1 103 25
 377 0038 3E97     		add	a4,a4,a5
 378              		.loc 1 103 55
 379 003a 832704FD 		lw	a5,-48(s0)
 380 003e 858B     		andi	a5,a5,1
 381              		.loc 1 103 6
 382 0040 BA97     		add	a5,a4,a5
 383 0042 2324F4FE 		sw	a5,-24(s0)
 104:../src/bsp/advspi.c **** 	SPI_FLASH_Reg->TRANSFMT = (buff & (~(0x1b))) + tmp;
 384              		.loc 1 104 34
 385 0046 8327C4FE 		lw	a5,-20(s0)
 386 004a 93F647FE 		andi	a3,a5,-28
 387              		.loc 1 104 15
 388 004e 97070000 		lla	a5,SPI_FLASH_Reg
 388      93870700 
 389 0056 9C43     		lw	a5,0(a5)
 390              		.loc 1 104 47
 391 0058 032784FE 		lw	a4,-24(s0)
 392 005c 3697     		add	a4,a3,a4
 393              		.loc 1 104 26
 394 005e 98CB     		sw	a4,16(a5)
 105:../src/bsp/advspi.c **** 	return;
 395              		.loc 1 105 2
 396 0060 0100     		nop
 106:../src/bsp/advspi.c **** }
 397              		.loc 1 106 1
 398 0062 3254     		lw	s0,44(sp)
 399              		.cfi_restore 8
 400 0064 4561     		addi	sp,sp,48
 401              		.cfi_def_cfa_register 2
 402 0066 8280     		jr	ra
 403              		.cfi_endproc
 404              	.LFE9:
 406              		.section	.text.SPI_set_trans_ctrl,"ax",@progbits
 407              		.align	1
 408              		.globl	SPI_set_trans_ctrl
 410              	SPI_set_trans_ctrl:
 411              	.LFB10:
 107:../src/bsp/advspi.c **** 
 108:../src/bsp/advspi.c **** //transMode = SPI_TRANSMODE_WRnRD     / SPI_TRANSMODE_WRONLY   / SPI_TRANSMODE_RDONLY    /
 109:../src/bsp/advspi.c **** //            SPI_TRANSMODE_WR_RD     / SPI_TRANSMODE_RD_WR    / SPI_TRANSMODE_WR_DMY_RD /
 110:../src/bsp/advspi.c **** //            SPI_TRANSMODE_RD_DMY_WR / SPI_TRANSMODE_NONEDATA / SPI_TRANSMODE_DMY_WR    /
 111:../src/bsp/advspi.c **** //            SPI_TRANSMODE_DMY_RD
 112:../src/bsp/advspi.c **** //dualQuad  = SPI_REGULAR / SPI_DUAL / SPI_QUAD
 113:../src/bsp/advspi.c **** //dummyCnt  = 1 / 2 / 3 / 4
 114:../src/bsp/advspi.c **** void SPI_set_trans_ctrl(uint32_t transMode, uint32_t dualQuad, uint32_t dummyCnt)
 115:../src/bsp/advspi.c **** {
 412              		.loc 1 115 1
 413              		.cfi_startproc
 414 0000 7971     		addi	sp,sp,-48
 415              		.cfi_def_cfa_offset 48
 416 0002 22D6     		sw	s0,44(sp)
 417              		.cfi_offset 8, -4
 418 0004 0018     		addi	s0,sp,48
 419              		.cfi_def_cfa 8, 0
 420 0006 232EA4FC 		sw	a0,-36(s0)
 421 000a 232CB4FC 		sw	a1,-40(s0)
 422 000e 232AC4FC 		sw	a2,-44(s0)
 116:../src/bsp/advspi.c **** 	uint32_t buff = SPI_FLASH_Reg->TRANSCTRL;
 423              		.loc 1 116 31
 424 0012 97070000 		lla	a5,SPI_FLASH_Reg
 424      93870700 
 425 001a 9C43     		lw	a5,0(a5)
 426              		.loc 1 116 11
 427 001c 9C53     		lw	a5,32(a5)
 428 001e 2326F4FE 		sw	a5,-20(s0)
 117:../src/bsp/advspi.c **** 	SPI_FLASH_Reg->TRANSCTRL = buff & (~((0xf << 24) + (0x3 << 22) + (0x3 << 9)));
 429              		.loc 1 117 15
 430 0022 97070000 		lla	a5,SPI_FLASH_Reg
 430      93870700 
 431 002a 9C43     		lw	a5,0(a5)
 432              		.loc 1 117 34
 433 002c 8326C4FE 		lw	a3,-20(s0)
 434 0030 370740F0 		li	a4,-264241152
 435 0034 1307F79F 		addi	a4,a4,-1537
 436 0038 758F     		and	a4,a3,a4
 437              		.loc 1 117 27
 438 003a 98D3     		sw	a4,32(a5)
 118:../src/bsp/advspi.c **** 	SPI_FLASH_Reg->TRANSCTRL += transMode;
 439              		.loc 1 118 27
 440 003c 97070000 		lla	a5,SPI_FLASH_Reg
 440      93870700 
 441 0044 9C43     		lw	a5,0(a5)
 442 0046 9453     		lw	a3,32(a5)
 443 0048 97070000 		lla	a5,SPI_FLASH_Reg
 443      93870700 
 444 0050 9C43     		lw	a5,0(a5)
 445 0052 0327C4FD 		lw	a4,-36(s0)
 446 0056 3697     		add	a4,a3,a4
 447 0058 98D3     		sw	a4,32(a5)
 119:../src/bsp/advspi.c **** 	SPI_FLASH_Reg->TRANSCTRL += dualQuad;
 448              		.loc 1 119 27
 449 005a 97070000 		lla	a5,SPI_FLASH_Reg
 449      93870700 
 450 0062 9C43     		lw	a5,0(a5)
 451 0064 9453     		lw	a3,32(a5)
 452 0066 97070000 		lla	a5,SPI_FLASH_Reg
 452      93870700 
 453 006e 9C43     		lw	a5,0(a5)
 454 0070 032784FD 		lw	a4,-40(s0)
 455 0074 3697     		add	a4,a3,a4
 456 0076 98D3     		sw	a4,32(a5)
 120:../src/bsp/advspi.c **** 	SPI_FLASH_Reg->TRANSCTRL += (((dummyCnt - 1) & 0x3) << 9);
 457              		.loc 1 120 27
 458 0078 97070000 		lla	a5,SPI_FLASH_Reg
 458      93870700 
 459 0080 9C43     		lw	a5,0(a5)
 460 0082 9453     		lw	a3,32(a5)
 461              		.loc 1 120 42
 462 0084 832744FD 		lw	a5,-44(s0)
 463 0088 FD17     		addi	a5,a5,-1
 464              		.loc 1 120 54
 465 008a A607     		slli	a5,a5,9
 466 008c 13F70760 		andi	a4,a5,1536
 467              		.loc 1 120 27
 468 0090 97070000 		lla	a5,SPI_FLASH_Reg
 468      93870700 
 469 0098 9C43     		lw	a5,0(a5)
 470 009a 3697     		add	a4,a3,a4
 471 009c 98D3     		sw	a4,32(a5)
 121:../src/bsp/advspi.c **** 	return;
 472              		.loc 1 121 2
 473 009e 0100     		nop
 122:../src/bsp/advspi.c **** }
 474              		.loc 1 122 1
 475 00a0 3254     		lw	s0,44(sp)
 476              		.cfi_restore 8
 477 00a2 4561     		addi	sp,sp,48
 478              		.cfi_def_cfa_register 2
 479 00a4 8280     		jr	ra
 480              		.cfi_endproc
 481              	.LFE10:
 483              		.section	.text.SPI_set_token,"ax",@progbits
 484              		.align	1
 485              		.globl	SPI_set_token
 487              	SPI_set_token:
 488              	.LFB11:
 123:../src/bsp/advspi.c **** 
 124:../src/bsp/advspi.c **** void SPI_set_token(uint8_t tokenEn, uint8_t tokenValue)
 125:../src/bsp/advspi.c **** {
 489              		.loc 1 125 1
 490              		.cfi_startproc
 491 0000 7971     		addi	sp,sp,-48
 492              		.cfi_def_cfa_offset 48
 493 0002 22D6     		sw	s0,44(sp)
 494              		.cfi_offset 8, -4
 495 0004 0018     		addi	s0,sp,48
 496              		.cfi_def_cfa 8, 0
 497 0006 AA87     		mv	a5,a0
 498 0008 2E87     		mv	a4,a1
 499 000a A30FF4FC 		sb	a5,-33(s0)
 500 000e BA87     		mv	a5,a4
 501 0010 230FF4FC 		sb	a5,-34(s0)
 126:../src/bsp/advspi.c **** 	uint32_t buff = SPI_FLASH_Reg->TRANSCTRL;
 502              		.loc 1 126 31
 503 0014 97070000 		lla	a5,SPI_FLASH_Reg
 503      93870700 
 504 001c 9C43     		lw	a5,0(a5)
 505              		.loc 1 126 11
 506 001e 9C53     		lw	a5,32(a5)
 507 0020 2326F4FE 		sw	a5,-20(s0)
 127:../src/bsp/advspi.c **** 	if(0 == tokenEn)
 508              		.loc 1 127 4
 509 0024 8347F4FD 		lbu	a5,-33(s0)
 510 0028 85CF     		beqz	a5,.L26
 128:../src/bsp/advspi.c **** 	{
 129:../src/bsp/advspi.c **** 		return;
 130:../src/bsp/advspi.c **** 	}
 131:../src/bsp/advspi.c **** 	else
 132:../src/bsp/advspi.c **** 	{
 133:../src/bsp/advspi.c **** 		SPI_FLASH_Reg->TRANSCTRL = (buff & (~((1 << 21) + (1 << 11)))) + (1 << 21) + ((tokenValue & 0x1) 
 511              		.loc 1 133 36
 512 002a 0327C4FE 		lw	a4,-20(s0)
 513 002e B7F7DFFF 		li	a5,-2101248
 514 0032 9387F77F 		addi	a5,a5,2047
 515 0036 7D8F     		and	a4,a4,a5
 516              		.loc 1 133 100
 517 0038 8347E4FD 		lbu	a5,-34(s0)
 518 003c AE07     		slli	a5,a5,11
 519 003e BE86     		mv	a3,a5
 520 0040 8567     		li	a5,4096
 521 0042 93870780 		addi	a5,a5,-2048
 522 0046 F58F     		and	a5,a3,a5
 523              		.loc 1 133 78
 524 0048 B366F700 		or	a3,a4,a5
 525              		.loc 1 133 16
 526 004c 97070000 		lla	a5,SPI_FLASH_Reg
 526      93870700 
 527 0054 9C43     		lw	a5,0(a5)
 528              		.loc 1 133 78
 529 0056 37072000 		li	a4,2097152
 530 005a 3697     		add	a4,a3,a4
 531              		.loc 1 133 28
 532 005c 98D3     		sw	a4,32(a5)
 533 005e 11A0     		j	.L23
 534              	.L26:
 129:../src/bsp/advspi.c **** 	}
 535              		.loc 1 129 3
 536 0060 0100     		nop
 537              	.L23:
 134:../src/bsp/advspi.c **** 	}
 135:../src/bsp/advspi.c **** }
 538              		.loc 1 135 1
 539 0062 3254     		lw	s0,44(sp)
 540              		.cfi_restore 8
 541 0064 4561     		addi	sp,sp,48
 542              		.cfi_def_cfa_register 2
 543 0066 8280     		jr	ra
 544              		.cfi_endproc
 545              	.LFE11:
 547              		.section	.text.SPI_tx_fifo_reset,"ax",@progbits
 548              		.align	1
 549              		.globl	SPI_tx_fifo_reset
 551              	SPI_tx_fifo_reset:
 552              	.LFB12:
 136:../src/bsp/advspi.c **** 
 137:../src/bsp/advspi.c **** void SPI_tx_fifo_reset(void)
 138:../src/bsp/advspi.c **** {
 553              		.loc 1 138 1
 554              		.cfi_startproc
 555 0000 4111     		addi	sp,sp,-16
 556              		.cfi_def_cfa_offset 16
 557 0002 22C6     		sw	s0,12(sp)
 558              		.cfi_offset 8, -4
 559 0004 0008     		addi	s0,sp,16
 560              		.cfi_def_cfa 8, 0
 139:../src/bsp/advspi.c **** 	SPI_FLASH_Reg->CTRL |= (0x1 << 2);    //reset tx fifo
 561              		.loc 1 139 22
 562 0006 97070000 		lla	a5,SPI_FLASH_Reg
 562      93870700 
 563 000e 9C43     		lw	a5,0(a5)
 564 0010 985B     		lw	a4,48(a5)
 565 0012 97070000 		lla	a5,SPI_FLASH_Reg
 565      93870700 
 566 001a 9C43     		lw	a5,0(a5)
 567 001c 13674700 		ori	a4,a4,4
 568 0020 98DB     		sw	a4,48(a5)
 140:../src/bsp/advspi.c **** 	while((SPI_FLASH_Reg->CTRL & 0x2)) ;  //wait tx fifo reset complete
 569              		.loc 1 140 7
 570 0022 0100     		nop
 571              	.L28:
 572              		.loc 1 140 22 discriminator 1
 573 0024 97070000 		lla	a5,SPI_FLASH_Reg
 573      93870700 
 574 002c 9C43     		lw	a5,0(a5)
 575 002e 9C5B     		lw	a5,48(a5)
 576              		.loc 1 140 29 discriminator 1
 577 0030 898B     		andi	a5,a5,2
 578              		.loc 1 140 7 discriminator 1
 579 0032 EDFB     		bnez	a5,.L28
 141:../src/bsp/advspi.c **** }
 580              		.loc 1 141 1
 581 0034 0100     		nop
 582 0036 3244     		lw	s0,12(sp)
 583              		.cfi_restore 8
 584 0038 4101     		addi	sp,sp,16
 585              		.cfi_def_cfa_register 2
 586 003a 8280     		jr	ra
 587              		.cfi_endproc
 588              	.LFE12:
 590              		.section	.text.SPI_rx_fifo_reset,"ax",@progbits
 591              		.align	1
 592              		.globl	SPI_rx_fifo_reset
 594              	SPI_rx_fifo_reset:
 595              	.LFB13:
 142:../src/bsp/advspi.c **** 
 143:../src/bsp/advspi.c **** void SPI_rx_fifo_reset(void)
 144:../src/bsp/advspi.c **** {
 596              		.loc 1 144 1
 597              		.cfi_startproc
 598 0000 4111     		addi	sp,sp,-16
 599              		.cfi_def_cfa_offset 16
 600 0002 22C6     		sw	s0,12(sp)
 601              		.cfi_offset 8, -4
 602 0004 0008     		addi	s0,sp,16
 603              		.cfi_def_cfa 8, 0
 145:../src/bsp/advspi.c **** 	SPI_FLASH_Reg->CTRL |= (0x1 << 1);    //reset rx fifo
 604              		.loc 1 145 22
 605 0006 97070000 		lla	a5,SPI_FLASH_Reg
 605      93870700 
 606 000e 9C43     		lw	a5,0(a5)
 607 0010 985B     		lw	a4,48(a5)
 608 0012 97070000 		lla	a5,SPI_FLASH_Reg
 608      93870700 
 609 001a 9C43     		lw	a5,0(a5)
 610 001c 13672700 		ori	a4,a4,2
 611 0020 98DB     		sw	a4,48(a5)
 146:../src/bsp/advspi.c **** 	while((SPI_FLASH_Reg->CTRL & 0x1)) ;  //wait rx fifo reset complete
 612              		.loc 1 146 7
 613 0022 0100     		nop
 614              	.L30:
 615              		.loc 1 146 22 discriminator 1
 616 0024 97070000 		lla	a5,SPI_FLASH_Reg
 616      93870700 
 617 002c 9C43     		lw	a5,0(a5)
 618 002e 9C5B     		lw	a5,48(a5)
 619              		.loc 1 146 29 discriminator 1
 620 0030 858B     		andi	a5,a5,1
 621              		.loc 1 146 7 discriminator 1
 622 0032 EDFB     		bnez	a5,.L30
 147:../src/bsp/advspi.c **** }
 623              		.loc 1 147 1
 624 0034 0100     		nop
 625 0036 3244     		lw	s0,12(sp)
 626              		.cfi_restore 8
 627 0038 4101     		addi	sp,sp,16
 628              		.cfi_def_cfa_register 2
 629 003a 8280     		jr	ra
 630              		.cfi_endproc
 631              	.LFE13:
 633              		.section	.text.spi_get_fifo_depth,"ax",@progbits
 634              		.align	1
 635              		.globl	spi_get_fifo_depth
 637              	spi_get_fifo_depth:
 638              	.LFB14:
 148:../src/bsp/advspi.c **** 
 149:../src/bsp/advspi.c **** uint8_t spi_get_fifo_depth(uint8_t fifo_depth_config)
 150:../src/bsp/advspi.c **** {
 639              		.loc 1 150 1
 640              		.cfi_startproc
 641              	.LBB2:
 151:../src/bsp/advspi.c **** 	uint8_t fifo_depth = 1;
 152:../src/bsp/advspi.c **** 	for(int i = 0; i < fifo_depth_config+1; i++)
 642              		.loc 1 152 10
 643 0000 0147     		li	a4,0
 644              	.LBE2:
 151:../src/bsp/advspi.c **** 	uint8_t fifo_depth = 1;
 645              		.loc 1 151 10
 646 0002 8547     		li	a5,1
 647              	.L32:
 648              	.LBB3:
 153:../src/bsp/advspi.c **** 	{
 154:../src/bsp/advspi.c **** 		fifo_depth *= 2;
 649              		.loc 1 154 14 discriminator 3
 650 0004 8607     		slli	a5,a5,1
 152:../src/bsp/advspi.c **** 	{
 651              		.loc 1 152 43 discriminator 3
 652 0006 0507     		addi	a4,a4,1
 653              		.loc 1 154 14 discriminator 3
 654 0008 93F7F70F 		andi	a5,a5,0xff
 152:../src/bsp/advspi.c **** 	{
 655              		.loc 1 152 2 discriminator 3
 656 000c E35CE5FE 		bge	a0,a4,.L32
 657              	.LBE3:
 155:../src/bsp/advspi.c **** 	}
 156:../src/bsp/advspi.c **** 	return fifo_depth;
 157:../src/bsp/advspi.c **** }
 658              		.loc 1 157 1
 659 0010 3E85     		mv	a0,a5
 660 0012 8280     		ret
 661              		.cfi_endproc
 662              	.LFE14:
 664              		.section	.rodata.SPI_set_tx_threshold.str1.4,"aMS",@progbits,1
 665              		.align	2
 666              	.LC0:
 667 0000 74782074 		.string	"tx threshold should not be set larger than tx fifo depth!\r\n"
 667      68726573 
 667      686F6C64 
 667      2073686F 
 667      756C6420 
 668              		.section	.text.SPI_set_tx_threshold,"ax",@progbits
 669              		.align	1
 670              		.globl	SPI_set_tx_threshold
 672              	SPI_set_tx_threshold:
 673              	.LFB15:
 158:../src/bsp/advspi.c **** 
 159:../src/bsp/advspi.c **** void SPI_set_tx_threshold(uint8_t tx_threshold)
 160:../src/bsp/advspi.c **** {
 674              		.loc 1 160 1
 675              		.cfi_startproc
 676 0000 7971     		addi	sp,sp,-48
 677              		.cfi_def_cfa_offset 48
 678 0002 06D6     		sw	ra,44(sp)
 679 0004 22D4     		sw	s0,40(sp)
 680              		.cfi_offset 1, -4
 681              		.cfi_offset 8, -8
 682 0006 0018     		addi	s0,sp,48
 683              		.cfi_def_cfa 8, 0
 684 0008 AA87     		mv	a5,a0
 685 000a A30FF4FC 		sb	a5,-33(s0)
 161:../src/bsp/advspi.c **** 	uint32_t buff;
 162:../src/bsp/advspi.c **** 	buff = SPI_FLASH_Reg->CONFIG;
 686              		.loc 1 162 22
 687 000e 97070000 		lla	a5,SPI_FLASH_Reg
 687      93870700 
 688 0016 9C43     		lw	a5,0(a5)
 689              		.loc 1 162 7
 690 0018 FC5F     		lw	a5,124(a5)
 691 001a 2326F4FE 		sw	a5,-20(s0)
 163:../src/bsp/advspi.c **** 	uint8_t tx_fifo_depth_config = (buff & 0x3f) >> 4;
 692              		.loc 1 163 47
 693 001e 8327C4FE 		lw	a5,-20(s0)
 694 0022 9183     		srli	a5,a5,4
 695 0024 93F7F70F 		andi	a5,a5,0xff
 696              		.loc 1 163 10
 697 0028 8D8B     		andi	a5,a5,3
 698 002a A305F4FE 		sb	a5,-21(s0)
 164:../src/bsp/advspi.c **** 	uint8_t tx_fifo_depth = spi_get_fifo_depth(tx_fifo_depth_config);
 699              		.loc 1 164 26
 700 002e 8347B4FE 		lbu	a5,-21(s0)
 701 0032 3E85     		mv	a0,a5
 702 0034 97000000 		call	spi_get_fifo_depth
 702      E7800000 
 703 003c AA87     		mv	a5,a0
 704 003e 2305F4FE 		sb	a5,-22(s0)
 165:../src/bsp/advspi.c **** 	if(tx_threshold > tx_fifo_depth)
 705              		.loc 1 165 4
 706 0042 0347F4FD 		lbu	a4,-33(s0)
 707 0046 8347A4FE 		lbu	a5,-22(s0)
 708 004a 63FBE700 		bleu	a4,a5,.L35
 166:../src/bsp/advspi.c **** 	{
 167:../src/bsp/advspi.c **** 		printf("tx threshold should not be set larger than tx fifo depth!\r\n");
 709              		.loc 1 167 3
 710 004e 17050000 		lla	a0,.LC0
 710      13050500 
 711 0056 97000000 		call	printf
 711      E7800000 
 168:../src/bsp/advspi.c **** 	}
 169:../src/bsp/advspi.c **** 	else
 170:../src/bsp/advspi.c **** 	{
 171:../src/bsp/advspi.c **** 		SPI_FLASH_Reg->CTRL &= (~(0x1f << 16));
 172:../src/bsp/advspi.c **** 		SPI_FLASH_Reg->CTRL |= ((tx_threshold) << 16);
 173:../src/bsp/advspi.c **** 	}
 174:../src/bsp/advspi.c **** 	return;
 712              		.loc 1 174 2
 713 005e 99A0     		j	.L34
 714              	.L35:
 171:../src/bsp/advspi.c **** 		SPI_FLASH_Reg->CTRL |= ((tx_threshold) << 16);
 715              		.loc 1 171 23
 716 0060 97070000 		lla	a5,SPI_FLASH_Reg
 716      93870700 
 717 0068 9C43     		lw	a5,0(a5)
 718 006a 945B     		lw	a3,48(a5)
 719 006c 97070000 		lla	a5,SPI_FLASH_Reg
 719      93870700 
 720 0074 9C43     		lw	a5,0(a5)
 721 0076 3707E1FF 		li	a4,-2031616
 722 007a 7D17     		addi	a4,a4,-1
 723 007c 758F     		and	a4,a3,a4
 724 007e 98DB     		sw	a4,48(a5)
 172:../src/bsp/advspi.c **** 	}
 725              		.loc 1 172 23
 726 0080 97070000 		lla	a5,SPI_FLASH_Reg
 726      93870700 
 727 0088 9C43     		lw	a5,0(a5)
 728 008a 985B     		lw	a4,48(a5)
 172:../src/bsp/advspi.c **** 	}
 729              		.loc 1 172 42
 730 008c 8347F4FD 		lbu	a5,-33(s0)
 731 0090 C207     		slli	a5,a5,16
 732 0092 BE86     		mv	a3,a5
 172:../src/bsp/advspi.c **** 	}
 733              		.loc 1 172 23
 734 0094 97070000 		lla	a5,SPI_FLASH_Reg
 734      93870700 
 735 009c 9C43     		lw	a5,0(a5)
 736 009e 558F     		or	a4,a4,a3
 737 00a0 98DB     		sw	a4,48(a5)
 738              		.loc 1 174 2
 739 00a2 0100     		nop
 740              	.L34:
 175:../src/bsp/advspi.c **** }
 741              		.loc 1 175 1
 742 00a4 B250     		lw	ra,44(sp)
 743              		.cfi_restore 1
 744 00a6 2254     		lw	s0,40(sp)
 745              		.cfi_restore 8
 746 00a8 4561     		addi	sp,sp,48
 747              		.cfi_def_cfa_register 2
 748 00aa 8280     		jr	ra
 749              		.cfi_endproc
 750              	.LFE15:
 752              		.section	.rodata.SPI_set_rx_threshold.str1.4,"aMS",@progbits,1
 753              		.align	2
 754              	.LC1:
 755 0000 72782074 		.string	"rx threshold should not be set larger than rx fifo depth!\r\n"
 755      68726573 
 755      686F6C64 
 755      2073686F 
 755      756C6420 
 756              		.section	.text.SPI_set_rx_threshold,"ax",@progbits
 757              		.align	1
 758              		.globl	SPI_set_rx_threshold
 760              	SPI_set_rx_threshold:
 761              	.LFB16:
 176:../src/bsp/advspi.c **** 
 177:../src/bsp/advspi.c **** void SPI_set_rx_threshold(uint8_t rx_threshold)
 178:../src/bsp/advspi.c **** {
 762              		.loc 1 178 1
 763              		.cfi_startproc
 764 0000 7971     		addi	sp,sp,-48
 765              		.cfi_def_cfa_offset 48
 766 0002 06D6     		sw	ra,44(sp)
 767 0004 22D4     		sw	s0,40(sp)
 768              		.cfi_offset 1, -4
 769              		.cfi_offset 8, -8
 770 0006 0018     		addi	s0,sp,48
 771              		.cfi_def_cfa 8, 0
 772 0008 AA87     		mv	a5,a0
 773 000a A30FF4FC 		sb	a5,-33(s0)
 179:../src/bsp/advspi.c **** 	uint32_t buff;
 180:../src/bsp/advspi.c **** 	buff = SPI_FLASH_Reg->CONFIG;
 774              		.loc 1 180 22
 775 000e 97070000 		lla	a5,SPI_FLASH_Reg
 775      93870700 
 776 0016 9C43     		lw	a5,0(a5)
 777              		.loc 1 180 7
 778 0018 FC5F     		lw	a5,124(a5)
 779 001a 2326F4FE 		sw	a5,-20(s0)
 181:../src/bsp/advspi.c **** 	uint8_t rx_fifo_depth_config = (buff & 0x03);
 780              		.loc 1 181 39
 781 001e 8327C4FE 		lw	a5,-20(s0)
 782 0022 93F7F70F 		andi	a5,a5,0xff
 783              		.loc 1 181 10
 784 0026 8D8B     		andi	a5,a5,3
 785 0028 A305F4FE 		sb	a5,-21(s0)
 182:../src/bsp/advspi.c **** 	uint8_t rx_fifo_depth = spi_get_fifo_depth(rx_fifo_depth_config);
 786              		.loc 1 182 26
 787 002c 8347B4FE 		lbu	a5,-21(s0)
 788 0030 3E85     		mv	a0,a5
 789 0032 97000000 		call	spi_get_fifo_depth
 789      E7800000 
 790 003a AA87     		mv	a5,a0
 791 003c 2305F4FE 		sb	a5,-22(s0)
 183:../src/bsp/advspi.c **** 	if(rx_threshold > rx_fifo_depth)
 792              		.loc 1 183 4
 793 0040 0347F4FD 		lbu	a4,-33(s0)
 794 0044 8347A4FE 		lbu	a5,-22(s0)
 795 0048 63FBE700 		bleu	a4,a5,.L39
 184:../src/bsp/advspi.c **** 	{
 185:../src/bsp/advspi.c **** 		printf("rx threshold should not be set larger than rx fifo depth!\r\n");
 796              		.loc 1 185 3
 797 004c 17050000 		lla	a0,.LC1
 797      13050500 
 798 0054 97000000 		call	printf
 798      E7800000 
 186:../src/bsp/advspi.c **** 	}
 187:../src/bsp/advspi.c **** 	else
 188:../src/bsp/advspi.c **** 	{
 189:../src/bsp/advspi.c **** 		SPI_FLASH_Reg->CTRL &= (~(0x1f << 8));
 190:../src/bsp/advspi.c **** 		SPI_FLASH_Reg->CTRL |= ((rx_threshold) << 8);
 191:../src/bsp/advspi.c **** 	}
 192:../src/bsp/advspi.c **** 	return;
 799              		.loc 1 192 2
 800 005c 99A0     		j	.L38
 801              	.L39:
 189:../src/bsp/advspi.c **** 		SPI_FLASH_Reg->CTRL |= ((rx_threshold) << 8);
 802              		.loc 1 189 23
 803 005e 97070000 		lla	a5,SPI_FLASH_Reg
 803      93870700 
 804 0066 9C43     		lw	a5,0(a5)
 805 0068 945B     		lw	a3,48(a5)
 806 006a 97070000 		lla	a5,SPI_FLASH_Reg
 806      93870700 
 807 0072 9C43     		lw	a5,0(a5)
 808 0074 7977     		li	a4,-8192
 809 0076 1307F70F 		addi	a4,a4,255
 810 007a 758F     		and	a4,a3,a4
 811 007c 98DB     		sw	a4,48(a5)
 190:../src/bsp/advspi.c **** 	}
 812              		.loc 1 190 23
 813 007e 97070000 		lla	a5,SPI_FLASH_Reg
 813      93870700 
 814 0086 9C43     		lw	a5,0(a5)
 815 0088 985B     		lw	a4,48(a5)
 190:../src/bsp/advspi.c **** 	}
 816              		.loc 1 190 42
 817 008a 8347F4FD 		lbu	a5,-33(s0)
 818 008e A207     		slli	a5,a5,8
 819 0090 BE86     		mv	a3,a5
 190:../src/bsp/advspi.c **** 	}
 820              		.loc 1 190 23
 821 0092 97070000 		lla	a5,SPI_FLASH_Reg
 821      93870700 
 822 009a 9C43     		lw	a5,0(a5)
 823 009c 558F     		or	a4,a4,a3
 824 009e 98DB     		sw	a4,48(a5)
 825              		.loc 1 192 2
 826 00a0 0100     		nop
 827              	.L38:
 193:../src/bsp/advspi.c **** }
 828              		.loc 1 193 1
 829 00a2 B250     		lw	ra,44(sp)
 830              		.cfi_restore 1
 831 00a4 2254     		lw	s0,40(sp)
 832              		.cfi_restore 8
 833 00a6 4561     		addi	sp,sp,48
 834              		.cfi_def_cfa_register 2
 835 00a8 8280     		jr	ra
 836              		.cfi_endproc
 837              	.LFE16:
 839              		.section	.text.spi_flash_init,"ax",@progbits
 840              		.align	1
 841              		.globl	spi_flash_init
 843              	spi_flash_init:
 844              	.LFB17:
 194:../src/bsp/advspi.c **** 
 195:../src/bsp/advspi.c **** void spi_flash_init(void)
 196:../src/bsp/advspi.c **** {
 845              		.loc 1 196 1
 846              		.cfi_startproc
 847 0000 4111     		addi	sp,sp,-16
 848              		.cfi_def_cfa_offset 16
 197:../src/bsp/advspi.c **** 	uint32_t buff;
 198:../src/bsp/advspi.c **** 
 199:../src/bsp/advspi.c **** 	SPI_FLASH_Reg->CTRL |= 0x01;         //reset spi
 849              		.loc 1 199 22
 850 0002 97070000 		lla	a5,SPI_FLASH_Reg
 850      93870700 
 196:../src/bsp/advspi.c **** 	uint32_t buff;
 851              		.loc 1 196 1
 852 000a 26C4     		sw	s1,8(sp)
 853              		.cfi_offset 9, -8
 854              		.loc 1 199 22
 855 000c 8443     		lw	s1,0(a5)
 196:../src/bsp/advspi.c **** 	uint32_t buff;
 856              		.loc 1 196 1
 857 000e 06C6     		sw	ra,12(sp)
 858 0010 4AC2     		sw	s2,4(sp)
 859              		.loc 1 199 22
 860 0012 9C58     		lw	a5,48(s1)
 196:../src/bsp/advspi.c **** 	uint32_t buff;
 861              		.loc 1 196 1
 862 0014 4EC0     		sw	s3,0(sp)
 863              		.cfi_offset 1, -4
 864              		.cfi_offset 18, -12
 865              		.cfi_offset 19, -16
 866              		.loc 1 199 22
 867 0016 93E71700 		ori	a5,a5,1
 868 001a 9CD8     		sw	a5,48(s1)
 869              	.L43:
 200:../src/bsp/advspi.c **** 	while((SPI_FLASH_Reg->CTRL & 0x01)); //wait until spi reset complete
 870              		.loc 1 200 22 discriminator 1
 871 001c 9C58     		lw	a5,48(s1)
 872              		.loc 1 200 29 discriminator 1
 873 001e 858B     		andi	a5,a5,1
 874              		.loc 1 200 7 discriminator 1
 875 0020 F5FF     		bnez	a5,.L43
 201:../src/bsp/advspi.c **** 
 202:../src/bsp/advspi.c **** 	buff = SPI_FLASH_Reg->CONFIG;
 876              		.loc 1 202 7
 877 0022 83A9C407 		lw	s3,124(s1)
 203:../src/bsp/advspi.c **** 	uint8_t tx_fifo_depth_config = (buff & 0x3f) >> 4;
 878              		.loc 1 203 47
 879 0026 13D54900 		srli	a0,s3,4
 204:../src/bsp/advspi.c **** 	uint8_t tx_fifo_depth = spi_get_fifo_depth(tx_fifo_depth_config);
 880              		.loc 1 204 26
 881 002a 0D89     		andi	a0,a0,3
 882 002c 97000000 		call	spi_get_fifo_depth
 882      E7800000 
 883 0034 2A89     		mv	s2,a0
 205:../src/bsp/advspi.c **** 	uint8_t rx_fifo_depth_config = (buff & 0x03);
 206:../src/bsp/advspi.c **** 	uint8_t rx_fifo_depth = spi_get_fifo_depth(rx_fifo_depth_config);
 884              		.loc 1 206 26
 885 0036 13F53900 		andi	a0,s3,3
 886 003a 97000000 		call	spi_get_fifo_depth
 886      E7800000 
 887              	.L44:
 207:../src/bsp/advspi.c **** 
 208:../src/bsp/advspi.c **** 	while((SPI_FLASH_Reg->STATUS & 0x01)); //wait until SPI2 active finish
 888              		.loc 1 208 22 discriminator 1
 889 0042 DC58     		lw	a5,52(s1)
 890              		.loc 1 208 31 discriminator 1
 891 0044 858B     		andi	a5,a5,1
 892              		.loc 1 208 7 discriminator 1
 893 0046 F5FF     		bnez	a5,.L44
 209:../src/bsp/advspi.c **** 
 210:../src/bsp/advspi.c **** 
 211:../src/bsp/advspi.c **** 
 212:../src/bsp/advspi.c **** 	buff = (2 << 16) +(7 << 8) + (0 << 7);
 213:../src/bsp/advspi.c **** 	//AddrLen = 3; DataLen = 8 DataMerge = 0
 214:../src/bsp/advspi.c **** 	//other fields reset to 0 while spi_default_modes connected to 0
 215:../src/bsp/advspi.c **** 	SPI_FLASH_Reg->TRANSFMT = buff;
 894              		.loc 1 215 26
 895 0048 B7070200 		li	a5,131072
 896 004c 93870770 		addi	a5,a5,1792
 897 0050 9CC8     		sw	a5,16(s1)
 216:../src/bsp/advspi.c **** 
 217:../src/bsp/advspi.c **** 
 218:../src/bsp/advspi.c **** 	SPI_FLASH_Reg->CTRL |= (0x1 << 2);    //reset tx fifo
 898              		.loc 1 218 22
 899 0052 9C58     		lw	a5,48(s1)
 900 0054 93E74700 		ori	a5,a5,4
 901 0058 9CD8     		sw	a5,48(s1)
 902              	.L45:
 219:../src/bsp/advspi.c **** 	while((SPI_FLASH_Reg->CTRL & 0x2)) ;  //wait tx fifo reset complete
 903              		.loc 1 219 22 discriminator 1
 904 005a 9C58     		lw	a5,48(s1)
 905              		.loc 1 219 29 discriminator 1
 906 005c 898B     		andi	a5,a5,2
 907              		.loc 1 219 7 discriminator 1
 908 005e F5FF     		bnez	a5,.L45
 220:../src/bsp/advspi.c **** 	SPI_FLASH_Reg->CTRL  |= ((tx_fifo_depth/2) << 16);  //set tx threshold as half of txfifo depth
 909              		.loc 1 220 23
 910 0060 9C58     		lw	a5,48(s1)
 911              		.loc 1 220 41
 912 0062 13591900 		srli	s2,s2,1
 913 0066 1379F90F 		andi	s2,s2,0xff
 914              		.loc 1 220 45
 915 006a 4209     		slli	s2,s2,16
 916              		.loc 1 220 23
 917 006c 3369F900 		or	s2,s2,a5
 918 0070 23A82403 		sw	s2,48(s1)
 221:../src/bsp/advspi.c **** 
 222:../src/bsp/advspi.c **** 	SPI_FLASH_Reg->CTRL |= (0x1 << 1);    //reset rx fifo
 919              		.loc 1 222 22
 920 0074 9C58     		lw	a5,48(s1)
 921 0076 93E72700 		ori	a5,a5,2
 922 007a 9CD8     		sw	a5,48(s1)
 923              	.L46:
 223:../src/bsp/advspi.c **** 	while((SPI_FLASH_Reg->CTRL & 0x1)) ;  //wait rx fifo reset complete
 924              		.loc 1 223 22 discriminator 1
 925 007c 9C58     		lw	a5,48(s1)
 926              		.loc 1 223 29 discriminator 1
 927 007e 858B     		andi	a5,a5,1
 928              		.loc 1 223 7 discriminator 1
 929 0080 F5FF     		bnez	a5,.L46
 224:../src/bsp/advspi.c **** 	SPI_FLASH_Reg->CTRL  |= ((rx_fifo_depth/2) << 8);  //set rx threshold as half of rxfifo depth
 930              		.loc 1 224 23
 931 0082 9858     		lw	a4,48(s1)
 932              		.loc 1 224 41
 933 0084 93571500 		srli	a5,a0,1
 934 0088 93F7F70F 		andi	a5,a5,0xff
 935              		.loc 1 224 45
 936 008c A207     		slli	a5,a5,8
 937              		.loc 1 224 23
 938 008e D98F     		or	a5,a5,a4
 939 0090 9CD8     		sw	a5,48(s1)
 225:../src/bsp/advspi.c **** 
 226:../src/bsp/advspi.c **** 	//SPI_FLASH_Reg->INTREN |= (0x1 << 4);  //Do not support Interupt signal
 227:../src/bsp/advspi.c **** 	SPI_FLASH_Reg->INTREN &= 0x00000000;    //close all the interrupt
 940              		.loc 1 227 24
 941 0092 9C5C     		lw	a5,56(s1)
 942 0094 23AC0402 		sw	zero,56(s1)
 228:../src/bsp/advspi.c **** 	SPI_FLASH_Reg->TIMING &= (~(0xff));
 943              		.loc 1 228 24
 944 0098 BC40     		lw	a5,64(s1)
 229:../src/bsp/advspi.c **** 	SPI_FLASH_Reg->TIMING |= (0x3);       //Set the SPI Interface Timing Register (0x40)
 230:../src/bsp/advspi.c **** 	                                   //to set SCLK_DIV to 4, which divide the spi_clk into
 231:../src/bsp/advspi.c **** 	                                   //((4+1)*2) = 10 as SCLK
 232:../src/bsp/advspi.c **** 	return;
 233:../src/bsp/advspi.c **** }
 945              		.loc 1 233 1
 946 009a B240     		lw	ra,12(sp)
 947              		.cfi_restore 1
 948 009c 1249     		lw	s2,4(sp)
 949              		.cfi_restore 18
 228:../src/bsp/advspi.c **** 	SPI_FLASH_Reg->TIMING &= (~(0xff));
 950              		.loc 1 228 24
 951 009e 93F707F0 		andi	a5,a5,-256
 952 00a2 BCC0     		sw	a5,64(s1)
 229:../src/bsp/advspi.c **** 	SPI_FLASH_Reg->TIMING |= (0x3);       //Set the SPI Interface Timing Register (0x40)
 953              		.loc 1 229 24
 954 00a4 BC40     		lw	a5,64(s1)
 955              		.loc 1 233 1
 956 00a6 8249     		lw	s3,0(sp)
 957              		.cfi_restore 19
 229:../src/bsp/advspi.c **** 	SPI_FLASH_Reg->TIMING |= (0x3);       //Set the SPI Interface Timing Register (0x40)
 958              		.loc 1 229 24
 959 00a8 93E73700 		ori	a5,a5,3
 960 00ac BCC0     		sw	a5,64(s1)
 961              		.loc 1 233 1
 962 00ae A244     		lw	s1,8(sp)
 963              		.cfi_restore 9
 964 00b0 4101     		addi	sp,sp,16
 965              		.cfi_def_cfa_offset 0
 966 00b2 8280     		jr	ra
 967              		.cfi_endproc
 968              	.LFE17:
 970              		.section	.text.spi_flash_read,"ax",@progbits
 971              		.align	1
 972              		.globl	spi_flash_read
 974              	spi_flash_read:
 975              	.LFB18:
 234:../src/bsp/advspi.c **** 
 235:../src/bsp/advspi.c **** //cmd -> address -> data
 236:../src/bsp/advspi.c **** void spi_flash_read(uint8_t rd_len, uint32_t cmd, uint32_t address,uint8_t *read_buffer)
 237:../src/bsp/advspi.c **** {
 976              		.loc 1 237 1
 977              		.cfi_startproc
 238:../src/bsp/advspi.c **** 	SPI_FLASH_Reg->TRANSCTRL = (1 << 30) +     //enable cmd
 978              		.loc 1 238 15
 979 0000 97070000 		lla	a5,SPI_FLASH_Reg
 979      93870700 
 980 0008 9843     		lw	a4,0(a5)
 239:../src/bsp/advspi.c **** 							(1 << 29) +        //Open the address
 240:../src/bsp/advspi.c **** 			                (2 << 24) +        //trans mode = 2 (read only)
 241:../src/bsp/advspi.c **** 							(0 << 22) +        //dual mode 0 regular mode
 981              		.loc 1 241 18
 982 000a B7070062 		li	a5,1644167168
 983 000e FD17     		addi	a5,a5,-1
 984 0010 AA97     		add	a5,a0,a5
 238:../src/bsp/advspi.c **** 	SPI_FLASH_Reg->TRANSCTRL = (1 << 30) +     //enable cmd
 985              		.loc 1 238 27
 986 0012 1CD3     		sw	a5,32(a4)
 242:../src/bsp/advspi.c **** 							((rd_len-1) << 0); //set read trans byte count
 243:../src/bsp/advspi.c **** 	//printf("%08x\n", SPI_FLASH_Reg->TRANSCTRL);
 244:../src/bsp/advspi.c **** 	SPI_FLASH_Reg->ADDR = address;
 987              		.loc 1 244 22
 988 0014 10D7     		sw	a2,40(a4)
 245:../src/bsp/advspi.c **** 	//printf("%08x\n", SPI_FLASH_Reg->ADDR);
 246:../src/bsp/advspi.c **** 	SPI_FLASH_Reg->CMD  = cmd;
 989              		.loc 1 246 22
 990 0016 4CD3     		sw	a1,36(a4)
 991              	.LBB4:
 247:../src/bsp/advspi.c **** 	//printf("%08x\n", SPI_FLASH_Reg->CMD);
 248:../src/bsp/advspi.c **** 
 249:../src/bsp/advspi.c **** 	for(uint8_t i = 0; i < rd_len; i++)
 992              		.loc 1 249 2
 993 0018 15C1     		beqz	a0,.L56
 994 001a 1306F5FF 		addi	a2,a0,-1
 995 001e 1376F60F 		andi	a2,a2,0xff
 996 0022 0506     		addi	a2,a2,1
 997 0024 3696     		add	a2,a3,a2
 998              	.L55:
 250:../src/bsp/advspi.c **** 	{
 251:../src/bsp/advspi.c **** 		*read_buffer = SPI_FLASH_Reg->DATA;
 999              		.loc 1 251 31
 1000 0026 5C57     		lw	a5,44(a4)
 252:../src/bsp/advspi.c **** 		read_buffer++;
 1001              		.loc 1 252 14
 1002 0028 8506     		addi	a3,a3,1
 251:../src/bsp/advspi.c **** 		read_buffer++;
 1003              		.loc 1 251 16
 1004 002a A38FF6FE 		sb	a5,-1(a3)
 1005              	.L54:
 253:../src/bsp/advspi.c **** 		while(SPI_FLASH_Reg ->STATUS & (0x1 <<15));
 1006              		.loc 1 253 23 discriminator 1
 1007 002e 5C5B     		lw	a5,52(a4)
 1008              		.loc 1 253 8 discriminator 1
 1009 0030 93950701 		slli	a1,a5,16
 1010 0034 E3CD05FE 		bltz	a1,.L54
 249:../src/bsp/advspi.c **** 	{
 1011              		.loc 1 249 2 discriminator 2
 1012 0038 E397C6FE 		bne	a3,a2,.L55
 1013              	.L56:
 1014              	.LBE4:
 254:../src/bsp/advspi.c **** 	}
 255:../src/bsp/advspi.c **** 	while((SPI_FLASH_Reg->STATUS & 0x01)); //wait until SPI_Ctroller active finish
 1015              		.loc 1 255 22 discriminator 1
 1016 003c 5C5B     		lw	a5,52(a4)
 1017              		.loc 1 255 31 discriminator 1
 1018 003e 858B     		andi	a5,a5,1
 1019              		.loc 1 255 7 discriminator 1
 1020 0040 F5FF     		bnez	a5,.L56
 256:../src/bsp/advspi.c **** }
 1021              		.loc 1 256 1
 1022 0042 8280     		ret
 1023              		.cfi_endproc
 1024              	.LFE18:
 1026              		.section	.text.spi_flash_write,"ax",@progbits
 1027              		.align	1
 1028              		.globl	spi_flash_write
 1030              	spi_flash_write:
 1031              	.LFB19:
 257:../src/bsp/advspi.c **** 
 258:../src/bsp/advspi.c **** //the consequence of sending
 259:../src/bsp/advspi.c **** //cmd -> address -> data
 260:../src/bsp/advspi.c **** void spi_flash_write(uint8_t wr_len, uint32_t cmd, uint32_t address,uint8_t *write_buffer)
 261:../src/bsp/advspi.c **** {
 1032              		.loc 1 261 1
 1033              		.cfi_startproc
 1034 0000 17030000 		call	t0,__riscv_save_2
 1034      E7020300 
 1035              		.cfi_offset 9, -12
 1036              		.cfi_offset 1, -4
 1037              		.cfi_def_cfa_offset 16
 1038 0008 4111     		addi	sp,sp,-16
 1039              		.cfi_def_cfa_offset 32
 1040              		.loc 1 261 1
 1041 000a AA84     		mv	s1,a0
 262:../src/bsp/advspi.c **** 	spi_flash_write_cmd(WRITE_ENABLE);
 1042              		.loc 1 262 2
 1043 000c 1945     		li	a0,6
 261:../src/bsp/advspi.c **** 	spi_flash_write_cmd(WRITE_ENABLE);
 1044              		.loc 1 261 1
 1045 000e 2EC6     		sw	a1,12(sp)
 1046 0010 32C4     		sw	a2,8(sp)
 1047 0012 36C2     		sw	a3,4(sp)
 1048              		.loc 1 262 2
 1049 0014 97000000 		call	spi_flash_write_cmd
 1049      E7800000 
 263:../src/bsp/advspi.c **** 	spi_flash_read_status();
 1050              		.loc 1 263 2
 1051 001c 97000000 		call	spi_flash_read_status
 1051      E7800000 
 264:../src/bsp/advspi.c **** 
 265:../src/bsp/advspi.c **** 	SPI_FLASH_Reg->TRANSCTRL = (1 << 30) +        //enable cmd
 1052              		.loc 1 265 15
 1053 0024 97070000 		lla	a5,SPI_FLASH_Reg
 1053      93870700 
 1054 002c 9C43     		lw	a5,0(a5)
 266:../src/bsp/advspi.c **** 							(1 << 29) + //enable address
 267:../src/bsp/advspi.c **** 			                (1 << 24) +        //trans mode = 1 (write only)
 268:../src/bsp/advspi.c **** 							(0 << 22) +         //dual mode
 269:../src/bsp/advspi.c **** 							((wr_len-1) << 12); //set read trans byte count
 1055              		.loc 1 269 16
 1056 002e 1387F4FF 		addi	a4,s1,-1
 1057              		.loc 1 269 20
 1058 0032 3207     		slli	a4,a4,12
 268:../src/bsp/advspi.c **** 							((wr_len-1) << 12); //set read trans byte count
 1059              		.loc 1 268 18
 1060 0034 37050061 		li	a0,1627389952
 270:../src/bsp/advspi.c **** 
 271:../src/bsp/advspi.c **** 	SPI_FLASH_Reg->ADDR = address;
 1061              		.loc 1 271 22
 1062 0038 2246     		lw	a2,8(sp)
 268:../src/bsp/advspi.c **** 							((wr_len-1) << 12); //set read trans byte count
 1063              		.loc 1 268 18
 1064 003a 2A97     		add	a4,a4,a0
 272:../src/bsp/advspi.c **** 	SPI_FLASH_Reg->CMD  = cmd;
 1065              		.loc 1 272 22
 1066 003c B245     		lw	a1,12(sp)
 265:../src/bsp/advspi.c **** 							(1 << 29) + //enable address
 1067              		.loc 1 265 27
 1068 003e 98D3     		sw	a4,32(a5)
 1069              	.LBB5:
 273:../src/bsp/advspi.c **** 	for(uint8_t i = 0; i < wr_len; i++)
 1070              		.loc 1 273 2
 1071 0040 9246     		lw	a3,4(sp)
 1072              	.LBE5:
 271:../src/bsp/advspi.c **** 	SPI_FLASH_Reg->CMD  = cmd;
 1073              		.loc 1 271 22
 1074 0042 90D7     		sw	a2,40(a5)
 272:../src/bsp/advspi.c **** 	for(uint8_t i = 0; i < wr_len; i++)
 1075              		.loc 1 272 22
 1076 0044 CCD3     		sw	a1,36(a5)
 1077              	.LBB6:
 1078              		.loc 1 273 2
 1079 0046 0147     		li	a4,0
 1080              	.L65:
 1081              		.loc 1 273 2 is_stmt 0 discriminator 1
 1082 0048 1376F70F 		andi	a2,a4,0xff
 1083 004c 63639602 		bgtu	s1,a2,.L67
 1084              	.L68:
 1085              	.LBE6:
 274:../src/bsp/advspi.c **** 	{
 275:../src/bsp/advspi.c **** 		SPI_FLASH_Reg->DATA = (uint32_t)(*write_buffer);
 276:../src/bsp/advspi.c **** 		write_buffer++;
 277:../src/bsp/advspi.c **** 		//check the status of txfifo
 278:../src/bsp/advspi.c **** 		while(SPI_FLASH_Reg ->STATUS & (0x1 <<23));
 279:../src/bsp/advspi.c **** 	}
 280:../src/bsp/advspi.c **** 
 281:../src/bsp/advspi.c **** 	while((SPI_FLASH_Reg->STATUS & 0x01)); //wait until SPI_ctroller active finish
 1086              		.loc 1 281 22 is_stmt 1 discriminator 1
 1087 0050 D85B     		lw	a4,52(a5)
 1088              		.loc 1 281 31 discriminator 1
 1089 0052 058B     		andi	a4,a4,1
 1090              		.loc 1 281 7 discriminator 1
 1091 0054 75FF     		bnez	a4,.L68
 282:../src/bsp/advspi.c **** 	spi_flash_write_cmd(WRITE_DISENABLE);
 1092              		.loc 1 282 2
 1093 0056 1145     		li	a0,4
 1094 0058 97000000 		call	spi_flash_write_cmd
 1094      E7800000 
 283:../src/bsp/advspi.c **** 	spi_flash_read_status();
 1095              		.loc 1 283 2
 1096 0060 97000000 		call	spi_flash_read_status
 1096      E7800000 
 284:../src/bsp/advspi.c **** }
 1097              		.loc 1 284 1
 1098 0068 4101     		addi	sp,sp,16
 1099              		.cfi_remember_state
 1100              		.cfi_def_cfa_offset 0
 1101 006a 17030000 		tail	__riscv_restore_2
 1101      67000300 
 1102              		.cfi_restore 9
 1103              		.cfi_restore 1
 1104              		.cfi_def_cfa_offset -16
 1105              	.L67:
 1106              		.cfi_restore_state
 1107              	.LBB7:
 275:../src/bsp/advspi.c **** 		write_buffer++;
 1108              		.loc 1 275 36
 1109 0072 3386E600 		add	a2,a3,a4
 275:../src/bsp/advspi.c **** 		write_buffer++;
 1110              		.loc 1 275 25
 1111 0076 03460600 		lbu	a2,0(a2)
 275:../src/bsp/advspi.c **** 		write_buffer++;
 1112              		.loc 1 275 23
 1113 007a D0D7     		sw	a2,44(a5)
 1114              	.L66:
 278:../src/bsp/advspi.c **** 	}
 1115              		.loc 1 278 23 discriminator 1
 1116 007c D05B     		lw	a2,52(a5)
 278:../src/bsp/advspi.c **** 	}
 1117              		.loc 1 278 8 discriminator 1
 1118 007e 93158600 		slli	a1,a2,8
 1119 0082 E3CD05FE 		bltz	a1,.L66
 1120 0086 0507     		addi	a4,a4,1
 1121 0088 C1B7     		j	.L65
 1122              	.LBE7:
 1123              		.cfi_endproc
 1124              	.LFE19:
 1126              		.section	.text.change_mode_spi_flash,"ax",@progbits
 1127              		.align	1
 1128              		.globl	change_mode_spi_flash
 1130              	change_mode_spi_flash:
 1131              	.LFB20:
 285:../src/bsp/advspi.c **** 
 286:../src/bsp/advspi.c **** //change the mode of spi flash
 287:../src/bsp/advspi.c **** void change_mode_spi_flash()
 288:../src/bsp/advspi.c **** {
 1132              		.loc 1 288 1
 1133              		.cfi_startproc
 289:../src/bsp/advspi.c **** 	uint32_t i;
 290:../src/bsp/advspi.c **** 	//read spi memory access register 0x50
 291:../src/bsp/advspi.c **** 	i = SPI_FLASH_Reg ->MEMCTRL;
 1134              		.loc 1 291 20
 1135 0000 97070000 		lla	a5,SPI_FLASH_Reg
 1135      93870700 
 1136 0008 9843     		lw	a4,0(a5)
 1137              		.loc 1 291 4
 1138 000a 3C4B     		lw	a5,80(a4)
 292:../src/bsp/advspi.c **** 	//write back to spi flash reg
 293:../src/bsp/advspi.c **** 	SPI_FLASH_Reg ->MEMCTRL = i;
 1139              		.loc 1 293 26
 1140 000c 3CCB     		sw	a5,80(a4)
 1141              	.L73:
 294:../src/bsp/advspi.c **** 	//wait the memCtrlChg become 0
 295:../src/bsp/advspi.c **** 	while(SPI_FLASH_Reg ->MEMCTRL & (0x01 <<8 ));
 1142              		.loc 1 295 22 discriminator 1
 1143 000e 3C4B     		lw	a5,80(a4)
 1144              		.loc 1 295 32 discriminator 1
 1145 0010 93F70710 		andi	a5,a5,256
 1146              		.loc 1 295 7 discriminator 1
 1147 0014 EDFF     		bnez	a5,.L73
 296:../src/bsp/advspi.c **** 
 297:../src/bsp/advspi.c **** }
 1148              		.loc 1 297 1
 1149 0016 8280     		ret
 1150              		.cfi_endproc
 1151              	.LFE20:
 1153              		.section	.text.spi_flash_write_cmd,"ax",@progbits
 1154              		.align	1
 1155              		.globl	spi_flash_write_cmd
 1157              	spi_flash_write_cmd:
 1158              	.LFB21:
 298:../src/bsp/advspi.c **** 
 299:../src/bsp/advspi.c **** //write cmd to spi flash
 300:../src/bsp/advspi.c **** //accord different spi flash
 301:../src/bsp/advspi.c **** void spi_flash_write_cmd(uint32_t cmd)
 302:../src/bsp/advspi.c **** {
 1159              		.loc 1 302 1
 1160              		.cfi_startproc
 1161 0000 17030000 		call	t0,__riscv_save_3
 1161      E7020300 
 1162              		.cfi_offset 18, -16
 1163              		.cfi_offset 9, -12
 1164              		.cfi_offset 1, -4
 1165              		.cfi_def_cfa_offset 16
 303:../src/bsp/advspi.c **** 	SPI_FLASH_Reg->TRANSCTRL = (0 << 30) +        //Disenable cmd
 1166              		.loc 1 303 15
 1167 0008 17090000 		lla	s2,SPI_FLASH_Reg
 1167      13090900 
 1168 0010 03270900 		lw	a4,0(s2)
 1169              		.loc 1 303 27
 1170 0014 B7070001 		li	a5,16777216
 302:../src/bsp/advspi.c **** 	SPI_FLASH_Reg->TRANSCTRL = (0 << 30) +        //Disenable cmd
 1171              		.loc 1 302 1
 1172 0018 AA84     		mv	s1,a0
 1173              		.loc 1 303 27
 1174 001a 1CD3     		sw	a5,32(a4)
 304:../src/bsp/advspi.c **** 			                (1 << 24) + //trans mode = 1 (write only)
 305:../src/bsp/advspi.c **** 							(0 << 22) +//regular mode
 306:../src/bsp/advspi.c **** 							(0 << 12); //set trans byte count is 1
 307:../src/bsp/advspi.c **** 	SPI_FLASH_Reg->CMD  = 0x01;//Start to transfer
 1175              		.loc 1 307 22
 1176 001c 8547     		li	a5,1
 1177 001e 5CD3     		sw	a5,36(a4)
 308:../src/bsp/advspi.c **** 	if(cmd == CHIP_ERASE)
 1178              		.loc 1 308 4
 1179 0020 93070006 		li	a5,96
 1180 0024 630FF500 		beq	a0,a5,.L82
 1181              	.L76:
 309:../src/bsp/advspi.c **** 	{
 310:../src/bsp/advspi.c **** 		spi_flash_write_cmd(WRITE_ENABLE);
 311:../src/bsp/advspi.c **** 		spi_flash_read_status();
 312:../src/bsp/advspi.c **** 	}
 313:../src/bsp/advspi.c **** 	SPI_FLASH_Reg->DATA = cmd;
 1182              		.loc 1 313 22
 1183 0028 44D7     		sw	s1,44(a4)
 1184              	.L77:
 314:../src/bsp/advspi.c **** 	//Check the status of tx_FIFO
 315:../src/bsp/advspi.c **** 	while(SPI_FLASH_Reg ->STATUS & (0x1 <<23));
 1185              		.loc 1 315 22 discriminator 1
 1186 002a 5C5B     		lw	a5,52(a4)
 1187              		.loc 1 315 7 discriminator 1
 1188 002c 93968700 		slli	a3,a5,8
 1189 0030 E3CD06FE 		bltz	a3,.L77
 1190              	.L78:
 316:../src/bsp/advspi.c **** 	//Check the status of Transfer
 317:../src/bsp/advspi.c **** 	while((SPI_FLASH_Reg->STATUS & 0x01));
 1191              		.loc 1 317 22 discriminator 1
 1192 0034 5C5B     		lw	a5,52(a4)
 1193              		.loc 1 317 31 discriminator 1
 1194 0036 858B     		andi	a5,a5,1
 1195              		.loc 1 317 7 discriminator 1
 1196 0038 F5FF     		bnez	a5,.L78
 318:../src/bsp/advspi.c **** }
 1197              		.loc 1 318 1
 1198 003a 17030000 		tail	__riscv_restore_3
 1198      67000300 
 1199              		.cfi_remember_state
 1200              		.cfi_restore 18
 1201              		.cfi_restore 9
 1202              		.cfi_restore 1
 1203              		.cfi_def_cfa_offset 0
 1204              	.L82:
 1205              		.cfi_restore_state
 310:../src/bsp/advspi.c **** 		spi_flash_read_status();
 1206              		.loc 1 310 3
 1207 0042 1945     		li	a0,6
 1208 0044 97000000 		call	spi_flash_write_cmd
 1208      E7800000 
 311:../src/bsp/advspi.c **** 	}
 1209              		.loc 1 311 3
 1210 004c 97000000 		call	spi_flash_read_status
 1210      E7800000 
 1211 0054 03270900 		lw	a4,0(s2)
 1212 0058 C1BF     		j	.L76
 1213              		.cfi_endproc
 1214              	.LFE21:
 1216              		.section	.text.spi_flash_page_program,"ax",@progbits
 1217              		.align	1
 1218              		.globl	spi_flash_page_program
 1220              	spi_flash_page_program:
 1221              	.LFB22:
 319:../src/bsp/advspi.c **** 
 320:../src/bsp/advspi.c **** //Page program
 321:../src/bsp/advspi.c **** void spi_flash_page_program(uint8_t wr_len,uint32_t address,uint8_t *write_buffer)
 322:../src/bsp/advspi.c **** {
 1222              		.loc 1 322 1
 1223              		.cfi_startproc
 1224 0000 17030000 		call	t0,__riscv_save_2
 1224      E7020300 
 1225              		.cfi_offset 9, -12
 1226              		.cfi_offset 1, -4
 1227              		.cfi_def_cfa_offset 16
 1228 0008 4111     		addi	sp,sp,-16
 1229              		.cfi_def_cfa_offset 32
 1230              		.loc 1 322 1
 1231 000a AA84     		mv	s1,a0
 323:../src/bsp/advspi.c **** 	spi_flash_write_cmd(WRITE_ENABLE);
 1232              		.loc 1 323 2
 1233 000c 1945     		li	a0,6
 322:../src/bsp/advspi.c **** 	spi_flash_write_cmd(WRITE_ENABLE);
 1234              		.loc 1 322 1
 1235 000e 2EC4     		sw	a1,8(sp)
 1236 0010 32C6     		sw	a2,12(sp)
 1237              		.loc 1 323 2
 1238 0012 97000000 		call	spi_flash_write_cmd
 1238      E7800000 
 324:../src/bsp/advspi.c **** 	spi_flash_read_status();
 1239              		.loc 1 324 2
 1240 001a 97000000 		call	spi_flash_read_status
 1240      E7800000 
 325:../src/bsp/advspi.c **** 
 326:../src/bsp/advspi.c **** 	SPI_FLASH_Reg->TRANSCTRL = (1 << 30) + //enable cmd
 1241              		.loc 1 326 15
 1242 0022 97070000 		lla	a5,SPI_FLASH_Reg
 1242      93870700 
 1243 002a 9843     		lw	a4,0(a5)
 327:../src/bsp/advspi.c **** 							(1 << 29) + //enable address
 328:../src/bsp/advspi.c **** 			                (1 << 24) +        //trans mode = 1 (write only)
 329:../src/bsp/advspi.c **** 							(0 << 22) +         //dual mode
 330:../src/bsp/advspi.c **** 							((wr_len-1) << 12); //set read trans byte count
 1244              		.loc 1 330 16
 1245 002c 9387F4FF 		addi	a5,s1,-1
 1246              		.loc 1 330 20
 1247 0030 9396C700 		slli	a3,a5,12
 329:../src/bsp/advspi.c **** 							((wr_len-1) << 12); //set read trans byte count
 1248              		.loc 1 329 18
 1249 0034 37050061 		li	a0,1627389952
 331:../src/bsp/advspi.c **** 
 332:../src/bsp/advspi.c **** 	SPI_FLASH_Reg->ADDR = address;
 1250              		.loc 1 332 22
 1251 0038 A245     		lw	a1,8(sp)
 329:../src/bsp/advspi.c **** 							((wr_len-1) << 12); //set read trans byte count
 1252              		.loc 1 329 18
 1253 003a AA96     		add	a3,a3,a0
 326:../src/bsp/advspi.c **** 							(1 << 29) + //enable address
 1254              		.loc 1 326 27
 1255 003c 14D3     		sw	a3,32(a4)
 1256              		.loc 1 332 22
 1257 003e 0CD7     		sw	a1,40(a4)
 333:../src/bsp/advspi.c **** 	SPI_FLASH_Reg->CMD  = 0x02;//page program cmd
 1258              		.loc 1 333 22
 1259 0040 8946     		li	a3,2
 1260 0042 54D3     		sw	a3,36(a4)
 1261              	.LBB8:
 334:../src/bsp/advspi.c **** 	for(uint8_t i = 0; i < wr_len; i++)
 1262              		.loc 1 334 2
 1263 0044 8DC0     		beqz	s1,.L87
 1264 0046 3246     		lw	a2,12(sp)
 1265 0048 93F6F70F 		andi	a3,a5,0xff
 1266 004c 8506     		addi	a3,a3,1
 1267 004e B296     		add	a3,a2,a3
 1268              	.L86:
 335:../src/bsp/advspi.c **** 	{
 336:../src/bsp/advspi.c **** 		SPI_FLASH_Reg->DATA = (uint32_t)(*write_buffer);
 1269              		.loc 1 336 25
 1270 0050 83470600 		lbu	a5,0(a2)
 337:../src/bsp/advspi.c **** 		write_buffer++;
 1271              		.loc 1 337 15
 1272 0054 0506     		addi	a2,a2,1
 336:../src/bsp/advspi.c **** 		write_buffer++;
 1273              		.loc 1 336 23
 1274 0056 5CD7     		sw	a5,44(a4)
 1275              	.L85:
 338:../src/bsp/advspi.c **** 		//check the status of txfifo
 339:../src/bsp/advspi.c **** 		while(SPI_FLASH_Reg ->STATUS & (0x1 <<23));
 1276              		.loc 1 339 23 discriminator 1
 1277 0058 5C5B     		lw	a5,52(a4)
 1278              		.loc 1 339 8 discriminator 1
 1279 005a 93958700 		slli	a1,a5,8
 1280 005e E3CD05FE 		bltz	a1,.L85
 334:../src/bsp/advspi.c **** 	{
 1281              		.loc 1 334 2 discriminator 2
 1282 0062 E397C6FE 		bne	a3,a2,.L86
 1283              	.L87:
 1284              	.LBE8:
 340:../src/bsp/advspi.c **** 	}
 341:../src/bsp/advspi.c **** 
 342:../src/bsp/advspi.c **** 	while((SPI_FLASH_Reg->STATUS & 0x01)); //wait until SPI_ctroller active finish
 1285              		.loc 1 342 22 discriminator 1
 1286 0066 5C5B     		lw	a5,52(a4)
 1287              		.loc 1 342 31 discriminator 1
 1288 0068 858B     		andi	a5,a5,1
 1289              		.loc 1 342 7 discriminator 1
 1290 006a F5FF     		bnez	a5,.L87
 343:../src/bsp/advspi.c **** 	spi_flash_write_cmd(WRITE_DISENABLE);
 1291              		.loc 1 343 2
 1292 006c 1145     		li	a0,4
 1293 006e 97000000 		call	spi_flash_write_cmd
 1293      E7800000 
 344:../src/bsp/advspi.c **** 	spi_flash_read_status();    //wait spi flash free
 1294              		.loc 1 344 2
 1295 0076 97000000 		call	spi_flash_read_status
 1295      E7800000 
 345:../src/bsp/advspi.c **** }
 1296              		.loc 1 345 1
 1297 007e 4101     		addi	sp,sp,16
 1298              		.cfi_def_cfa_offset 0
 1299 0080 17030000 		tail	__riscv_restore_2
 1299      67000300 
 1300              		.cfi_restore 9
 1301              		.cfi_restore 1
 1302              		.cfi_def_cfa_offset -16
 1303              		.cfi_endproc
 1304              	.LFE22:
 1306              		.section	.text.spi_flash_sector_erase,"ax",@progbits
 1307              		.align	1
 1308              		.globl	spi_flash_sector_erase
 1310              	spi_flash_sector_erase:
 1311              	.LFB23:
 346:../src/bsp/advspi.c **** 
 347:../src/bsp/advspi.c **** //Sector Erase
 348:../src/bsp/advspi.c **** void spi_flash_sector_erase(uint32_t address)
 349:../src/bsp/advspi.c **** {
 1312              		.loc 1 349 1
 1313              		.cfi_startproc
 1314 0000 17030000 		call	t0,__riscv_save_2
 1314      E7020300 
 1315              		.cfi_offset 9, -12
 1316              		.cfi_offset 1, -4
 1317              		.cfi_def_cfa_offset 16
 1318              		.loc 1 349 1
 1319 0008 AA84     		mv	s1,a0
 350:../src/bsp/advspi.c **** 	spi_flash_write_cmd(WRITE_ENABLE);
 1320              		.loc 1 350 2
 1321 000a 1945     		li	a0,6
 1322 000c 97000000 		call	spi_flash_write_cmd
 1322      E7800000 
 351:../src/bsp/advspi.c **** 	spi_flash_read_status();
 1323              		.loc 1 351 2
 1324 0014 97000000 		call	spi_flash_read_status
 1324      E7800000 
 352:../src/bsp/advspi.c **** 	//litter endian and the range of address
 353:../src/bsp/advspi.c **** 	//uint8_t temp[3];
 354:../src/bsp/advspi.c **** 	uint8_t temp0;
 355:../src/bsp/advspi.c **** 	uint8_t temp1;
 356:../src/bsp/advspi.c **** 	uint8_t temp2;
 357:../src/bsp/advspi.c **** 	SPI_FLASH_Reg->TRANSCTRL = (1 << 30) + //enable cmd
 1325              		.loc 1 357 15
 1326 001c 97070000 		lla	a5,SPI_FLASH_Reg
 1326      93870700 
 1327 0024 9C43     		lw	a5,0(a5)
 1328              		.loc 1 357 27
 1329 0026 37270041 		li	a4,1090527232
 358:../src/bsp/advspi.c **** 			                (1 << 24) +        //trans mode = 1 (write only)
 359:../src/bsp/advspi.c **** 							(0 << 22) +         //dual mode
 360:../src/bsp/advspi.c **** 							(2 << 12); //set address - 3bytes
 361:../src/bsp/advspi.c **** 
 362:../src/bsp/advspi.c **** 	temp0 = (address >> 16 &0xFF);//The address High byte
 363:../src/bsp/advspi.c **** 	temp1 = (address >> 8  &0xFF);//The address middle byte
 364:../src/bsp/advspi.c **** 	temp2 = (address       &0xFF);//The address low   byte
 365:../src/bsp/advspi.c **** 
 366:../src/bsp/advspi.c **** 	SPI_FLASH_Reg->CMD  = 0x20; //Sector Erase cmd
 1330              		.loc 1 366 22
 1331 002a 93060002 		li	a3,32
 357:../src/bsp/advspi.c **** 			                (1 << 24) +        //trans mode = 1 (write only)
 1332              		.loc 1 357 27
 1333 002e 98D3     		sw	a4,32(a5)
 362:../src/bsp/advspi.c **** 	temp1 = (address >> 8  &0xFF);//The address middle byte
 1334              		.loc 1 362 19
 1335 0030 13D70401 		srli	a4,s1,16
 1336              		.loc 1 366 22
 1337 0034 D4D3     		sw	a3,36(a5)
 1338 0036 1377F70F 		andi	a4,a4,255
 363:../src/bsp/advspi.c **** 	temp2 = (address       &0xFF);//The address low   byte
 1339              		.loc 1 363 19
 1340 003a 93D68400 		srli	a3,s1,8
 367:../src/bsp/advspi.c **** 
 368:../src/bsp/advspi.c **** 	SPI_FLASH_Reg->DATA = temp0;
 1341              		.loc 1 368 22
 1342 003e D8D7     		sw	a4,44(a5)
 1343              	.L96:
 369:../src/bsp/advspi.c **** 	//check the status of txfifo
 370:../src/bsp/advspi.c **** 	while(SPI_FLASH_Reg ->STATUS & (0x1 <<23));
 1344              		.loc 1 370 22 discriminator 1
 1345 0040 D85B     		lw	a4,52(a5)
 1346              		.loc 1 370 7 discriminator 1
 1347 0042 13168700 		slli	a2,a4,8
 1348 0046 E34D06FE 		bltz	a2,.L96
 1349 004a 13F7F60F 		andi	a4,a3,255
 371:../src/bsp/advspi.c **** 
 372:../src/bsp/advspi.c **** 	SPI_FLASH_Reg->DATA = temp1;
 1350              		.loc 1 372 22
 1351 004e D8D7     		sw	a4,44(a5)
 1352              	.L97:
 373:../src/bsp/advspi.c **** 	//check the status of txfifo
 374:../src/bsp/advspi.c **** 	while(SPI_FLASH_Reg ->STATUS & (0x1 <<23));
 1353              		.loc 1 374 22 discriminator 1
 1354 0050 D85B     		lw	a4,52(a5)
 1355              		.loc 1 374 7 discriminator 1
 1356 0052 93168700 		slli	a3,a4,8
 1357 0056 E3CD06FE 		bltz	a3,.L97
 1358 005a 93F4F40F 		andi	s1,s1,255
 375:../src/bsp/advspi.c **** 
 376:../src/bsp/advspi.c **** 	SPI_FLASH_Reg->DATA = temp2;
 1359              		.loc 1 376 22
 1360 005e C4D7     		sw	s1,44(a5)
 1361              	.L98:
 377:../src/bsp/advspi.c **** 	//check the status of txfifo
 378:../src/bsp/advspi.c **** 	while(SPI_FLASH_Reg ->STATUS & (0x1 <<23));
 1362              		.loc 1 378 22 discriminator 1
 1363 0060 D85B     		lw	a4,52(a5)
 1364              		.loc 1 378 7 discriminator 1
 1365 0062 93168700 		slli	a3,a4,8
 1366 0066 E3CD06FE 		bltz	a3,.L98
 1367              	.L99:
 379:../src/bsp/advspi.c **** 
 380:../src/bsp/advspi.c **** 	while((SPI_FLASH_Reg->STATUS & 0x01)); //wait until SPI_ctroller active finish
 1368              		.loc 1 380 22 discriminator 1
 1369 006a D85B     		lw	a4,52(a5)
 1370              		.loc 1 380 31 discriminator 1
 1371 006c 058B     		andi	a4,a4,1
 1372              		.loc 1 380 7 discriminator 1
 1373 006e 75FF     		bnez	a4,.L99
 381:../src/bsp/advspi.c **** 	spi_flash_write_cmd(WRITE_DISENABLE);
 1374              		.loc 1 381 2
 1375 0070 1145     		li	a0,4
 1376 0072 97000000 		call	spi_flash_write_cmd
 1376      E7800000 
 382:../src/bsp/advspi.c **** 	spi_flash_read_status();    //wait spi flash free
 1377              		.loc 1 382 2
 1378 007a 97000000 		call	spi_flash_read_status
 1378      E7800000 
 383:../src/bsp/advspi.c **** }
 1379              		.loc 1 383 1
 1380 0082 17030000 		tail	__riscv_restore_2
 1380      67000300 
 1381              		.cfi_restore 9
 1382              		.cfi_restore 1
 1383              		.cfi_def_cfa_offset 0
 1384              		.cfi_endproc
 1385              	.LFE23:
 1387              		.section	.text.spi_flash_read_status,"ax",@progbits
 1388              		.align	1
 1389              		.globl	spi_flash_read_status
 1391              	spi_flash_read_status:
 1392              	.LFB24:
 384:../src/bsp/advspi.c **** 
 385:../src/bsp/advspi.c **** void spi_flash_read_status()
 386:../src/bsp/advspi.c **** {
 1393              		.loc 1 386 1
 1394              		.cfi_startproc
 387:../src/bsp/advspi.c **** 	uint8_t temp_first;
 388:../src/bsp/advspi.c **** 	SPI_FLASH_Reg->TRANSCTRL = (1 << 30) +     //enable cmd
 1395              		.loc 1 388 15
 1396 0000 97070000 		lla	a5,SPI_FLASH_Reg
 1396      93870700 
 1397 0008 9C43     		lw	a5,0(a5)
 1398              		.loc 1 388 27
 1399 000a 37070042 		li	a4,1107296256
 389:../src/bsp/advspi.c **** 			                (2 << 24) +        //trans mode = 2 (read only)
 390:../src/bsp/advspi.c **** 							(0 << 22) +        //dual mode 0 regular mode
 391:../src/bsp/advspi.c **** 							(0 << 0); //set read 1 byte
 392:../src/bsp/advspi.c ****    do
 393:../src/bsp/advspi.c ****    {
 394:../src/bsp/advspi.c **** 	   	SPI_FLASH_Reg->CMD  = 0x05;//read status
 1400              		.loc 1 394 26
 1401 000e 9546     		li	a3,5
 388:../src/bsp/advspi.c **** 			                (2 << 24) +        //trans mode = 2 (read only)
 1402              		.loc 1 388 27
 1403 0010 98D3     		sw	a4,32(a5)
 1404              	.L106:
 1405              		.loc 1 394 26 discriminator 1
 1406 0012 D4D3     		sw	a3,36(a5)
 395:../src/bsp/advspi.c **** 		temp_first  = SPI_FLASH_Reg->DATA;
 1407              		.loc 1 395 30 discriminator 1
 1408 0014 D857     		lw	a4,44(a5)
 396:../src/bsp/advspi.c **** 		//printf("The spi  read status is %x\r\n",temp_first);
 397:../src/bsp/advspi.c ****    }
 398:../src/bsp/advspi.c ****    while(temp_first & 0x01 );//Select the low bit and wait become 0
 1409              		.loc 1 398 21 discriminator 1
 1410 0016 058B     		andi	a4,a4,1
 1411              		.loc 1 398 4 discriminator 1
 1412 0018 6DFF     		bnez	a4,.L106
 1413              	.L107:
 399:../src/bsp/advspi.c **** 
 400:../src/bsp/advspi.c ****    while((SPI_FLASH_Reg->STATUS & 0x03)) ; //wait until SPI_Ctroller active finish
 1414              		.loc 1 400 24 discriminator 1
 1415 001a D85B     		lw	a4,52(a5)
 1416              		.loc 1 400 33 discriminator 1
 1417 001c 0D8B     		andi	a4,a4,3
 1418              		.loc 1 400 9 discriminator 1
 1419 001e 75FF     		bnez	a4,.L107
 401:../src/bsp/advspi.c **** }
 1420              		.loc 1 401 1
 1421 0020 8280     		ret
 1422              		.cfi_endproc
 1423              	.LFE24:
 1425              		.text
 1426              	.Letext0:
 1427              		.file 2 "c:\\gmd\\toolchain\\risc-v_toolchain\\riscv-none-embed\\include\\machine\\_default_types.
 1428              		.file 3 "c:\\gmd\\toolchain\\risc-v_toolchain\\riscv-none-embed\\include\\sys\\_stdint.h"
 1429              		.file 4 "c:\\gmd\\toolchain\\risc-v_toolchain\\riscv-none-embed\\include\\sys\\lock.h"
 1430              		.file 5 "c:\\gmd\\toolchain\\risc-v_toolchain\\riscv-none-embed\\include\\sys\\_types.h"
 1431              		.file 6 "c:\\gmd\\toolchain\\risc-v_toolchain\\lib\\gcc\\riscv-none-embed\\8.2.0\\include\\stddef.
 1432              		.file 7 "c:\\gmd\\toolchain\\risc-v_toolchain\\riscv-none-embed\\include\\sys\\reent.h"
 1433              		.file 8 "E:\\GMD\\workspace\\picorv32_demo\\src/picorv32.h"