   1              		.file	"advspi.c"
   2              		.option nopic
   3              		.text
   4              	.Ltext0:
   5              		.cfi_sections	.debug_frame
   6              		.section	.sdata.SPI_FLASH_Reg,"aw"
   7              		.align	2
  10              	SPI_FLASH_Reg:
  11 0000 00400011 		.word	285229056
  12              		.section	.text.SelectSpi,"ax",@progbits
  13              		.align	1
  14              		.globl	SelectSpi
  16              	SelectSpi:
  17              	.LFB3:
  18              		.file 1 "../src/bsp/advspi.c"
   1:../src/bsp/advspi.c **** /*
   2:../src/bsp/advspi.c ****  * *****************************************************************************************
   3:../src/bsp/advspi.c ****  *
   4:../src/bsp/advspi.c ****  * 		Copyright (C) 2014-2020 Gowin Semiconductor Technology Co.,Ltd.
   5:../src/bsp/advspi.c ****  *
   6:../src/bsp/advspi.c ****  * @file		advspi.c
   7:../src/bsp/advspi.c ****  * @author		Embedded Development Team
   8:../src/bsp/advspi.c ****  * @version		V1.2
   9:../src/bsp/advspi.c ****  * @date		2020-6-30 09:00:00
  10:../src/bsp/advspi.c ****  * @brief		ADV SPI-Flash Peripheral.
  11:../src/bsp/advspi.c ****  ******************************************************************************************
  12:../src/bsp/advspi.c ****  */
  13:../src/bsp/advspi.c **** 
  14:../src/bsp/advspi.c **** /* Includes --------------------------------------------------------------------- */
  15:../src/bsp/advspi.c **** #include "advspi.h"
  16:../src/bsp/advspi.c **** 
  17:../src/bsp/advspi.c **** /* Declarations--------------------------------------------------------------------- */
  18:../src/bsp/advspi.c **** static SPI_FLASH_RegDef *SPI_FLASH_Reg = (SPI_FLASH_RegDef *)PICO_SPI_FLASH;
  19:../src/bsp/advspi.c **** 
  20:../src/bsp/advspi.c **** /* Functions --------------------------------------------------------------------- */
  21:../src/bsp/advspi.c **** void SelectSpi(SPI_FLASH_RegDef *SPI_Num)
  22:../src/bsp/advspi.c **** {
  19              		.loc 1 22 1
  20              		.cfi_startproc
  21 0000 0111     		addi	sp,sp,-32
  22              		.cfi_def_cfa_offset 32
  23 0002 22CE     		sw	s0,28(sp)
  24              		.cfi_offset 8, -4
  25 0004 0010     		addi	s0,sp,32
  26              		.cfi_def_cfa 8, 0
  27 0006 2326A4FE 		sw	a0,-20(s0)
  23:../src/bsp/advspi.c **** 	SPI_FLASH_Reg = SPI_Num;
  28              		.loc 1 23 16
  29 000a 97070000 		lla	a5,SPI_FLASH_Reg
  29      93870700 
  30 0012 0327C4FE 		lw	a4,-20(s0)
  31 0016 98C3     		sw	a4,0(a5)
  24:../src/bsp/advspi.c **** }
  32              		.loc 1 24 1
  33 0018 0100     		nop
  34 001a 7244     		lw	s0,28(sp)
  35              		.cfi_restore 8
  36 001c 0561     		addi	sp,sp,32
  37              		.cfi_def_cfa_register 2
  38 001e 8280     		jr	ra
  39              		.cfi_endproc
  40              	.LFE3:
  42              		.section	.text.SPI_reset,"ax",@progbits
  43              		.align	1
  44              		.globl	SPI_reset
  46              	SPI_reset:
  47              	.LFB4:
  25:../src/bsp/advspi.c **** 
  26:../src/bsp/advspi.c **** void SPI_reset(void)
  27:../src/bsp/advspi.c **** {
  48              		.loc 1 27 1
  49              		.cfi_startproc
  50 0000 4111     		addi	sp,sp,-16
  51              		.cfi_def_cfa_offset 16
  52 0002 22C6     		sw	s0,12(sp)
  53              		.cfi_offset 8, -4
  54 0004 0008     		addi	s0,sp,16
  55              		.cfi_def_cfa 8, 0
  28:../src/bsp/advspi.c **** 	SPI_FLASH_Reg->CTRL |= 0x01;         //reset spi
  56              		.loc 1 28 22
  57 0006 97070000 		lla	a5,SPI_FLASH_Reg
  57      93870700 
  58 000e 9C43     		lw	a5,0(a5)
  59 0010 985B     		lw	a4,48(a5)
  60 0012 97070000 		lla	a5,SPI_FLASH_Reg
  60      93870700 
  61 001a 9C43     		lw	a5,0(a5)
  62 001c 13671700 		ori	a4,a4,1
  63 0020 98DB     		sw	a4,48(a5)
  29:../src/bsp/advspi.c **** 	while((SPI_FLASH_Reg->CTRL & 0x01)); //wait until spi reset complete
  64              		.loc 1 29 7
  65 0022 0100     		nop
  66              	.L3:
  67              		.loc 1 29 22 discriminator 1
  68 0024 97070000 		lla	a5,SPI_FLASH_Reg
  68      93870700 
  69 002c 9C43     		lw	a5,0(a5)
  70 002e 9C5B     		lw	a5,48(a5)
  71              		.loc 1 29 29 discriminator 1
  72 0030 858B     		andi	a5,a5,1
  73              		.loc 1 29 7 discriminator 1
  74 0032 EDFB     		bnez	a5,.L3
  30:../src/bsp/advspi.c **** 	return;
  75              		.loc 1 30 2
  76 0034 0100     		nop
  31:../src/bsp/advspi.c **** }
  77              		.loc 1 31 1
  78 0036 3244     		lw	s0,12(sp)
  79              		.cfi_restore 8
  80 0038 4101     		addi	sp,sp,16
  81              		.cfi_def_cfa_register 2
  82 003a 8280     		jr	ra
  83              		.cfi_endproc
  84              	.LFE4:
  86              		.section	.text.SPI_set_mode,"ax",@progbits
  87              		.align	1
  88              		.globl	SPI_set_mode
  90              	SPI_set_mode:
  91              	.LFB5:
  32:../src/bsp/advspi.c **** 
  33:../src/bsp/advspi.c **** //select the slave mode or master mode
  34:../src/bsp/advspi.c **** //but need the hardware support
  35:../src/bsp/advspi.c **** void SPI_set_mode(uint32_t spi_mode)
  36:../src/bsp/advspi.c **** {
  92              		.loc 1 36 1
  93              		.cfi_startproc
  94 0000 7971     		addi	sp,sp,-48
  95              		.cfi_def_cfa_offset 48
  96 0002 22D6     		sw	s0,44(sp)
  97              		.cfi_offset 8, -4
  98 0004 0018     		addi	s0,sp,48
  99              		.cfi_def_cfa 8, 0
 100 0006 232EA4FC 		sw	a0,-36(s0)
  37:../src/bsp/advspi.c **** 	uint32_t buff = SPI_FLASH_Reg->TRANSFMT;
 101              		.loc 1 37 31
 102 000a 97070000 		lla	a5,SPI_FLASH_Reg
 102      93870700 
 103 0012 9C43     		lw	a5,0(a5)
 104              		.loc 1 37 11
 105 0014 9C4B     		lw	a5,16(a5)
 106 0016 2326F4FE 		sw	a5,-20(s0)
  38:../src/bsp/advspi.c **** 	SPI_FLASH_Reg->TRANSFMT = (buff & (~(1UL << 2))) + spi_mode;
 107              		.loc 1 38 34
 108 001a 8327C4FE 		lw	a5,-20(s0)
 109 001e 93F6B7FF 		andi	a3,a5,-5
 110              		.loc 1 38 15
 111 0022 97070000 		lla	a5,SPI_FLASH_Reg
 111      93870700 
 112 002a 9C43     		lw	a5,0(a5)
 113              		.loc 1 38 51
 114 002c 0327C4FD 		lw	a4,-36(s0)
 115 0030 3697     		add	a4,a3,a4
 116              		.loc 1 38 26
 117 0032 98CB     		sw	a4,16(a5)
  39:../src/bsp/advspi.c **** 	return;
 118              		.loc 1 39 2
 119 0034 0100     		nop
  40:../src/bsp/advspi.c **** }
 120              		.loc 1 40 1
 121 0036 3254     		lw	s0,44(sp)
 122              		.cfi_restore 8
 123 0038 4561     		addi	sp,sp,48
 124              		.cfi_def_cfa_register 2
 125 003a 8280     		jr	ra
 126              		.cfi_endproc
 127              	.LFE5:
 129              		.section	.text.SPI_set_addr_format,"ax",@progbits
 130              		.align	1
 131              		.globl	SPI_set_addr_format
 133              	SPI_set_addr_format:
 134              	.LFB6:
  41:../src/bsp/advspi.c **** 
  42:../src/bsp/advspi.c **** //addrLen = SPI_ADDR_LEN_1_BYTE / SPI_ADDR_LEN_2_BYTE / SPI_ADDR_LEN_3_BYTE / SPI_ADDR_LEN_4_BYTE
  43:../src/bsp/advspi.c **** //addrFmt = ADDRFMT_REGULAR / ADDRFMT_ASDATA
  44:../src/bsp/advspi.c **** void SPI_set_addr_format(uint8_t addrEn, uint32_t addrLen, uint32_t addrFmt)
  45:../src/bsp/advspi.c **** {
 135              		.loc 1 45 1
 136              		.cfi_startproc
 137 0000 7971     		addi	sp,sp,-48
 138              		.cfi_def_cfa_offset 48
 139 0002 22D6     		sw	s0,44(sp)
 140              		.cfi_offset 8, -4
 141 0004 0018     		addi	s0,sp,48
 142              		.cfi_def_cfa 8, 0
 143 0006 AA87     		mv	a5,a0
 144 0008 232CB4FC 		sw	a1,-40(s0)
 145 000c 232AC4FC 		sw	a2,-44(s0)
 146 0010 A30FF4FC 		sb	a5,-33(s0)
  46:../src/bsp/advspi.c **** 	uint32_t buff;
  47:../src/bsp/advspi.c **** 	if(0 == addrEn)
 147              		.loc 1 47 4
 148 0014 8347F4FD 		lbu	a5,-33(s0)
 149 0018 B5C7     		beqz	a5,.L10
  48:../src/bsp/advspi.c **** 	{
  49:../src/bsp/advspi.c **** 		return;
  50:../src/bsp/advspi.c **** 	}
  51:../src/bsp/advspi.c **** 	else
  52:../src/bsp/advspi.c **** 	{
  53:../src/bsp/advspi.c **** 		//set the addr enable && addr fomat
  54:../src/bsp/advspi.c **** 		buff = SPI_FLASH_Reg->TRANSCTRL;
 150              		.loc 1 54 23
 151 001a 97070000 		lla	a5,SPI_FLASH_Reg
 151      93870700 
 152 0022 9C43     		lw	a5,0(a5)
 153              		.loc 1 54 8
 154 0024 9C53     		lw	a5,32(a5)
 155 0026 2326F4FE 		sw	a5,-20(s0)
  55:../src/bsp/advspi.c **** 		SPI_FLASH_Reg->TRANSCTRL = (buff & (~(3UL << 28))) + addrFmt + SPI_ADDREN;
 156              		.loc 1 55 36
 157 002a 0327C4FE 		lw	a4,-20(s0)
 158 002e B70700D0 		li	a5,-805306368
 159 0032 FD17     		addi	a5,a5,-1
 160 0034 7D8F     		and	a4,a4,a5
 161              		.loc 1 55 54
 162 0036 832744FD 		lw	a5,-44(s0)
 163 003a B306F700 		add	a3,a4,a5
 164              		.loc 1 55 16
 165 003e 97070000 		lla	a5,SPI_FLASH_Reg
 165      93870700 
 166 0046 9C43     		lw	a5,0(a5)
 167              		.loc 1 55 64
 168 0048 37070020 		li	a4,536870912
 169 004c 3697     		add	a4,a3,a4
 170              		.loc 1 55 28
 171 004e 98D3     		sw	a4,32(a5)
  56:../src/bsp/advspi.c **** 		//set the width of the addr length
  57:../src/bsp/advspi.c **** 		buff = SPI_FLASH_Reg->TRANSFMT;
 172              		.loc 1 57 23
 173 0050 97070000 		lla	a5,SPI_FLASH_Reg
 173      93870700 
 174 0058 9C43     		lw	a5,0(a5)
 175              		.loc 1 57 8
 176 005a 9C4B     		lw	a5,16(a5)
 177 005c 2326F4FE 		sw	a5,-20(s0)
  58:../src/bsp/advspi.c **** 		SPI_FLASH_Reg->TRANSFMT  = (buff & (~(3UL << 16))) + addrLen;
 178              		.loc 1 58 36
 179 0060 0327C4FE 		lw	a4,-20(s0)
 180 0064 B707FDFF 		li	a5,-196608
 181 0068 FD17     		addi	a5,a5,-1
 182 006a B376F700 		and	a3,a4,a5
 183              		.loc 1 58 16
 184 006e 97070000 		lla	a5,SPI_FLASH_Reg
 184      93870700 
 185 0076 9C43     		lw	a5,0(a5)
 186              		.loc 1 58 54
 187 0078 032784FD 		lw	a4,-40(s0)
 188 007c 3697     		add	a4,a3,a4
 189              		.loc 1 58 28
 190 007e 98CB     		sw	a4,16(a5)
  59:../src/bsp/advspi.c **** 	}
  60:../src/bsp/advspi.c **** 	return;
 191              		.loc 1 60 2
 192 0080 0100     		nop
 193 0082 11A0     		j	.L7
 194              	.L10:
  49:../src/bsp/advspi.c **** 	}
 195              		.loc 1 49 3
 196 0084 0100     		nop
 197              	.L7:
  61:../src/bsp/advspi.c **** }
 198              		.loc 1 61 1
 199 0086 3254     		lw	s0,44(sp)
 200              		.cfi_restore 8
 201 0088 4561     		addi	sp,sp,48
 202              		.cfi_def_cfa_register 2
 203 008a 8280     		jr	ra
 204              		.cfi_endproc
 205              	.LFE6:
 207              		.section	.text.SPI_set_cmd_format,"ax",@progbits
 208              		.align	1
 209              		.globl	SPI_set_cmd_format
 211              	SPI_set_cmd_format:
 212              	.LFB7:
  62:../src/bsp/advspi.c **** 
  63:../src/bsp/advspi.c **** void SPI_set_cmd_format(uint8_t cmdEn)
  64:../src/bsp/advspi.c **** {
 213              		.loc 1 64 1
 214              		.cfi_startproc
 215 0000 7971     		addi	sp,sp,-48
 216              		.cfi_def_cfa_offset 48
 217 0002 22D6     		sw	s0,44(sp)
 218              		.cfi_offset 8, -4
 219 0004 0018     		addi	s0,sp,48
 220              		.cfi_def_cfa 8, 0
 221 0006 AA87     		mv	a5,a0
 222 0008 A30FF4FC 		sb	a5,-33(s0)
  65:../src/bsp/advspi.c **** 	uint32_t buff;
  66:../src/bsp/advspi.c **** 	if(0 == cmdEn)
 223              		.loc 1 66 4
 224 000c 8347F4FD 		lbu	a5,-33(s0)
 225 0010 9DCB     		beqz	a5,.L14
  67:../src/bsp/advspi.c **** 	{
  68:../src/bsp/advspi.c **** 		return;
  69:../src/bsp/advspi.c **** 	}
  70:../src/bsp/advspi.c **** 
  71:../src/bsp/advspi.c **** 	else
  72:../src/bsp/advspi.c **** 	{
  73:../src/bsp/advspi.c **** 		//open the spi cmd phase
  74:../src/bsp/advspi.c **** 		buff = SPI_FLASH_Reg->TRANSCTRL;
 226              		.loc 1 74 23
 227 0012 97070000 		lla	a5,SPI_FLASH_Reg
 227      93870700 
 228 001a 9C43     		lw	a5,0(a5)
 229              		.loc 1 74 8
 230 001c 9C53     		lw	a5,32(a5)
 231 001e 2326F4FE 		sw	a5,-20(s0)
  75:../src/bsp/advspi.c **** 		SPI_FLASH_Reg->TRANSCTRL = (buff & (~(1UL << 30))) + SPI_CMDEN;
 232              		.loc 1 75 36
 233 0022 0327C4FE 		lw	a4,-20(s0)
 234 0026 B70700C0 		li	a5,-1073741824
 235 002a FD17     		addi	a5,a5,-1
 236 002c B376F700 		and	a3,a4,a5
 237              		.loc 1 75 16
 238 0030 97070000 		lla	a5,SPI_FLASH_Reg
 238      93870700 
 239 0038 9C43     		lw	a5,0(a5)
 240              		.loc 1 75 54
 241 003a 37070040 		li	a4,1073741824
 242 003e 3697     		add	a4,a3,a4
 243              		.loc 1 75 28
 244 0040 98D3     		sw	a4,32(a5)
  76:../src/bsp/advspi.c **** 	}
  77:../src/bsp/advspi.c **** 	return;
 245              		.loc 1 77 2
 246 0042 0100     		nop
 247 0044 11A0     		j	.L11
 248              	.L14:
  68:../src/bsp/advspi.c **** 	}
 249              		.loc 1 68 3
 250 0046 0100     		nop
 251              	.L11:
  78:../src/bsp/advspi.c **** }
 252              		.loc 1 78 1
 253 0048 3254     		lw	s0,44(sp)
 254              		.cfi_restore 8
 255 004a 4561     		addi	sp,sp,48
 256              		.cfi_def_cfa_register 2
 257 004c 8280     		jr	ra
 258              		.cfi_endproc
 259              	.LFE7:
 261              		.section	.text.SPI_set_data_format,"ax",@progbits
 262              		.align	1
 263              		.globl	SPI_set_data_format
 265              	SPI_set_data_format:
 266              	.LFB8:
  79:../src/bsp/advspi.c **** 
  80:../src/bsp/advspi.c **** //dataMerge takes effect only when data length is 8
  81:../src/bsp/advspi.c **** void SPI_set_data_format(uint8_t dataBits, uint8_t dataMerge)
  82:../src/bsp/advspi.c **** {
 267              		.loc 1 82 1
 268              		.cfi_startproc
 269 0000 7971     		addi	sp,sp,-48
 270              		.cfi_def_cfa_offset 48
 271 0002 22D6     		sw	s0,44(sp)
 272              		.cfi_offset 8, -4
 273 0004 0018     		addi	s0,sp,48
 274              		.cfi_def_cfa 8, 0
 275 0006 AA87     		mv	a5,a0
 276 0008 2E87     		mv	a4,a1
 277 000a A30FF4FC 		sb	a5,-33(s0)
 278 000e BA87     		mv	a5,a4
 279 0010 230FF4FC 		sb	a5,-34(s0)
  83:../src/bsp/advspi.c **** 	uint32_t buff;
  84:../src/bsp/advspi.c **** 	buff = SPI_FLASH_Reg->TRANSFMT;
 280              		.loc 1 84 22
 281 0014 97070000 		lla	a5,SPI_FLASH_Reg
 281      93870700 
 282 001c 9C43     		lw	a5,0(a5)
 283              		.loc 1 84 7
 284 001e 9C4B     		lw	a5,16(a5)
 285 0020 2326F4FE 		sw	a5,-20(s0)
  85:../src/bsp/advspi.c **** 	SPI_FLASH_Reg->TRANSFMT = (buff &(~(0xf << 8))) + (((dataBits - 1) & 0xf) << 8);
 286              		.loc 1 85 34
 287 0024 0327C4FE 		lw	a4,-20(s0)
 288 0028 FD77     		li	a5,-4096
 289 002a 9387F70F 		addi	a5,a5,255
 290 002e B376F700 		and	a3,a4,a5
 291              		.loc 1 85 64
 292 0032 8347F4FD 		lbu	a5,-33(s0)
 293 0036 FD17     		addi	a5,a5,-1
 294              		.loc 1 85 76
 295 0038 A207     		slli	a5,a5,8
 296 003a 3E87     		mv	a4,a5
 297 003c 8567     		li	a5,4096
 298 003e 938707F0 		addi	a5,a5,-256
 299 0042 7D8F     		and	a4,a4,a5
 300              		.loc 1 85 15
 301 0044 97070000 		lla	a5,SPI_FLASH_Reg
 301      93870700 
 302 004c 9C43     		lw	a5,0(a5)
 303              		.loc 1 85 50
 304 004e 558F     		or	a4,a3,a4
 305              		.loc 1 85 26
 306 0050 98CB     		sw	a4,16(a5)
  86:../src/bsp/advspi.c **** 	if(8 == dataBits)
 307              		.loc 1 86 4
 308 0052 0347F4FD 		lbu	a4,-33(s0)
 309 0056 A147     		li	a5,8
 310 0058 631BF702 		bne	a4,a5,.L18
  87:../src/bsp/advspi.c **** 	{
  88:../src/bsp/advspi.c **** 		buff = SPI_FLASH_Reg->TRANSFMT;
 311              		.loc 1 88 23
 312 005c 97070000 		lla	a5,SPI_FLASH_Reg
 312      93870700 
 313 0064 9C43     		lw	a5,0(a5)
 314              		.loc 1 88 8
 315 0066 9C4B     		lw	a5,16(a5)
 316 0068 2326F4FE 		sw	a5,-20(s0)
  89:../src/bsp/advspi.c **** 		SPI_FLASH_Reg->TRANSFMT = (buff &(~(0x1 << 7))) + ((dataMerge & 0x1) << 8);
 317              		.loc 1 89 35
 318 006c 8327C4FE 		lw	a5,-20(s0)
 319 0070 93F6F7F7 		andi	a3,a5,-129
 320              		.loc 1 89 72
 321 0074 8347E4FD 		lbu	a5,-34(s0)
 322 0078 A207     		slli	a5,a5,8
 323 007a 13F70710 		andi	a4,a5,256
 324              		.loc 1 89 16
 325 007e 97070000 		lla	a5,SPI_FLASH_Reg
 325      93870700 
 326 0086 9C43     		lw	a5,0(a5)
 327              		.loc 1 89 51
 328 0088 3697     		add	a4,a3,a4
 329              		.loc 1 89 27
 330 008a 98CB     		sw	a4,16(a5)
  90:../src/bsp/advspi.c **** 	}
  91:../src/bsp/advspi.c **** 	return;
 331              		.loc 1 91 2
 332 008c 0100     		nop
 333              	.L18:
 334 008e 0100     		nop
  92:../src/bsp/advspi.c **** }
 335              		.loc 1 92 1
 336 0090 3254     		lw	s0,44(sp)
 337              		.cfi_restore 8
 338 0092 4561     		addi	sp,sp,48
 339              		.cfi_def_cfa_register 2
 340 0094 8280     		jr	ra
 341              		.cfi_endproc
 342              	.LFE8:
 344              		.section	.text.SPI_set_transfer_format,"ax",@progbits
 345              		.align	1
 346              		.globl	SPI_set_transfer_format
 348              	SPI_set_transfer_format:
 349              	.LFB9:
  93:../src/bsp/advspi.c **** 
  94:../src/bsp/advspi.c **** //mosiDir = SPI_MOSIBIDIR / SPI_MOSIUINDIR
  95:../src/bsp/advspi.c **** //lsbmsb  = SPI_LSB / SPI_MSB
  96:../src/bsp/advspi.c **** //cpol    = 0 / 1
  97:../src/bsp/advspi.c **** //cpha    = 0 / 1
  98:../src/bsp/advspi.c **** void SPI_set_transfer_format(uint32_t mosiDir, uint32_t lsbmsb, uint32_t cpol, uint32_t cpha)
  99:../src/bsp/advspi.c **** {
 350              		.loc 1 99 1
 351              		.cfi_startproc
 352 0000 7971     		addi	sp,sp,-48
 353              		.cfi_def_cfa_offset 48
 354 0002 22D6     		sw	s0,44(sp)
 355              		.cfi_offset 8, -4
 356 0004 0018     		addi	s0,sp,48
 357              		.cfi_def_cfa 8, 0
 358 0006 232EA4FC 		sw	a0,-36(s0)
 359 000a 232CB4FC 		sw	a1,-40(s0)
 360 000e 232AC4FC 		sw	a2,-44(s0)
 361 0012 2328D4FC 		sw	a3,-48(s0)
 100:../src/bsp/advspi.c **** 	uint32_t buff;
 101:../src/bsp/advspi.c **** 	uint32_t tmp;
 102:../src/bsp/advspi.c **** 	buff = SPI_FLASH_Reg->TRANSFMT;
 362              		.loc 1 102 22
 363 0016 97070000 		lla	a5,SPI_FLASH_Reg
 363      93870700 
 364 001e 9C43     		lw	a5,0(a5)
 365              		.loc 1 102 7
 366 0020 9C4B     		lw	a5,16(a5)
 367 0022 2326F4FE 		sw	a5,-20(s0)
 103:../src/bsp/advspi.c **** 	tmp = mosiDir + lsbmsb + ((cpol & 0x1) << 1) + (cpha & 0x1);
 368              		.loc 1 103 16
 369 0026 0327C4FD 		lw	a4,-36(s0)
 370 002a 832784FD 		lw	a5,-40(s0)
 371 002e 3E97     		add	a4,a4,a5
 372              		.loc 1 103 41
 373 0030 832744FD 		lw	a5,-44(s0)
 374 0034 8607     		slli	a5,a5,1
 375 0036 898B     		andi	a5,a5,2
 376              		.loc 1 103 25
 377 0038 3E97     		add	a4,a4,a5
 378              		.loc 1 103 55
 379 003a 832704FD 		lw	a5,-48(s0)
 380 003e 858B     		andi	a5,a5,1
 381              		.loc 1 103 6
 382 0040 BA97     		add	a5,a4,a5
 383 0042 2324F4FE 		sw	a5,-24(s0)
 104:../src/bsp/advspi.c **** 	SPI_FLASH_Reg->TRANSFMT = (buff & (~(0x1b))) + tmp;
 384              		.loc 1 104 34
 385 0046 8327C4FE 		lw	a5,-20(s0)
 386 004a 93F647FE 		andi	a3,a5,-28
 387              		.loc 1 104 15
 388 004e 97070000 		lla	a5,SPI_FLASH_Reg
 388      93870700 
 389 0056 9C43     		lw	a5,0(a5)
 390              		.loc 1 104 47
 391 0058 032784FE 		lw	a4,-24(s0)
 392 005c 3697     		add	a4,a3,a4
 393              		.loc 1 104 26
 394 005e 98CB     		sw	a4,16(a5)
 105:../src/bsp/advspi.c **** 	return;
 395              		.loc 1 105 2
 396 0060 0100     		nop
 106:../src/bsp/advspi.c **** }
 397              		.loc 1 106 1
 398 0062 3254     		lw	s0,44(sp)
 399              		.cfi_restore 8
 400 0064 4561     		addi	sp,sp,48
 401              		.cfi_def_cfa_register 2
 402 0066 8280     		jr	ra
 403              		.cfi_endproc
 404              	.LFE9:
 406              		.section	.text.SPI_set_trans_ctrl,"ax",@progbits
 407              		.align	1
 408              		.globl	SPI_set_trans_ctrl
 410              	SPI_set_trans_ctrl:
 411              	.LFB10:
 107:../src/bsp/advspi.c **** 
 108:../src/bsp/advspi.c **** //transMode = SPI_TRANSMODE_WRnRD     / SPI_TRANSMODE_WRONLY   / SPI_TRANSMODE_RDONLY    /
 109:../src/bsp/advspi.c **** //            SPI_TRANSMODE_WR_RD     / SPI_TRANSMODE_RD_WR    / SPI_TRANSMODE_WR_DMY_RD /
 110:../src/bsp/advspi.c **** //            SPI_TRANSMODE_RD_DMY_WR / SPI_TRANSMODE_NONEDATA / SPI_TRANSMODE_DMY_WR    /
 111:../src/bsp/advspi.c **** //            SPI_TRANSMODE_DMY_RD
 112:../src/bsp/advspi.c **** //dualQuad  = SPI_REGULAR / SPI_DUAL / SPI_QUAD
 113:../src/bsp/advspi.c **** //dummyCnt  = 1 / 2 / 3 / 4
 114:../src/bsp/advspi.c **** void SPI_set_trans_ctrl(uint32_t transMode, uint32_t dualQuad, uint32_t dummyCnt)
 115:../src/bsp/advspi.c **** {
 412              		.loc 1 115 1
 413              		.cfi_startproc
 414 0000 7971     		addi	sp,sp,-48
 415              		.cfi_def_cfa_offset 48
 416 0002 22D6     		sw	s0,44(sp)
 417              		.cfi_offset 8, -4
 418 0004 0018     		addi	s0,sp,48
 419              		.cfi_def_cfa 8, 0
 420 0006 232EA4FC 		sw	a0,-36(s0)
 421 000a 232CB4FC 		sw	a1,-40(s0)
 422 000e 232AC4FC 		sw	a2,-44(s0)
 116:../src/bsp/advspi.c **** 	uint32_t buff = SPI_FLASH_Reg->TRANSCTRL;
 423              		.loc 1 116 31
 424 0012 97070000 		lla	a5,SPI_FLASH_Reg
 424      93870700 
 425 001a 9C43     		lw	a5,0(a5)
 426              		.loc 1 116 11
 427 001c 9C53     		lw	a5,32(a5)
 428 001e 2326F4FE 		sw	a5,-20(s0)
 117:../src/bsp/advspi.c **** 	SPI_FLASH_Reg->TRANSCTRL = buff & (~((0xf << 24) + (0x3 << 22) + (0x3 << 9)));
 429              		.loc 1 117 15
 430 0022 97070000 		lla	a5,SPI_FLASH_Reg
 430      93870700 
 431 002a 9C43     		lw	a5,0(a5)
 432              		.loc 1 117 34
 433 002c 8326C4FE 		lw	a3,-20(s0)
 434 0030 370740F0 		li	a4,-264241152
 435 0034 1307F79F 		addi	a4,a4,-1537
 436 0038 758F     		and	a4,a3,a4
 437              		.loc 1 117 27
 438 003a 98D3     		sw	a4,32(a5)
 118:../src/bsp/advspi.c **** 	SPI_FLASH_Reg->TRANSCTRL += transMode;
 439              		.loc 1 118 27
 440 003c 97070000 		lla	a5,SPI_FLASH_Reg
 440      93870700 
 441 0044 9C43     		lw	a5,0(a5)
 442 0046 9453     		lw	a3,32(a5)
 443 0048 97070000 		lla	a5,SPI_FLASH_Reg
 443      93870700 
 444 0050 9C43     		lw	a5,0(a5)
 445 0052 0327C4FD 		lw	a4,-36(s0)
 446 0056 3697     		add	a4,a3,a4
 447 0058 98D3     		sw	a4,32(a5)
 119:../src/bsp/advspi.c **** 	SPI_FLASH_Reg->TRANSCTRL += dualQuad;
 448              		.loc 1 119 27
 449 005a 97070000 		lla	a5,SPI_FLASH_Reg
 449      93870700 
 450 0062 9C43     		lw	a5,0(a5)
 451 0064 9453     		lw	a3,32(a5)
 452 0066 97070000 		lla	a5,SPI_FLASH_Reg
 452      93870700 
 453 006e 9C43     		lw	a5,0(a5)
 454 0070 032784FD 		lw	a4,-40(s0)
 455 0074 3697     		add	a4,a3,a4
 456 0076 98D3     		sw	a4,32(a5)
 120:../src/bsp/advspi.c **** 	SPI_FLASH_Reg->TRANSCTRL += (((dummyCnt - 1) & 0x3) << 9);
 457              		.loc 1 120 27
 458 0078 97070000 		lla	a5,SPI_FLASH_Reg
 458      93870700 
 459 0080 9C43     		lw	a5,0(a5)
 460 0082 9453     		lw	a3,32(a5)
 461              		.loc 1 120 42
 462 0084 832744FD 		lw	a5,-44(s0)
 463 0088 FD17     		addi	a5,a5,-1
 464              		.loc 1 120 54
 465 008a A607     		slli	a5,a5,9
 466 008c 13F70760 		andi	a4,a5,1536
 467              		.loc 1 120 27
 468 0090 97070000 		lla	a5,SPI_FLASH_Reg
 468      93870700 
 469 0098 9C43     		lw	a5,0(a5)
 470 009a 3697     		add	a4,a3,a4
 471 009c 98D3     		sw	a4,32(a5)
 121:../src/bsp/advspi.c **** 	return;
 472              		.loc 1 121 2
 473 009e 0100     		nop
 122:../src/bsp/advspi.c **** }
 474              		.loc 1 122 1
 475 00a0 3254     		lw	s0,44(sp)
 476              		.cfi_restore 8
 477 00a2 4561     		addi	sp,sp,48
 478              		.cfi_def_cfa_register 2
 479 00a4 8280     		jr	ra
 480              		.cfi_endproc
 481              	.LFE10:
 483              		.section	.text.SPI_set_token,"ax",@progbits
 484              		.align	1
 485              		.globl	SPI_set_token
 487              	SPI_set_token:
 488              	.LFB11:
 123:../src/bsp/advspi.c **** 
 124:../src/bsp/advspi.c **** void SPI_set_token(uint8_t tokenEn, uint8_t tokenValue)
 125:../src/bsp/advspi.c **** {
 489              		.loc 1 125 1
 490              		.cfi_startproc
 491 0000 7971     		addi	sp,sp,-48
 492              		.cfi_def_cfa_offset 48
 493 0002 22D6     		sw	s0,44(sp)
 494              		.cfi_offset 8, -4
 495 0004 0018     		addi	s0,sp,48
 496              		.cfi_def_cfa 8, 0
 497 0006 AA87     		mv	a5,a0
 498 0008 2E87     		mv	a4,a1
 499 000a A30FF4FC 		sb	a5,-33(s0)
 500 000e BA87     		mv	a5,a4
 501 0010 230FF4FC 		sb	a5,-34(s0)
 126:../src/bsp/advspi.c **** 	uint32_t buff = SPI_FLASH_Reg->TRANSCTRL;
 502              		.loc 1 126 31
 503 0014 97070000 		lla	a5,SPI_FLASH_Reg
 503      93870700 
 504 001c 9C43     		lw	a5,0(a5)
 505              		.loc 1 126 11
 506 001e 9C53     		lw	a5,32(a5)
 507 0020 2326F4FE 		sw	a5,-20(s0)
 127:../src/bsp/advspi.c **** 	if(0 == tokenEn)
 508              		.loc 1 127 4
 509 0024 8347F4FD 		lbu	a5,-33(s0)
 510 0028 85CF     		beqz	a5,.L26
 128:../src/bsp/advspi.c **** 	{
 129:../src/bsp/advspi.c **** 		return;
 130:../src/bsp/advspi.c **** 	}
 131:../src/bsp/advspi.c **** 	else
 132:../src/bsp/advspi.c **** 	{
 133:../src/bsp/advspi.c **** 		SPI_FLASH_Reg->TRANSCTRL = (buff & (~((1 << 21) + (1 << 11)))) + (1 << 21) + ((tokenValue & 0x1) 
 511              		.loc 1 133 36
 512 002a 0327C4FE 		lw	a4,-20(s0)
 513 002e B7F7DFFF 		li	a5,-2101248
 514 0032 9387F77F 		addi	a5,a5,2047
 515 0036 7D8F     		and	a4,a4,a5
 516              		.loc 1 133 100
 517 0038 8347E4FD 		lbu	a5,-34(s0)
 518 003c AE07     		slli	a5,a5,11
 519 003e BE86     		mv	a3,a5
 520 0040 8567     		li	a5,4096
 521 0042 93870780 		addi	a5,a5,-2048
 522 0046 F58F     		and	a5,a3,a5
 523              		.loc 1 133 78
 524 0048 B366F700 		or	a3,a4,a5
 525              		.loc 1 133 16
 526 004c 97070000 		lla	a5,SPI_FLASH_Reg
 526      93870700 
 527 0054 9C43     		lw	a5,0(a5)
 528              		.loc 1 133 78
 529 0056 37072000 		li	a4,2097152
 530 005a 3697     		add	a4,a3,a4
 531              		.loc 1 133 28
 532 005c 98D3     		sw	a4,32(a5)
 533 005e 11A0     		j	.L23
 534              	.L26:
 129:../src/bsp/advspi.c **** 	}
 535              		.loc 1 129 3
 536 0060 0100     		nop
 537              	.L23:
 134:../src/bsp/advspi.c **** 	}
 135:../src/bsp/advspi.c **** }
 538              		.loc 1 135 1
 539 0062 3254     		lw	s0,44(sp)
 540              		.cfi_restore 8
 541 0064 4561     		addi	sp,sp,48
 542              		.cfi_def_cfa_register 2
 543 0066 8280     		jr	ra
 544              		.cfi_endproc
 545              	.LFE11:
 547              		.section	.text.SPI_tx_fifo_reset,"ax",@progbits
 548              		.align	1
 549              		.globl	SPI_tx_fifo_reset
 551              	SPI_tx_fifo_reset:
 552              	.LFB12:
 136:../src/bsp/advspi.c **** 
 137:../src/bsp/advspi.c **** void SPI_tx_fifo_reset(void)
 138:../src/bsp/advspi.c **** {
 553              		.loc 1 138 1
 554              		.cfi_startproc
 555 0000 4111     		addi	sp,sp,-16
 556              		.cfi_def_cfa_offset 16
 557 0002 22C6     		sw	s0,12(sp)
 558              		.cfi_offset 8, -4
 559 0004 0008     		addi	s0,sp,16
 560              		.cfi_def_cfa 8, 0
 139:../src/bsp/advspi.c **** 	SPI_FLASH_Reg->CTRL |= (0x1 << 2);    //reset tx fifo
 561              		.loc 1 139 22
 562 0006 97070000 		lla	a5,SPI_FLASH_Reg
 562      93870700 
 563 000e 9C43     		lw	a5,0(a5)
 564 0010 985B     		lw	a4,48(a5)
 565 0012 97070000 		lla	a5,SPI_FLASH_Reg
 565      93870700 
 566 001a 9C43     		lw	a5,0(a5)
 567 001c 13674700 		ori	a4,a4,4
 568 0020 98DB     		sw	a4,48(a5)
 140:../src/bsp/advspi.c **** 	while((SPI_FLASH_Reg->CTRL & 0x2)) ;  //wait tx fifo reset complete
 569              		.loc 1 140 7
 570 0022 0100     		nop
 571              	.L28:
 572              		.loc 1 140 22 discriminator 1
 573 0024 97070000 		lla	a5,SPI_FLASH_Reg
 573      93870700 
 574 002c 9C43     		lw	a5,0(a5)
 575 002e 9C5B     		lw	a5,48(a5)
 576              		.loc 1 140 29 discriminator 1
 577 0030 898B     		andi	a5,a5,2
 578              		.loc 1 140 7 discriminator 1
 579 0032 EDFB     		bnez	a5,.L28
 141:../src/bsp/advspi.c **** }
 580              		.loc 1 141 1
 581 0034 0100     		nop
 582 0036 3244     		lw	s0,12(sp)
 583              		.cfi_restore 8
 584 0038 4101     		addi	sp,sp,16
 585              		.cfi_def_cfa_register 2
 586 003a 8280     		jr	ra
 587              		.cfi_endproc
 588              	.LFE12:
 590              		.section	.text.SPI_rx_fifo_reset,"ax",@progbits
 591              		.align	1
 592              		.globl	SPI_rx_fifo_reset
 594              	SPI_rx_fifo_reset:
 595              	.LFB13:
 142:../src/bsp/advspi.c **** 
 143:../src/bsp/advspi.c **** void SPI_rx_fifo_reset(void)
 144:../src/bsp/advspi.c **** {
 596              		.loc 1 144 1
 597              		.cfi_startproc
 598 0000 4111     		addi	sp,sp,-16
 599              		.cfi_def_cfa_offset 16
 600 0002 22C6     		sw	s0,12(sp)
 601              		.cfi_offset 8, -4
 602 0004 0008     		addi	s0,sp,16
 603              		.cfi_def_cfa 8, 0
 145:../src/bsp/advspi.c **** 	SPI_FLASH_Reg->CTRL |= (0x1 << 1);    //reset rx fifo
 604              		.loc 1 145 22
 605 0006 97070000 		lla	a5,SPI_FLASH_Reg
 605      93870700 
 606 000e 9C43     		lw	a5,0(a5)
 607 0010 985B     		lw	a4,48(a5)
 608 0012 97070000 		lla	a5,SPI_FLASH_Reg
 608      93870700 
 609 001a 9C43     		lw	a5,0(a5)
 610 001c 13672700 		ori	a4,a4,2
 611 0020 98DB     		sw	a4,48(a5)
 146:../src/bsp/advspi.c **** 	while((SPI_FLASH_Reg->CTRL & 0x1)) ;  //wait rx fifo reset complete
 612              		.loc 1 146 7
 613 0022 0100     		nop
 614              	.L30:
 615              		.loc 1 146 22 discriminator 1
 616 0024 97070000 		lla	a5,SPI_FLASH_Reg
 616      93870700 
 617 002c 9C43     		lw	a5,0(a5)
 618 002e 9C5B     		lw	a5,48(a5)
 619              		.loc 1 146 29 discriminator 1
 620 0030 858B     		andi	a5,a5,1
 621              		.loc 1 146 7 discriminator 1
 622 0032 EDFB     		bnez	a5,.L30
 147:../src/bsp/advspi.c **** }
 623              		.loc 1 147 1
 624 0034 0100     		nop
 625 0036 3244     		lw	s0,12(sp)
 626              		.cfi_restore 8
 627 0038 4101     		addi	sp,sp,16
 628              		.cfi_def_cfa_register 2
 629 003a 8280     		jr	ra
 630              		.cfi_endproc
 631              	.LFE13:
 633              		.section	.text.spi_get_fifo_depth,"ax",@progbits
 634              		.align	1
 635              		.globl	spi_get_fifo_depth
 637              	spi_get_fifo_depth:
 638              	.LFB14:
 148:../src/bsp/advspi.c **** 
 149:../src/bsp/advspi.c **** uint8_t spi_get_fifo_depth(uint8_t fifo_depth_config)
 150:../src/bsp/advspi.c **** {
 639              		.loc 1 150 1
 640              		.cfi_startproc
 641              	.LBB2:
 151:../src/bsp/advspi.c **** 	uint8_t fifo_depth = 1;
 152:../src/bsp/advspi.c **** 	for(int i = 0; i < fifo_depth_config+1; i++)
 642              		.loc 1 152 10
 643 0000 0147     		li	a4,0
 644              	.LBE2:
 151:../src/bsp/advspi.c **** 	uint8_t fifo_depth = 1;
 645              		.loc 1 151 10
 646 0002 8547     		li	a5,1
 647              	.L32:
 648              	.LBB3:
 153:../src/bsp/advspi.c **** 	{
 154:../src/bsp/advspi.c **** 		fifo_depth *= 2;
 649              		.loc 1 154 14 discriminator 3
 650 0004 8607     		slli	a5,a5,1
 152:../src/bsp/advspi.c **** 	{
 651              		.loc 1 152 43 discriminator 3
 652 0006 0507     		addi	a4,a4,1
 653              		.loc 1 154 14 discriminator 3
 654 0008 93F7F70F 		andi	a5,a5,0xff
 152:../src/bsp/advspi.c **** 	{
 655              		.loc 1 152 2 discriminator 3
 656 000c E35CE5FE 		bge	a0,a4,.L32
 657              	.LBE3:
 155:../src/bsp/advspi.c **** 	}
 156:../src/bsp/advspi.c **** 	return fifo_depth;
 157:../src/bsp/advspi.c **** }
 658              		.loc 1 157 1
 659 0010 3E85     		mv	a0,a5
 660 0012 8280     		ret
 661              		.cfi_endproc
 662              	.LFE14:
 664              		.section	.rodata.SPI_set_tx_threshold.str1.4,"aMS",@progbits,1
 665              		.align	2
 666              	.LC0:
 667 0000 74782074 		.string	"tx threshold should not be set larger than tx fifo depth!\r\n"
 667      68726573 
 667      686F6C64 
 667      2073686F 
 667      756C6420 
 668              		.section	.text.SPI_set_tx_threshold,"ax",@progbits
 669              		.align	1
 670              		.globl	SPI_set_tx_threshold
 672              	SPI_set_tx_threshold:
 673              	.LFB15:
 158:../src/bsp/advspi.c **** 
 159:../src/bsp/advspi.c **** void SPI_set_tx_threshold(uint8_t tx_threshold)
 160:../src/bsp/advspi.c **** {
 674              		.loc 1 160 1
 675              		.cfi_startproc
 676 0000 7971     		addi	sp,sp,-48
 677              		.cfi_def_cfa_offset 48
 678 0002 06D6     		sw	ra,44(sp)
 679 0004 22D4     		sw	s0,40(sp)
 680              		.cfi_offset 1, -4
 681              		.cfi_offset 8, -8
 682 0006 0018     		addi	s0,sp,48
 683              		.cfi_def_cfa 8, 0
 684 0008 AA87     		mv	a5,a0
 685 000a A30FF4FC 		sb	a5,-33(s0)
 161:../src/bsp/advspi.c **** 	uint32_t buff;
 162:../src/bsp/advspi.c **** 	buff = SPI_FLASH_Reg->CONFIG;
 686              		.loc 1 162 22
 687 000e 97070000 		lla	a5,SPI_FLASH_Reg
 687      93870700 
 688 0016 9C43     		lw	a5,0(a5)
 689              		.loc 1 162 7
 690 0018 FC5F     		lw	a5,124(a5)
 691 001a 2326F4FE 		sw	a5,-20(s0)
 163:../src/bsp/advspi.c **** 	uint8_t tx_fifo_depth_config = (buff & 0x3f) >> 4;
 692              		.loc 1 163 47
 693 001e 8327C4FE 		lw	a5,-20(s0)
 694 0022 9183     		srli	a5,a5,4
 695 0024 93F7F70F 		andi	a5,a5,0xff
 696              		.loc 1 163 10
 697 0028 8D8B     		andi	a5,a5,3
 698 002a A305F4FE 		sb	a5,-21(s0)
 164:../src/bsp/advspi.c **** 	uint8_t tx_fifo_depth = spi_get_fifo_depth(tx_fifo_depth_config);
 699              		.loc 1 164 26
 700 002e 8347B4FE 		lbu	a5,-21(s0)
 701 0032 3E85     		mv	a0,a5
 702 0034 97000000 		call	spi_get_fifo_depth
 702      E7800000 
 703 003c AA87     		mv	a5,a0
 704 003e 2305F4FE 		sb	a5,-22(s0)
 165:../src/bsp/advspi.c **** 	if(tx_threshold > tx_fifo_depth)
 705              		.loc 1 165 4
 706 0042 0347F4FD 		lbu	a4,-33(s0)
 707 0046 8347A4FE 		lbu	a5,-22(s0)
 708 004a 63FBE700 		bleu	a4,a5,.L35
 166:../src/bsp/advspi.c **** 	{
 167:../src/bsp/advspi.c **** 		printf("tx threshold should not be set larger than tx fifo depth!\r\n");
 709              		.loc 1 167 3
 710 004e 17050000 		lla	a0,.LC0
 710      13050500 
 711 0056 97000000 		call	printf
 711      E7800000 
 168:../src/bsp/advspi.c **** 	}
 169:../src/bsp/advspi.c **** 	else
 170:../src/bsp/advspi.c **** 	{
 171:../src/bsp/advspi.c **** 		SPI_FLASH_Reg->CTRL &= (~(0x1f << 16));
 172:../src/bsp/advspi.c **** 		SPI_FLASH_Reg->CTRL |= ((tx_threshold) << 16);
 173:../src/bsp/advspi.c **** 	}
 174:../src/bsp/advspi.c **** 	return;
 712              		.loc 1 174 2
 713 005e 99A0     		j	.L34
 714              	.L35:
 171:../src/bsp/advspi.c **** 		SPI_FLASH_Reg->CTRL |= ((tx_threshold) << 16);
 715              		.loc 1 171 23
 716 0060 97070000 		lla	a5,SPI_FLASH_Reg
 716      93870700 
 717 0068 9C43     		lw	a5,0(a5)
 718 006a 945B     		lw	a3,48(a5)
 719 006c 97070000 		lla	a5,SPI_FLASH_Reg
 719      93870700 
 720 0074 9C43     		lw	a5,0(a5)
 721 0076 3707E1FF 		li	a4,-2031616
 722 007a 7D17     		addi	a4,a4,-1
 723 007c 758F     		and	a4,a3,a4
 724 007e 98DB     		sw	a4,48(a5)
 172:../src/bsp/advspi.c **** 	}
 725              		.loc 1 172 23
 726 0080 97070000 		lla	a5,SPI_FLASH_Reg
 726      93870700 
 727 0088 9C43     		lw	a5,0(a5)
 728 008a 985B     		lw	a4,48(a5)
 172:../src/bsp/advspi.c **** 	}
 729              		.loc 1 172 42
 730 008c 8347F4FD 		lbu	a5,-33(s0)
 731 0090 C207     		slli	a5,a5,16
 732 0092 BE86     		mv	a3,a5
 172:../src/bsp/advspi.c **** 	}
 733              		.loc 1 172 23
 734 0094 97070000 		lla	a5,SPI_FLASH_Reg
 734      93870700 
 735 009c 9C43     		lw	a5,0(a5)
 736 009e 558F     		or	a4,a4,a3
 737 00a0 98DB     		sw	a4,48(a5)
 738              		.loc 1 174 2
 739 00a2 0100     		nop
 740              	.L34:
 175:../src/bsp/advspi.c **** }
 741              		.loc 1 175 1
 742 00a4 B250     		lw	ra,44(sp)
 743              		.cfi_restore 1
 744 00a6 2254     		lw	s0,40(sp)
 745              		.cfi_restore 8
 746 00a8 4561     		addi	sp,sp,48
 747              		.cfi_def_cfa_register 2
 748 00aa 8280     		jr	ra
 749              		.cfi_endproc
 750              	.LFE15:
 752              		.section	.rodata.SPI_set_rx_threshold.str1.4,"aMS",@progbits,1
 753              		.align	2
 754              	.LC1:
 755 0000 72782074 		.string	"rx threshold should not be set larger than rx fifo depth!\r\n"
 755      68726573 
 755      686F6C64 
 755      2073686F 
 755      756C6420 
 756              		.section	.text.SPI_set_rx_threshold,"ax",@progbits
 757              		.align	1
 758              		.globl	SPI_set_rx_threshold
 760              	SPI_set_rx_threshold:
 761              	.LFB16:
 176:../src/bsp/advspi.c **** 
 177:../src/bsp/advspi.c **** void SPI_set_rx_threshold(uint8_t rx_threshold)
 178:../src/bsp/advspi.c **** {
 762              		.loc 1 178 1
 763              		.cfi_startproc
 764 0000 7971     		addi	sp,sp,-48
 765              		.cfi_def_cfa_offset 48
 766 0002 06D6     		sw	ra,44(sp)
 767 0004 22D4     		sw	s0,40(sp)
 768              		.cfi_offset 1, -4
 769              		.cfi_offset 8, -8
 770 0006 0018     		addi	s0,sp,48
 771              		.cfi_def_cfa 8, 0
 772 0008 AA87     		mv	a5,a0
 773 000a A30FF4FC 		sb	a5,-33(s0)
 179:../src/bsp/advspi.c **** 	uint32_t buff;
 180:../src/bsp/advspi.c **** 	buff = SPI_FLASH_Reg->CONFIG;
 774              		.loc 1 180 22
 775 000e 97070000 		lla	a5,SPI_FLASH_Reg
 775      93870700 
 776 0016 9C43     		lw	a5,0(a5)
 777              		.loc 1 180 7
 778 0018 FC5F     		lw	a5,124(a5)
 779 001a 2326F4FE 		sw	a5,-20(s0)
 181:../src/bsp/advspi.c **** 	uint8_t rx_fifo_depth_config = (buff & 0x03);
 780              		.loc 1 181 39
 781 001e 8327C4FE 		lw	a5,-20(s0)
 782 0022 93F7F70F 		andi	a5,a5,0xff
 783              		.loc 1 181 10
 784 0026 8D8B     		andi	a5,a5,3
 785 0028 A305F4FE 		sb	a5,-21(s0)
 182:../src/bsp/advspi.c **** 	uint8_t rx_fifo_depth = spi_get_fifo_depth(rx_fifo_depth_config);
 786              		.loc 1 182 26
 787 002c 8347B4FE 		lbu	a5,-21(s0)
 788 0030 3E85     		mv	a0,a5
 789 0032 97000000 		call	spi_get_fifo_depth
 789      E7800000 
 790 003a AA87     		mv	a5,a0
 791 003c 2305F4FE 		sb	a5,-22(s0)
 183:../src/bsp/advspi.c **** 	if(rx_threshold > rx_fifo_depth)
 792              		.loc 1 183 4
 793 0040 0347F4FD 		lbu	a4,-33(s0)
 794 0044 8347A4FE 		lbu	a5,-22(s0)
 795 0048 63FBE700 		bleu	a4,a5,.L39
 184:../src/bsp/advspi.c **** 	{
 185:../src/bsp/advspi.c **** 		printf("rx threshold should not be set larger than rx fifo depth!\r\n");
 796              		.loc 1 185 3
 797 004c 17050000 		lla	a0,.LC1
 797      13050500 
 798 0054 97000000 		call	printf
 798      E7800000 
 186:../src/bsp/advspi.c **** 	}
 187:../src/bsp/advspi.c **** 	else
 188:../src/bsp/advspi.c **** 	{
 189:../src/bsp/advspi.c **** 		SPI_FLASH_Reg->CTRL &= (~(0x1f << 8));
 190:../src/bsp/advspi.c **** 		SPI_FLASH_Reg->CTRL |= ((rx_threshold) << 8);
 191:../src/bsp/advspi.c **** 	}
 192:../src/bsp/advspi.c **** 	return;
 799              		.loc 1 192 2
 800 005c 99A0     		j	.L38
 801              	.L39:
 189:../src/bsp/advspi.c **** 		SPI_FLASH_Reg->CTRL |= ((rx_threshold) << 8);
 802              		.loc 1 189 23
 803 005e 97070000 		lla	a5,SPI_FLASH_Reg
 803      93870700 
 804 0066 9C43     		lw	a5,0(a5)
 805 0068 945B     		lw	a3,48(a5)
 806 006a 97070000 		lla	a5,SPI_FLASH_Reg
 806      93870700 
 807 0072 9C43     		lw	a5,0(a5)
 808 0074 7977     		li	a4,-8192
 809 0076 1307F70F 		addi	a4,a4,255
 810 007a 758F     		and	a4,a3,a4
 811 007c 98DB     		sw	a4,48(a5)
 190:../src/bsp/advspi.c **** 	}
 812              		.loc 1 190 23
 813 007e 97070000 		lla	a5,SPI_FLASH_Reg
 813      93870700 
 814 0086 9C43     		lw	a5,0(a5)
 815 0088 985B     		lw	a4,48(a5)
 190:../src/bsp/advspi.c **** 	}
 816              		.loc 1 190 42
 817 008a 8347F4FD 		lbu	a5,-33(s0)
 818 008e A207     		slli	a5,a5,8
 819 0090 BE86     		mv	a3,a5
 190:../src/bsp/advspi.c **** 	}
 820              		.loc 1 190 23
 821 0092 97070000 		lla	a5,SPI_FLASH_Reg
 821      93870700 
 822 009a 9C43     		lw	a5,0(a5)
 823 009c 558F     		or	a4,a4,a3
 824 009e 98DB     		sw	a4,48(a5)
 825              		.loc 1 192 2
 826 00a0 0100     		nop
 827              	.L38:
 193:../src/bsp/advspi.c **** }
 828              		.loc 1 193 1
 829 00a2 B250     		lw	ra,44(sp)
 830              		.cfi_restore 1
 831 00a4 2254     		lw	s0,40(sp)
 832              		.cfi_restore 8
 833 00a6 4561     		addi	sp,sp,48
 834              		.cfi_def_cfa_register 2
 835 00a8 8280     		jr	ra
 836              		.cfi_endproc
 837              	.LFE16:
 839              		.section	.text.spi_flash_init,"ax",@progbits
 840              		.align	1
 841              		.globl	spi_flash_init
 843              	spi_flash_init:
 844              	.LFB17:
 194:../src/bsp/advspi.c **** 
 195:../src/bsp/advspi.c **** void spi_flash_init(void)
 196:../src/bsp/advspi.c **** {
 845              		.loc 1 196 1
 846              		.cfi_startproc
 847 0000 4111     		addi	sp,sp,-16
 848              		.cfi_def_cfa_offset 16
 197:../src/bsp/advspi.c **** 	uint32_t buff;
 198:../src/bsp/advspi.c **** 
 199:../src/bsp/advspi.c **** 	SPI_FLASH_Reg->CTRL |= 0x01;         //reset spi
 849              		.loc 1 199 22
 850 0002 97070000 		lla	a5,SPI_FLASH_Reg
 850      93870700 
 196:../src/bsp/advspi.c **** 	uint32_t buff;
 851              		.loc 1 196 1
 852 000a 26C4     		sw	s1,8(sp)
 853              		.cfi_offset 9, -8
 854              		.loc 1 199 22
 855 000c 8443     		lw	s1,0(a5)
 196:../src/bsp/advspi.c **** 	uint32_t buff;
 856              		.loc 1 196 1
 857 000e 06C6     		sw	ra,12(sp)
 858 0010 4AC2     		sw	s2,4(sp)
 859              		.loc 1 199 22
 860 0012 9C58     		lw	a5,48(s1)
 196:../src/bsp/advspi.c **** 	uint32_t buff;
 861              		.loc 1 196 1
 862 0014 4EC0     		sw	s3,0(sp)
 863              		.cfi_offset 1, -4
 864              		.cfi_offset 18, -12
 865              		.cfi_offset 19, -16
 866              		.loc 1 199 22
 867 0016 93E71700 		ori	a5,a5,1
 868 001a 9CD8     		sw	a5,48(s1)
 869              	.L43:
 200:../src/bsp/advspi.c **** 	while((SPI_FLASH_Reg->CTRL & 0x01)); //wait until spi reset complete
 870              		.loc 1 200 22 discriminator 1
 871 001c 9C58     		lw	a5,48(s1)
 872              		.loc 1 200 29 discriminator 1
 873 001e 858B     		andi	a5,a5,1
 874              		.loc 1 200 7 discriminator 1
 875 0020 F5FF     		bnez	a5,.L43
 201:../src/bsp/advspi.c **** 
 202:../src/bsp/advspi.c **** 	buff = SPI_FLASH_Reg->CONFIG;
 876              		.loc 1 202 7
 877 0022 83A9C407 		lw	s3,124(s1)
 203:../src/bsp/advspi.c **** 	uint8_t tx_fifo_depth_config = (buff & 0x3f) >> 4;
 878              		.loc 1 203 47
 879 0026 13D54900 		srli	a0,s3,4
 204:../src/bsp/advspi.c **** 	uint8_t tx_fifo_depth = spi_get_fifo_depth(tx_fifo_depth_config);
 880              		.loc 1 204 26
 881 002a 0D89     		andi	a0,a0,3
 882 002c 97000000 		call	spi_get_fifo_depth
 882      E7800000 
 883 0034 2A89     		mv	s2,a0
 205:../src/bsp/advspi.c **** 	uint8_t rx_fifo_depth_config = (buff & 0x03);
 206:../src/bsp/advspi.c **** 	uint8_t rx_fifo_depth = spi_get_fifo_depth(rx_fifo_depth_config);
 884              		.loc 1 206 26
 885 0036 13F53900 		andi	a0,s3,3
 886 003a 97000000 		call	spi_get_fifo_depth
 886      E7800000 
 887              	.L44:
 207:../src/bsp/advspi.c **** 
 208:../src/bsp/advspi.c **** 	while((SPI_FLASH_Reg->STATUS & 0x01)); //wait until SPI2 active finish
 888              		.loc 1 208 22 discriminator 1
 889 0042 DC58     		lw	a5,52(s1)
 890              		.loc 1 208 31 discriminator 1
 891 0044 858B     		andi	a5,a5,1
 892              		.loc 1 208 7 discriminator 1
 893 0046 F5FF     		bnez	a5,.L44
 209:../src/bsp/advspi.c **** 
 210:../src/bsp/advspi.c **** 
 211:../src/bsp/advspi.c **** 
 212:../src/bsp/advspi.c **** 	buff = (2 << 16) +(7 << 8) + (0 << 7);
 213:../src/bsp/advspi.c **** 	//AddrLen = 3; DataLen = 8 DataMerge = 0
 214:../src/bsp/advspi.c **** 	//other fields reset to 0 while spi_default_modes connected to 0
 215:../src/bsp/advspi.c **** 	SPI_FLASH_Reg->TRANSFMT = buff;
 894              		.loc 1 215 26
 895 0048 B7070200 		li	a5,131072
 896 004c 93870770 		addi	a5,a5,1792
 897 0050 9CC8     		sw	a5,16(s1)
 216:../src/bsp/advspi.c **** 
 217:../src/bsp/advspi.c **** 
 218:../src/bsp/advspi.c **** 	SPI_FLASH_Reg->CTRL |= (0x1 << 2);    //reset tx fifo
 898              		.loc 1 218 22
 899 0052 9C58     		lw	a5,48(s1)
 900 0054 93E74700 		ori	a5,a5,4
 901 0058 9CD8     		sw	a5,48(s1)
 902              	.L45:
 219:../src/bsp/advspi.c **** 	while((SPI_FLASH_Reg->CTRL & 0x2)) ;  //wait tx fifo reset complete
 903              		.loc 1 219 22 discriminator 1
 904 005a 9C58     		lw	a5,48(s1)
 905              		.loc 1 219 29 discriminator 1
 906 005c 898B     		andi	a5,a5,2
 907              		.loc 1 219 7 discriminator 1
 908 005e F5FF     		bnez	a5,.L45
 220:../src/bsp/advspi.c **** 	SPI_FLASH_Reg->CTRL  |= ((tx_fifo_depth/2) << 16);  //set tx threshold as half of txfifo depth
 909              		.loc 1 220 23
 910 0060 9C58     		lw	a5,48(s1)
 911              		.loc 1 220 41
 912 0062 13591900 		srli	s2,s2,1
 913 0066 1379F90F 		andi	s2,s2,0xff
 914              		.loc 1 220 45
 915 006a 4209     		slli	s2,s2,16
 916              		.loc 1 220 23
 917 006c 3369F900 		or	s2,s2,a5
 918 0070 23A82403 		sw	s2,48(s1)
 221:../src/bsp/advspi.c **** 
 222:../src/bsp/advspi.c **** 	SPI_FLASH_Reg->CTRL |= (0x1 << 1);    //reset rx fifo
 919              		.loc 1 222 22
 920 0074 9C58     		lw	a5,48(s1)
 921 0076 93E72700 		ori	a5,a5,2
 922 007a 9CD8     		sw	a5,48(s1)
 923              	.L46:
 223:../src/bsp/advspi.c **** 	while((SPI_FLASH_Reg->CTRL & 0x1)) ;  //wait rx fifo reset complete
 924              		.loc 1 223 22 discriminator 1
 925 007c 9C58     		lw	a5,48(s1)
 926              		.loc 1 223 29 discriminator 1
 927 007e 858B     		andi	a5,a5,1
 928              		.loc 1 223 7 discriminator 1
 929 0080 F5FF     		bnez	a5,.L46
 224:../src/bsp/advspi.c **** 	SPI_FLASH_Reg->CTRL  |= ((rx_fifo_depth/2) << 8);  //set rx threshold as half of rxfifo depth
 930              		.loc 1 224 23
 931 0082 9858     		lw	a4,48(s1)
 932              		.loc 1 224 41
 933 0084 93571500 		srli	a5,a0,1
 934 0088 93F7F70F 		andi	a5,a5,0xff
 935              		.loc 1 224 45
 936 008c A207     		slli	a5,a5,8
 937              		.loc 1 224 23
 938 008e D98F     		or	a5,a5,a4
 939 0090 9CD8     		sw	a5,48(s1)
 225:../src/bsp/advspi.c **** 
 226:../src/bsp/advspi.c **** 	//SPI_FLASH_Reg->INTREN |= (0x1 << 4);  //Do not support Interupt signal
 227:../src/bsp/advspi.c **** 	SPI_FLASH_Reg->INTREN &= 0x00000000;    //close all the interrupt
 940              		.loc 1 227 24
 941 0092 9C5C     		lw	a5,56(s1)
 942 0094 23AC0402 		sw	zero,56(s1)
 228:../src/bsp/advspi.c **** 	SPI_FLASH_Reg->TIMING &= (~(0xff));
 943              		.loc 1 228 24
 944 0098 BC40     		lw	a5,64(s1)
 229:../src/bsp/advspi.c **** 	SPI_FLASH_Reg->TIMING |= (0x3);       //Set the SPI Interface Timing Register (0x40)
 230:../src/bsp/advspi.c **** 	                                   //to set SCLK_DIV to 4, which divide the spi_clk into
 231:../src/bsp/advspi.c **** 	                                   //((4+1)*2) = 10 as SCLK
 232:../src/bsp/advspi.c **** 	return;
 233:../src/bsp/advspi.c **** }
 945              		.loc 1 233 1
 946 009a B240     		lw	ra,12(sp)
 947              		.cfi_restore 1
 948 009c 1249     		lw	s2,4(sp)
 949              		.cfi_restore 18
 228:../src/bsp/advspi.c **** 	SPI_FLASH_Reg->TIMING &= (~(0xff));
 950              		.loc 1 228 24
 951 009e 93F707F0 		andi	a5,a5,-256
 952 00a2 BCC0     		sw	a5,64(s1)
 229:../src/bsp/advspi.c **** 	SPI_FLASH_Reg->TIMING |= (0x3);       //Set the SPI Interface Timing Register (0x40)
 953              		.loc 1 229 24
 954 00a4 BC40     		lw	a5,64(s1)
 955              		.loc 1 233 1
 956 00a6 8249     		lw	s3,0(sp)
 957              		.cfi_restore 19
 229:../src/bsp/advspi.c **** 	SPI_FLASH_Reg->TIMING |= (0x3);       //Set the SPI Interface Timing Register (0x40)
 958              		.loc 1 229 24
 959 00a8 93E73700 		ori	a5,a5,3
 960 00ac BCC0     		sw	a5,64(s1)
 961              		.loc 1 233 1
 962 00ae A244     		lw	s1,8(sp)
 963              		.cfi_restore 9
 964 00b0 4101     		addi	sp,sp,16
 965              		.cfi_def_cfa_offset 0
 966 00b2 8280     		jr	ra
 967              		.cfi_endproc
 968              	.LFE17:
 970              		.section	.text.spi_flash_read,"ax",@progbits
 971              		.align	1
 972              		.globl	spi_flash_read
 974              	spi_flash_read:
 975              	.LFB18:
 234:../src/bsp/advspi.c **** 
 235:../src/bsp/advspi.c **** //cmd -> address -> data
 236:../src/bsp/advspi.c **** void spi_flash_read(uint8_t rd_len, uint32_t cmd, uint32_t address,uint8_t *read_buffer)
 237:../src/bsp/advspi.c **** {
 976              		.loc 1 237 1
 977              		.cfi_startproc
 238:../src/bsp/advspi.c **** 	SPI_FLASH_Reg->TRANSCTRL = (1 << 30) +     //enable cmd
 978              		.loc 1 238 15
 979 0000 97070000 		lla	a5,SPI_FLASH_Reg
 979      93870700 
 980 0008 9843     		lw	a4,0(a5)
 239:../src/bsp/advspi.c **** 							(1 << 29) +        //Open the address
 240:../src/bsp/advspi.c **** 			                (2 << 24) +        //trans mode = 2 (read only)
 241:../src/bsp/advspi.c **** 							(0 << 22) +        //dual mode 0 regular mode
 981              		.loc 1 241 18
 982 000a B7070062 		li	a5,1644167168
 983 000e FD17     		addi	a5,a5,-1
 984 0010 AA97     		add	a5,a0,a5
 238:../src/bsp/advspi.c **** 	SPI_FLASH_Reg->TRANSCTRL = (1 << 30) +     //enable cmd
 985              		.loc 1 238 27
 986 0012 1CD3     		sw	a5,32(a4)
 242:../src/bsp/advspi.c **** 							((rd_len-1) << 0); //set read trans byte count
 243:../src/bsp/advspi.c **** 	//printf("%08x\n", SPI_FLASH_Reg->TRANSCTRL);
 244:../src/bsp/advspi.c **** 	SPI_FLASH_Reg->ADDR = address;
 987              		.loc 1 244 22
 988 0014 10D7     		sw	a2,40(a4)
 245:../src/bsp/advspi.c **** 	//printf("%08x\n", SPI_FLASH_Reg->ADDR);
 246:../src/bsp/advspi.c **** 	SPI_FLASH_Reg->CMD  = cmd;
 989              		.loc 1 246 22
 990 0016 4CD3     		sw	a1,36(a4)
 991              	.LBB4:
 247:../src/bsp/advspi.c **** 	//printf("%08x\n", SPI_FLASH_Reg->CMD);
 248:../src/bsp/advspi.c **** 
 249:../src/bsp/advspi.c **** 	for(uint8_t i = 0; i < rd_len; i++)
 992              		.loc 1 249 2
 993 0018 15C1     		beqz	a0,.L56
 994 001a 1306F5FF 		addi	a2,a0,-1
 995 001e 1376F60F 		andi	a2,a2,0xff
 996 0022 0506     		addi	a2,a2,1
 997 0024 3696     		add	a2,a3,a2
 998              	.L55:
 250:../src/bsp/advspi.c **** 	{
 251:../src/bsp/advspi.c **** 		*read_buffer = SPI_FLASH_Reg->DATA;
 999              		.loc 1 251 31
 1000 0026 5C57     		lw	a5,44(a4)
 252:../src/bsp/advspi.c **** 		read_buffer++;
 1001              		.loc 1 252 14
 1002 0028 8506     		addi	a3,a3,1
 251:../src/bsp/advspi.c **** 		read_buffer++;
 1003              		.loc 1 251 16
 1004 002a A38FF6FE 		sb	a5,-1(a3)
 1005              	.L54:
 253:../src/bsp/advspi.c **** 		while(SPI_FLASH_Reg ->STATUS & (0x1 <<15));
 1006              		.loc 1 253 23 discriminator 1
 1007 002e 5C5B     		lw	a5,52(a4)
 1008              		.loc 1 253 8 discriminator 1
 1009 0030 93950701 		slli	a1,a5,16
 1010 0034 E3CD05FE 		bltz	a1,.L54
 249:../src/bsp/advspi.c **** 	{
 1011              		.loc 1 249 2 discriminator 2
 1012 0038 E397C6FE 		bne	a3,a2,.L55
 1013              	.L56:
 1014              	.LBE4:
 254:../src/bsp/advspi.c **** 	}
 255:../src/bsp/advspi.c **** 	while((SPI_FLASH_Reg->STATUS & 0x01)); //wait until SPI_Ctroller active finish
 1015              		.loc 1 255 22 discriminator 1
 1016 003c 5C5B     		lw	a5,52(a4)
 1017              		.loc 1 255 31 discriminator 1
 1018 003e 858B     		andi	a5,a5,1
 1019              		.loc 1 255 7 discriminator 1
 1020 0040 F5FF     		bnez	a5,.L56
 256:../src/bsp/advspi.c **** }
 1021              		.loc 1 256 1
 1022 0042 8280     		ret
 1023              		.cfi_endproc
 1024              	.LFE18:
 1026              		.section	.text.spi_flash_write,"ax",@progbits
 1027              		.align	1
 1028              		.globl	spi_flash_write
 1030              	spi_flash_write:
 1031              	.LFB19:
 257:../src/bsp/advspi.c **** 
 258:../src/bsp/advspi.c **** //the consequence of sending
 259:../src/bsp/advspi.c **** //cmd -> address -> data
 260:../src/bsp/advspi.c **** void spi_flash_write(uint8_t wr_len, uint32_t cmd, uint32_t address,uint8_t *write_buffer)
 261:../src/bsp/advspi.c **** {
 1032              		.loc 1 261 1
 1033              		.cfi_startproc
 1034 0000 17030000 		call	t0,__riscv_save_2
 1034      E7020300 
 1035              		.cfi_offset 9, -12
 1036              		.cfi_offset 1, -4
 1037              		.cfi_def_cfa_offset 16
 1038 0008 4111     		addi	sp,sp,-16
 1039              		.cfi_def_cfa_offset 32
 1040              		.loc 1 261 1
 1041 000a AA84     		mv	s1,a0
 262:../src/bsp/advspi.c **** 	spi_flash_write_cmd(WRITE_ENABLE);
 1042              		.loc 1 262 2
 1043 000c 1945     		li	a0,6
 261:../src/bsp/advspi.c **** 	spi_flash_write_cmd(WRITE_ENABLE);
 1044              		.loc 1 261 1
 1045 000e 2EC6     		sw	a1,12(sp)
 1046 0010 32C4     		sw	a2,8(sp)
 1047 0012 36C2     		sw	a3,4(sp)
 1048              		.loc 1 262 2
 1049 0014 97000000 		call	spi_flash_write_cmd
 1049      E7800000 
 263:../src/bsp/advspi.c **** 	spi_flash_read_status();
 1050              		.loc 1 263 2
 1051 001c 97000000 		call	spi_flash_read_status
 1051      E7800000 
 264:../src/bsp/advspi.c **** 
 265:../src/bsp/advspi.c **** 	SPI_FLASH_Reg->TRANSCTRL = (1 << 30) +        //enable cmd
 1052              		.loc 1 265 15
 1053 0024 97070000 		lla	a5,SPI_FLASH_Reg
 1053      93870700 
 1054 002c 9C43     		lw	a5,0(a5)
 266:../src/bsp/advspi.c **** 							(1 << 29) + //enable address
 267:../src/bsp/advspi.c **** 			                (1 << 24) +        //trans mode = 1 (write only)
 268:../src/bsp/advspi.c **** 							(0 << 22) +         //dual mode
 269:../src/bsp/advspi.c **** 							((wr_len-1) << 12); //set read trans byte count
 1055              		.loc 1 269 16
 1056 002e 1387F4FF 		addi	a4,s1,-1
 1057              		.loc 1 269 20
 1058 0032 3207     		slli	a4,a4,12
 268:../src/bsp/advspi.c **** 							((wr_len-1) << 12); //set read trans byte count
 1059              		.loc 1 268 18
 1060 0034 37050061 		li	a0,1627389952
 270:../src/bsp/advspi.c **** 
 271:../src/bsp/advspi.c **** 	SPI_FLASH_Reg->ADDR = address;
 1061              		.loc 1 271 22
 1062 0038 2246     		lw	a2,8(sp)
 268:../src/bsp/advspi.c **** 							((wr_len-1) << 12); //set read trans byte count
 1063              		.loc 1 268 18
 1064 003a 2A97     		add	a4,a4,a0
 272:../src/bsp/advspi.c **** 	SPI_FLASH_Reg->CMD  = cmd;
 1065              		.loc 1 272 22
 1066 003c B245     		lw	a1,12(sp)
 265:../src/bsp/advspi.c **** 							(1 << 29) + //enable address
 1067              		.loc 1 265 27
 1068 003e 98D3     		sw	a4,32(a5)
 1069              	.LBB5:
 273:../src/bsp/advspi.c **** 	for(uint8_t i = 0; i < wr_len; i++)
 1070              		.loc 1 273 2
 1071 0040 9246     		lw	a3,4(sp)
 1072              	.LBE5:
 271:../src/bsp/advspi.c **** 	SPI_FLASH_Reg->CMD  = cmd;
 1073              		.loc 1 271 22
 1074 0042 90D7     		sw	a2,40(a5)
 272:../src/bsp/advspi.c **** 	for(uint8_t i = 0; i < wr_len; i++)
 1075              		.loc 1 272 22
 1076 0044 CCD3     		sw	a1,36(a5)
 1077              	.LBB6:
 1078              		.loc 1 273 2
 1079 0046 0147     		li	a4,0
 1080              	.L65:
 1081              		.loc 1 273 2 is_stmt 0 discriminator 1
 1082 0048 1376F70F 		andi	a2,a4,0xff
 1083 004c 63639602 		bgtu	s1,a2,.L67
 1084              	.L68:
 1085              	.LBE6:
 274:../src/bsp/advspi.c **** 	{
 275:../src/bsp/advspi.c **** 		SPI_FLASH_Reg->DATA = (uint32_t)(*write_buffer);
 276:../src/bsp/advspi.c **** 		write_buffer++;
 277:../src/bsp/advspi.c **** 		//check the status of txfifo
 278:../src/bsp/advspi.c **** 		while(SPI_FLASH_Reg ->STATUS & (0x1 <<23));
 279:../src/bsp/advspi.c **** 	}
 280:../src/bsp/advspi.c **** 
 281:../src/bsp/advspi.c **** 	while((SPI_FLASH_Reg->STATUS & 0x01)); //wait until SPI_ctroller active finish
 1086              		.loc 1 281 22 is_stmt 1 discriminator 1
 1087 0050 D85B     		lw	a4,52(a5)
 1088              		.loc 1 281 31 discriminator 1
 1089 0052 058B     		andi	a4,a4,1
 1090              		.loc 1 281 7 discriminator 1
 1091 0054 75FF     		bnez	a4,.L68
 282:../src/bsp/advspi.c **** 	spi_flash_write_cmd(WRITE_DISENABLE);
 1092              		.loc 1 282 2
 1093 0056 1145     		li	a0,4
 1094 0058 97000000 		call	spi_flash_write_cmd
 1094      E7800000 
 283:../src/bsp/advspi.c **** 	spi_flash_read_status();
 1095              		.loc 1 283 2
 1096 0060 97000000 		call	spi_flash_read_status
 1096      E7800000 
 284:../src/bsp/advspi.c **** }
 1097              		.loc 1 284 1
 1098 0068 4101     		addi	sp,sp,16
 1099              		.cfi_remember_state
 1100              		.cfi_def_cfa_offset 0
 1101 006a 17030000 		tail	__riscv_restore_2
 1101      67000300 
 1102              		.cfi_restore 9
 1103              		.cfi_restore 1
 1104              		.cfi_def_cfa_offset -16
 1105              	.L67:
 1106              		.cfi_restore_state
 1107              	.LBB7:
 275:../src/bsp/advspi.c **** 		write_buffer++;
 1108              		.loc 1 275 36
 1109 0072 3386E600 		add	a2,a3,a4
 275:../src/bsp/advspi.c **** 		write_buffer++;
 1110              		.loc 1 275 25
 1111 0076 03460600 		lbu	a2,0(a2)
 275:../src/bsp/advspi.c **** 		write_buffer++;
 1112              		.loc 1 275 23
 1113 007a D0D7     		sw	a2,44(a5)
 1114              	.L66:
 278:../src/bsp/advspi.c **** 	}
 1115              		.loc 1 278 23 discriminator 1
 1116 007c D05B     		lw	a2,52(a5)
 278:../src/bsp/advspi.c **** 	}
 1117              		.loc 1 278 8 discriminator 1
 1118 007e 93158600 		slli	a1,a2,8
 1119 0082 E3CD05FE 		bltz	a1,.L66
 1120 0086 0507     		addi	a4,a4,1
 1121 0088 C1B7     		j	.L65
 1122              	.LBE7:
 1123              		.cfi_endproc
 1124              	.LFE19:
 1126              		.section	.text.change_mode_spi_flash,"ax",@progbits
 1127              		.align	1
 1128              		.globl	change_mode_spi_flash
 1130              	change_mode_spi_flash:
 1131              	.LFB20:
 285:../src/bsp/advspi.c **** 
 286:../src/bsp/advspi.c **** //change the mode of spi flash
 287:../src/bsp/advspi.c **** void change_mode_spi_flash()
 288:../src/bsp/advspi.c **** {
 1132              		.loc 1 288 1
 1133              		.cfi_startproc
 289:../src/bsp/advspi.c **** 	uint32_t i;
 290:../src/bsp/advspi.c **** 	//read spi memory access register 0x50
 291:../src/bsp/advspi.c **** 	i = SPI_FLASH_Reg ->MEMCTRL;
 1134              		.loc 1 291 20
 1135 0000 97070000 		lla	a5,SPI_FLASH_Reg
 1135      93870700 
 1136 0008 9843     		lw	a4,0(a5)
 1137              		.loc 1 291 4
 1138 000a 3C4B     		lw	a5,80(a4)
 292:../src/bsp/advspi.c **** 	//write back to spi flash reg
 293:../src/bsp/advspi.c **** 	SPI_FLASH_Reg ->MEMCTRL = i;
 1139              		.loc 1 293 26
 1140 000c 3CCB     		sw	a5,80(a4)
 1141              	.L73:
 294:../src/bsp/advspi.c **** 	//wait the memCtrlChg become 0
 295:../src/bsp/advspi.c **** 	while(SPI_FLASH_Reg ->MEMCTRL & (0x01 <<8 ));
 1142              		.loc 1 295 22 discriminator 1
 1143 000e 3C4B     		lw	a5,80(a4)
 1144              		.loc 1 295 32 discriminator 1
 1145 0010 93F70710 		andi	a5,a5,256
 1146              		.loc 1 295 7 discriminator 1
 1147 0014 EDFF     		bnez	a5,.L73
 296:../src/bsp/advspi.c **** 
 297:../src/bsp/advspi.c **** }
 1148              		.loc 1 297 1
 1149 0016 8280     		ret
 1150              		.cfi_endproc
 1151              	.LFE20:
 1153              		.section	.text.spi_flash_write_cmd,"ax",@progbits
 1154              		.align	1
 1155              		.globl	spi_flash_write_cmd
 1157              	spi_flash_write_cmd:
 1158              	.LFB21:
 298:../src/bsp/advspi.c **** 
 299:../src/bsp/advspi.c **** //write cmd to spi flash
 300:../src/bsp/advspi.c **** //accord different spi flash
 301:../src/bsp/advspi.c **** void spi_flash_write_cmd(uint32_t cmd)
 302:../src/bsp/advspi.c **** {
 1159              		.loc 1 302 1
 1160              		.cfi_startproc
 1161 0000 17030000 		call	t0,__riscv_save_3
 1161      E7020300 
 1162              		.cfi_offset 18, -16
 1163              		.cfi_offset 9, -12
 1164              		.cfi_offset 1, -4
 1165              		.cfi_def_cfa_offset 16
 303:../src/bsp/advspi.c **** 	SPI_FLASH_Reg->TRANSCTRL = (0 << 30) +        //Disenable cmd
 1166              		.loc 1 303 15
 1167 0008 17090000 		lla	s2,SPI_FLASH_Reg
 1167      13090900 
 1168 0010 03270900 		lw	a4,0(s2)
 1169              		.loc 1 303 27
 1170 0014 B7070001 		li	a5,16777216
 302:../src/bsp/advspi.c **** 	SPI_FLASH_Reg->TRANSCTRL = (0 << 30) +        //Disenable cmd
 1171              		.loc 1 302 1
 1172 0018 AA84     		mv	s1,a0
 1173              		.loc 1 303 27
 1174 001a 1CD3     		sw	a5,32(a4)
 304:../src/bsp/advspi.c **** 			                (1 << 24) + //trans mode = 1 (write only)
 305:../src/bsp/advspi.c **** 							(0 << 22) +//regular mode
 306:../src/bsp/advspi.c **** 							(0 << 12); //set trans byte count is 1
 307:../src/bsp/advspi.c **** 	SPI_FLASH_Reg->CMD  = 0x01;//Start to transfer
 1175              		.loc 1 307 22
 1176 001c 8547     		li	a5,1
 1177 001e 5CD3     		sw	a5,36(a4)
 308:../src/bsp/advspi.c **** 	if(cmd == CHIP_ERASE)
 1178              		.loc 1 308 4
 1179 0020 93070006 		li	a5,96
 1180 0024 630FF500 		beq	a0,a5,.L82
 1181              	.L76:
 309:../src/bsp/advspi.c **** 	{
 310:../src/bsp/advspi.c **** 		spi_flash_write_cmd(WRITE_ENABLE);
 311:../src/bsp/advspi.c **** 		spi_flash_read_status();
 312:../src/bsp/advspi.c **** 	}
 313:../src/bsp/advspi.c **** 	SPI_FLASH_Reg->DATA = cmd;
 1182              		.loc 1 313 22
 1183 0028 44D7     		sw	s1,44(a4)
 1184              	.L77:
 314:../src/bsp/advspi.c **** 	//Check the status of tx_FIFO
 315:../src/bsp/advspi.c **** 	while(SPI_FLASH_Reg ->STATUS & (0x1 <<23));
 1185              		.loc 1 315 22 discriminator 1
 1186 002a 5C5B     		lw	a5,52(a4)
 1187              		.loc 1 315 7 discriminator 1
 1188 002c 93968700 		slli	a3,a5,8
 1189 0030 E3CD06FE 		bltz	a3,.L77
 1190              	.L78:
 316:../src/bsp/advspi.c **** 	//Check the status of Transfer
 317:../src/bsp/advspi.c **** 	while((SPI_FLASH_Reg->STATUS & 0x01));
 1191              		.loc 1 317 22 discriminator 1
 1192 0034 5C5B     		lw	a5,52(a4)
 1193              		.loc 1 317 31 discriminator 1
 1194 0036 858B     		andi	a5,a5,1
 1195              		.loc 1 317 7 discriminator 1
 1196 0038 F5FF     		bnez	a5,.L78
 318:../src/bsp/advspi.c **** }
 1197              		.loc 1 318 1
 1198 003a 17030000 		tail	__riscv_restore_3
 1198      67000300 
 1199              		.cfi_remember_state
 1200              		.cfi_restore 18
 1201              		.cfi_restore 9
 1202              		.cfi_restore 1
 1203              		.cfi_def_cfa_offset 0
 1204              	.L82:
 1205              		.cfi_restore_state
 310:../src/bsp/advspi.c **** 		spi_flash_read_status();
 1206              		.loc 1 310 3
 1207 0042 1945     		li	a0,6
 1208 0044 97000000 		call	spi_flash_write_cmd
 1208      E7800000 
 311:../src/bsp/advspi.c **** 	}
 1209              		.loc 1 311 3
 1210 004c 97000000 		call	spi_flash_read_status
 1210      E7800000 
 1211 0054 03270900 		lw	a4,0(s2)
 1212 0058 C1BF     		j	.L76
 1213              		.cfi_endproc
 1214              	.LFE21:
 1216              		.section	.text.spi_flash_page_program,"ax",@progbits
 1217              		.align	1
 1218              		.globl	spi_flash_page_program
 1220              	spi_flash_page_program:
 1221              	.LFB22:
 319:../src/bsp/advspi.c **** 
 320:../src/bsp/advspi.c **** //Page program
 321:../src/bsp/advspi.c **** void spi_flash_page_program(uint8_t wr_len,uint32_t address,uint8_t *write_buffer)
 322:../src/bsp/advspi.c **** {
 1222              		.loc 1 322 1
 1223              		.cfi_startproc
 1224 0000 17030000 		call	t0,__riscv_save_2
 1224      E7020300 
 1225              		.cfi_offset 9, -12
 1226              		.cfi_offset 1, -4
 1227              		.cfi_def_cfa_offset 16
 1228 0008 4111     		addi	sp,sp,-16
 1229              		.cfi_def_cfa_offset 32
 1230              		.loc 1 322 1
 1231 000a AA84     		mv	s1,a0
 323:../src/bsp/advspi.c **** 	spi_flash_write_cmd(WRITE_ENABLE);
 1232              		.loc 1 323 2
 1233 000c 1945     		li	a0,6
 322:../src/bsp/advspi.c **** 	spi_flash_write_cmd(WRITE_ENABLE);
 1234              		.loc 1 322 1
 1235 000e 2EC4     		sw	a1,8(sp)
 1236 0010 32C6     		sw	a2,12(sp)
 1237              		.loc 1 323 2
 1238 0012 97000000 		call	spi_flash_write_cmd
 1238      E7800000 
 324:../src/bsp/advspi.c **** 	spi_flash_read_status();
 1239              		.loc 1 324 2
 1240 001a 97000000 		call	spi_flash_read_status
 1240      E7800000 
 325:../src/bsp/advspi.c **** 
 326:../src/bsp/advspi.c **** 	SPI_FLASH_Reg->TRANSCTRL = (1 << 30) + //enable cmd
 1241              		.loc 1 326 15
 1242 0022 97070000 		lla	a5,SPI_FLASH_Reg
 1242      93870700 
 1243 002a 9843     		lw	a4,0(a5)
 327:../src/bsp/advspi.c **** 							(1 << 29) + //enable address
 328:../src/bsp/advspi.c **** 			                (1 << 24) +        //trans mode = 1 (write only)
 329:../src/bsp/advspi.c **** 							(0 << 22) +         //dual mode
 330:../src/bsp/advspi.c **** 							((wr_len-1) << 12); //set read trans byte count
 1244              		.loc 1 330 16
 1245 002c 9387F4FF 		addi	a5,s1,-1
 1246              		.loc 1 330 20
 1247 0030 9396C700 		slli	a3,a5,12
 329:../src/bsp/advspi.c **** 							((wr_len-1) << 12); //set read trans byte count
 1248              		.loc 1 329 18
 1249 0034 37050061 		li	a0,1627389952
 331:../src/bsp/advspi.c **** 
 332:../src/bsp/advspi.c **** 	SPI_FLASH_Reg->ADDR = address;
 1250              		.loc 1 332 22
 1251 0038 A245     		lw	a1,8(sp)
 329:../src/bsp/advspi.c **** 							((wr_len-1) << 12); //set read trans byte count
 1252              		.loc 1 329 18
 1253 003a AA96     		add	a3,a3,a0
 326:../src/bsp/advspi.c **** 							(1 << 29) + //enable address
 1254              		.loc 1 326 27
 1255 003c 14D3     		sw	a3,32(a4)
 1256              		.loc 1 332 22
 1257 003e 0CD7     		sw	a1,40(a4)
 333:../src/bsp/advspi.c **** 	SPI_FLASH_Reg->CMD  = 0x02;//page program cmd
 1258              		.loc 1 333 22
 1259 0040 8946     		li	a3,2
 1260 0042 54D3     		sw	a3,36(a4)
 1261              	.LBB8:
 334:../src/bsp/advspi.c **** 	for(uint8_t i = 0; i < wr_len; i++)
 1262              		.loc 1 334 2
 1263 0044 8DC0     		beqz	s1,.L87
 1264 0046 3246     		lw	a2,12(sp)
 1265 0048 93F6F70F 		andi	a3,a5,0xff
 1266 004c 8506     		addi	a3,a3,1
 1267 004e B296     		add	a3,a2,a3
 1268              	.L86:
 335:../src/bsp/advspi.c **** 	{
 336:../src/bsp/advspi.c **** 		SPI_FLASH_Reg->DATA = (uint32_t)(*write_buffer);
 1269              		.loc 1 336 25
 1270 0050 83470600 		lbu	a5,0(a2)
 337:../src/bsp/advspi.c **** 		write_buffer++;
 1271              		.loc 1 337 15
 1272 0054 0506     		addi	a2,a2,1
 336:../src/bsp/advspi.c **** 		write_buffer++;
 1273              		.loc 1 336 23
 1274 0056 5CD7     		sw	a5,44(a4)
 1275              	.L85:
 338:../src/bsp/advspi.c **** 		//check the status of txfifo
 339:../src/bsp/advspi.c **** 		while(SPI_FLASH_Reg ->STATUS & (0x1 <<23));
 1276              		.loc 1 339 23 discriminator 1
 1277 0058 5C5B     		lw	a5,52(a4)
 1278              		.loc 1 339 8 discriminator 1
 1279 005a 93958700 		slli	a1,a5,8
 1280 005e E3CD05FE 		bltz	a1,.L85
 334:../src/bsp/advspi.c **** 	{
 1281              		.loc 1 334 2 discriminator 2
 1282 0062 E397C6FE 		bne	a3,a2,.L86
 1283              	.L87:
 1284              	.LBE8:
 340:../src/bsp/advspi.c **** 	}
 341:../src/bsp/advspi.c **** 
 342:../src/bsp/advspi.c **** 	while((SPI_FLASH_Reg->STATUS & 0x01)); //wait until SPI_ctroller active finish
 1285              		.loc 1 342 22 discriminator 1
 1286 0066 5C5B     		lw	a5,52(a4)
 1287              		.loc 1 342 31 discriminator 1
 1288 0068 858B     		andi	a5,a5,1
 1289              		.loc 1 342 7 discriminator 1
 1290 006a F5FF     		bnez	a5,.L87
 343:../src/bsp/advspi.c **** 	spi_flash_write_cmd(WRITE_DISENABLE);
 1291              		.loc 1 343 2
 1292 006c 1145     		li	a0,4
 1293 006e 97000000 		call	spi_flash_write_cmd
 1293      E7800000 
 344:../src/bsp/advspi.c **** 	spi_flash_read_status();    //wait spi flash free
 1294              		.loc 1 344 2
 1295 0076 97000000 		call	spi_flash_read_status
 1295      E7800000 
 345:../src/bsp/advspi.c **** }
 1296              		.loc 1 345 1
 1297 007e 4101     		addi	sp,sp,16
 1298              		.cfi_def_cfa_offset 0
 1299 0080 17030000 		tail	__riscv_restore_2
 1299      67000300 
 1300              		.cfi_restore 9
 1301              		.cfi_restore 1
 1302              		.cfi_def_cfa_offset -16
 1303              		.cfi_endproc
 1304              	.LFE22:
 1306              		.section	.text.spi_flash_sector_erase,"ax",@progbits
 1307              		.align	1
 1308              		.globl	spi_flash_sector_erase
 1310              	spi_flash_sector_erase:
 1311              	.LFB23:
 346:../src/bsp/advspi.c **** 
 347:../src/bsp/advspi.c **** //Sector Erase
 348:../src/bsp/advspi.c **** void spi_flash_sector_erase(uint32_t address)
 349:../src/bsp/advspi.c **** {
 1312              		.loc 1 349 1
 1313              		.cfi_startproc
 1314 0000 17030000 		call	t0,__riscv_save_2
 1314      E7020300 
 1315              		.cfi_offset 9, -12
 1316              		.cfi_offset 1, -4
 1317              		.cfi_def_cfa_offset 16
 1318              		.loc 1 349 1
 1319 0008 AA84     		mv	s1,a0
 350:../src/bsp/advspi.c **** 	spi_flash_write_cmd(WRITE_ENABLE);
 1320              		.loc 1 350 2
 1321 000a 1945     		li	a0,6
 1322 000c 97000000 		call	spi_flash_write_cmd
 1322      E7800000 
 351:../src/bsp/advspi.c **** 	spi_flash_read_status();
 1323              		.loc 1 351 2
 1324 0014 97000000 		call	spi_flash_read_status
 1324      E7800000 
 352:../src/bsp/advspi.c **** 	//litter endian and the range of address
 353:../src/bsp/advspi.c **** 	//uint8_t temp[3];
 354:../src/bsp/advspi.c **** 	uint8_t temp0;
 355:../src/bsp/advspi.c **** 	uint8_t temp1;
 356:../src/bsp/advspi.c **** 	uint8_t temp2;
 357:../src/bsp/advspi.c **** 	SPI_FLASH_Reg->TRANSCTRL = (1 << 30) + //enable cmd
 1325              		.loc 1 357 15
 1326 001c 97070000 		lla	a5,SPI_FLASH_Reg
 1326      93870700 
 1327 0024 9C43     		lw	a5,0(a5)
 1328              		.loc 1 357 27
 1329 0026 37270041 		li	a4,1090527232
 358:../src/bsp/advspi.c **** 			                (1 << 24) +        //trans mode = 1 (write only)
 359:../src/bsp/advspi.c **** 							(0 << 22) +         //dual mode
 360:../src/bsp/advspi.c **** 							(2 << 12); //set address - 3bytes
 361:../src/bsp/advspi.c **** 
 362:../src/bsp/advspi.c **** 	temp0 = (address >> 16 &0xFF);//The address High byte
 363:../src/bsp/advspi.c **** 	temp1 = (address >> 8  &0xFF);//The address middle byte
 364:../src/bsp/advspi.c **** 	temp2 = (address       &0xFF);//The address low   byte
 365:../src/bsp/advspi.c **** 
 366:../src/bsp/advspi.c **** 	SPI_FLASH_Reg->CMD  = 0x20; //Sector Erase cmd
 1330              		.loc 1 366 22
 1331 002a 93060002 		li	a3,32
 357:../src/bsp/advspi.c **** 			                (1 << 24) +        //trans mode = 1 (write only)
 1332              		.loc 1 357 27
 1333 002e 98D3     		sw	a4,32(a5)
 362:../src/bsp/advspi.c **** 	temp1 = (address >> 8  &0xFF);//The address middle byte
 1334              		.loc 1 362 19
 1335 0030 13D70401 		srli	a4,s1,16
 1336              		.loc 1 366 22
 1337 0034 D4D3     		sw	a3,36(a5)
 1338 0036 1377F70F 		andi	a4,a4,255
 363:../src/bsp/advspi.c **** 	temp2 = (address       &0xFF);//The address low   byte
 1339              		.loc 1 363 19
 1340 003a 93D68400 		srli	a3,s1,8
 367:../src/bsp/advspi.c **** 
 368:../src/bsp/advspi.c **** 	SPI_FLASH_Reg->DATA = temp0;
 1341              		.loc 1 368 22
 1342 003e D8D7     		sw	a4,44(a5)
 1343              	.L96:
 369:../src/bsp/advspi.c **** 	//check the status of txfifo
 370:../src/bsp/advspi.c **** 	while(SPI_FLASH_Reg ->STATUS & (0x1 <<23));
 1344              		.loc 1 370 22 discriminator 1
 1345 0040 D85B     		lw	a4,52(a5)
 1346              		.loc 1 370 7 discriminator 1
 1347 0042 13168700 		slli	a2,a4,8
 1348 0046 E34D06FE 		bltz	a2,.L96
 1349 004a 13F7F60F 		andi	a4,a3,255
 371:../src/bsp/advspi.c **** 
 372:../src/bsp/advspi.c **** 	SPI_FLASH_Reg->DATA = temp1;
 1350              		.loc 1 372 22
 1351 004e D8D7     		sw	a4,44(a5)
 1352              	.L97:
 373:../src/bsp/advspi.c **** 	//check the status of txfifo
 374:../src/bsp/advspi.c **** 	while(SPI_FLASH_Reg ->STATUS & (0x1 <<23));
 1353              		.loc 1 374 22 discriminator 1
 1354 0050 D85B     		lw	a4,52(a5)
 1355              		.loc 1 374 7 discriminator 1
 1356 0052 93168700 		slli	a3,a4,8
 1357 0056 E3CD06FE 		bltz	a3,.L97
 1358 005a 93F4F40F 		andi	s1,s1,255
 375:../src/bsp/advspi.c **** 
 376:../src/bsp/advspi.c **** 	SPI_FLASH_Reg->DATA = temp2;
 1359              		.loc 1 376 22
 1360 005e C4D7     		sw	s1,44(a5)
 1361              	.L98:
 377:../src/bsp/advspi.c **** 	//check the status of txfifo
 378:../src/bsp/advspi.c **** 	while(SPI_FLASH_Reg ->STATUS & (0x1 <<23));
 1362              		.loc 1 378 22 discriminator 1
 1363 0060 D85B     		lw	a4,52(a5)
 1364              		.loc 1 378 7 discriminator 1
 1365 0062 93168700 		slli	a3,a4,8
 1366 0066 E3CD06FE 		bltz	a3,.L98
 1367              	.L99:
 379:../src/bsp/advspi.c **** 
 380:../src/bsp/advspi.c **** 	while((SPI_FLASH_Reg->STATUS & 0x01)); //wait until SPI_ctroller active finish
 1368              		.loc 1 380 22 discriminator 1
 1369 006a D85B     		lw	a4,52(a5)
 1370              		.loc 1 380 31 discriminator 1
 1371 006c 058B     		andi	a4,a4,1
 1372              		.loc 1 380 7 discriminator 1
 1373 006e 75FF     		bnez	a4,.L99
 381:../src/bsp/advspi.c **** 	spi_flash_write_cmd(WRITE_DISENABLE);
 1374              		.loc 1 381 2
 1375 0070 1145     		li	a0,4
 1376 0072 97000000 		call	spi_flash_write_cmd
 1376      E7800000 
 382:../src/bsp/advspi.c **** 	spi_flash_read_status();    //wait spi flash free
 1377              		.loc 1 382 2
 1378 007a 97000000 		call	spi_flash_read_status
 1378      E7800000 
 383:../src/bsp/advspi.c **** }
 1379              		.loc 1 383 1
 1380 0082 17030000 		tail	__riscv_restore_2
 1380      67000300 
 1381              		.cfi_restore 9
 1382              		.cfi_restore 1
 1383              		.cfi_def_cfa_offset 0
 1384              		.cfi_endproc
 1385              	.LFE23:
 1387              		.section	.text.spi_flash_read_status,"ax",@progbits
 1388              		.align	1
 1389              		.globl	spi_flash_read_status
 1391              	spi_flash_read_status:
 1392              	.LFB24:
 384:../src/bsp/advspi.c **** 
 385:../src/bsp/advspi.c **** void spi_flash_read_status()
 386:../src/bsp/advspi.c **** {
 1393              		.loc 1 386 1
 1394              		.cfi_startproc
 387:../src/bsp/advspi.c **** 	uint8_t temp_first;
 388:../src/bsp/advspi.c **** 	SPI_FLASH_Reg->TRANSCTRL = (1 << 30) +     //enable cmd
 1395              		.loc 1 388 15
 1396 0000 97070000 		lla	a5,SPI_FLASH_Reg
 1396      93870700 
 1397 0008 9C43     		lw	a5,0(a5)
 1398              		.loc 1 388 27
 1399 000a 37070042 		li	a4,1107296256
 389:../src/bsp/advspi.c **** 			                (2 << 24) +        //trans mode = 2 (read only)
 390:../src/bsp/advspi.c **** 							(0 << 22) +        //dual mode 0 regular mode
 391:../src/bsp/advspi.c **** 							(0 << 0); //set read 1 byte
 392:../src/bsp/advspi.c ****    do
 393:../src/bsp/advspi.c ****    {
 394:../src/bsp/advspi.c **** 	   	SPI_FLASH_Reg->CMD  = 0x05;//read status
 1400              		.loc 1 394 26
 1401 000e 9546     		li	a3,5
 388:../src/bsp/advspi.c **** 			                (2 << 24) +        //trans mode = 2 (read only)
 1402              		.loc 1 388 27
 1403 0010 98D3     		sw	a4,32(a5)
 1404              	.L106:
 1405              		.loc 1 394 26 discriminator 1
 1406 0012 D4D3     		sw	a3,36(a5)
 395:../src/bsp/advspi.c **** 		temp_first  = SPI_FLASH_Reg->DATA;
 1407              		.loc 1 395 30 discriminator 1
 1408 0014 D857     		lw	a4,44(a5)
 396:../src/bsp/advspi.c **** 		//printf("The spi  read status is %x\r\n",temp_first);
 397:../src/bsp/advspi.c ****    }
 398:../src/bsp/advspi.c ****    while(temp_first & 0x01 );//Select the low bit and wait become 0
 1409              		.loc 1 398 21 discriminator 1
 1410 0016 058B     		andi	a4,a4,1
 1411              		.loc 1 398 4 discriminator 1
 1412 0018 6DFF     		bnez	a4,.L106
 1413              	.L107:
 399:../src/bsp/advspi.c **** 
 400:../src/bsp/advspi.c ****    while((SPI_FLASH_Reg->STATUS & 0x03)) ; //wait until SPI_Ctroller active finish
 1414              		.loc 1 400 24 discriminator 1
 1415 001a D85B     		lw	a4,52(a5)
 1416              		.loc 1 400 33 discriminator 1
 1417 001c 0D8B     		andi	a4,a4,3
 1418              		.loc 1 400 9 discriminator 1
 1419 001e 75FF     		bnez	a4,.L107
 401:../src/bsp/advspi.c **** }
 1420              		.loc 1 401 1
 1421 0020 8280     		ret
 1422              		.cfi_endproc
 1423              	.LFE24:
 1425              		.text
 1426              	.Letext0:
 1427              		.file 2 "c:\\gmd\\toolchain\\risc-v_toolchain\\riscv-none-embed\\include\\machine\\_default_types.
 1428              		.file 3 "c:\\gmd\\toolchain\\risc-v_toolchain\\riscv-none-embed\\include\\sys\\_stdint.h"
 1429              		.file 4 "c:\\gmd\\toolchain\\risc-v_toolchain\\riscv-none-embed\\include\\sys\\lock.h"
 1430              		.file 5 "c:\\gmd\\toolchain\\risc-v_toolchain\\riscv-none-embed\\include\\sys\\_types.h"
 1431              		.file 6 "c:\\gmd\\toolchain\\risc-v_toolchain\\lib\\gcc\\riscv-none-embed\\8.2.0\\include\\stddef.
 1432              		.file 7 "c:\\gmd\\toolchain\\risc-v_toolchain\\riscv-none-embed\\include\\sys\\reent.h"
 1433              		.file 8 "E:\\GMD\\workspace\\picorv32_demo\\src/picorv32.h"
DEFINED SYMBOLS
                            *ABS*:0000000000000000 advspi.c
C:\Users\liukai\AppData\Local\Temp\cclRrI3t.s:10     .sdata.SPI_FLASH_Reg:0000000000000000 SPI_FLASH_Reg
C:\Users\liukai\AppData\Local\Temp\cclRrI3t.s:16     .text.SelectSpi:0000000000000000 SelectSpi
C:\Users\liukai\AppData\Local\Temp\cclRrI3t.s:20     .text.SelectSpi:0000000000000000 .L0 
C:\Users\liukai\AppData\Local\Temp\cclRrI3t.s:21     .text.SelectSpi:0000000000000000 .L0 
C:\Users\liukai\AppData\Local\Temp\cclRrI3t.s:22     .text.SelectSpi:0000000000000002 .L0 
C:\Users\liukai\AppData\Local\Temp\cclRrI3t.s:24     .text.SelectSpi:0000000000000004 .L0 
C:\Users\liukai\AppData\Local\Temp\cclRrI3t.s:26     .text.SelectSpi:0000000000000006 .L0 
C:\Users\liukai\AppData\Local\Temp\cclRrI3t.s:29     .text.SelectSpi:000000000000000a .L0 
C:\Users\liukai\AppData\Local\Temp\cclRrI3t.s:33     .text.SelectSpi:0000000000000018 .L0 
C:\Users\liukai\AppData\Local\Temp\cclRrI3t.s:35     .text.SelectSpi:000000000000001c .L0 
C:\Users\liukai\AppData\Local\Temp\cclRrI3t.s:37     .text.SelectSpi:000000000000001e .L0 
C:\Users\liukai\AppData\Local\Temp\cclRrI3t.s:39     .text.SelectSpi:0000000000000020 .L0 
C:\Users\liukai\AppData\Local\Temp\cclRrI3t.s:46     .text.SPI_reset:0000000000000000 SPI_reset
C:\Users\liukai\AppData\Local\Temp\cclRrI3t.s:49     .text.SPI_reset:0000000000000000 .L0 
C:\Users\liukai\AppData\Local\Temp\cclRrI3t.s:50     .text.SPI_reset:0000000000000000 .L0 
C:\Users\liukai\AppData\Local\Temp\cclRrI3t.s:51     .text.SPI_reset:0000000000000002 .L0 
C:\Users\liukai\AppData\Local\Temp\cclRrI3t.s:53     .text.SPI_reset:0000000000000004 .L0 
C:\Users\liukai\AppData\Local\Temp\cclRrI3t.s:55     .text.SPI_reset:0000000000000006 .L0 
C:\Users\liukai\AppData\Local\Temp\cclRrI3t.s:57     .text.SPI_reset:0000000000000006 .L0 
C:\Users\liukai\AppData\Local\Temp\cclRrI3t.s:65     .text.SPI_reset:0000000000000022 .L0 
C:\Users\liukai\AppData\Local\Temp\cclRrI3t.s:68     .text.SPI_reset:0000000000000024 .L0 
C:\Users\liukai\AppData\Local\Temp\cclRrI3t.s:72     .text.SPI_reset:0000000000000030 .L0 
C:\Users\liukai\AppData\Local\Temp\cclRrI3t.s:74     .text.SPI_reset:0000000000000032 .L0 
C:\Users\liukai\AppData\Local\Temp\cclRrI3t.s:76     .text.SPI_reset:0000000000000034 .L0 
C:\Users\liukai\AppData\Local\Temp\cclRrI3t.s:78     .text.SPI_reset:0000000000000036 .L0 
C:\Users\liukai\AppData\Local\Temp\cclRrI3t.s:79     .text.SPI_reset:0000000000000038 .L0 
C:\Users\liukai\AppData\Local\Temp\cclRrI3t.s:81     .text.SPI_reset:000000000000003a .L0 
C:\Users\liukai\AppData\Local\Temp\cclRrI3t.s:83     .text.SPI_reset:000000000000003c .L0 
C:\Users\liukai\AppData\Local\Temp\cclRrI3t.s:90     .text.SPI_set_mode:0000000000000000 SPI_set_mode
C:\Users\liukai\AppData\Local\Temp\cclRrI3t.s:93     .text.SPI_set_mode:0000000000000000 .L0 
C:\Users\liukai\AppData\Local\Temp\cclRrI3t.s:94     .text.SPI_set_mode:0000000000000000 .L0 
C:\Users\liukai\AppData\Local\Temp\cclRrI3t.s:95     .text.SPI_set_mode:0000000000000002 .L0 
C:\Users\liukai\AppData\Local\Temp\cclRrI3t.s:97     .text.SPI_set_mode:0000000000000004 .L0 
C:\Users\liukai\AppData\Local\Temp\cclRrI3t.s:99     .text.SPI_set_mode:0000000000000006 .L0 
C:\Users\liukai\AppData\Local\Temp\cclRrI3t.s:102    .text.SPI_set_mode:000000000000000a .L0 
C:\Users\liukai\AppData\Local\Temp\cclRrI3t.s:105    .text.SPI_set_mode:0000000000000014 .L0 
C:\Users\liukai\AppData\Local\Temp\cclRrI3t.s:108    .text.SPI_set_mode:000000000000001a .L0 
C:\Users\liukai\AppData\Local\Temp\cclRrI3t.s:111    .text.SPI_set_mode:0000000000000022 .L0 
C:\Users\liukai\AppData\Local\Temp\cclRrI3t.s:114    .text.SPI_set_mode:000000000000002c .L0 
C:\Users\liukai\AppData\Local\Temp\cclRrI3t.s:117    .text.SPI_set_mode:0000000000000032 .L0 
C:\Users\liukai\AppData\Local\Temp\cclRrI3t.s:119    .text.SPI_set_mode:0000000000000034 .L0 
C:\Users\liukai\AppData\Local\Temp\cclRrI3t.s:121    .text.SPI_set_mode:0000000000000036 .L0 
C:\Users\liukai\AppData\Local\Temp\cclRrI3t.s:122    .text.SPI_set_mode:0000000000000038 .L0 
C:\Users\liukai\AppData\Local\Temp\cclRrI3t.s:124    .text.SPI_set_mode:000000000000003a .L0 
C:\Users\liukai\AppData\Local\Temp\cclRrI3t.s:126    .text.SPI_set_mode:000000000000003c .L0 
C:\Users\liukai\AppData\Local\Temp\cclRrI3t.s:133    .text.SPI_set_addr_format:0000000000000000 SPI_set_addr_format
C:\Users\liukai\AppData\Local\Temp\cclRrI3t.s:136    .text.SPI_set_addr_format:0000000000000000 .L0 
C:\Users\liukai\AppData\Local\Temp\cclRrI3t.s:137    .text.SPI_set_addr_format:0000000000000000 .L0 
C:\Users\liukai\AppData\Local\Temp\cclRrI3t.s:138    .text.SPI_set_addr_format:0000000000000002 .L0 
C:\Users\liukai\AppData\Local\Temp\cclRrI3t.s:140    .text.SPI_set_addr_format:0000000000000004 .L0 
C:\Users\liukai\AppData\Local\Temp\cclRrI3t.s:142    .text.SPI_set_addr_format:0000000000000006 .L0 
C:\Users\liukai\AppData\Local\Temp\cclRrI3t.s:148    .text.SPI_set_addr_format:0000000000000014 .L0 
C:\Users\liukai\AppData\Local\Temp\cclRrI3t.s:151    .text.SPI_set_addr_format:000000000000001a .L0 
C:\Users\liukai\AppData\Local\Temp\cclRrI3t.s:154    .text.SPI_set_addr_format:0000000000000024 .L0 
C:\Users\liukai\AppData\Local\Temp\cclRrI3t.s:157    .text.SPI_set_addr_format:000000000000002a .L0 
C:\Users\liukai\AppData\Local\Temp\cclRrI3t.s:162    .text.SPI_set_addr_format:0000000000000036 .L0 
C:\Users\liukai\AppData\Local\Temp\cclRrI3t.s:165    .text.SPI_set_addr_format:000000000000003e .L0 
C:\Users\liukai\AppData\Local\Temp\cclRrI3t.s:168    .text.SPI_set_addr_format:0000000000000048 .L0 
C:\Users\liukai\AppData\Local\Temp\cclRrI3t.s:171    .text.SPI_set_addr_format:000000000000004e .L0 
C:\Users\liukai\AppData\Local\Temp\cclRrI3t.s:173    .text.SPI_set_addr_format:0000000000000050 .L0 
C:\Users\liukai\AppData\Local\Temp\cclRrI3t.s:176    .text.SPI_set_addr_format:000000000000005a .L0 
C:\Users\liukai\AppData\Local\Temp\cclRrI3t.s:179    .text.SPI_set_addr_format:0000000000000060 .L0 
C:\Users\liukai\AppData\Local\Temp\cclRrI3t.s:184    .text.SPI_set_addr_format:000000000000006e .L0 
C:\Users\liukai\AppData\Local\Temp\cclRrI3t.s:187    .text.SPI_set_addr_format:0000000000000078 .L0 
C:\Users\liukai\AppData\Local\Temp\cclRrI3t.s:190    .text.SPI_set_addr_format:000000000000007e .L0 
C:\Users\liukai\AppData\Local\Temp\cclRrI3t.s:192    .text.SPI_set_addr_format:0000000000000080 .L0 
C:\Users\liukai\AppData\Local\Temp\cclRrI3t.s:196    .text.SPI_set_addr_format:0000000000000084 .L0 
C:\Users\liukai\AppData\Local\Temp\cclRrI3t.s:199    .text.SPI_set_addr_format:0000000000000086 .L0 
C:\Users\liukai\AppData\Local\Temp\cclRrI3t.s:200    .text.SPI_set_addr_format:0000000000000088 .L0 
C:\Users\liukai\AppData\Local\Temp\cclRrI3t.s:202    .text.SPI_set_addr_format:000000000000008a .L0 
C:\Users\liukai\AppData\Local\Temp\cclRrI3t.s:204    .text.SPI_set_addr_format:000000000000008c .L0 
C:\Users\liukai\AppData\Local\Temp\cclRrI3t.s:211    .text.SPI_set_cmd_format:0000000000000000 SPI_set_cmd_format
C:\Users\liukai\AppData\Local\Temp\cclRrI3t.s:214    .text.SPI_set_cmd_format:0000000000000000 .L0 
C:\Users\liukai\AppData\Local\Temp\cclRrI3t.s:215    .text.SPI_set_cmd_format:0000000000000000 .L0 
C:\Users\liukai\AppData\Local\Temp\cclRrI3t.s:216    .text.SPI_set_cmd_format:0000000000000002 .L0 
C:\Users\liukai\AppData\Local\Temp\cclRrI3t.s:218    .text.SPI_set_cmd_format:0000000000000004 .L0 
C:\Users\liukai\AppData\Local\Temp\cclRrI3t.s:220    .text.SPI_set_cmd_format:0000000000000006 .L0 
C:\Users\liukai\AppData\Local\Temp\cclRrI3t.s:224    .text.SPI_set_cmd_format:000000000000000c .L0 
C:\Users\liukai\AppData\Local\Temp\cclRrI3t.s:227    .text.SPI_set_cmd_format:0000000000000012 .L0 
C:\Users\liukai\AppData\Local\Temp\cclRrI3t.s:230    .text.SPI_set_cmd_format:000000000000001c .L0 
C:\Users\liukai\AppData\Local\Temp\cclRrI3t.s:233    .text.SPI_set_cmd_format:0000000000000022 .L0 
C:\Users\liukai\AppData\Local\Temp\cclRrI3t.s:238    .text.SPI_set_cmd_format:0000000000000030 .L0 
C:\Users\liukai\AppData\Local\Temp\cclRrI3t.s:241    .text.SPI_set_cmd_format:000000000000003a .L0 
C:\Users\liukai\AppData\Local\Temp\cclRrI3t.s:244    .text.SPI_set_cmd_format:0000000000000040 .L0 
C:\Users\liukai\AppData\Local\Temp\cclRrI3t.s:246    .text.SPI_set_cmd_format:0000000000000042 .L0 
C:\Users\liukai\AppData\Local\Temp\cclRrI3t.s:250    .text.SPI_set_cmd_format:0000000000000046 .L0 
C:\Users\liukai\AppData\Local\Temp\cclRrI3t.s:253    .text.SPI_set_cmd_format:0000000000000048 .L0 
C:\Users\liukai\AppData\Local\Temp\cclRrI3t.s:254    .text.SPI_set_cmd_format:000000000000004a .L0 
C:\Users\liukai\AppData\Local\Temp\cclRrI3t.s:256    .text.SPI_set_cmd_format:000000000000004c .L0 
C:\Users\liukai\AppData\Local\Temp\cclRrI3t.s:258    .text.SPI_set_cmd_format:000000000000004e .L0 
C:\Users\liukai\AppData\Local\Temp\cclRrI3t.s:265    .text.SPI_set_data_format:0000000000000000 SPI_set_data_format
C:\Users\liukai\AppData\Local\Temp\cclRrI3t.s:268    .text.SPI_set_data_format:0000000000000000 .L0 
C:\Users\liukai\AppData\Local\Temp\cclRrI3t.s:269    .text.SPI_set_data_format:0000000000000000 .L0 
C:\Users\liukai\AppData\Local\Temp\cclRrI3t.s:270    .text.SPI_set_data_format:0000000000000002 .L0 
C:\Users\liukai\AppData\Local\Temp\cclRrI3t.s:272    .text.SPI_set_data_format:0000000000000004 .L0 
C:\Users\liukai\AppData\Local\Temp\cclRrI3t.s:274    .text.SPI_set_data_format:0000000000000006 .L0 
C:\Users\liukai\AppData\Local\Temp\cclRrI3t.s:281    .text.SPI_set_data_format:0000000000000014 .L0 
C:\Users\liukai\AppData\Local\Temp\cclRrI3t.s:284    .text.SPI_set_data_format:000000000000001e .L0 
C:\Users\liukai\AppData\Local\Temp\cclRrI3t.s:287    .text.SPI_set_data_format:0000000000000024 .L0 
C:\Users\liukai\AppData\Local\Temp\cclRrI3t.s:292    .text.SPI_set_data_format:0000000000000032 .L0 
C:\Users\liukai\AppData\Local\Temp\cclRrI3t.s:295    .text.SPI_set_data_format:0000000000000038 .L0 
C:\Users\liukai\AppData\Local\Temp\cclRrI3t.s:301    .text.SPI_set_data_format:0000000000000044 .L0 
C:\Users\liukai\AppData\Local\Temp\cclRrI3t.s:304    .text.SPI_set_data_format:000000000000004e .L0 
C:\Users\liukai\AppData\Local\Temp\cclRrI3t.s:306    .text.SPI_set_data_format:0000000000000050 .L0 
C:\Users\liukai\AppData\Local\Temp\cclRrI3t.s:308    .text.SPI_set_data_format:0000000000000052 .L0 
C:\Users\liukai\AppData\Local\Temp\cclRrI3t.s:312    .text.SPI_set_data_format:000000000000005c .L0 
C:\Users\liukai\AppData\Local\Temp\cclRrI3t.s:315    .text.SPI_set_data_format:0000000000000066 .L0 
C:\Users\liukai\AppData\Local\Temp\cclRrI3t.s:318    .text.SPI_set_data_format:000000000000006c .L0 
C:\Users\liukai\AppData\Local\Temp\cclRrI3t.s:321    .text.SPI_set_data_format:0000000000000074 .L0 
C:\Users\liukai\AppData\Local\Temp\cclRrI3t.s:325    .text.SPI_set_data_format:000000000000007e .L0 
C:\Users\liukai\AppData\Local\Temp\cclRrI3t.s:328    .text.SPI_set_data_format:0000000000000088 .L0 
C:\Users\liukai\AppData\Local\Temp\cclRrI3t.s:330    .text.SPI_set_data_format:000000000000008a .L0 
C:\Users\liukai\AppData\Local\Temp\cclRrI3t.s:332    .text.SPI_set_data_format:000000000000008c .L0 
C:\Users\liukai\AppData\Local\Temp\cclRrI3t.s:336    .text.SPI_set_data_format:0000000000000090 .L0 
C:\Users\liukai\AppData\Local\Temp\cclRrI3t.s:337    .text.SPI_set_data_format:0000000000000092 .L0 
C:\Users\liukai\AppData\Local\Temp\cclRrI3t.s:339    .text.SPI_set_data_format:0000000000000094 .L0 
C:\Users\liukai\AppData\Local\Temp\cclRrI3t.s:341    .text.SPI_set_data_format:0000000000000096 .L0 
C:\Users\liukai\AppData\Local\Temp\cclRrI3t.s:348    .text.SPI_set_transfer_format:0000000000000000 SPI_set_transfer_format
C:\Users\liukai\AppData\Local\Temp\cclRrI3t.s:351    .text.SPI_set_transfer_format:0000000000000000 .L0 
C:\Users\liukai\AppData\Local\Temp\cclRrI3t.s:352    .text.SPI_set_transfer_format:0000000000000000 .L0 
C:\Users\liukai\AppData\Local\Temp\cclRrI3t.s:353    .text.SPI_set_transfer_format:0000000000000002 .L0 
C:\Users\liukai\AppData\Local\Temp\cclRrI3t.s:355    .text.SPI_set_transfer_format:0000000000000004 .L0 
C:\Users\liukai\AppData\Local\Temp\cclRrI3t.s:357    .text.SPI_set_transfer_format:0000000000000006 .L0 
C:\Users\liukai\AppData\Local\Temp\cclRrI3t.s:363    .text.SPI_set_transfer_format:0000000000000016 .L0 
C:\Users\liukai\AppData\Local\Temp\cclRrI3t.s:366    .text.SPI_set_transfer_format:0000000000000020 .L0 
C:\Users\liukai\AppData\Local\Temp\cclRrI3t.s:369    .text.SPI_set_transfer_format:0000000000000026 .L0 
C:\Users\liukai\AppData\Local\Temp\cclRrI3t.s:373    .text.SPI_set_transfer_format:0000000000000030 .L0 
C:\Users\liukai\AppData\Local\Temp\cclRrI3t.s:377    .text.SPI_set_transfer_format:0000000000000038 .L0 
C:\Users\liukai\AppData\Local\Temp\cclRrI3t.s:379    .text.SPI_set_transfer_format:000000000000003a .L0 
C:\Users\liukai\AppData\Local\Temp\cclRrI3t.s:382    .text.SPI_set_transfer_format:0000000000000040 .L0 
C:\Users\liukai\AppData\Local\Temp\cclRrI3t.s:385    .text.SPI_set_transfer_format:0000000000000046 .L0 
C:\Users\liukai\AppData\Local\Temp\cclRrI3t.s:388    .text.SPI_set_transfer_format:000000000000004e .L0 
C:\Users\liukai\AppData\Local\Temp\cclRrI3t.s:391    .text.SPI_set_transfer_format:0000000000000058 .L0 
C:\Users\liukai\AppData\Local\Temp\cclRrI3t.s:394    .text.SPI_set_transfer_format:000000000000005e .L0 
C:\Users\liukai\AppData\Local\Temp\cclRrI3t.s:396    .text.SPI_set_transfer_format:0000000000000060 .L0 
C:\Users\liukai\AppData\Local\Temp\cclRrI3t.s:398    .text.SPI_set_transfer_format:0000000000000062 .L0 
C:\Users\liukai\AppData\Local\Temp\cclRrI3t.s:399    .text.SPI_set_transfer_format:0000000000000064 .L0 
C:\Users\liukai\AppData\Local\Temp\cclRrI3t.s:401    .text.SPI_set_transfer_format:0000000000000066 .L0 
C:\Users\liukai\AppData\Local\Temp\cclRrI3t.s:403    .text.SPI_set_transfer_format:0000000000000068 .L0 
C:\Users\liukai\AppData\Local\Temp\cclRrI3t.s:410    .text.SPI_set_trans_ctrl:0000000000000000 SPI_set_trans_ctrl
C:\Users\liukai\AppData\Local\Temp\cclRrI3t.s:413    .text.SPI_set_trans_ctrl:0000000000000000 .L0 
C:\Users\liukai\AppData\Local\Temp\cclRrI3t.s:414    .text.SPI_set_trans_ctrl:0000000000000000 .L0 
C:\Users\liukai\AppData\Local\Temp\cclRrI3t.s:415    .text.SPI_set_trans_ctrl:0000000000000002 .L0 
C:\Users\liukai\AppData\Local\Temp\cclRrI3t.s:417    .text.SPI_set_trans_ctrl:0000000000000004 .L0 
C:\Users\liukai\AppData\Local\Temp\cclRrI3t.s:419    .text.SPI_set_trans_ctrl:0000000000000006 .L0 
C:\Users\liukai\AppData\Local\Temp\cclRrI3t.s:424    .text.SPI_set_trans_ctrl:0000000000000012 .L0 
C:\Users\liukai\AppData\Local\Temp\cclRrI3t.s:427    .text.SPI_set_trans_ctrl:000000000000001c .L0 
C:\Users\liukai\AppData\Local\Temp\cclRrI3t.s:430    .text.SPI_set_trans_ctrl:0000000000000022 .L0 
C:\Users\liukai\AppData\Local\Temp\cclRrI3t.s:433    .text.SPI_set_trans_ctrl:000000000000002c .L0 
C:\Users\liukai\AppData\Local\Temp\cclRrI3t.s:438    .text.SPI_set_trans_ctrl:000000000000003a .L0 
C:\Users\liukai\AppData\Local\Temp\cclRrI3t.s:440    .text.SPI_set_trans_ctrl:000000000000003c .L0 
C:\Users\liukai\AppData\Local\Temp\cclRrI3t.s:449    .text.SPI_set_trans_ctrl:000000000000005a .L0 
C:\Users\liukai\AppData\Local\Temp\cclRrI3t.s:458    .text.SPI_set_trans_ctrl:0000000000000078 .L0 
C:\Users\liukai\AppData\Local\Temp\cclRrI3t.s:462    .text.SPI_set_trans_ctrl:0000000000000084 .L0 
C:\Users\liukai\AppData\Local\Temp\cclRrI3t.s:465    .text.SPI_set_trans_ctrl:000000000000008a .L0 
C:\Users\liukai\AppData\Local\Temp\cclRrI3t.s:468    .text.SPI_set_trans_ctrl:0000000000000090 .L0 
C:\Users\liukai\AppData\Local\Temp\cclRrI3t.s:473    .text.SPI_set_trans_ctrl:000000000000009e .L0 
C:\Users\liukai\AppData\Local\Temp\cclRrI3t.s:475    .text.SPI_set_trans_ctrl:00000000000000a0 .L0 
C:\Users\liukai\AppData\Local\Temp\cclRrI3t.s:476    .text.SPI_set_trans_ctrl:00000000000000a2 .L0 
C:\Users\liukai\AppData\Local\Temp\cclRrI3t.s:478    .text.SPI_set_trans_ctrl:00000000000000a4 .L0 
C:\Users\liukai\AppData\Local\Temp\cclRrI3t.s:480    .text.SPI_set_trans_ctrl:00000000000000a6 .L0 
C:\Users\liukai\AppData\Local\Temp\cclRrI3t.s:487    .text.SPI_set_token:0000000000000000 SPI_set_token
C:\Users\liukai\AppData\Local\Temp\cclRrI3t.s:490    .text.SPI_set_token:0000000000000000 .L0 
C:\Users\liukai\AppData\Local\Temp\cclRrI3t.s:491    .text.SPI_set_token:0000000000000000 .L0 
C:\Users\liukai\AppData\Local\Temp\cclRrI3t.s:492    .text.SPI_set_token:0000000000000002 .L0 
C:\Users\liukai\AppData\Local\Temp\cclRrI3t.s:494    .text.SPI_set_token:0000000000000004 .L0 
C:\Users\liukai\AppData\Local\Temp\cclRrI3t.s:496    .text.SPI_set_token:0000000000000006 .L0 
C:\Users\liukai\AppData\Local\Temp\cclRrI3t.s:503    .text.SPI_set_token:0000000000000014 .L0 
C:\Users\liukai\AppData\Local\Temp\cclRrI3t.s:506    .text.SPI_set_token:000000000000001e .L0 
C:\Users\liukai\AppData\Local\Temp\cclRrI3t.s:509    .text.SPI_set_token:0000000000000024 .L0 
C:\Users\liukai\AppData\Local\Temp\cclRrI3t.s:512    .text.SPI_set_token:000000000000002a .L0 
C:\Users\liukai\AppData\Local\Temp\cclRrI3t.s:517    .text.SPI_set_token:0000000000000038 .L0 
C:\Users\liukai\AppData\Local\Temp\cclRrI3t.s:524    .text.SPI_set_token:0000000000000048 .L0 
C:\Users\liukai\AppData\Local\Temp\cclRrI3t.s:526    .text.SPI_set_token:000000000000004c .L0 
C:\Users\liukai\AppData\Local\Temp\cclRrI3t.s:529    .text.SPI_set_token:0000000000000056 .L0 
C:\Users\liukai\AppData\Local\Temp\cclRrI3t.s:532    .text.SPI_set_token:000000000000005c .L0 
C:\Users\liukai\AppData\Local\Temp\cclRrI3t.s:536    .text.SPI_set_token:0000000000000060 .L0 
C:\Users\liukai\AppData\Local\Temp\cclRrI3t.s:539    .text.SPI_set_token:0000000000000062 .L0 
C:\Users\liukai\AppData\Local\Temp\cclRrI3t.s:540    .text.SPI_set_token:0000000000000064 .L0 
C:\Users\liukai\AppData\Local\Temp\cclRrI3t.s:542    .text.SPI_set_token:0000000000000066 .L0 
C:\Users\liukai\AppData\Local\Temp\cclRrI3t.s:544    .text.SPI_set_token:0000000000000068 .L0 
C:\Users\liukai\AppData\Local\Temp\cclRrI3t.s:551    .text.SPI_tx_fifo_reset:0000000000000000 SPI_tx_fifo_reset
C:\Users\liukai\AppData\Local\Temp\cclRrI3t.s:554    .text.SPI_tx_fifo_reset:0000000000000000 .L0 
C:\Users\liukai\AppData\Local\Temp\cclRrI3t.s:555    .text.SPI_tx_fifo_reset:0000000000000000 .L0 
C:\Users\liukai\AppData\Local\Temp\cclRrI3t.s:556    .text.SPI_tx_fifo_reset:0000000000000002 .L0 
C:\Users\liukai\AppData\Local\Temp\cclRrI3t.s:558    .text.SPI_tx_fifo_reset:0000000000000004 .L0 
C:\Users\liukai\AppData\Local\Temp\cclRrI3t.s:560    .text.SPI_tx_fifo_reset:0000000000000006 .L0 
C:\Users\liukai\AppData\Local\Temp\cclRrI3t.s:562    .text.SPI_tx_fifo_reset:0000000000000006 .L0 
C:\Users\liukai\AppData\Local\Temp\cclRrI3t.s:570    .text.SPI_tx_fifo_reset:0000000000000022 .L0 
C:\Users\liukai\AppData\Local\Temp\cclRrI3t.s:573    .text.SPI_tx_fifo_reset:0000000000000024 .L0 
C:\Users\liukai\AppData\Local\Temp\cclRrI3t.s:577    .text.SPI_tx_fifo_reset:0000000000000030 .L0 
C:\Users\liukai\AppData\Local\Temp\cclRrI3t.s:579    .text.SPI_tx_fifo_reset:0000000000000032 .L0 
C:\Users\liukai\AppData\Local\Temp\cclRrI3t.s:581    .text.SPI_tx_fifo_reset:0000000000000034 .L0 
C:\Users\liukai\AppData\Local\Temp\cclRrI3t.s:583    .text.SPI_tx_fifo_reset:0000000000000038 .L0 
C:\Users\liukai\AppData\Local\Temp\cclRrI3t.s:585    .text.SPI_tx_fifo_reset:000000000000003a .L0 
C:\Users\liukai\AppData\Local\Temp\cclRrI3t.s:587    .text.SPI_tx_fifo_reset:000000000000003c .L0 
C:\Users\liukai\AppData\Local\Temp\cclRrI3t.s:594    .text.SPI_rx_fifo_reset:0000000000000000 SPI_rx_fifo_reset
C:\Users\liukai\AppData\Local\Temp\cclRrI3t.s:597    .text.SPI_rx_fifo_reset:0000000000000000 .L0 
C:\Users\liukai\AppData\Local\Temp\cclRrI3t.s:598    .text.SPI_rx_fifo_reset:0000000000000000 .L0 
C:\Users\liukai\AppData\Local\Temp\cclRrI3t.s:599    .text.SPI_rx_fifo_reset:0000000000000002 .L0 
C:\Users\liukai\AppData\Local\Temp\cclRrI3t.s:601    .text.SPI_rx_fifo_reset:0000000000000004 .L0 
C:\Users\liukai\AppData\Local\Temp\cclRrI3t.s:603    .text.SPI_rx_fifo_reset:0000000000000006 .L0 
C:\Users\liukai\AppData\Local\Temp\cclRrI3t.s:605    .text.SPI_rx_fifo_reset:0000000000000006 .L0 
C:\Users\liukai\AppData\Local\Temp\cclRrI3t.s:613    .text.SPI_rx_fifo_reset:0000000000000022 .L0 
C:\Users\liukai\AppData\Local\Temp\cclRrI3t.s:616    .text.SPI_rx_fifo_reset:0000000000000024 .L0 
C:\Users\liukai\AppData\Local\Temp\cclRrI3t.s:620    .text.SPI_rx_fifo_reset:0000000000000030 .L0 
C:\Users\liukai\AppData\Local\Temp\cclRrI3t.s:622    .text.SPI_rx_fifo_reset:0000000000000032 .L0 
C:\Users\liukai\AppData\Local\Temp\cclRrI3t.s:624    .text.SPI_rx_fifo_reset:0000000000000034 .L0 
C:\Users\liukai\AppData\Local\Temp\cclRrI3t.s:626    .text.SPI_rx_fifo_reset:0000000000000038 .L0 
C:\Users\liukai\AppData\Local\Temp\cclRrI3t.s:628    .text.SPI_rx_fifo_reset:000000000000003a .L0 
C:\Users\liukai\AppData\Local\Temp\cclRrI3t.s:630    .text.SPI_rx_fifo_reset:000000000000003c .L0 
C:\Users\liukai\AppData\Local\Temp\cclRrI3t.s:637    .text.spi_get_fifo_depth:0000000000000000 spi_get_fifo_depth
C:\Users\liukai\AppData\Local\Temp\cclRrI3t.s:640    .text.spi_get_fifo_depth:0000000000000000 .L0 
C:\Users\liukai\AppData\Local\Temp\cclRrI3t.s:642    .text.spi_get_fifo_depth:0000000000000000 .L0 
C:\Users\liukai\AppData\Local\Temp\cclRrI3t.s:643    .text.spi_get_fifo_depth:0000000000000000 .L0 
C:\Users\liukai\AppData\Local\Temp\cclRrI3t.s:646    .text.spi_get_fifo_depth:0000000000000002 .L0 
C:\Users\liukai\AppData\Local\Temp\cclRrI3t.s:650    .text.spi_get_fifo_depth:0000000000000004 .L0 
C:\Users\liukai\AppData\Local\Temp\cclRrI3t.s:652    .text.spi_get_fifo_depth:0000000000000006 .L0 
C:\Users\liukai\AppData\Local\Temp\cclRrI3t.s:654    .text.spi_get_fifo_depth:0000000000000008 .L0 
C:\Users\liukai\AppData\Local\Temp\cclRrI3t.s:656    .text.spi_get_fifo_depth:000000000000000c .L0 
C:\Users\liukai\AppData\Local\Temp\cclRrI3t.s:659    .text.spi_get_fifo_depth:0000000000000010 .L0 
C:\Users\liukai\AppData\Local\Temp\cclRrI3t.s:661    .text.spi_get_fifo_depth:0000000000000014 .L0 
C:\Users\liukai\AppData\Local\Temp\cclRrI3t.s:672    .text.SPI_set_tx_threshold:0000000000000000 SPI_set_tx_threshold
C:\Users\liukai\AppData\Local\Temp\cclRrI3t.s:675    .text.SPI_set_tx_threshold:0000000000000000 .L0 
C:\Users\liukai\AppData\Local\Temp\cclRrI3t.s:676    .text.SPI_set_tx_threshold:0000000000000000 .L0 
C:\Users\liukai\AppData\Local\Temp\cclRrI3t.s:677    .text.SPI_set_tx_threshold:0000000000000002 .L0 
C:\Users\liukai\AppData\Local\Temp\cclRrI3t.s:680    .text.SPI_set_tx_threshold:0000000000000006 .L0 
C:\Users\liukai\AppData\Local\Temp\cclRrI3t.s:681    .text.SPI_set_tx_threshold:0000000000000006 .L0 
C:\Users\liukai\AppData\Local\Temp\cclRrI3t.s:683    .text.SPI_set_tx_threshold:0000000000000008 .L0 
C:\Users\liukai\AppData\Local\Temp\cclRrI3t.s:687    .text.SPI_set_tx_threshold:000000000000000e .L0 
C:\Users\liukai\AppData\Local\Temp\cclRrI3t.s:690    .text.SPI_set_tx_threshold:0000000000000018 .L0 
C:\Users\liukai\AppData\Local\Temp\cclRrI3t.s:693    .text.SPI_set_tx_threshold:000000000000001e .L0 
C:\Users\liukai\AppData\Local\Temp\cclRrI3t.s:697    .text.SPI_set_tx_threshold:0000000000000028 .L0 
C:\Users\liukai\AppData\Local\Temp\cclRrI3t.s:700    .text.SPI_set_tx_threshold:000000000000002e .L0 
C:\Users\liukai\AppData\Local\Temp\cclRrI3t.s:706    .text.SPI_set_tx_threshold:0000000000000042 .L0 
C:\Users\liukai\AppData\Local\Temp\cclRrI3t.s:710    .text.SPI_set_tx_threshold:000000000000004e .L0 
C:\Users\liukai\AppData\Local\Temp\cclRrI3t.s:713    .text.SPI_set_tx_threshold:000000000000005e .L0 
C:\Users\liukai\AppData\Local\Temp\cclRrI3t.s:716    .text.SPI_set_tx_threshold:0000000000000060 .L0 
C:\Users\liukai\AppData\Local\Temp\cclRrI3t.s:726    .text.SPI_set_tx_threshold:0000000000000080 .L0 
C:\Users\liukai\AppData\Local\Temp\cclRrI3t.s:730    .text.SPI_set_tx_threshold:000000000000008c .L0 
C:\Users\liukai\AppData\Local\Temp\cclRrI3t.s:734    .text.SPI_set_tx_threshold:0000000000000094 .L0 
C:\Users\liukai\AppData\Local\Temp\cclRrI3t.s:739    .text.SPI_set_tx_threshold:00000000000000a2 .L0 
C:\Users\liukai\AppData\Local\Temp\cclRrI3t.s:742    .text.SPI_set_tx_threshold:00000000000000a4 .L0 
C:\Users\liukai\AppData\Local\Temp\cclRrI3t.s:743    .text.SPI_set_tx_threshold:00000000000000a6 .L0 
C:\Users\liukai\AppData\Local\Temp\cclRrI3t.s:745    .text.SPI_set_tx_threshold:00000000000000a8 .L0 
C:\Users\liukai\AppData\Local\Temp\cclRrI3t.s:747    .text.SPI_set_tx_threshold:00000000000000aa .L0 
C:\Users\liukai\AppData\Local\Temp\cclRrI3t.s:749    .text.SPI_set_tx_threshold:00000000000000ac .L0 
C:\Users\liukai\AppData\Local\Temp\cclRrI3t.s:760    .text.SPI_set_rx_threshold:0000000000000000 SPI_set_rx_threshold
C:\Users\liukai\AppData\Local\Temp\cclRrI3t.s:763    .text.SPI_set_rx_threshold:0000000000000000 .L0 
C:\Users\liukai\AppData\Local\Temp\cclRrI3t.s:764    .text.SPI_set_rx_threshold:0000000000000000 .L0 
C:\Users\liukai\AppData\Local\Temp\cclRrI3t.s:765    .text.SPI_set_rx_threshold:0000000000000002 .L0 
C:\Users\liukai\AppData\Local\Temp\cclRrI3t.s:768    .text.SPI_set_rx_threshold:0000000000000006 .L0 
C:\Users\liukai\AppData\Local\Temp\cclRrI3t.s:769    .text.SPI_set_rx_threshold:0000000000000006 .L0 
C:\Users\liukai\AppData\Local\Temp\cclRrI3t.s:771    .text.SPI_set_rx_threshold:0000000000000008 .L0 
C:\Users\liukai\AppData\Local\Temp\cclRrI3t.s:775    .text.SPI_set_rx_threshold:000000000000000e .L0 
C:\Users\liukai\AppData\Local\Temp\cclRrI3t.s:778    .text.SPI_set_rx_threshold:0000000000000018 .L0 
C:\Users\liukai\AppData\Local\Temp\cclRrI3t.s:781    .text.SPI_set_rx_threshold:000000000000001e .L0 
C:\Users\liukai\AppData\Local\Temp\cclRrI3t.s:784    .text.SPI_set_rx_threshold:0000000000000026 .L0 
C:\Users\liukai\AppData\Local\Temp\cclRrI3t.s:787    .text.SPI_set_rx_threshold:000000000000002c .L0 
C:\Users\liukai\AppData\Local\Temp\cclRrI3t.s:793    .text.SPI_set_rx_threshold:0000000000000040 .L0 
C:\Users\liukai\AppData\Local\Temp\cclRrI3t.s:797    .text.SPI_set_rx_threshold:000000000000004c .L0 
C:\Users\liukai\AppData\Local\Temp\cclRrI3t.s:800    .text.SPI_set_rx_threshold:000000000000005c .L0 
C:\Users\liukai\AppData\Local\Temp\cclRrI3t.s:803    .text.SPI_set_rx_threshold:000000000000005e .L0 
C:\Users\liukai\AppData\Local\Temp\cclRrI3t.s:813    .text.SPI_set_rx_threshold:000000000000007e .L0 
C:\Users\liukai\AppData\Local\Temp\cclRrI3t.s:817    .text.SPI_set_rx_threshold:000000000000008a .L0 
C:\Users\liukai\AppData\Local\Temp\cclRrI3t.s:821    .text.SPI_set_rx_threshold:0000000000000092 .L0 
C:\Users\liukai\AppData\Local\Temp\cclRrI3t.s:826    .text.SPI_set_rx_threshold:00000000000000a0 .L0 
C:\Users\liukai\AppData\Local\Temp\cclRrI3t.s:829    .text.SPI_set_rx_threshold:00000000000000a2 .L0 
C:\Users\liukai\AppData\Local\Temp\cclRrI3t.s:830    .text.SPI_set_rx_threshold:00000000000000a4 .L0 
C:\Users\liukai\AppData\Local\Temp\cclRrI3t.s:832    .text.SPI_set_rx_threshold:00000000000000a6 .L0 
C:\Users\liukai\AppData\Local\Temp\cclRrI3t.s:834    .text.SPI_set_rx_threshold:00000000000000a8 .L0 
C:\Users\liukai\AppData\Local\Temp\cclRrI3t.s:836    .text.SPI_set_rx_threshold:00000000000000aa .L0 
C:\Users\liukai\AppData\Local\Temp\cclRrI3t.s:843    .text.spi_flash_init:0000000000000000 spi_flash_init
C:\Users\liukai\AppData\Local\Temp\cclRrI3t.s:846    .text.spi_flash_init:0000000000000000 .L0 
C:\Users\liukai\AppData\Local\Temp\cclRrI3t.s:847    .text.spi_flash_init:0000000000000000 .L0 
C:\Users\liukai\AppData\Local\Temp\cclRrI3t.s:848    .text.spi_flash_init:0000000000000002 .L0 
C:\Users\liukai\AppData\Local\Temp\cclRrI3t.s:850    .text.spi_flash_init:0000000000000002 .L0 
C:\Users\liukai\AppData\Local\Temp\cclRrI3t.s:852    .text.spi_flash_init:000000000000000a .L0 
C:\Users\liukai\AppData\Local\Temp\cclRrI3t.s:853    .text.spi_flash_init:000000000000000c .L0 
C:\Users\liukai\AppData\Local\Temp\cclRrI3t.s:855    .text.spi_flash_init:000000000000000c .L0 
C:\Users\liukai\AppData\Local\Temp\cclRrI3t.s:857    .text.spi_flash_init:000000000000000e .L0 
C:\Users\liukai\AppData\Local\Temp\cclRrI3t.s:860    .text.spi_flash_init:0000000000000012 .L0 
C:\Users\liukai\AppData\Local\Temp\cclRrI3t.s:862    .text.spi_flash_init:0000000000000014 .L0 
C:\Users\liukai\AppData\Local\Temp\cclRrI3t.s:863    .text.spi_flash_init:0000000000000016 .L0 
C:\Users\liukai\AppData\Local\Temp\cclRrI3t.s:864    .text.spi_flash_init:0000000000000016 .L0 
C:\Users\liukai\AppData\Local\Temp\cclRrI3t.s:865    .text.spi_flash_init:0000000000000016 .L0 
C:\Users\liukai\AppData\Local\Temp\cclRrI3t.s:867    .text.spi_flash_init:0000000000000016 .L0 
C:\Users\liukai\AppData\Local\Temp\cclRrI3t.s:871    .text.spi_flash_init:000000000000001c .L0 
C:\Users\liukai\AppData\Local\Temp\cclRrI3t.s:873    .text.spi_flash_init:000000000000001e .L0 
C:\Users\liukai\AppData\Local\Temp\cclRrI3t.s:875    .text.spi_flash_init:0000000000000020 .L0 
C:\Users\liukai\AppData\Local\Temp\cclRrI3t.s:877    .text.spi_flash_init:0000000000000022 .L0 
C:\Users\liukai\AppData\Local\Temp\cclRrI3t.s:879    .text.spi_flash_init:0000000000000026 .L0 
C:\Users\liukai\AppData\Local\Temp\cclRrI3t.s:881    .text.spi_flash_init:000000000000002a .L0 
C:\Users\liukai\AppData\Local\Temp\cclRrI3t.s:885    .text.spi_flash_init:0000000000000036 .L0 
C:\Users\liukai\AppData\Local\Temp\cclRrI3t.s:889    .text.spi_flash_init:0000000000000042 .L0 
C:\Users\liukai\AppData\Local\Temp\cclRrI3t.s:891    .text.spi_flash_init:0000000000000044 .L0 
C:\Users\liukai\AppData\Local\Temp\cclRrI3t.s:893    .text.spi_flash_init:0000000000000046 .L0 
C:\Users\liukai\AppData\Local\Temp\cclRrI3t.s:895    .text.spi_flash_init:0000000000000048 .L0 
C:\Users\liukai\AppData\Local\Temp\cclRrI3t.s:899    .text.spi_flash_init:0000000000000052 .L0 
C:\Users\liukai\AppData\Local\Temp\cclRrI3t.s:904    .text.spi_flash_init:000000000000005a .L0 
C:\Users\liukai\AppData\Local\Temp\cclRrI3t.s:906    .text.spi_flash_init:000000000000005c .L0 
C:\Users\liukai\AppData\Local\Temp\cclRrI3t.s:908    .text.spi_flash_init:000000000000005e .L0 
C:\Users\liukai\AppData\Local\Temp\cclRrI3t.s:910    .text.spi_flash_init:0000000000000060 .L0 
C:\Users\liukai\AppData\Local\Temp\cclRrI3t.s:912    .text.spi_flash_init:0000000000000062 .L0 
C:\Users\liukai\AppData\Local\Temp\cclRrI3t.s:915    .text.spi_flash_init:000000000000006a .L0 
C:\Users\liukai\AppData\Local\Temp\cclRrI3t.s:917    .text.spi_flash_init:000000000000006c .L0 
C:\Users\liukai\AppData\Local\Temp\cclRrI3t.s:920    .text.spi_flash_init:0000000000000074 .L0 
C:\Users\liukai\AppData\Local\Temp\cclRrI3t.s:925    .text.spi_flash_init:000000000000007c .L0 
C:\Users\liukai\AppData\Local\Temp\cclRrI3t.s:927    .text.spi_flash_init:000000000000007e .L0 
C:\Users\liukai\AppData\Local\Temp\cclRrI3t.s:929    .text.spi_flash_init:0000000000000080 .L0 
C:\Users\liukai\AppData\Local\Temp\cclRrI3t.s:931    .text.spi_flash_init:0000000000000082 .L0 
C:\Users\liukai\AppData\Local\Temp\cclRrI3t.s:933    .text.spi_flash_init:0000000000000084 .L0 
C:\Users\liukai\AppData\Local\Temp\cclRrI3t.s:936    .text.spi_flash_init:000000000000008c .L0 
C:\Users\liukai\AppData\Local\Temp\cclRrI3t.s:938    .text.spi_flash_init:000000000000008e .L0 
C:\Users\liukai\AppData\Local\Temp\cclRrI3t.s:941    .text.spi_flash_init:0000000000000092 .L0 
C:\Users\liukai\AppData\Local\Temp\cclRrI3t.s:944    .text.spi_flash_init:0000000000000098 .L0 
C:\Users\liukai\AppData\Local\Temp\cclRrI3t.s:946    .text.spi_flash_init:000000000000009a .L0 
C:\Users\liukai\AppData\Local\Temp\cclRrI3t.s:947    .text.spi_flash_init:000000000000009c .L0 
C:\Users\liukai\AppData\Local\Temp\cclRrI3t.s:949    .text.spi_flash_init:000000000000009e .L0 
C:\Users\liukai\AppData\Local\Temp\cclRrI3t.s:951    .text.spi_flash_init:000000000000009e .L0 
C:\Users\liukai\AppData\Local\Temp\cclRrI3t.s:954    .text.spi_flash_init:00000000000000a4 .L0 
C:\Users\liukai\AppData\Local\Temp\cclRrI3t.s:956    .text.spi_flash_init:00000000000000a6 .L0 
C:\Users\liukai\AppData\Local\Temp\cclRrI3t.s:957    .text.spi_flash_init:00000000000000a8 .L0 
C:\Users\liukai\AppData\Local\Temp\cclRrI3t.s:959    .text.spi_flash_init:00000000000000a8 .L0 
C:\Users\liukai\AppData\Local\Temp\cclRrI3t.s:962    .text.spi_flash_init:00000000000000ae .L0 
C:\Users\liukai\AppData\Local\Temp\cclRrI3t.s:963    .text.spi_flash_init:00000000000000b0 .L0 
C:\Users\liukai\AppData\Local\Temp\cclRrI3t.s:965    .text.spi_flash_init:00000000000000b2 .L0 
C:\Users\liukai\AppData\Local\Temp\cclRrI3t.s:967    .text.spi_flash_init:00000000000000b4 .L0 
C:\Users\liukai\AppData\Local\Temp\cclRrI3t.s:974    .text.spi_flash_read:0000000000000000 spi_flash_read
C:\Users\liukai\AppData\Local\Temp\cclRrI3t.s:977    .text.spi_flash_read:0000000000000000 .L0 
C:\Users\liukai\AppData\Local\Temp\cclRrI3t.s:978    .text.spi_flash_read:0000000000000000 .L0 
C:\Users\liukai\AppData\Local\Temp\cclRrI3t.s:979    .text.spi_flash_read:0000000000000000 .L0 
C:\Users\liukai\AppData\Local\Temp\cclRrI3t.s:982    .text.spi_flash_read:000000000000000a .L0 
C:\Users\liukai\AppData\Local\Temp\cclRrI3t.s:986    .text.spi_flash_read:0000000000000012 .L0 
C:\Users\liukai\AppData\Local\Temp\cclRrI3t.s:988    .text.spi_flash_read:0000000000000014 .L0 
C:\Users\liukai\AppData\Local\Temp\cclRrI3t.s:990    .text.spi_flash_read:0000000000000016 .L0 
C:\Users\liukai\AppData\Local\Temp\cclRrI3t.s:993    .text.spi_flash_read:0000000000000018 .L0 
C:\Users\liukai\AppData\Local\Temp\cclRrI3t.s:1000   .text.spi_flash_read:0000000000000026 .L0 
C:\Users\liukai\AppData\Local\Temp\cclRrI3t.s:1002   .text.spi_flash_read:0000000000000028 .L0 
C:\Users\liukai\AppData\Local\Temp\cclRrI3t.s:1004   .text.spi_flash_read:000000000000002a .L0 
C:\Users\liukai\AppData\Local\Temp\cclRrI3t.s:1007   .text.spi_flash_read:000000000000002e .L0 
C:\Users\liukai\AppData\Local\Temp\cclRrI3t.s:1009   .text.spi_flash_read:0000000000000030 .L0 
C:\Users\liukai\AppData\Local\Temp\cclRrI3t.s:1012   .text.spi_flash_read:0000000000000038 .L0 
C:\Users\liukai\AppData\Local\Temp\cclRrI3t.s:1016   .text.spi_flash_read:000000000000003c .L0 
C:\Users\liukai\AppData\Local\Temp\cclRrI3t.s:1018   .text.spi_flash_read:000000000000003e .L0 
C:\Users\liukai\AppData\Local\Temp\cclRrI3t.s:1020   .text.spi_flash_read:0000000000000040 .L0 
C:\Users\liukai\AppData\Local\Temp\cclRrI3t.s:1022   .text.spi_flash_read:0000000000000042 .L0 
C:\Users\liukai\AppData\Local\Temp\cclRrI3t.s:1023   .text.spi_flash_read:0000000000000044 .L0 
C:\Users\liukai\AppData\Local\Temp\cclRrI3t.s:1030   .text.spi_flash_write:0000000000000000 spi_flash_write
C:\Users\liukai\AppData\Local\Temp\cclRrI3t.s:1033   .text.spi_flash_write:0000000000000000 .L0 
C:\Users\liukai\AppData\Local\Temp\cclRrI3t.s:1034   .text.spi_flash_write:0000000000000000 .L0 
C:\Users\liukai\AppData\Local\Temp\cclRrI3t.s:1035   .text.spi_flash_write:0000000000000008 .L0 
C:\Users\liukai\AppData\Local\Temp\cclRrI3t.s:1036   .text.spi_flash_write:0000000000000008 .L0 
C:\Users\liukai\AppData\Local\Temp\cclRrI3t.s:1037   .text.spi_flash_write:0000000000000008 .L0 
C:\Users\liukai\AppData\Local\Temp\cclRrI3t.s:1039   .text.spi_flash_write:000000000000000a .L0 
C:\Users\liukai\AppData\Local\Temp\cclRrI3t.s:1041   .text.spi_flash_write:000000000000000a .L0 
C:\Users\liukai\AppData\Local\Temp\cclRrI3t.s:1043   .text.spi_flash_write:000000000000000c .L0 
C:\Users\liukai\AppData\Local\Temp\cclRrI3t.s:1045   .text.spi_flash_write:000000000000000e .L0 
C:\Users\liukai\AppData\Local\Temp\cclRrI3t.s:1157   .text.spi_flash_write_cmd:0000000000000000 spi_flash_write_cmd
C:\Users\liukai\AppData\Local\Temp\cclRrI3t.s:1049   .text.spi_flash_write:0000000000000014 .L0 
C:\Users\liukai\AppData\Local\Temp\cclRrI3t.s:1391   .text.spi_flash_read_status:0000000000000000 spi_flash_read_status
C:\Users\liukai\AppData\Local\Temp\cclRrI3t.s:1051   .text.spi_flash_write:000000000000001c .L0 
C:\Users\liukai\AppData\Local\Temp\cclRrI3t.s:1053   .text.spi_flash_write:0000000000000024 .L0 
C:\Users\liukai\AppData\Local\Temp\cclRrI3t.s:1056   .text.spi_flash_write:000000000000002e .L0 
C:\Users\liukai\AppData\Local\Temp\cclRrI3t.s:1058   .text.spi_flash_write:0000000000000032 .L0 
C:\Users\liukai\AppData\Local\Temp\cclRrI3t.s:1060   .text.spi_flash_write:0000000000000034 .L0 
C:\Users\liukai\AppData\Local\Temp\cclRrI3t.s:1062   .text.spi_flash_write:0000000000000038 .L0 
C:\Users\liukai\AppData\Local\Temp\cclRrI3t.s:1064   .text.spi_flash_write:000000000000003a .L0 
C:\Users\liukai\AppData\Local\Temp\cclRrI3t.s:1066   .text.spi_flash_write:000000000000003c .L0 
C:\Users\liukai\AppData\Local\Temp\cclRrI3t.s:1068   .text.spi_flash_write:000000000000003e .L0 
C:\Users\liukai\AppData\Local\Temp\cclRrI3t.s:1071   .text.spi_flash_write:0000000000000040 .L0 
C:\Users\liukai\AppData\Local\Temp\cclRrI3t.s:1074   .text.spi_flash_write:0000000000000042 .L0 
C:\Users\liukai\AppData\Local\Temp\cclRrI3t.s:1076   .text.spi_flash_write:0000000000000044 .L0 
C:\Users\liukai\AppData\Local\Temp\cclRrI3t.s:1079   .text.spi_flash_write:0000000000000046 .L0 
C:\Users\liukai\AppData\Local\Temp\cclRrI3t.s:1082   .text.spi_flash_write:0000000000000048 .L0 
C:\Users\liukai\AppData\Local\Temp\cclRrI3t.s:1087   .text.spi_flash_write:0000000000000050 .L0 
C:\Users\liukai\AppData\Local\Temp\cclRrI3t.s:1089   .text.spi_flash_write:0000000000000052 .L0 
C:\Users\liukai\AppData\Local\Temp\cclRrI3t.s:1091   .text.spi_flash_write:0000000000000054 .L0 
C:\Users\liukai\AppData\Local\Temp\cclRrI3t.s:1093   .text.spi_flash_write:0000000000000056 .L0 
C:\Users\liukai\AppData\Local\Temp\cclRrI3t.s:1096   .text.spi_flash_write:0000000000000060 .L0 
C:\Users\liukai\AppData\Local\Temp\cclRrI3t.s:1098   .text.spi_flash_write:0000000000000068 .L0 
C:\Users\liukai\AppData\Local\Temp\cclRrI3t.s:1099   .text.spi_flash_write:000000000000006a .L0 
C:\Users\liukai\AppData\Local\Temp\cclRrI3t.s:1100   .text.spi_flash_write:000000000000006a .L0 
C:\Users\liukai\AppData\Local\Temp\cclRrI3t.s:1102   .text.spi_flash_write:0000000000000072 .L0 
C:\Users\liukai\AppData\Local\Temp\cclRrI3t.s:1103   .text.spi_flash_write:0000000000000072 .L0 
C:\Users\liukai\AppData\Local\Temp\cclRrI3t.s:1104   .text.spi_flash_write:0000000000000072 .L0 
C:\Users\liukai\AppData\Local\Temp\cclRrI3t.s:1106   .text.spi_flash_write:0000000000000072 .L0 
C:\Users\liukai\AppData\Local\Temp\cclRrI3t.s:1109   .text.spi_flash_write:0000000000000072 .L0 
C:\Users\liukai\AppData\Local\Temp\cclRrI3t.s:1111   .text.spi_flash_write:0000000000000076 .L0 
C:\Users\liukai\AppData\Local\Temp\cclRrI3t.s:1113   .text.spi_flash_write:000000000000007a .L0 
C:\Users\liukai\AppData\Local\Temp\cclRrI3t.s:1116   .text.spi_flash_write:000000000000007c .L0 
C:\Users\liukai\AppData\Local\Temp\cclRrI3t.s:1118   .text.spi_flash_write:000000000000007e .L0 
C:\Users\liukai\AppData\Local\Temp\cclRrI3t.s:1123   .text.spi_flash_write:000000000000008a .L0 
C:\Users\liukai\AppData\Local\Temp\cclRrI3t.s:1130   .text.change_mode_spi_flash:0000000000000000 change_mode_spi_flash
C:\Users\liukai\AppData\Local\Temp\cclRrI3t.s:1133   .text.change_mode_spi_flash:0000000000000000 .L0 
C:\Users\liukai\AppData\Local\Temp\cclRrI3t.s:1134   .text.change_mode_spi_flash:0000000000000000 .L0 
C:\Users\liukai\AppData\Local\Temp\cclRrI3t.s:1135   .text.change_mode_spi_flash:0000000000000000 .L0 
C:\Users\liukai\AppData\Local\Temp\cclRrI3t.s:1138   .text.change_mode_spi_flash:000000000000000a .L0 
C:\Users\liukai\AppData\Local\Temp\cclRrI3t.s:1140   .text.change_mode_spi_flash:000000000000000c .L0 
C:\Users\liukai\AppData\Local\Temp\cclRrI3t.s:1143   .text.change_mode_spi_flash:000000000000000e .L0 
C:\Users\liukai\AppData\Local\Temp\cclRrI3t.s:1145   .text.change_mode_spi_flash:0000000000000010 .L0 
C:\Users\liukai\AppData\Local\Temp\cclRrI3t.s:1147   .text.change_mode_spi_flash:0000000000000014 .L0 
C:\Users\liukai\AppData\Local\Temp\cclRrI3t.s:1149   .text.change_mode_spi_flash:0000000000000016 .L0 
C:\Users\liukai\AppData\Local\Temp\cclRrI3t.s:1150   .text.change_mode_spi_flash:0000000000000018 .L0 
C:\Users\liukai\AppData\Local\Temp\cclRrI3t.s:1160   .text.spi_flash_write_cmd:0000000000000000 .L0 
C:\Users\liukai\AppData\Local\Temp\cclRrI3t.s:1161   .text.spi_flash_write_cmd:0000000000000000 .L0 
C:\Users\liukai\AppData\Local\Temp\cclRrI3t.s:1162   .text.spi_flash_write_cmd:0000000000000008 .L0 
C:\Users\liukai\AppData\Local\Temp\cclRrI3t.s:1163   .text.spi_flash_write_cmd:0000000000000008 .L0 
C:\Users\liukai\AppData\Local\Temp\cclRrI3t.s:1164   .text.spi_flash_write_cmd:0000000000000008 .L0 
C:\Users\liukai\AppData\Local\Temp\cclRrI3t.s:1165   .text.spi_flash_write_cmd:0000000000000008 .L0 
C:\Users\liukai\AppData\Local\Temp\cclRrI3t.s:1167   .text.spi_flash_write_cmd:0000000000000008 .L0 
C:\Users\liukai\AppData\Local\Temp\cclRrI3t.s:1170   .text.spi_flash_write_cmd:0000000000000014 .L0 
C:\Users\liukai\AppData\Local\Temp\cclRrI3t.s:1172   .text.spi_flash_write_cmd:0000000000000018 .L0 
C:\Users\liukai\AppData\Local\Temp\cclRrI3t.s:1174   .text.spi_flash_write_cmd:000000000000001a .L0 
C:\Users\liukai\AppData\Local\Temp\cclRrI3t.s:1176   .text.spi_flash_write_cmd:000000000000001c .L0 
C:\Users\liukai\AppData\Local\Temp\cclRrI3t.s:1179   .text.spi_flash_write_cmd:0000000000000020 .L0 
C:\Users\liukai\AppData\Local\Temp\cclRrI3t.s:1183   .text.spi_flash_write_cmd:0000000000000028 .L0 
C:\Users\liukai\AppData\Local\Temp\cclRrI3t.s:1186   .text.spi_flash_write_cmd:000000000000002a .L0 
C:\Users\liukai\AppData\Local\Temp\cclRrI3t.s:1188   .text.spi_flash_write_cmd:000000000000002c .L0 
C:\Users\liukai\AppData\Local\Temp\cclRrI3t.s:1192   .text.spi_flash_write_cmd:0000000000000034 .L0 
C:\Users\liukai\AppData\Local\Temp\cclRrI3t.s:1194   .text.spi_flash_write_cmd:0000000000000036 .L0 
C:\Users\liukai\AppData\Local\Temp\cclRrI3t.s:1196   .text.spi_flash_write_cmd:0000000000000038 .L0 
C:\Users\liukai\AppData\Local\Temp\cclRrI3t.s:1198   .text.spi_flash_write_cmd:000000000000003a .L0 
C:\Users\liukai\AppData\Local\Temp\cclRrI3t.s:1199   .text.spi_flash_write_cmd:0000000000000042 .L0 
C:\Users\liukai\AppData\Local\Temp\cclRrI3t.s:1200   .text.spi_flash_write_cmd:0000000000000042 .L0 
C:\Users\liukai\AppData\Local\Temp\cclRrI3t.s:1201   .text.spi_flash_write_cmd:0000000000000042 .L0 
C:\Users\liukai\AppData\Local\Temp\cclRrI3t.s:1202   .text.spi_flash_write_cmd:0000000000000042 .L0 
C:\Users\liukai\AppData\Local\Temp\cclRrI3t.s:1203   .text.spi_flash_write_cmd:0000000000000042 .L0 
C:\Users\liukai\AppData\Local\Temp\cclRrI3t.s:1205   .text.spi_flash_write_cmd:0000000000000042 .L0 
C:\Users\liukai\AppData\Local\Temp\cclRrI3t.s:1207   .text.spi_flash_write_cmd:0000000000000042 .L0 
C:\Users\liukai\AppData\Local\Temp\cclRrI3t.s:1210   .text.spi_flash_write_cmd:000000000000004c .L0 
C:\Users\liukai\AppData\Local\Temp\cclRrI3t.s:1213   .text.spi_flash_write_cmd:000000000000005a .L0 
C:\Users\liukai\AppData\Local\Temp\cclRrI3t.s:1220   .text.spi_flash_page_program:0000000000000000 spi_flash_page_program
C:\Users\liukai\AppData\Local\Temp\cclRrI3t.s:1223   .text.spi_flash_page_program:0000000000000000 .L0 
C:\Users\liukai\AppData\Local\Temp\cclRrI3t.s:1224   .text.spi_flash_page_program:0000000000000000 .L0 
C:\Users\liukai\AppData\Local\Temp\cclRrI3t.s:1225   .text.spi_flash_page_program:0000000000000008 .L0 
C:\Users\liukai\AppData\Local\Temp\cclRrI3t.s:1226   .text.spi_flash_page_program:0000000000000008 .L0 
C:\Users\liukai\AppData\Local\Temp\cclRrI3t.s:1227   .text.spi_flash_page_program:0000000000000008 .L0 
C:\Users\liukai\AppData\Local\Temp\cclRrI3t.s:1229   .text.spi_flash_page_program:000000000000000a .L0 
C:\Users\liukai\AppData\Local\Temp\cclRrI3t.s:1231   .text.spi_flash_page_program:000000000000000a .L0 
C:\Users\liukai\AppData\Local\Temp\cclRrI3t.s:1233   .text.spi_flash_page_program:000000000000000c .L0 
C:\Users\liukai\AppData\Local\Temp\cclRrI3t.s:1235   .text.spi_flash_page_program:000000000000000e .L0 
C:\Users\liukai\AppData\Local\Temp\cclRrI3t.s:1238   .text.spi_flash_page_program:0000000000000012 .L0 
C:\Users\liukai\AppData\Local\Temp\cclRrI3t.s:1240   .text.spi_flash_page_program:000000000000001a .L0 
C:\Users\liukai\AppData\Local\Temp\cclRrI3t.s:1242   .text.spi_flash_page_program:0000000000000022 .L0 
C:\Users\liukai\AppData\Local\Temp\cclRrI3t.s:1245   .text.spi_flash_page_program:000000000000002c .L0 
C:\Users\liukai\AppData\Local\Temp\cclRrI3t.s:1247   .text.spi_flash_page_program:0000000000000030 .L0 
C:\Users\liukai\AppData\Local\Temp\cclRrI3t.s:1249   .text.spi_flash_page_program:0000000000000034 .L0 
C:\Users\liukai\AppData\Local\Temp\cclRrI3t.s:1251   .text.spi_flash_page_program:0000000000000038 .L0 
C:\Users\liukai\AppData\Local\Temp\cclRrI3t.s:1253   .text.spi_flash_page_program:000000000000003a .L0 
C:\Users\liukai\AppData\Local\Temp\cclRrI3t.s:1255   .text.spi_flash_page_program:000000000000003c .L0 
C:\Users\liukai\AppData\Local\Temp\cclRrI3t.s:1257   .text.spi_flash_page_program:000000000000003e .L0 
C:\Users\liukai\AppData\Local\Temp\cclRrI3t.s:1259   .text.spi_flash_page_program:0000000000000040 .L0 
C:\Users\liukai\AppData\Local\Temp\cclRrI3t.s:1263   .text.spi_flash_page_program:0000000000000044 .L0 
C:\Users\liukai\AppData\Local\Temp\cclRrI3t.s:1270   .text.spi_flash_page_program:0000000000000050 .L0 
C:\Users\liukai\AppData\Local\Temp\cclRrI3t.s:1272   .text.spi_flash_page_program:0000000000000054 .L0 
C:\Users\liukai\AppData\Local\Temp\cclRrI3t.s:1274   .text.spi_flash_page_program:0000000000000056 .L0 
C:\Users\liukai\AppData\Local\Temp\cclRrI3t.s:1277   .text.spi_flash_page_program:0000000000000058 .L0 
C:\Users\liukai\AppData\Local\Temp\cclRrI3t.s:1279   .text.spi_flash_page_program:000000000000005a .L0 
C:\Users\liukai\AppData\Local\Temp\cclRrI3t.s:1282   .text.spi_flash_page_program:0000000000000062 .L0 
C:\Users\liukai\AppData\Local\Temp\cclRrI3t.s:1286   .text.spi_flash_page_program:0000000000000066 .L0 
C:\Users\liukai\AppData\Local\Temp\cclRrI3t.s:1288   .text.spi_flash_page_program:0000000000000068 .L0 
C:\Users\liukai\AppData\Local\Temp\cclRrI3t.s:1290   .text.spi_flash_page_program:000000000000006a .L0 
C:\Users\liukai\AppData\Local\Temp\cclRrI3t.s:1292   .text.spi_flash_page_program:000000000000006c .L0 
C:\Users\liukai\AppData\Local\Temp\cclRrI3t.s:1295   .text.spi_flash_page_program:0000000000000076 .L0 
C:\Users\liukai\AppData\Local\Temp\cclRrI3t.s:1297   .text.spi_flash_page_program:000000000000007e .L0 
C:\Users\liukai\AppData\Local\Temp\cclRrI3t.s:1298   .text.spi_flash_page_program:0000000000000080 .L0 
C:\Users\liukai\AppData\Local\Temp\cclRrI3t.s:1300   .text.spi_flash_page_program:0000000000000088 .L0 
C:\Users\liukai\AppData\Local\Temp\cclRrI3t.s:1301   .text.spi_flash_page_program:0000000000000088 .L0 
C:\Users\liukai\AppData\Local\Temp\cclRrI3t.s:1302   .text.spi_flash_page_program:0000000000000088 .L0 
C:\Users\liukai\AppData\Local\Temp\cclRrI3t.s:1303   .text.spi_flash_page_program:0000000000000088 .L0 
C:\Users\liukai\AppData\Local\Temp\cclRrI3t.s:1310   .text.spi_flash_sector_erase:0000000000000000 spi_flash_sector_erase
C:\Users\liukai\AppData\Local\Temp\cclRrI3t.s:1313   .text.spi_flash_sector_erase:0000000000000000 .L0 
C:\Users\liukai\AppData\Local\Temp\cclRrI3t.s:1314   .text.spi_flash_sector_erase:0000000000000000 .L0 
C:\Users\liukai\AppData\Local\Temp\cclRrI3t.s:1315   .text.spi_flash_sector_erase:0000000000000008 .L0 
C:\Users\liukai\AppData\Local\Temp\cclRrI3t.s:1316   .text.spi_flash_sector_erase:0000000000000008 .L0 
C:\Users\liukai\AppData\Local\Temp\cclRrI3t.s:1317   .text.spi_flash_sector_erase:0000000000000008 .L0 
C:\Users\liukai\AppData\Local\Temp\cclRrI3t.s:1319   .text.spi_flash_sector_erase:0000000000000008 .L0 
C:\Users\liukai\AppData\Local\Temp\cclRrI3t.s:1321   .text.spi_flash_sector_erase:000000000000000a .L0 
C:\Users\liukai\AppData\Local\Temp\cclRrI3t.s:1324   .text.spi_flash_sector_erase:0000000000000014 .L0 
C:\Users\liukai\AppData\Local\Temp\cclRrI3t.s:1326   .text.spi_flash_sector_erase:000000000000001c .L0 
C:\Users\liukai\AppData\Local\Temp\cclRrI3t.s:1329   .text.spi_flash_sector_erase:0000000000000026 .L0 
C:\Users\liukai\AppData\Local\Temp\cclRrI3t.s:1331   .text.spi_flash_sector_erase:000000000000002a .L0 
C:\Users\liukai\AppData\Local\Temp\cclRrI3t.s:1333   .text.spi_flash_sector_erase:000000000000002e .L0 
C:\Users\liukai\AppData\Local\Temp\cclRrI3t.s:1335   .text.spi_flash_sector_erase:0000000000000030 .L0 
C:\Users\liukai\AppData\Local\Temp\cclRrI3t.s:1337   .text.spi_flash_sector_erase:0000000000000034 .L0 
C:\Users\liukai\AppData\Local\Temp\cclRrI3t.s:1340   .text.spi_flash_sector_erase:000000000000003a .L0 
C:\Users\liukai\AppData\Local\Temp\cclRrI3t.s:1342   .text.spi_flash_sector_erase:000000000000003e .L0 
C:\Users\liukai\AppData\Local\Temp\cclRrI3t.s:1345   .text.spi_flash_sector_erase:0000000000000040 .L0 
C:\Users\liukai\AppData\Local\Temp\cclRrI3t.s:1347   .text.spi_flash_sector_erase:0000000000000042 .L0 
C:\Users\liukai\AppData\Local\Temp\cclRrI3t.s:1351   .text.spi_flash_sector_erase:000000000000004e .L0 
C:\Users\liukai\AppData\Local\Temp\cclRrI3t.s:1354   .text.spi_flash_sector_erase:0000000000000050 .L0 
C:\Users\liukai\AppData\Local\Temp\cclRrI3t.s:1356   .text.spi_flash_sector_erase:0000000000000052 .L0 
C:\Users\liukai\AppData\Local\Temp\cclRrI3t.s:1360   .text.spi_flash_sector_erase:000000000000005e .L0 
C:\Users\liukai\AppData\Local\Temp\cclRrI3t.s:1363   .text.spi_flash_sector_erase:0000000000000060 .L0 
C:\Users\liukai\AppData\Local\Temp\cclRrI3t.s:1365   .text.spi_flash_sector_erase:0000000000000062 .L0 
C:\Users\liukai\AppData\Local\Temp\cclRrI3t.s:1369   .text.spi_flash_sector_erase:000000000000006a .L0 
C:\Users\liukai\AppData\Local\Temp\cclRrI3t.s:1371   .text.spi_flash_sector_erase:000000000000006c .L0 
C:\Users\liukai\AppData\Local\Temp\cclRrI3t.s:1373   .text.spi_flash_sector_erase:000000000000006e .L0 
C:\Users\liukai\AppData\Local\Temp\cclRrI3t.s:1375   .text.spi_flash_sector_erase:0000000000000070 .L0 
C:\Users\liukai\AppData\Local\Temp\cclRrI3t.s:1378   .text.spi_flash_sector_erase:000000000000007a .L0 
C:\Users\liukai\AppData\Local\Temp\cclRrI3t.s:1380   .text.spi_flash_sector_erase:0000000000000082 .L0 
C:\Users\liukai\AppData\Local\Temp\cclRrI3t.s:1381   .text.spi_flash_sector_erase:000000000000008a .L0 
C:\Users\liukai\AppData\Local\Temp\cclRrI3t.s:1382   .text.spi_flash_sector_erase:000000000000008a .L0 
C:\Users\liukai\AppData\Local\Temp\cclRrI3t.s:1383   .text.spi_flash_sector_erase:000000000000008a .L0 
C:\Users\liukai\AppData\Local\Temp\cclRrI3t.s:1384   .text.spi_flash_sector_erase:000000000000008a .L0 
C:\Users\liukai\AppData\Local\Temp\cclRrI3t.s:1394   .text.spi_flash_read_status:0000000000000000 .L0 
C:\Users\liukai\AppData\Local\Temp\cclRrI3t.s:1395   .text.spi_flash_read_status:0000000000000000 .L0 
C:\Users\liukai\AppData\Local\Temp\cclRrI3t.s:1396   .text.spi_flash_read_status:0000000000000000 .L0 
C:\Users\liukai\AppData\Local\Temp\cclRrI3t.s:1399   .text.spi_flash_read_status:000000000000000a .L0 
C:\Users\liukai\AppData\Local\Temp\cclRrI3t.s:1401   .text.spi_flash_read_status:000000000000000e .L0 
C:\Users\liukai\AppData\Local\Temp\cclRrI3t.s:1403   .text.spi_flash_read_status:0000000000000010 .L0 
C:\Users\liukai\AppData\Local\Temp\cclRrI3t.s:1406   .text.spi_flash_read_status:0000000000000012 .L0 
C:\Users\liukai\AppData\Local\Temp\cclRrI3t.s:1408   .text.spi_flash_read_status:0000000000000014 .L0 
C:\Users\liukai\AppData\Local\Temp\cclRrI3t.s:1410   .text.spi_flash_read_status:0000000000000016 .L0 
C:\Users\liukai\AppData\Local\Temp\cclRrI3t.s:1412   .text.spi_flash_read_status:0000000000000018 .L0 
C:\Users\liukai\AppData\Local\Temp\cclRrI3t.s:1415   .text.spi_flash_read_status:000000000000001a .L0 
C:\Users\liukai\AppData\Local\Temp\cclRrI3t.s:1417   .text.spi_flash_read_status:000000000000001c .L0 
C:\Users\liukai\AppData\Local\Temp\cclRrI3t.s:1419   .text.spi_flash_read_status:000000000000001e .L0 
C:\Users\liukai\AppData\Local\Temp\cclRrI3t.s:1421   .text.spi_flash_read_status:0000000000000020 .L0 
C:\Users\liukai\AppData\Local\Temp\cclRrI3t.s:1422   .text.spi_flash_read_status:0000000000000022 .L0 
C:\Users\liukai\AppData\Local\Temp\cclRrI3t.s:42     .text.SelectSpi:0000000000000020 .L0 
C:\Users\liukai\AppData\Local\Temp\cclRrI3t.s:86     .text.SPI_reset:000000000000003c .L0 
C:\Users\liukai\AppData\Local\Temp\cclRrI3t.s:129    .text.SPI_set_mode:000000000000003c .L0 
C:\Users\liukai\AppData\Local\Temp\cclRrI3t.s:207    .text.SPI_set_addr_format:000000000000008c .L0 
C:\Users\liukai\AppData\Local\Temp\cclRrI3t.s:261    .text.SPI_set_cmd_format:000000000000004e .L0 
C:\Users\liukai\AppData\Local\Temp\cclRrI3t.s:344    .text.SPI_set_data_format:0000000000000096 .L0 
C:\Users\liukai\AppData\Local\Temp\cclRrI3t.s:406    .text.SPI_set_transfer_format:0000000000000068 .L0 
C:\Users\liukai\AppData\Local\Temp\cclRrI3t.s:483    .text.SPI_set_trans_ctrl:00000000000000a6 .L0 
C:\Users\liukai\AppData\Local\Temp\cclRrI3t.s:547    .text.SPI_set_token:0000000000000068 .L0 
C:\Users\liukai\AppData\Local\Temp\cclRrI3t.s:590    .text.SPI_tx_fifo_reset:000000000000003c .L0 
C:\Users\liukai\AppData\Local\Temp\cclRrI3t.s:633    .text.SPI_rx_fifo_reset:000000000000003c .L0 
C:\Users\liukai\AppData\Local\Temp\cclRrI3t.s:664    .text.spi_get_fifo_depth:0000000000000014 .L0 
C:\Users\liukai\AppData\Local\Temp\cclRrI3t.s:752    .text.SPI_set_tx_threshold:00000000000000ac .L0 
C:\Users\liukai\AppData\Local\Temp\cclRrI3t.s:839    .text.SPI_set_rx_threshold:00000000000000aa .L0 
C:\Users\liukai\AppData\Local\Temp\cclRrI3t.s:970    .text.spi_flash_init:00000000000000b4 .L0 
C:\Users\liukai\AppData\Local\Temp\cclRrI3t.s:1026   .text.spi_flash_read:0000000000000044 .L0 
C:\Users\liukai\AppData\Local\Temp\cclRrI3t.s:1126   .text.spi_flash_write:000000000000008a .L0 
C:\Users\liukai\AppData\Local\Temp\cclRrI3t.s:1153   .text.change_mode_spi_flash:0000000000000018 .L0 
C:\Users\liukai\AppData\Local\Temp\cclRrI3t.s:1216   .text.spi_flash_write_cmd:000000000000005a .L0 
C:\Users\liukai\AppData\Local\Temp\cclRrI3t.s:1306   .text.spi_flash_page_program:0000000000000088 .L0 
C:\Users\liukai\AppData\Local\Temp\cclRrI3t.s:1387   .text.spi_flash_sector_erase:000000000000008a .L0 
C:\Users\liukai\AppData\Local\Temp\cclRrI3t.s:1425   .text.spi_flash_read_status:0000000000000022 .L0 
                     .debug_frame:0000000000000000 .L0 
C:\Users\liukai\AppData\Local\Temp\cclRrI3t.s:29     .text.SelectSpi:000000000000000a .L0 
C:\Users\liukai\AppData\Local\Temp\cclRrI3t.s:57     .text.SPI_reset:0000000000000006 .L0 
C:\Users\liukai\AppData\Local\Temp\cclRrI3t.s:60     .text.SPI_reset:0000000000000012 .L0 
C:\Users\liukai\AppData\Local\Temp\cclRrI3t.s:68     .text.SPI_reset:0000000000000024 .L0 
C:\Users\liukai\AppData\Local\Temp\cclRrI3t.s:66     .text.SPI_reset:0000000000000024 .L3
C:\Users\liukai\AppData\Local\Temp\cclRrI3t.s:102    .text.SPI_set_mode:000000000000000a .L0 
C:\Users\liukai\AppData\Local\Temp\cclRrI3t.s:111    .text.SPI_set_mode:0000000000000022 .L0 
C:\Users\liukai\AppData\Local\Temp\cclRrI3t.s:151    .text.SPI_set_addr_format:000000000000001a .L0 
C:\Users\liukai\AppData\Local\Temp\cclRrI3t.s:165    .text.SPI_set_addr_format:000000000000003e .L0 
C:\Users\liukai\AppData\Local\Temp\cclRrI3t.s:173    .text.SPI_set_addr_format:0000000000000050 .L0 
C:\Users\liukai\AppData\Local\Temp\cclRrI3t.s:184    .text.SPI_set_addr_format:000000000000006e .L0 
C:\Users\liukai\AppData\Local\Temp\cclRrI3t.s:194    .text.SPI_set_addr_format:0000000000000084 .L10
C:\Users\liukai\AppData\Local\Temp\cclRrI3t.s:197    .text.SPI_set_addr_format:0000000000000086 .L7
C:\Users\liukai\AppData\Local\Temp\cclRrI3t.s:227    .text.SPI_set_cmd_format:0000000000000012 .L0 
C:\Users\liukai\AppData\Local\Temp\cclRrI3t.s:238    .text.SPI_set_cmd_format:0000000000000030 .L0 
C:\Users\liukai\AppData\Local\Temp\cclRrI3t.s:248    .text.SPI_set_cmd_format:0000000000000046 .L14
C:\Users\liukai\AppData\Local\Temp\cclRrI3t.s:251    .text.SPI_set_cmd_format:0000000000000048 .L11
C:\Users\liukai\AppData\Local\Temp\cclRrI3t.s:281    .text.SPI_set_data_format:0000000000000014 .L0 
C:\Users\liukai\AppData\Local\Temp\cclRrI3t.s:301    .text.SPI_set_data_format:0000000000000044 .L0 
C:\Users\liukai\AppData\Local\Temp\cclRrI3t.s:312    .text.SPI_set_data_format:000000000000005c .L0 
C:\Users\liukai\AppData\Local\Temp\cclRrI3t.s:325    .text.SPI_set_data_format:000000000000007e .L0 
C:\Users\liukai\AppData\Local\Temp\cclRrI3t.s:333    .text.SPI_set_data_format:000000000000008e .L18
C:\Users\liukai\AppData\Local\Temp\cclRrI3t.s:363    .text.SPI_set_transfer_format:0000000000000016 .L0 
C:\Users\liukai\AppData\Local\Temp\cclRrI3t.s:388    .text.SPI_set_transfer_format:000000000000004e .L0 
C:\Users\liukai\AppData\Local\Temp\cclRrI3t.s:424    .text.SPI_set_trans_ctrl:0000000000000012 .L0 
C:\Users\liukai\AppData\Local\Temp\cclRrI3t.s:430    .text.SPI_set_trans_ctrl:0000000000000022 .L0 
C:\Users\liukai\AppData\Local\Temp\cclRrI3t.s:440    .text.SPI_set_trans_ctrl:000000000000003c .L0 
C:\Users\liukai\AppData\Local\Temp\cclRrI3t.s:443    .text.SPI_set_trans_ctrl:0000000000000048 .L0 
C:\Users\liukai\AppData\Local\Temp\cclRrI3t.s:449    .text.SPI_set_trans_ctrl:000000000000005a .L0 
C:\Users\liukai\AppData\Local\Temp\cclRrI3t.s:452    .text.SPI_set_trans_ctrl:0000000000000066 .L0 
C:\Users\liukai\AppData\Local\Temp\cclRrI3t.s:458    .text.SPI_set_trans_ctrl:0000000000000078 .L0 
C:\Users\liukai\AppData\Local\Temp\cclRrI3t.s:468    .text.SPI_set_trans_ctrl:0000000000000090 .L0 
C:\Users\liukai\AppData\Local\Temp\cclRrI3t.s:503    .text.SPI_set_token:0000000000000014 .L0 
C:\Users\liukai\AppData\Local\Temp\cclRrI3t.s:526    .text.SPI_set_token:000000000000004c .L0 
C:\Users\liukai\AppData\Local\Temp\cclRrI3t.s:534    .text.SPI_set_token:0000000000000060 .L26
C:\Users\liukai\AppData\Local\Temp\cclRrI3t.s:537    .text.SPI_set_token:0000000000000062 .L23
C:\Users\liukai\AppData\Local\Temp\cclRrI3t.s:562    .text.SPI_tx_fifo_reset:0000000000000006 .L0 
C:\Users\liukai\AppData\Local\Temp\cclRrI3t.s:565    .text.SPI_tx_fifo_reset:0000000000000012 .L0 
C:\Users\liukai\AppData\Local\Temp\cclRrI3t.s:573    .text.SPI_tx_fifo_reset:0000000000000024 .L0 
C:\Users\liukai\AppData\Local\Temp\cclRrI3t.s:571    .text.SPI_tx_fifo_reset:0000000000000024 .L28
C:\Users\liukai\AppData\Local\Temp\cclRrI3t.s:605    .text.SPI_rx_fifo_reset:0000000000000006 .L0 
C:\Users\liukai\AppData\Local\Temp\cclRrI3t.s:608    .text.SPI_rx_fifo_reset:0000000000000012 .L0 
C:\Users\liukai\AppData\Local\Temp\cclRrI3t.s:616    .text.SPI_rx_fifo_reset:0000000000000024 .L0 
C:\Users\liukai\AppData\Local\Temp\cclRrI3t.s:614    .text.SPI_rx_fifo_reset:0000000000000024 .L30
C:\Users\liukai\AppData\Local\Temp\cclRrI3t.s:647    .text.spi_get_fifo_depth:0000000000000004 .L32
C:\Users\liukai\AppData\Local\Temp\cclRrI3t.s:687    .text.SPI_set_tx_threshold:000000000000000e .L0 
C:\Users\liukai\AppData\Local\Temp\cclRrI3t.s:666    .rodata.SPI_set_tx_threshold.str1.4:0000000000000000 .LC0
C:\Users\liukai\AppData\Local\Temp\cclRrI3t.s:710    .text.SPI_set_tx_threshold:000000000000004e .L0 
C:\Users\liukai\AppData\Local\Temp\cclRrI3t.s:716    .text.SPI_set_tx_threshold:0000000000000060 .L0 
C:\Users\liukai\AppData\Local\Temp\cclRrI3t.s:719    .text.SPI_set_tx_threshold:000000000000006c .L0 
C:\Users\liukai\AppData\Local\Temp\cclRrI3t.s:726    .text.SPI_set_tx_threshold:0000000000000080 .L0 
C:\Users\liukai\AppData\Local\Temp\cclRrI3t.s:734    .text.SPI_set_tx_threshold:0000000000000094 .L0 
C:\Users\liukai\AppData\Local\Temp\cclRrI3t.s:714    .text.SPI_set_tx_threshold:0000000000000060 .L35
C:\Users\liukai\AppData\Local\Temp\cclRrI3t.s:740    .text.SPI_set_tx_threshold:00000000000000a4 .L34
C:\Users\liukai\AppData\Local\Temp\cclRrI3t.s:775    .text.SPI_set_rx_threshold:000000000000000e .L0 
C:\Users\liukai\AppData\Local\Temp\cclRrI3t.s:754    .rodata.SPI_set_rx_threshold.str1.4:0000000000000000 .LC1
C:\Users\liukai\AppData\Local\Temp\cclRrI3t.s:797    .text.SPI_set_rx_threshold:000000000000004c .L0 
C:\Users\liukai\AppData\Local\Temp\cclRrI3t.s:803    .text.SPI_set_rx_threshold:000000000000005e .L0 
C:\Users\liukai\AppData\Local\Temp\cclRrI3t.s:806    .text.SPI_set_rx_threshold:000000000000006a .L0 
C:\Users\liukai\AppData\Local\Temp\cclRrI3t.s:813    .text.SPI_set_rx_threshold:000000000000007e .L0 
C:\Users\liukai\AppData\Local\Temp\cclRrI3t.s:821    .text.SPI_set_rx_threshold:0000000000000092 .L0 
C:\Users\liukai\AppData\Local\Temp\cclRrI3t.s:801    .text.SPI_set_rx_threshold:000000000000005e .L39
C:\Users\liukai\AppData\Local\Temp\cclRrI3t.s:827    .text.SPI_set_rx_threshold:00000000000000a2 .L38
C:\Users\liukai\AppData\Local\Temp\cclRrI3t.s:850    .text.spi_flash_init:0000000000000002 .L0 
C:\Users\liukai\AppData\Local\Temp\cclRrI3t.s:869    .text.spi_flash_init:000000000000001c .L43
C:\Users\liukai\AppData\Local\Temp\cclRrI3t.s:887    .text.spi_flash_init:0000000000000042 .L44
C:\Users\liukai\AppData\Local\Temp\cclRrI3t.s:902    .text.spi_flash_init:000000000000005a .L45
C:\Users\liukai\AppData\Local\Temp\cclRrI3t.s:923    .text.spi_flash_init:000000000000007c .L46
C:\Users\liukai\AppData\Local\Temp\cclRrI3t.s:979    .text.spi_flash_read:0000000000000000 .L0 
C:\Users\liukai\AppData\Local\Temp\cclRrI3t.s:1013   .text.spi_flash_read:000000000000003c .L56
C:\Users\liukai\AppData\Local\Temp\cclRrI3t.s:1005   .text.spi_flash_read:000000000000002e .L54
C:\Users\liukai\AppData\Local\Temp\cclRrI3t.s:998    .text.spi_flash_read:0000000000000026 .L55
C:\Users\liukai\AppData\Local\Temp\cclRrI3t.s:1053   .text.spi_flash_write:0000000000000024 .L0 
C:\Users\liukai\AppData\Local\Temp\cclRrI3t.s:1105   .text.spi_flash_write:0000000000000072 .L67
C:\Users\liukai\AppData\Local\Temp\cclRrI3t.s:1084   .text.spi_flash_write:0000000000000050 .L68
C:\Users\liukai\AppData\Local\Temp\cclRrI3t.s:1114   .text.spi_flash_write:000000000000007c .L66
C:\Users\liukai\AppData\Local\Temp\cclRrI3t.s:1080   .text.spi_flash_write:0000000000000048 .L65
C:\Users\liukai\AppData\Local\Temp\cclRrI3t.s:1135   .text.change_mode_spi_flash:0000000000000000 .L0 
C:\Users\liukai\AppData\Local\Temp\cclRrI3t.s:1141   .text.change_mode_spi_flash:000000000000000e .L73
C:\Users\liukai\AppData\Local\Temp\cclRrI3t.s:1167   .text.spi_flash_write_cmd:0000000000000008 .L0 
C:\Users\liukai\AppData\Local\Temp\cclRrI3t.s:1204   .text.spi_flash_write_cmd:0000000000000042 .L82
C:\Users\liukai\AppData\Local\Temp\cclRrI3t.s:1184   .text.spi_flash_write_cmd:000000000000002a .L77
C:\Users\liukai\AppData\Local\Temp\cclRrI3t.s:1190   .text.spi_flash_write_cmd:0000000000000034 .L78
C:\Users\liukai\AppData\Local\Temp\cclRrI3t.s:1181   .text.spi_flash_write_cmd:0000000000000028 .L76
C:\Users\liukai\AppData\Local\Temp\cclRrI3t.s:1242   .text.spi_flash_page_program:0000000000000022 .L0 
C:\Users\liukai\AppData\Local\Temp\cclRrI3t.s:1283   .text.spi_flash_page_program:0000000000000066 .L87
C:\Users\liukai\AppData\Local\Temp\cclRrI3t.s:1275   .text.spi_flash_page_program:0000000000000058 .L85
C:\Users\liukai\AppData\Local\Temp\cclRrI3t.s:1268   .text.spi_flash_page_program:0000000000000050 .L86
C:\Users\liukai\AppData\Local\Temp\cclRrI3t.s:1326   .text.spi_flash_sector_erase:000000000000001c .L0 
C:\Users\liukai\AppData\Local\Temp\cclRrI3t.s:1343   .text.spi_flash_sector_erase:0000000000000040 .L96
C:\Users\liukai\AppData\Local\Temp\cclRrI3t.s:1352   .text.spi_flash_sector_erase:0000000000000050 .L97
C:\Users\liukai\AppData\Local\Temp\cclRrI3t.s:1361   .text.spi_flash_sector_erase:0000000000000060 .L98
C:\Users\liukai\AppData\Local\Temp\cclRrI3t.s:1367   .text.spi_flash_sector_erase:000000000000006a .L99
C:\Users\liukai\AppData\Local\Temp\cclRrI3t.s:1396   .text.spi_flash_read_status:0000000000000000 .L0 
C:\Users\liukai\AppData\Local\Temp\cclRrI3t.s:1404   .text.spi_flash_read_status:0000000000000012 .L106
C:\Users\liukai\AppData\Local\Temp\cclRrI3t.s:1413   .text.spi_flash_read_status:000000000000001a .L107
C:\Users\liukai\AppData\Local\Temp\cclRrI3t.s:3601   .debug_abbrev:0000000000000000 .Ldebug_abbrev0
C:\Users\liukai\AppData\Local\Temp\cclRrI3t.s:8743   .debug_str:0000000000001c73 .LASF1255
C:\Users\liukai\AppData\Local\Temp\cclRrI3t.s:10151  .debug_str:000000000000672e .LASF1256
C:\Users\liukai\AppData\Local\Temp\cclRrI3t.s:9551   .debug_str:00000000000047bd .LASF1257
C:\Users\liukai\AppData\Local\Temp\cclRrI3t.s:4464   .debug_ranges:0000000000000000 .Ldebug_ranges0
C:\Users\liukai\AppData\Local\Temp\cclRrI3t.s:8187   .debug_line:0000000000000000 .Ldebug_line0
C:\Users\liukai\AppData\Local\Temp\cclRrI3t.s:4526   .debug_macro:0000000000000000 .Ldebug_macro0
C:\Users\liukai\AppData\Local\Temp\cclRrI3t.s:8293   .debug_str:000000000000050a .LASF1052
C:\Users\liukai\AppData\Local\Temp\cclRrI3t.s:10083  .debug_str:0000000000006382 .LASF1057
C:\Users\liukai\AppData\Local\Temp\cclRrI3t.s:9765   .debug_str:00000000000052a5 .LASF1053
C:\Users\liukai\AppData\Local\Temp\cclRrI3t.s:10253  .debug_str:0000000000006d04 .LASF1054
C:\Users\liukai\AppData\Local\Temp\cclRrI3t.s:10555  .debug_str:0000000000007c95 .LASF1055
C:\Users\liukai\AppData\Local\Temp\cclRrI3t.s:8605   .debug_str:00000000000015c6 .LASF1056
C:\Users\liukai\AppData\Local\Temp\cclRrI3t.s:9259   .debug_str:0000000000003966 .LASF1058
C:\Users\liukai\AppData\Local\Temp\cclRrI3t.s:9243   .debug_str:0000000000003899 .LASF1059
C:\Users\liukai\AppData\Local\Temp\cclRrI3t.s:10483  .debug_str:000000000000792c .LASF1060
C:\Users\liukai\AppData\Local\Temp\cclRrI3t.s:9957   .debug_str:0000000000005c7a .LASF1061
C:\Users\liukai\AppData\Local\Temp\cclRrI3t.s:9611   .debug_str:0000000000004b58 .LASF1062
C:\Users\liukai\AppData\Local\Temp\cclRrI3t.s:8747   .debug_str:0000000000001d6a .LASF1063
C:\Users\liukai\AppData\Local\Temp\cclRrI3t.s:10487  .debug_str:0000000000007954 .LASF1064
C:\Users\liukai\AppData\Local\Temp\cclRrI3t.s:9837   .debug_str:0000000000005611 .LASF1065
C:\Users\liukai\AppData\Local\Temp\cclRrI3t.s:10425  .debug_str:0000000000007663 .LASF1066
C:\Users\liukai\AppData\Local\Temp\cclRrI3t.s:9141   .debug_str:00000000000032ec .LASF1173
C:\Users\liukai\AppData\Local\Temp\cclRrI3t.s:10529  .debug_str:0000000000007b2d .LASF1067
C:\Users\liukai\AppData\Local\Temp\cclRrI3t.s:9899   .debug_str:000000000000595d .LASF1068
C:\Users\liukai\AppData\Local\Temp\cclRrI3t.s:8217   .debug_str:0000000000000156 .LASF1069
C:\Users\liukai\AppData\Local\Temp\cclRrI3t.s:10119  .debug_str:000000000000656e .LASF1070
C:\Users\liukai\AppData\Local\Temp\cclRrI3t.s:8525   .debug_str:0000000000001117 .LASF1071
C:\Users\liukai\AppData\Local\Temp\cclRrI3t.s:9903   .debug_str:000000000000597b .LASF1072
C:\Users\liukai\AppData\Local\Temp\cclRrI3t.s:9781   .debug_str:0000000000005371 .LASF1073
C:\Users\liukai\AppData\Local\Temp\cclRrI3t.s:8235   .debug_str:0000000000000217 .LASF1074
C:\Users\liukai\AppData\Local\Temp\cclRrI3t.s:10103  .debug_str:00000000000064bc .LASF1075
C:\Users\liukai\AppData\Local\Temp\cclRrI3t.s:10087  .debug_str:0000000000006397 .LASF1076
C:\Users\liukai\AppData\Local\Temp\cclRrI3t.s:10469  .debug_str:0000000000007861 .LASF1077
C:\Users\liukai\AppData\Local\Temp\cclRrI3t.s:9365   .debug_str:0000000000003ebf .LASF1082
C:\Users\liukai\AppData\Local\Temp\cclRrI3t.s:10131  .debug_str:000000000000661a .LASF1078
C:\Users\liukai\AppData\Local\Temp\cclRrI3t.s:10319  .debug_str:0000000000007119 .LASF1079
C:\Users\liukai\AppData\Local\Temp\cclRrI3t.s:9545   .debug_str:0000000000004782 .LASF1080
C:\Users\liukai\AppData\Local\Temp\cclRrI3t.s:9131   .debug_str:0000000000003263 .LASF1081
C:\Users\liukai\AppData\Local\Temp\cclRrI3t.s:8345   .debug_str:00000000000007ca .LASF1083
C:\Users\liukai\AppData\Local\Temp\cclRrI3t.s:8351   .debug_str:00000000000007e6 .LASF1084
C:\Users\liukai\AppData\Local\Temp\cclRrI3t.s:10676  .debug_str:000000000000854e .LASF1085
C:\Users\liukai\AppData\Local\Temp\cclRrI3t.s:10559  .debug_str:0000000000007cbd .LASF1086
C:\Users\liukai\AppData\Local\Temp\cclRrI3t.s:9685   .debug_str:0000000000004f00 .LASF1087
C:\Users\liukai\AppData\Local\Temp\cclRrI3t.s:8693   .debug_str:0000000000001a83 .LASF1088
C:\Users\liukai\AppData\Local\Temp\cclRrI3t.s:10333  .debug_str:00000000000071e3 .LASF1089
C:\Users\liukai\AppData\Local\Temp\cclRrI3t.s:10571  .debug_str:0000000000007d36 .LASF1090
C:\Users\liukai\AppData\Local\Temp\cclRrI3t.s:9843   .debug_str:0000000000005637 .LASF1091
C:\Users\liukai\AppData\Local\Temp\cclRrI3t.s:10641  .debug_str:0000000000008151 .LASF1092
C:\Users\liukai\AppData\Local\Temp\cclRrI3t.s:8559   .debug_str:00000000000012d4 .LASF1093
C:\Users\liukai\AppData\Local\Temp\cclRrI3t.s:10637  .debug_str:0000000000008140 .LASF1094
C:\Users\liukai\AppData\Local\Temp\cclRrI3t.s:9987   .debug_str:0000000000005e1f .LASF1095
C:\Users\liukai\AppData\Local\Temp\cclRrI3t.s:8669   .debug_str:00000000000018f2 .LASF1096
C:\Users\liukai\AppData\Local\Temp\cclRrI3t.s:10423  .debug_str:000000000000765b .LASF1097
C:\Users\liukai\AppData\Local\Temp\cclRrI3t.s:9749   .debug_str:00000000000051f3 .LASF1098
C:\Users\liukai\AppData\Local\Temp\cclRrI3t.s:10395  .debug_str:0000000000007524 .LASF1099
C:\Users\liukai\AppData\Local\Temp\cclRrI3t.s:8911   .debug_str:0000000000002715 .LASF1100
C:\Users\liukai\AppData\Local\Temp\cclRrI3t.s:8657   .debug_str:000000000000188a .LASF1101
C:\Users\liukai\AppData\Local\Temp\cclRrI3t.s:10049  .debug_str:00000000000060d6 .LASF1102
C:\Users\liukai\AppData\Local\Temp\cclRrI3t.s:10489  .debug_str:000000000000795d .LASF1103
C:\Users\liukai\AppData\Local\Temp\cclRrI3t.s:9265   .debug_str:00000000000039a6 .LASF1104
C:\Users\liukai\AppData\Local\Temp\cclRrI3t.s:9729   .debug_str:0000000000005141 .LASF1105
C:\Users\liukai\AppData\Local\Temp\cclRrI3t.s:8569   .debug_str:000000000000133c .LASF1106
C:\Users\liukai\AppData\Local\Temp\cclRrI3t.s:10387  .debug_str:00000000000074f2 .LASF1107
C:\Users\liukai\AppData\Local\Temp\cclRrI3t.s:9119   .debug_str:00000000000031d3 .LASF1108
C:\Users\liukai\AppData\Local\Temp\cclRrI3t.s:8251   .debug_str:00000000000002c4 .LASF1109
C:\Users\liukai\AppData\Local\Temp\cclRrI3t.s:8285   .debug_str:000000000000047c .LASF1110
C:\Users\liukai\AppData\Local\Temp\cclRrI3t.s:9885   .debug_str:00000000000058da .LASF1111
C:\Users\liukai\AppData\Local\Temp\cclRrI3t.s:8927   .debug_str:00000000000027dc .LASF1112
C:\Users\liukai\AppData\Local\Temp\cclRrI3t.s:9699   .debug_str:0000000000004fc5 .LASF1113
C:\Users\liukai\AppData\Local\Temp\cclRrI3t.s:8349   .debug_str:00000000000007e0 .LASF1114
C:\Users\liukai\AppData\Local\Temp\cclRrI3t.s:10033  .debug_str:000000000000604a .LASF1115
C:\Users\liukai\AppData\Local\Temp\cclRrI3t.s:9897   .debug_str:0000000000005955 .LASF1116
C:\Users\liukai\AppData\Local\Temp\cclRrI3t.s:10135  .debug_str:000000000000663a .LASF1117
C:\Users\liukai\AppData\Local\Temp\cclRrI3t.s:8407   .debug_str:0000000000000b86 .LASF1118
C:\Users\liukai\AppData\Local\Temp\cclRrI3t.s:9717   .debug_str:000000000000507f .LASF1119
C:\Users\liukai\AppData\Local\Temp\cclRrI3t.s:9603   .debug_str:0000000000004aeb .LASF1120
C:\Users\liukai\AppData\Local\Temp\cclRrI3t.s:8855   .debug_str:000000000000246f .LASF1121
C:\Users\liukai\AppData\Local\Temp\cclRrI3t.s:9317   .debug_str:0000000000003c6e .LASF1122
C:\Users\liukai\AppData\Local\Temp\cclRrI3t.s:8979   .debug_str:0000000000002a7b .LASF1123
C:\Users\liukai\AppData\Local\Temp\cclRrI3t.s:8777   .debug_str:0000000000001f6a .LASF1124
C:\Users\liukai\AppData\Local\Temp\cclRrI3t.s:9705   .debug_str:0000000000005015 .LASF1125
C:\Users\liukai\AppData\Local\Temp\cclRrI3t.s:8887   .debug_str:00000000000025fa .LASF1126
C:\Users\liukai\AppData\Local\Temp\cclRrI3t.s:9425   .debug_str:00000000000041b9 .LASF1127
C:\Users\liukai\AppData\Local\Temp\cclRrI3t.s:8839   .debug_str:0000000000002315 .LASF1128
C:\Users\liukai\AppData\Local\Temp\cclRrI3t.s:10467  .debug_str:0000000000007859 .LASF1129
C:\Users\liukai\AppData\Local\Temp\cclRrI3t.s:9267   .debug_str:00000000000039ae .LASF1130
C:\Users\liukai\AppData\Local\Temp\cclRrI3t.s:9389   .debug_str:0000000000003fdb .LASF1131
C:\Users\liukai\AppData\Local\Temp\cclRrI3t.s:10499  .debug_str:00000000000079b3 .LASF1132
C:\Users\liukai\AppData\Local\Temp\cclRrI3t.s:8619   .debug_str:0000000000001679 .LASF1133
C:\Users\liukai\AppData\Local\Temp\cclRrI3t.s:9241   .debug_str:0000000000003894 .LASF1134
C:\Users\liukai\AppData\Local\Temp\cclRrI3t.s:9527   .debug_str:0000000000004691 .LASF1135
C:\Users\liukai\AppData\Local\Temp\cclRrI3t.s:8303   .debug_str:0000000000000578 .LASF1136
C:\Users\liukai\AppData\Local\Temp\cclRrI3t.s:9911   .debug_str:0000000000005a25 .LASF1137
C:\Users\liukai\AppData\Local\Temp\cclRrI3t.s:9693   .debug_str:0000000000004f90 .LASF1138
C:\Users\liukai\AppData\Local\Temp\cclRrI3t.s:9391   .debug_str:0000000000003fe5 .LASF1139
C:\Users\liukai\AppData\Local\Temp\cclRrI3t.s:9147   .debug_str:0000000000003342 .LASF1140
C:\Users\liukai\AppData\Local\Temp\cclRrI3t.s:10629  .debug_str:00000000000080ee .LASF1141
C:\Users\liukai\AppData\Local\Temp\cclRrI3t.s:8239   .debug_str:0000000000000232 .LASF1142
C:\Users\liukai\AppData\Local\Temp\cclRrI3t.s:8903   .debug_str:00000000000026a8 .LASF362
C:\Users\liukai\AppData\Local\Temp\cclRrI3t.s:10091  .debug_str:00000000000063d3 .LASF1143
C:\Users\liukai\AppData\Local\Temp\cclRrI3t.s:9543   .debug_str:000000000000477c .LASF1144
C:\Users\liukai\AppData\Local\Temp\cclRrI3t.s:9455   .debug_str:00000000000042f0 .LASF1145
C:\Users\liukai\AppData\Local\Temp\cclRrI3t.s:9177   .debug_str:0000000000003552 .LASF1146
C:\Users\liukai\AppData\Local\Temp\cclRrI3t.s:9999   .debug_str:0000000000005ea3 .LASF1147
C:\Users\liukai\AppData\Local\Temp\cclRrI3t.s:9875   .debug_str:000000000000584b .LASF1148
C:\Users\liukai\AppData\Local\Temp\cclRrI3t.s:8449   .debug_str:0000000000000db5 .LASF1149
C:\Users\liukai\AppData\Local\Temp\cclRrI3t.s:10547  .debug_str:0000000000007c16 .LASF1150
C:\Users\liukai\AppData\Local\Temp\cclRrI3t.s:8739   .debug_str:0000000000001c53 .LASF1151
C:\Users\liukai\AppData\Local\Temp\cclRrI3t.s:10063  .debug_str:00000000000061b9 .LASF1152
C:\Users\liukai\AppData\Local\Temp\cclRrI3t.s:8299   .debug_str:0000000000000554 .LASF1153
C:\Users\liukai\AppData\Local\Temp\cclRrI3t.s:8649   .debug_str:0000000000001830 .LASF1154
C:\Users\liukai\AppData\Local\Temp\cclRrI3t.s:9493   .debug_str:00000000000044c0 .LASF1155
C:\Users\liukai\AppData\Local\Temp\cclRrI3t.s:9725   .debug_str:000000000000511f .LASF1156
C:\Users\liukai\AppData\Local\Temp\cclRrI3t.s:10109  .debug_str:00000000000064e9 .LASF1157
C:\Users\liukai\AppData\Local\Temp\cclRrI3t.s:10249  .debug_str:0000000000006ce4 .LASF1158
C:\Users\liukai\AppData\Local\Temp\cclRrI3t.s:9929   .debug_str:0000000000005af8 .LASF1159
C:\Users\liukai\AppData\Local\Temp\cclRrI3t.s:9713   .debug_str:0000000000005057 .LASF1160
C:\Users\liukai\AppData\Local\Temp\cclRrI3t.s:8363   .debug_str:0000000000000856 .LASF1161
C:\Users\liukai\AppData\Local\Temp\cclRrI3t.s:9335   .debug_str:0000000000003d8c .LASF1162
C:\Users\liukai\AppData\Local\Temp\cclRrI3t.s:10682  .debug_str:000000000000858f .LASF1163
C:\Users\liukai\AppData\Local\Temp\cclRrI3t.s:8603   .debug_str:00000000000015b8 .LASF1164
C:\Users\liukai\AppData\Local\Temp\cclRrI3t.s:10075  .debug_str:00000000000062bf .LASF1165
C:\Users\liukai\AppData\Local\Temp\cclRrI3t.s:10587  .debug_str:0000000000007e68 .LASF1166
C:\Users\liukai\AppData\Local\Temp\cclRrI3t.s:9677   .debug_str:0000000000004ea3 .LASF1167
C:\Users\liukai\AppData\Local\Temp\cclRrI3t.s:8347   .debug_str:00000000000007cf .LASF1168
C:\Users\liukai\AppData\Local\Temp\cclRrI3t.s:8931   .debug_str:00000000000027f2 .LASF1169
C:\Users\liukai\AppData\Local\Temp\cclRrI3t.s:10433  .debug_str:00000000000076b8 .LASF1170
C:\Users\liukai\AppData\Local\Temp\cclRrI3t.s:9477   .debug_str:0000000000004413 .LASF1171
C:\Users\liukai\AppData\Local\Temp\cclRrI3t.s:8877   .debug_str:0000000000002587 .LASF1172
C:\Users\liukai\AppData\Local\Temp\cclRrI3t.s:8231   .debug_str:00000000000001f6 .LASF1174
C:\Users\liukai\AppData\Local\Temp\cclRrI3t.s:8613   .debug_str:000000000000162b .LASF1175
C:\Users\liukai\AppData\Local\Temp\cclRrI3t.s:8861   .debug_str:00000000000024e2 .LASF1176
C:\Users\liukai\AppData\Local\Temp\cclRrI3t.s:9307   .debug_str:0000000000003bfc .LASF1177
C:\Users\liukai\AppData\Local\Temp\cclRrI3t.s:8803   .debug_str:00000000000020fe .LASF1178
C:\Users\liukai\AppData\Local\Temp\cclRrI3t.s:9233   .debug_str:0000000000003853 .LASF1179
C:\Users\liukai\AppData\Local\Temp\cclRrI3t.s:10383  .debug_str:00000000000074c1 .LASF1180
C:\Users\liukai\AppData\Local\Temp\cclRrI3t.s:8805   .debug_str:0000000000002108 .LASF1181
C:\Users\liukai\AppData\Local\Temp\cclRrI3t.s:9777   .debug_str:000000000000534c .LASF1182
C:\Users\liukai\AppData\Local\Temp\cclRrI3t.s:10389  .debug_str:00000000000074fb .LASF1183
C:\Users\liukai\AppData\Local\Temp\cclRrI3t.s:8977   .debug_str:0000000000002a76 .LASF1184
C:\Users\liukai\AppData\Local\Temp\cclRrI3t.s:9503   .debug_str:000000000000452f .LASF1185
C:\Users\liukai\AppData\Local\Temp\cclRrI3t.s:10443  .debug_str:0000000000007740 .LASF1186
C:\Users\liukai\AppData\Local\Temp\cclRrI3t.s:8811   .debug_str:0000000000002135 .LASF1187
C:\Users\liukai\AppData\Local\Temp\cclRrI3t.s:9961   .debug_str:0000000000005cb9 .LASF1188
C:\Users\liukai\AppData\Local\Temp\cclRrI3t.s:8209   .debug_str:00000000000000d5 .LASF1189
C:\Users\liukai\AppData\Local\Temp\cclRrI3t.s:8889   .debug_str:00000000000025ff .LASF1190
C:\Users\liukai\AppData\Local\Temp\cclRrI3t.s:8395   .debug_str:0000000000000aec .LASF1191
C:\Users\liukai\AppData\Local\Temp\cclRrI3t.s:9051   .debug_str:0000000000002e68 .LASF1192
C:\Users\liukai\AppData\Local\Temp\cclRrI3t.s:8723   .debug_str:0000000000001bc4 .LASF1193
C:\Users\liukai\AppData\Local\Temp\cclRrI3t.s:10497  .debug_str:00000000000079a8 .LASF1194
C:\Users\liukai\AppData\Local\Temp\cclRrI3t.s:8893   .debug_str:0000000000002618 .LASF1195
C:\Users\liukai\AppData\Local\Temp\cclRrI3t.s:9229   .debug_str:000000000000383a .LASF1196
C:\Users\liukai\AppData\Local\Temp\cclRrI3t.s:9809   .debug_str:0000000000005500 .LASF1197
C:\Users\liukai\AppData\Local\Temp\cclRrI3t.s:9721   .debug_str:00000000000050a2 .LASF1210
C:\Users\liukai\AppData\Local\Temp\cclRrI3t.s:9931   .debug_str:0000000000005b06 .LASF1208
C:\Users\liukai\AppData\Local\Temp\cclRrI3t.s:1392   .text.spi_flash_read_status:0000000000000000 .LFB24
C:\Users\liukai\AppData\Local\Temp\cclRrI3t.s:1423   .text.spi_flash_read_status:0000000000000022 .LFE24
C:\Users\liukai\AppData\Local\Temp\cclRrI3t.s:10201  .debug_str:00000000000069e0 .LASF1198
C:\Users\liukai\AppData\Local\Temp\cclRrI3t.s:8359   .debug_str:0000000000000824 .LASF1202
C:\Users\liukai\AppData\Local\Temp\cclRrI3t.s:1311   .text.spi_flash_sector_erase:0000000000000000 .LFB23
C:\Users\liukai\AppData\Local\Temp\cclRrI3t.s:1385   .text.spi_flash_sector_erase:000000000000008a .LFE23
C:\Users\liukai\AppData\Local\Temp\cclRrI3t.s:9275   .debug_str:00000000000039f9 .LASF1204
C:\Users\liukai\AppData\Local\Temp\cclRrI3t.s:9635   .debug_str:0000000000004c4c .LASF1199
C:\Users\liukai\AppData\Local\Temp\cclRrI3t.s:9731   .debug_str:0000000000005148 .LASF1200
C:\Users\liukai\AppData\Local\Temp\cclRrI3t.s:9733   .debug_str:000000000000514e .LASF1201
C:\Users\liukai\AppData\Local\Temp\cclRrI3t.s:8783   .debug_str:0000000000001fdc .LASF1203
C:\Users\liukai\AppData\Local\Temp\cclRrI3t.s:1221   .text.spi_flash_page_program:0000000000000000 .LFB22
C:\Users\liukai\AppData\Local\Temp\cclRrI3t.s:1304   .text.spi_flash_page_program:0000000000000088 .LFE22
C:\Users\liukai\AppData\Local\Temp\cclRrI3t.s:9129   .debug_str:000000000000325c .LASF1205
C:\Users\liukai\AppData\Local\Temp\cclRrI3t.s:9539   .debug_str:0000000000004766 .LASF1206
C:\Users\liukai\AppData\Local\Temp\cclRrI3t.s:1261   .text.spi_flash_page_program:0000000000000044 .LBB8
C:\Users\liukai\AppData\Local\Temp\cclRrI3t.s:1284   .text.spi_flash_page_program:0000000000000066 .LBE8
C:\Users\liukai\AppData\Local\Temp\cclRrI3t.s:10285  .debug_str:0000000000006f12 .LASF1207
C:\Users\liukai\AppData\Local\Temp\cclRrI3t.s:1158   .text.spi_flash_write_cmd:0000000000000000 .LFB21
C:\Users\liukai\AppData\Local\Temp\cclRrI3t.s:1214   .text.spi_flash_write_cmd:000000000000005a .LFE21
C:\Users\liukai\AppData\Local\Temp\cclRrI3t.s:9411   .debug_str:00000000000040f2 .LASF1209
C:\Users\liukai\AppData\Local\Temp\cclRrI3t.s:1131   .text.change_mode_spi_flash:0000000000000000 .LFB20
C:\Users\liukai\AppData\Local\Temp\cclRrI3t.s:1151   .text.change_mode_spi_flash:0000000000000018 .LFE20
C:\Users\liukai\AppData\Local\Temp\cclRrI3t.s:9225   .debug_str:0000000000003810 .LASF1211
C:\Users\liukai\AppData\Local\Temp\cclRrI3t.s:1031   .text.spi_flash_write:0000000000000000 .LFB19
C:\Users\liukai\AppData\Local\Temp\cclRrI3t.s:1124   .text.spi_flash_write:000000000000008a .LFE19
C:\Users\liukai\AppData\Local\Temp\cclRrI3t.s:10043  .debug_str:00000000000060a8 .LASF1212
C:\Users\liukai\AppData\Local\Temp\cclRrI3t.s:975    .text.spi_flash_read:0000000000000000 .LFB18
C:\Users\liukai\AppData\Local\Temp\cclRrI3t.s:1024   .text.spi_flash_read:0000000000000044 .LFE18
C:\Users\liukai\AppData\Local\Temp\cclRrI3t.s:8567   .debug_str:0000000000001335 .LASF1213
C:\Users\liukai\AppData\Local\Temp\cclRrI3t.s:9441   .debug_str:000000000000426d .LASF1214
C:\Users\liukai\AppData\Local\Temp\cclRrI3t.s:991    .text.spi_flash_read:0000000000000018 .LBB4
C:\Users\liukai\AppData\Local\Temp\cclRrI3t.s:1014   .text.spi_flash_read:000000000000003c .LBE4
C:\Users\liukai\AppData\Local\Temp\cclRrI3t.s:8891   .debug_str:0000000000002609 .LASF1215
C:\Users\liukai\AppData\Local\Temp\cclRrI3t.s:844    .text.spi_flash_init:0000000000000000 .LFB17
C:\Users\liukai\AppData\Local\Temp\cclRrI3t.s:968    .text.spi_flash_init:00000000000000b4 .LFE17
C:\Users\liukai\AppData\Local\Temp\cclRrI3t.s:9563   .debug_str:000000000000486a .LASF1216
C:\Users\liukai\AppData\Local\Temp\cclRrI3t.s:10515  .debug_str:0000000000007a96 .LASF1217
C:\Users\liukai\AppData\Local\Temp\cclRrI3t.s:9029   .debug_str:0000000000002d99 .LASF1218
C:\Users\liukai\AppData\Local\Temp\cclRrI3t.s:8319   .debug_str:000000000000067d .LASF1219
C:\Users\liukai\AppData\Local\Temp\cclRrI3t.s:9399   .debug_str:000000000000402a .LASF1220
C:\Users\liukai\AppData\Local\Temp\cclRrI3t.s:9841   .debug_str:0000000000005622 .LASF1221
C:\Users\liukai\AppData\Local\Temp\cclRrI3t.s:761    .text.SPI_set_rx_threshold:0000000000000000 .LFB16
C:\Users\liukai\AppData\Local\Temp\cclRrI3t.s:837    .text.SPI_set_rx_threshold:00000000000000aa .LFE16
C:\Users\liukai\AppData\Local\Temp\cclRrI3t.s:8355   .debug_str:00000000000007fe .LASF1222
C:\Users\liukai\AppData\Local\Temp\cclRrI3t.s:10557  .debug_str:0000000000007ca8 .LASF1223
C:\Users\liukai\AppData\Local\Temp\cclRrI3t.s:673    .text.SPI_set_tx_threshold:0000000000000000 .LFB15
C:\Users\liukai\AppData\Local\Temp\cclRrI3t.s:750    .text.SPI_set_tx_threshold:00000000000000ac .LFE15
C:\Users\liukai\AppData\Local\Temp\cclRrI3t.s:10523  .debug_str:0000000000007aed .LASF1224
C:\Users\liukai\AppData\Local\Temp\cclRrI3t.s:10381  .debug_str:00000000000074ae .LASF1258
C:\Users\liukai\AppData\Local\Temp\cclRrI3t.s:638    .text.spi_get_fifo_depth:0000000000000000 .LFB14
C:\Users\liukai\AppData\Local\Temp\cclRrI3t.s:662    .text.spi_get_fifo_depth:0000000000000014 .LFE14
C:\Users\liukai\AppData\Local\Temp\cclRrI3t.s:10461  .debug_str:00000000000077fd .LASF1225
C:\Users\liukai\AppData\Local\Temp\cclRrI3t.s:9757   .debug_str:0000000000005253 .LASF1226
C:\Users\liukai\AppData\Local\Temp\cclRrI3t.s:8273   .debug_str:00000000000003d4 .LASF1227
C:\Users\liukai\AppData\Local\Temp\cclRrI3t.s:595    .text.SPI_rx_fifo_reset:0000000000000000 .LFB13
C:\Users\liukai\AppData\Local\Temp\cclRrI3t.s:631    .text.SPI_rx_fifo_reset:000000000000003c .LFE13
C:\Users\liukai\AppData\Local\Temp\cclRrI3t.s:8705   .debug_str:0000000000001b08 .LASF1228
C:\Users\liukai\AppData\Local\Temp\cclRrI3t.s:552    .text.SPI_tx_fifo_reset:0000000000000000 .LFB12
C:\Users\liukai\AppData\Local\Temp\cclRrI3t.s:588    .text.SPI_tx_fifo_reset:000000000000003c .LFE12
C:\Users\liukai\AppData\Local\Temp\cclRrI3t.s:10565  .debug_str:0000000000007cf1 .LASF1229
C:\Users\liukai\AppData\Local\Temp\cclRrI3t.s:488    .text.SPI_set_token:0000000000000000 .LFB11
C:\Users\liukai\AppData\Local\Temp\cclRrI3t.s:545    .text.SPI_set_token:0000000000000068 .LFE11
C:\Users\liukai\AppData\Local\Temp\cclRrI3t.s:9235   .debug_str:000000000000385c .LASF1230
C:\Users\liukai\AppData\Local\Temp\cclRrI3t.s:8195   .debug_str:0000000000000047 .LASF1231
C:\Users\liukai\AppData\Local\Temp\cclRrI3t.s:9979   .debug_str:0000000000005da1 .LASF1232
C:\Users\liukai\AppData\Local\Temp\cclRrI3t.s:411    .text.SPI_set_trans_ctrl:0000000000000000 .LFB10
C:\Users\liukai\AppData\Local\Temp\cclRrI3t.s:481    .text.SPI_set_trans_ctrl:00000000000000a6 .LFE10
C:\Users\liukai\AppData\Local\Temp\cclRrI3t.s:9919   .debug_str:0000000000005a72 .LASF1233
C:\Users\liukai\AppData\Local\Temp\cclRrI3t.s:9927   .debug_str:0000000000005aef .LASF1234
C:\Users\liukai\AppData\Local\Temp\cclRrI3t.s:10179  .debug_str:00000000000068a2 .LASF1235
C:\Users\liukai\AppData\Local\Temp\cclRrI3t.s:9827   .debug_str:000000000000559e .LASF1236
C:\Users\liukai\AppData\Local\Temp\cclRrI3t.s:349    .text.SPI_set_transfer_format:0000000000000000 .LFB9
C:\Users\liukai\AppData\Local\Temp\cclRrI3t.s:404    .text.SPI_set_transfer_format:0000000000000068 .LFE9
C:\Users\liukai\AppData\Local\Temp\cclRrI3t.s:9617   .debug_str:0000000000004b8a .LASF1237
C:\Users\liukai\AppData\Local\Temp\cclRrI3t.s:9825   .debug_str:0000000000005597 .LASF1238
C:\Users\liukai\AppData\Local\Temp\cclRrI3t.s:9071   .debug_str:0000000000002f6a .LASF1239
C:\Users\liukai\AppData\Local\Temp\cclRrI3t.s:8471   .debug_str:0000000000000ea1 .LASF1240
C:\Users\liukai\AppData\Local\Temp\cclRrI3t.s:8941   .debug_str:000000000000287b .LASF1241
C:\Users\liukai\AppData\Local\Temp\cclRrI3t.s:266    .text.SPI_set_data_format:0000000000000000 .LFB8
C:\Users\liukai\AppData\Local\Temp\cclRrI3t.s:342    .text.SPI_set_data_format:0000000000000096 .LFE8
C:\Users\liukai\AppData\Local\Temp\cclRrI3t.s:10061  .debug_str:00000000000061b0 .LASF1242
C:\Users\liukai\AppData\Local\Temp\cclRrI3t.s:10247  .debug_str:0000000000006cda .LASF1243
C:\Users\liukai\AppData\Local\Temp\cclRrI3t.s:10193  .debug_str:0000000000006993 .LASF1244
C:\Users\liukai\AppData\Local\Temp\cclRrI3t.s:212    .text.SPI_set_cmd_format:0000000000000000 .LFB7
C:\Users\liukai\AppData\Local\Temp\cclRrI3t.s:259    .text.SPI_set_cmd_format:000000000000004e .LFE7
C:\Users\liukai\AppData\Local\Temp\cclRrI3t.s:10121  .debug_str:0000000000006575 .LASF1245
C:\Users\liukai\AppData\Local\Temp\cclRrI3t.s:8951   .debug_str:00000000000028d3 .LASF1246
C:\Users\liukai\AppData\Local\Temp\cclRrI3t.s:134    .text.SPI_set_addr_format:0000000000000000 .LFB6
C:\Users\liukai\AppData\Local\Temp\cclRrI3t.s:205    .text.SPI_set_addr_format:000000000000008c .LFE6
C:\Users\liukai\AppData\Local\Temp\cclRrI3t.s:8223   .debug_str:000000000000019b .LASF1247
C:\Users\liukai\AppData\Local\Temp\cclRrI3t.s:8667   .debug_str:00000000000018ea .LASF1248
C:\Users\liukai\AppData\Local\Temp\cclRrI3t.s:10668  .debug_str:000000000000850a .LASF1249
C:\Users\liukai\AppData\Local\Temp\cclRrI3t.s:8389   .debug_str:0000000000000a8f .LASF1250
C:\Users\liukai\AppData\Local\Temp\cclRrI3t.s:91     .text.SPI_set_mode:0000000000000000 .LFB5
C:\Users\liukai\AppData\Local\Temp\cclRrI3t.s:127    .text.SPI_set_mode:000000000000003c .LFE5
C:\Users\liukai\AppData\Local\Temp\cclRrI3t.s:9171   .debug_str:0000000000003513 .LASF1251
C:\Users\liukai\AppData\Local\Temp\cclRrI3t.s:10413  .debug_str:00000000000075ff .LASF1252
C:\Users\liukai\AppData\Local\Temp\cclRrI3t.s:47     .text.SPI_reset:0000000000000000 .LFB4
C:\Users\liukai\AppData\Local\Temp\cclRrI3t.s:84     .text.SPI_reset:000000000000003c .LFE4
C:\Users\liukai\AppData\Local\Temp\cclRrI3t.s:10105  .debug_str:00000000000064c7 .LASF1253
C:\Users\liukai\AppData\Local\Temp\cclRrI3t.s:17     .text.SelectSpi:0000000000000000 .LFB3
C:\Users\liukai\AppData\Local\Temp\cclRrI3t.s:40     .text.SelectSpi:0000000000000020 .LFE3
C:\Users\liukai\AppData\Local\Temp\cclRrI3t.s:9873   .debug_str:0000000000005843 .LASF1254
C:\Users\liukai\AppData\Local\Temp\cclRrI3t.s:1435   .debug_info:0000000000000000 .Ldebug_info0
C:\Users\liukai\AppData\Local\Temp\cclRrI3t.s:641    .text.spi_get_fifo_depth:0000000000000000 .LBB2
C:\Users\liukai\AppData\Local\Temp\cclRrI3t.s:644    .text.spi_get_fifo_depth:0000000000000002 .LBE2
C:\Users\liukai\AppData\Local\Temp\cclRrI3t.s:648    .text.spi_get_fifo_depth:0000000000000004 .LBB3
C:\Users\liukai\AppData\Local\Temp\cclRrI3t.s:657    .text.spi_get_fifo_depth:0000000000000010 .LBE3
C:\Users\liukai\AppData\Local\Temp\cclRrI3t.s:1069   .text.spi_flash_write:0000000000000040 .LBB5
C:\Users\liukai\AppData\Local\Temp\cclRrI3t.s:1072   .text.spi_flash_write:0000000000000042 .LBE5
C:\Users\liukai\AppData\Local\Temp\cclRrI3t.s:1077   .text.spi_flash_write:0000000000000046 .LBB6
C:\Users\liukai\AppData\Local\Temp\cclRrI3t.s:1085   .text.spi_flash_write:0000000000000050 .LBE6
C:\Users\liukai\AppData\Local\Temp\cclRrI3t.s:1107   .text.spi_flash_write:0000000000000072 .LBB7
C:\Users\liukai\AppData\Local\Temp\cclRrI3t.s:1122   .text.spi_flash_write:000000000000008a .LBE7
C:\Users\liukai\AppData\Local\Temp\cclRrI3t.s:4857   .debug_macro:0000000000000000 .Ldebug_macro2
C:\Users\liukai\AppData\Local\Temp\cclRrI3t.s:10591  .debug_str:0000000000007e8e .LASF311
C:\Users\liukai\AppData\Local\Temp\cclRrI3t.s:5795   .debug_macro:0000000000000000 .Ldebug_macro3
C:\Users\liukai\AppData\Local\Temp\cclRrI3t.s:9599   .debug_str:0000000000004ac6 .LASF317
C:\Users\liukai\AppData\Local\Temp\cclRrI3t.s:8785   .debug_str:0000000000001ff3 .LASF318
C:\Users\liukai\AppData\Local\Temp\cclRrI3t.s:9801   .debug_str:00000000000054a2 .LASF319
C:\Users\liukai\AppData\Local\Temp\cclRrI3t.s:8883   .debug_str:00000000000025e4 .LASF320
C:\Users\liukai\AppData\Local\Temp\cclRrI3t.s:5815   .debug_macro:0000000000000000 .Ldebug_macro4
C:\Users\liukai\AppData\Local\Temp\cclRrI3t.s:5835   .debug_macro:0000000000000000 .Ldebug_macro5
C:\Users\liukai\AppData\Local\Temp\cclRrI3t.s:5900   .debug_macro:0000000000000000 .Ldebug_macro6
C:\Users\liukai\AppData\Local\Temp\cclRrI3t.s:5941   .debug_macro:0000000000000000 .Ldebug_macro7
C:\Users\liukai\AppData\Local\Temp\cclRrI3t.s:6057   .debug_macro:0000000000000000 .Ldebug_macro8
C:\Users\liukai\AppData\Local\Temp\cclRrI3t.s:6113   .debug_macro:0000000000000000 .Ldebug_macro9
C:\Users\liukai\AppData\Local\Temp\cclRrI3t.s:10085  .debug_str:000000000000638c .LASF473
C:\Users\liukai\AppData\Local\Temp\cclRrI3t.s:10143  .debug_str:000000000000668b .LASF474
C:\Users\liukai\AppData\Local\Temp\cclRrI3t.s:6325   .debug_macro:0000000000000000 .Ldebug_macro10
C:\Users\liukai\AppData\Local\Temp\cclRrI3t.s:9485   .debug_str:0000000000004471 .LASF489
C:\Users\liukai\AppData\Local\Temp\cclRrI3t.s:6372   .debug_macro:0000000000000000 .Ldebug_macro11
C:\Users\liukai\AppData\Local\Temp\cclRrI3t.s:6386   .debug_macro:0000000000000000 .Ldebug_macro12
C:\Users\liukai\AppData\Local\Temp\cclRrI3t.s:6412   .debug_macro:0000000000000000 .Ldebug_macro13
C:\Users\liukai\AppData\Local\Temp\cclRrI3t.s:6441   .debug_macro:0000000000000000 .Ldebug_macro14
C:\Users\liukai\AppData\Local\Temp\cclRrI3t.s:8447   .debug_str:0000000000000da6 .LASF511
C:\Users\liukai\AppData\Local\Temp\cclRrI3t.s:6455   .debug_macro:0000000000000000 .Ldebug_macro15
C:\Users\liukai\AppData\Local\Temp\cclRrI3t.s:6523   .debug_macro:0000000000000000 .Ldebug_macro16
C:\Users\liukai\AppData\Local\Temp\cclRrI3t.s:6888   .debug_macro:0000000000000000 .Ldebug_macro17
C:\Users\liukai\AppData\Local\Temp\cclRrI3t.s:8949   .debug_str:00000000000028c1 .LASF685
C:\Users\liukai\AppData\Local\Temp\cclRrI3t.s:7001   .debug_macro:0000000000000000 .Ldebug_macro18
C:\Users\liukai\AppData\Local\Temp\cclRrI3t.s:9077   .debug_str:0000000000002f93 .LASF688
C:\Users\liukai\AppData\Local\Temp\cclRrI3t.s:9651   .debug_str:0000000000004d16 .LASF689
C:\Users\liukai\AppData\Local\Temp\cclRrI3t.s:10417  .debug_str:000000000000761c .LASF690
C:\Users\liukai\AppData\Local\Temp\cclRrI3t.s:10415  .debug_str:0000000000007609 .LASF691
C:\Users\liukai\AppData\Local\Temp\cclRrI3t.s:7012   .debug_macro:0000000000000000 .Ldebug_macro19
C:\Users\liukai\AppData\Local\Temp\cclRrI3t.s:7059   .debug_macro:0000000000000000 .Ldebug_macro20
C:\Users\liukai\AppData\Local\Temp\cclRrI3t.s:7076   .debug_macro:0000000000000000 .Ldebug_macro21
C:\Users\liukai\AppData\Local\Temp\cclRrI3t.s:7108   .debug_macro:0000000000000000 .Ldebug_macro22
C:\Users\liukai\AppData\Local\Temp\cclRrI3t.s:7125   .debug_macro:0000000000000000 .Ldebug_macro23
C:\Users\liukai\AppData\Local\Temp\cclRrI3t.s:7301   .debug_macro:0000000000000000 .Ldebug_macro24
C:\Users\liukai\AppData\Local\Temp\cclRrI3t.s:10021  .debug_str:0000000000005fc5 .LASF774
C:\Users\liukai\AppData\Local\Temp\cclRrI3t.s:7312   .debug_macro:0000000000000000 .Ldebug_macro25
C:\Users\liukai\AppData\Local\Temp\cclRrI3t.s:7329   .debug_macro:0000000000000000 .Ldebug_macro26
C:\Users\liukai\AppData\Local\Temp\cclRrI3t.s:9473   .debug_str:00000000000043cf .LASF792
C:\Users\liukai\AppData\Local\Temp\cclRrI3t.s:10215  .debug_str:0000000000006a92 .LASF793
C:\Users\liukai\AppData\Local\Temp\cclRrI3t.s:7373   .debug_macro:0000000000000000 .Ldebug_macro27
C:\Users\liukai\AppData\Local\Temp\cclRrI3t.s:8481   .debug_str:0000000000000ef4 .LASF804
C:\Users\liukai\AppData\Local\Temp\cclRrI3t.s:8201   .debug_str:000000000000007f .LASF805
C:\Users\liukai\AppData\Local\Temp\cclRrI3t.s:7408   .debug_macro:0000000000000000 .Ldebug_macro28
C:\Users\liukai\AppData\Local\Temp\cclRrI3t.s:7419   .debug_macro:0000000000000000 .Ldebug_macro29
C:\Users\liukai\AppData\Local\Temp\cclRrI3t.s:7454   .debug_macro:0000000000000000 .Ldebug_macro30
C:\Users\liukai\AppData\Local\Temp\cclRrI3t.s:10633  .debug_str:000000000000811a .LASF850
C:\Users\liukai\AppData\Local\Temp\cclRrI3t.s:7555   .debug_macro:0000000000000000 .Ldebug_macro31
C:\Users\liukai\AppData\Local\Temp\cclRrI3t.s:7572   .debug_macro:0000000000000000 .Ldebug_macro32
C:\Users\liukai\AppData\Local\Temp\cclRrI3t.s:10605  .debug_str:0000000000007f62 .LASF864
C:\Users\liukai\AppData\Local\Temp\cclRrI3t.s:8869   .debug_str:0000000000002531 .LASF865
C:\Users\liukai\AppData\Local\Temp\cclRrI3t.s:7604   .debug_macro:0000000000000000 .Ldebug_macro33
C:\Users\liukai\AppData\Local\Temp\cclRrI3t.s:7618   .debug_macro:0000000000000000 .Ldebug_macro34
C:\Users\liukai\AppData\Local\Temp\cclRrI3t.s:7788   .debug_macro:0000000000000000 .Ldebug_macro35
C:\Users\liukai\AppData\Local\Temp\cclRrI3t.s:7808   .debug_macro:0000000000000000 .Ldebug_macro36
C:\Users\liukai\AppData\Local\Temp\cclRrI3t.s:7885   .debug_macro:0000000000000000 .Ldebug_macro37
C:\Users\liukai\AppData\Local\Temp\cclRrI3t.s:9689   .debug_str:0000000000004f21 .LASF0
C:\Users\liukai\AppData\Local\Temp\cclRrI3t.s:9185   .debug_str:00000000000035a8 .LASF1
C:\Users\liukai\AppData\Local\Temp\cclRrI3t.s:8341   .debug_str:0000000000000797 .LASF2
C:\Users\liukai\AppData\Local\Temp\cclRrI3t.s:8809   .debug_str:0000000000002123 .LASF3
C:\Users\liukai\AppData\Local\Temp\cclRrI3t.s:9887   .debug_str:00000000000058e0 .LASF4
C:\Users\liukai\AppData\Local\Temp\cclRrI3t.s:9251   .debug_str:00000000000038f5 .LASF5
C:\Users\liukai\AppData\Local\Temp\cclRrI3t.s:10139  .debug_str:0000000000006666 .LASF6
C:\Users\liukai\AppData\Local\Temp\cclRrI3t.s:8767   .debug_str:0000000000001eb3 .LASF7
C:\Users\liukai\AppData\Local\Temp\cclRrI3t.s:9595   .debug_str:0000000000004aa4 .LASF8
C:\Users\liukai\AppData\Local\Temp\cclRrI3t.s:10287  .debug_str:0000000000006f26 .LASF9
C:\Users\liukai\AppData\Local\Temp\cclRrI3t.s:8831   .debug_str:0000000000002281 .LASF10
C:\Users\liukai\AppData\Local\Temp\cclRrI3t.s:9941   .debug_str:0000000000005b9d .LASF11
C:\Users\liukai\AppData\Local\Temp\cclRrI3t.s:9339   .debug_str:0000000000003da6 .LASF12
C:\Users\liukai\AppData\Local\Temp\cclRrI3t.s:10654  .debug_str:0000000000008410 .LASF13
C:\Users\liukai\AppData\Local\Temp\cclRrI3t.s:8275   .debug_str:00000000000003e6 .LASF14
C:\Users\liukai\AppData\Local\Temp\cclRrI3t.s:10023  .debug_str:0000000000005fdb .LASF15
C:\Users\liukai\AppData\Local\Temp\cclRrI3t.s:10477  .debug_str:00000000000078dc .LASF16
C:\Users\liukai\AppData\Local\Temp\cclRrI3t.s:8797   .debug_str:00000000000020b3 .LASF17
C:\Users\liukai\AppData\Local\Temp\cclRrI3t.s:8297   .debug_str:000000000000053d .LASF18
C:\Users\liukai\AppData\Local\Temp\cclRrI3t.s:8871   .debug_str:0000000000002541 .LASF19
C:\Users\liukai\AppData\Local\Temp\cclRrI3t.s:10309  .debug_str:00000000000070af .LASF20
C:\Users\liukai\AppData\Local\Temp\cclRrI3t.s:8707   .debug_str:0000000000001b1a .LASF21
C:\Users\liukai\AppData\Local\Temp\cclRrI3t.s:10429  .debug_str:0000000000007688 .LASF22
C:\Users\liukai\AppData\Local\Temp\cclRrI3t.s:10217  .debug_str:0000000000006aa3 .LASF23
C:\Users\liukai\AppData\Local\Temp\cclRrI3t.s:9649   .debug_str:0000000000004d07 .LASF24
C:\Users\liukai\AppData\Local\Temp\cclRrI3t.s:8933   .debug_str:00000000000027fb .LASF25
C:\Users\liukai\AppData\Local\Temp\cclRrI3t.s:10399  .debug_str:000000000000753d .LASF26
C:\Users\liukai\AppData\Local\Temp\cclRrI3t.s:8483   .debug_str:0000000000000f06 .LASF27
C:\Users\liukai\AppData\Local\Temp\cclRrI3t.s:8323   .debug_str:00000000000006a7 .LASF28
C:\Users\liukai\AppData\Local\Temp\cclRrI3t.s:9561   .debug_str:0000000000004843 .LASF29
C:\Users\liukai\AppData\Local\Temp\cclRrI3t.s:9701   .debug_str:0000000000004fcb .LASF30
C:\Users\liukai\AppData\Local\Temp\cclRrI3t.s:8645   .debug_str:00000000000017f2 .LASF31
C:\Users\liukai\AppData\Local\Temp\cclRrI3t.s:8325   .debug_str:00000000000006c1 .LASF32
C:\Users\liukai\AppData\Local\Temp\cclRrI3t.s:9969   .debug_str:0000000000005d2e .LASF33
C:\Users\liukai\AppData\Local\Temp\cclRrI3t.s:9565   .debug_str:000000000000486f .LASF34
C:\Users\liukai\AppData\Local\Temp\cclRrI3t.s:9583   .debug_str:00000000000049eb .LASF35
C:\Users\liukai\AppData\Local\Temp\cclRrI3t.s:10153  .debug_str:0000000000006742 .LASF36
C:\Users\liukai\AppData\Local\Temp\cclRrI3t.s:9643   .debug_str:0000000000004cb5 .LASF37
C:\Users\liukai\AppData\Local\Temp\cclRrI3t.s:10007  .debug_str:0000000000005ef8 .LASF38
C:\Users\liukai\AppData\Local\Temp\cclRrI3t.s:8683   .debug_str:00000000000019f6 .LASF39
C:\Users\liukai\AppData\Local\Temp\cclRrI3t.s:10107  .debug_str:00000000000064d1 .LASF40
C:\Users\liukai\AppData\Local\Temp\cclRrI3t.s:8333   .debug_str:0000000000000720 .LASF41
C:\Users\liukai\AppData\Local\Temp\cclRrI3t.s:8357   .debug_str:000000000000080b .LASF42
C:\Users\liukai\AppData\Local\Temp\cclRrI3t.s:10658  .debug_str:0000000000008443 .LASF43
C:\Users\liukai\AppData\Local\Temp\cclRrI3t.s:9501   .debug_str:0000000000004512 .LASF44
C:\Users\liukai\AppData\Local\Temp\cclRrI3t.s:9703   .debug_str:0000000000004ff8 .LASF45
C:\Users\liukai\AppData\Local\Temp\cclRrI3t.s:9253   .debug_str:0000000000003900 .LASF46
C:\Users\liukai\AppData\Local\Temp\cclRrI3t.s:10441  .debug_str:000000000000771e .LASF47
C:\Users\liukai\AppData\Local\Temp\cclRrI3t.s:8745   .debug_str:0000000000001d43 .LASF48
C:\Users\liukai\AppData\Local\Temp\cclRrI3t.s:10656  .debug_str:0000000000008423 .LASF49
C:\Users\liukai\AppData\Local\Temp\cclRrI3t.s:10545  .debug_str:0000000000007bf7 .LASF50
C:\Users\liukai\AppData\Local\Temp\cclRrI3t.s:9923   .debug_str:0000000000005ab5 .LASF51
C:\Users\liukai\AppData\Local\Temp\cclRrI3t.s:8529   .debug_str:0000000000001133 .LASF52
C:\Users\liukai\AppData\Local\Temp\cclRrI3t.s:8591   .debug_str:000000000000143d .LASF53
C:\Users\liukai\AppData\Local\Temp\cclRrI3t.s:10001  .debug_str:0000000000005eab .LASF54
C:\Users\liukai\AppData\Local\Temp\cclRrI3t.s:10145  .debug_str:0000000000006699 .LASF55
C:\Users\liukai\AppData\Local\Temp\cclRrI3t.s:9323   .debug_str:0000000000003cd8 .LASF56
C:\Users\liukai\AppData\Local\Temp\cclRrI3t.s:8629   .debug_str:0000000000001702 .LASF57
C:\Users\liukai\AppData\Local\Temp\cclRrI3t.s:9991   .debug_str:0000000000005e3d .LASF58
C:\Users\liukai\AppData\Local\Temp\cclRrI3t.s:9351   .debug_str:0000000000003e20 .LASF59
C:\Users\liukai\AppData\Local\Temp\cclRrI3t.s:8399   .debug_str:0000000000000b1b .LASF60
C:\Users\liukai\AppData\Local\Temp\cclRrI3t.s:9285   .debug_str:0000000000003a66 .LASF61
C:\Users\liukai\AppData\Local\Temp\cclRrI3t.s:10509  .debug_str:0000000000007a4e .LASF62
C:\Users\liukai\AppData\Local\Temp\cclRrI3t.s:9983   .debug_str:0000000000005dc1 .LASF63
C:\Users\liukai\AppData\Local\Temp\cclRrI3t.s:8917   .debug_str:0000000000002741 .LASF64
C:\Users\liukai\AppData\Local\Temp\cclRrI3t.s:10197  .debug_str:00000000000069ae .LASF65
C:\Users\liukai\AppData\Local\Temp\cclRrI3t.s:10199  .debug_str:00000000000069c2 .LASF66
C:\Users\liukai\AppData\Local\Temp\cclRrI3t.s:9209   .debug_str:0000000000003722 .LASF67
C:\Users\liukai\AppData\Local\Temp\cclRrI3t.s:9021   .debug_str:0000000000002d1b .LASF68
C:\Users\liukai\AppData\Local\Temp\cclRrI3t.s:8997   .debug_str:0000000000002b8e .LASF69
C:\Users\liukai\AppData\Local\Temp\cclRrI3t.s:9659   .debug_str:0000000000004d87 .LASF70
C:\Users\liukai\AppData\Local\Temp\cclRrI3t.s:9965   .debug_str:0000000000005cd8 .LASF71
C:\Users\liukai\AppData\Local\Temp\cclRrI3t.s:10702  .debug_str:0000000000008672 .LASF72
C:\Users\liukai\AppData\Local\Temp\cclRrI3t.s:10595  .debug_str:0000000000007eb7 .LASF73
C:\Users\liukai\AppData\Local\Temp\cclRrI3t.s:9833   .debug_str:00000000000055d4 .LASF74
C:\Users\liukai\AppData\Local\Temp\cclRrI3t.s:8913   .debug_str:000000000000271a .LASF75
C:\Users\liukai\AppData\Local\Temp\cclRrI3t.s:9079   .debug_str:0000000000002fa5 .LASF76
C:\Users\liukai\AppData\Local\Temp\cclRrI3t.s:9973   .debug_str:0000000000005d54 .LASF77
C:\Users\liukai\AppData\Local\Temp\cclRrI3t.s:10525  .debug_str:0000000000007afa .LASF78
C:\Users\liukai\AppData\Local\Temp\cclRrI3t.s:8243   .debug_str:0000000000000253 .LASF79
C:\Users\liukai\AppData\Local\Temp\cclRrI3t.s:10585  .debug_str:0000000000007e4f .LASF80
C:\Users\liukai\AppData\Local\Temp\cclRrI3t.s:8537   .debug_str:00000000000011ae .LASF81
C:\Users\liukai\AppData\Local\Temp\cclRrI3t.s:8825   .debug_str:0000000000002213 .LASF82
C:\Users\liukai\AppData\Local\Temp\cclRrI3t.s:10349  .debug_str:00000000000072df .LASF83
C:\Users\liukai\AppData\Local\Temp\cclRrI3t.s:9405   .debug_str:000000000000405e .LASF84
C:\Users\liukai\AppData\Local\Temp\cclRrI3t.s:9453   .debug_str:00000000000042d9 .LASF85
C:\Users\liukai\AppData\Local\Temp\cclRrI3t.s:10625  .debug_str:00000000000080c8 .LASF86
C:\Users\liukai\AppData\Local\Temp\cclRrI3t.s:9499   .debug_str:0000000000004500 .LASF87
C:\Users\liukai\AppData\Local\Temp\cclRrI3t.s:8511   .debug_str:000000000000103d .LASF88
C:\Users\liukai\AppData\Local\Temp\cclRrI3t.s:10517  .debug_str:0000000000007aab .LASF89
C:\Users\liukai\AppData\Local\Temp\cclRrI3t.s:8253   .debug_str:00000000000002ca .LASF90
C:\Users\liukai\AppData\Local\Temp\cclRrI3t.s:8233   .debug_str:0000000000000201 .LASF91
C:\Users\liukai\AppData\Local\Temp\cclRrI3t.s:10688  .debug_str:00000000000085c9 .LASF92
C:\Users\liukai\AppData\Local\Temp\cclRrI3t.s:8643   .debug_str:00000000000017da .LASF93
C:\Users\liukai\AppData\Local\Temp\cclRrI3t.s:8317   .debug_str:0000000000000669 .LASF94
C:\Users\liukai\AppData\Local\Temp\cclRrI3t.s:10295  .debug_str:0000000000006f92 .LASF95
C:\Users\liukai\AppData\Local\Temp\cclRrI3t.s:9101   .debug_str:00000000000030df .LASF96
C:\Users\liukai\AppData\Local\Temp\cclRrI3t.s:10369  .debug_str:0000000000007400 .LASF97
C:\Users\liukai\AppData\Local\Temp\cclRrI3t.s:9231   .debug_str:0000000000003841 .LASF98
C:\Users\liukai\AppData\Local\Temp\cclRrI3t.s:10339  .debug_str:0000000000007212 .LASF99
C:\Users\liukai\AppData\Local\Temp\cclRrI3t.s:9295   .debug_str:0000000000003b5e .LASF100
C:\Users\liukai\AppData\Local\Temp\cclRrI3t.s:9375   .debug_str:0000000000003f37 .LASF101
C:\Users\liukai\AppData\Local\Temp\cclRrI3t.s:8967   .debug_str:00000000000029ee .LASF102
C:\Users\liukai\AppData\Local\Temp\cclRrI3t.s:10704  .debug_str:0000000000008689 .LASF103
C:\Users\liukai\AppData\Local\Temp\cclRrI3t.s:9349   .debug_str:0000000000003e04 .LASF104
C:\Users\liukai\AppData\Local\Temp\cclRrI3t.s:9173   .debug_str:000000000000351c .LASF105
C:\Users\liukai\AppData\Local\Temp\cclRrI3t.s:9191   .debug_str:0000000000003648 .LASF106
C:\Users\liukai\AppData\Local\Temp\cclRrI3t.s:9855   .debug_str:00000000000056fb .LASF107
C:\Users\liukai\AppData\Local\Temp\cclRrI3t.s:10541  .debug_str:0000000000007bc4 .LASF108
C:\Users\liukai\AppData\Local\Temp\cclRrI3t.s:9001   .debug_str:0000000000002bb2 .LASF109
C:\Users\liukai\AppData\Local\Temp\cclRrI3t.s:10635  .debug_str:0000000000008131 .LASF110
C:\Users\liukai\AppData\Local\Temp\cclRrI3t.s:9133   .debug_str:0000000000003268 .LASF111
C:\Users\liukai\AppData\Local\Temp\cclRrI3t.s:9547   .debug_str:0000000000004788 .LASF112
C:\Users\liukai\AppData\Local\Temp\cclRrI3t.s:8479   .debug_str:0000000000000ee0 .LASF113
C:\Users\liukai\AppData\Local\Temp\cclRrI3t.s:8709   .debug_str:0000000000001b2e .LASF114
C:\Users\liukai\AppData\Local\Temp\cclRrI3t.s:9305   .debug_str:0000000000003bd3 .LASF115
C:\Users\liukai\AppData\Local\Temp\cclRrI3t.s:10223  .debug_str:0000000000006ae7 .LASF116
C:\Users\liukai\AppData\Local\Temp\cclRrI3t.s:9221   .debug_str:00000000000037dd .LASF117
C:\Users\liukai\AppData\Local\Temp\cclRrI3t.s:9103   .debug_str:000000000000310c .LASF118
C:\Users\liukai\AppData\Local\Temp\cclRrI3t.s:8353   .debug_str:00000000000007ef .LASF119
C:\Users\liukai\AppData\Local\Temp\cclRrI3t.s:8775   .debug_str:0000000000001f4e .LASF120
C:\Users\liukai\AppData\Local\Temp\cclRrI3t.s:10263  .debug_str:0000000000006d95 .LASF121
C:\Users\liukai\AppData\Local\Temp\cclRrI3t.s:9211   .debug_str:000000000000374a .LASF122
C:\Users\liukai\AppData\Local\Temp\cclRrI3t.s:9027   .debug_str:0000000000002d83 .LASF123
C:\Users\liukai\AppData\Local\Temp\cclRrI3t.s:9935   .debug_str:0000000000005b2e .LASF124
C:\Users\liukai\AppData\Local\Temp\cclRrI3t.s:9915   .debug_str:0000000000005a3c .LASF125
C:\Users\liukai\AppData\Local\Temp\cclRrI3t.s:10407  .debug_str:00000000000075bc .LASF126
C:\Users\liukai\AppData\Local\Temp\cclRrI3t.s:9663   .debug_str:0000000000004db2 .LASF127
C:\Users\liukai\AppData\Local\Temp\cclRrI3t.s:10025  .debug_str:0000000000005ff2 .LASF128
C:\Users\liukai\AppData\Local\Temp\cclRrI3t.s:8541   .debug_str:00000000000011cf .LASF129
C:\Users\liukai\AppData\Local\Temp\cclRrI3t.s:8829   .debug_str:0000000000002263 .LASF130
C:\Users\liukai\AppData\Local\Temp\cclRrI3t.s:10419  .debug_str:000000000000762b .LASF131
C:\Users\liukai\AppData\Local\Temp\cclRrI3t.s:8615   .debug_str:0000000000001637 .LASF132
C:\Users\liukai\AppData\Local\Temp\cclRrI3t.s:8465   .debug_str:0000000000000e5f .LASF133
C:\Users\liukai\AppData\Local\Temp\cclRrI3t.s:8517   .debug_str:00000000000010b7 .LASF134
C:\Users\liukai\AppData\Local\Temp\cclRrI3t.s:8555   .debug_str:0000000000001289 .LASF135
C:\Users\liukai\AppData\Local\Temp\cclRrI3t.s:8691   .debug_str:0000000000001a63 .LASF136
C:\Users\liukai\AppData\Local\Temp\cclRrI3t.s:9939   .debug_str:0000000000005b73 .LASF137
C:\Users\liukai\AppData\Local\Temp\cclRrI3t.s:8563   .debug_str:00000000000012fb .LASF138
C:\Users\liukai\AppData\Local\Temp\cclRrI3t.s:9469   .debug_str:000000000000439c .LASF139
C:\Users\liukai\AppData\Local\Temp\cclRrI3t.s:8431   .debug_str:0000000000000ccd .LASF140
C:\Users\liukai\AppData\Local\Temp\cclRrI3t.s:9681   .debug_str:0000000000004ecd .LASF141
C:\Users\liukai\AppData\Local\Temp\cclRrI3t.s:9247   .debug_str:00000000000038b2 .LASF142
C:\Users\liukai\AppData\Local\Temp\cclRrI3t.s:9653   .debug_str:0000000000004d25 .LASF143
C:\Users\liukai\AppData\Local\Temp\cclRrI3t.s:9273   .debug_str:00000000000039d8 .LASF144
C:\Users\liukai\AppData\Local\Temp\cclRrI3t.s:9137   .debug_str:000000000000329b .LASF145
C:\Users\liukai\AppData\Local\Temp\cclRrI3t.s:9433   .debug_str:00000000000041f0 .LASF146
C:\Users\liukai\AppData\Local\Temp\cclRrI3t.s:9345   .debug_str:0000000000003ddd .LASF147
C:\Users\liukai\AppData\Local\Temp\cclRrI3t.s:9641   .debug_str:0000000000004ca7 .LASF148
C:\Users\liukai\AppData\Local\Temp\cclRrI3t.s:9619   .debug_str:0000000000004b92 .LASF149
C:\Users\liukai\AppData\Local\Temp\cclRrI3t.s:8733   .debug_str:0000000000001c17 .LASF150
C:\Users\liukai\AppData\Local\Temp\cclRrI3t.s:8695   .debug_str:0000000000001a8c .LASF151
C:\Users\liukai\AppData\Local\Temp\cclRrI3t.s:8817   .debug_str:000000000000219a .LASF152
C:\Users\liukai\AppData\Local\Temp\cclRrI3t.s:8737   .debug_str:0000000000001c3d .LASF153
C:\Users\liukai\AppData\Local\Temp\cclRrI3t.s:9657   .debug_str:0000000000004d50 .LASF154
C:\Users\liukai\AppData\Local\Temp\cclRrI3t.s:10537  .debug_str:0000000000007b74 .LASF155
C:\Users\liukai\AppData\Local\Temp\cclRrI3t.s:8971   .debug_str:0000000000002a16 .LASF156
C:\Users\liukai\AppData\Local\Temp\cclRrI3t.s:9793   .debug_str:0000000000005403 .LASF157
C:\Users\liukai\AppData\Local\Temp\cclRrI3t.s:8331   .debug_str:000000000000070b .LASF158
C:\Users\liukai\AppData\Local\Temp\cclRrI3t.s:8837   .debug_str:00000000000022fe .LASF159
C:\Users\liukai\AppData\Local\Temp\cclRrI3t.s:8765   .debug_str:0000000000001e9b .LASF160
C:\Users\liukai\AppData\Local\Temp\cclRrI3t.s:10690  .debug_str:00000000000085ef .LASF161
C:\Users\liukai\AppData\Local\Temp\cclRrI3t.s:10207  .debug_str:0000000000006a45 .LASF162
C:\Users\liukai\AppData\Local\Temp\cclRrI3t.s:9865   .debug_str:00000000000057f3 .LASF163
C:\Users\liukai\AppData\Local\Temp\cclRrI3t.s:10662  .debug_str:0000000000008480 .LASF164
C:\Users\liukai\AppData\Local\Temp\cclRrI3t.s:8857   .debug_str:0000000000002476 .LASF165
C:\Users\liukai\AppData\Local\Temp\cclRrI3t.s:8301   .debug_str:0000000000000561 .LASF166
C:\Users\liukai\AppData\Local\Temp\cclRrI3t.s:10317  .debug_str:0000000000007102 .LASF167
C:\Users\liukai\AppData\Local\Temp\cclRrI3t.s:9121   .debug_str:00000000000031db .LASF168
C:\Users\liukai\AppData\Local\Temp\cclRrI3t.s:10123  .debug_str:000000000000657b .LASF169
C:\Users\liukai\AppData\Local\Temp\cclRrI3t.s:9775   .debug_str:0000000000005307 .LASF170
C:\Users\liukai\AppData\Local\Temp\cclRrI3t.s:10666  .debug_str:00000000000084c1 .LASF171
C:\Users\liukai\AppData\Local\Temp\cclRrI3t.s:8985   .debug_str:0000000000002acb .LASF172
C:\Users\liukai\AppData\Local\Temp\cclRrI3t.s:10293  .debug_str:0000000000006f7b .LASF173
C:\Users\liukai\AppData\Local\Temp\cclRrI3t.s:10169  .debug_str:00000000000067fe .LASF174
C:\Users\liukai\AppData\Local\Temp\cclRrI3t.s:9807   .debug_str:00000000000054ea .LASF175
C:\Users\liukai\AppData\Local\Temp\cclRrI3t.s:10670  .debug_str:0000000000008512 .LASF176
C:\Users\liukai\AppData\Local\Temp\cclRrI3t.s:8843   .debug_str:0000000000002348 .LASF177
C:\Users\liukai\AppData\Local\Temp\cclRrI3t.s:10147  .debug_str:00000000000066c1 .LASF178
C:\Users\liukai\AppData\Local\Temp\cclRrI3t.s:8867   .debug_str:000000000000251a .LASF179
C:\Users\liukai\AppData\Local\Temp\cclRrI3t.s:8715   .debug_str:0000000000001b78 .LASF180
C:\Users\liukai\AppData\Local\Temp\cclRrI3t.s:8377   .debug_str:00000000000009da .LASF181
C:\Users\liukai\AppData\Local\Temp\cclRrI3t.s:8191   .debug_str:0000000000000017 .LASF182
C:\Users\liukai\AppData\Local\Temp\cclRrI3t.s:9905   .debug_str:0000000000005982 .LASF183
C:\Users\liukai\AppData\Local\Temp\cclRrI3t.s:10507  .debug_str:0000000000007a14 .LASF184
C:\Users\liukai\AppData\Local\Temp\cclRrI3t.s:10597  .debug_str:0000000000007ed0 .LASF185
C:\Users\liukai\AppData\Local\Temp\cclRrI3t.s:8671   .debug_str:00000000000018fb .LASF186
C:\Users\liukai\AppData\Local\Temp\cclRrI3t.s:9901   .debug_str:0000000000005965 .LASF187
C:\Users\liukai\AppData\Local\Temp\cclRrI3t.s:9087   .debug_str:000000000000302e .LASF188
C:\Users\liukai\AppData\Local\Temp\cclRrI3t.s:9447   .debug_str:0000000000004298 .LASF189
C:\Users\liukai\AppData\Local\Temp\cclRrI3t.s:9315   .debug_str:0000000000003c58 .LASF190
C:\Users\liukai\AppData\Local\Temp\cclRrI3t.s:9883   .debug_str:00000000000058ca .LASF191
C:\Users\liukai\AppData\Local\Temp\cclRrI3t.s:8437   .debug_str:0000000000000d11 .LASF192
C:\Users\liukai\AppData\Local\Temp\cclRrI3t.s:9779   .debug_str:0000000000005356 .LASF193
C:\Users\liukai\AppData\Local\Temp\cclRrI3t.s:8663   .debug_str:00000000000018bd .LASF194
C:\Users\liukai\AppData\Local\Temp\cclRrI3t.s:8417   .debug_str:0000000000000c1d .LASF195
C:\Users\liukai\AppData\Local\Temp\cclRrI3t.s:8337   .debug_str:0000000000000765 .LASF196
C:\Users\liukai\AppData\Local\Temp\cclRrI3t.s:9859   .debug_str:0000000000005766 .LASF197
C:\Users\liukai\AppData\Local\Temp\cclRrI3t.s:8411   .debug_str:0000000000000b98 .LASF198
C:\Users\liukai\AppData\Local\Temp\cclRrI3t.s:8813   .debug_str:000000000000213c .LASF199
C:\Users\liukai\AppData\Local\Temp\cclRrI3t.s:8753   .debug_str:0000000000001da8 .LASF200
C:\Users\liukai\AppData\Local\Temp\cclRrI3t.s:10409  .debug_str:00000000000075d9 .LASF201
C:\Users\liukai\AppData\Local\Temp\cclRrI3t.s:9435   .debug_str:0000000000004200 .LASF202
C:\Users\liukai\AppData\Local\Temp\cclRrI3t.s:9081   .debug_str:0000000000002fc8 .LASF203
C:\Users\liukai\AppData\Local\Temp\cclRrI3t.s:10297  .debug_str:0000000000006fb0 .LASF204
C:\Users\liukai\AppData\Local\Temp\cclRrI3t.s:10531  .debug_str:0000000000007b34 .LASF205
C:\Users\liukai\AppData\Local\Temp\cclRrI3t.s:8509   .debug_str:0000000000001023 .LASF206
C:\Users\liukai\AppData\Local\Temp\cclRrI3t.s:8457   .debug_str:0000000000000e15 .LASF207
C:\Users\liukai\AppData\Local\Temp\cclRrI3t.s:9479   .debug_str:000000000000441c .LASF208
C:\Users\liukai\AppData\Local\Temp\cclRrI3t.s:8795   .debug_str:000000000000209a .LASF209
C:\Users\liukai\AppData\Local\Temp\cclRrI3t.s:8263   .debug_str:000000000000034c .LASF210
C:\Users\liukai\AppData\Local\Temp\cclRrI3t.s:9947   .debug_str:0000000000005bfb .LASF211
C:\Users\liukai\AppData\Local\Temp\cclRrI3t.s:9367   .debug_str:0000000000003ec7 .LASF212
C:\Users\liukai\AppData\Local\Temp\cclRrI3t.s:10227  .debug_str:0000000000006b12 .LASF213
C:\Users\liukai\AppData\Local\Temp\cclRrI3t.s:10577  .debug_str:0000000000007db3 .LASF214
C:\Users\liukai\AppData\Local\Temp\cclRrI3t.s:9639   .debug_str:0000000000004c90 .LASF215
C:\Users\liukai\AppData\Local\Temp\cclRrI3t.s:9601   .debug_str:0000000000004ad2 .LASF216
C:\Users\liukai\AppData\Local\Temp\cclRrI3t.s:9621   .debug_str:0000000000004ba9 .LASF217
C:\Users\liukai\AppData\Local\Temp\cclRrI3t.s:10357  .debug_str:0000000000007344 .LASF218
C:\Users\liukai\AppData\Local\Temp\cclRrI3t.s:9853   .debug_str:00000000000056e9 .LASF219
C:\Users\liukai\AppData\Local\Temp\cclRrI3t.s:8637   .debug_str:000000000000175b .LASF220
C:\Users\liukai\AppData\Local\Temp\cclRrI3t.s:8205   .debug_str:000000000000009c .LASF221
C:\Users\liukai\AppData\Local\Temp\cclRrI3t.s:9005   .debug_str:0000000000002c11 .LASF222
C:\Users\liukai\AppData\Local\Temp\cclRrI3t.s:9679   .debug_str:0000000000004eb2 .LASF223
C:\Users\liukai\AppData\Local\Temp\cclRrI3t.s:8229   .debug_str:00000000000001dc .LASF224
C:\Users\liukai\AppData\Local\Temp\cclRrI3t.s:10439  .debug_str:00000000000076df .LASF225
C:\Users\liukai\AppData\Local\Temp\cclRrI3t.s:8897   .debug_str:0000000000002637 .LASF226
C:\Users\liukai\AppData\Local\Temp\cclRrI3t.s:9667   .debug_str:0000000000004dd5 .LASF227
C:\Users\liukai\AppData\Local\Temp\cclRrI3t.s:10191  .debug_str:000000000000694d .LASF228
C:\Users\liukai\AppData\Local\Temp\cclRrI3t.s:9401   .debug_str:0000000000004038 .LASF229
C:\Users\liukai\AppData\Local\Temp\cclRrI3t.s:9937   .debug_str:0000000000005b59 .LASF230
C:\Users\liukai\AppData\Local\Temp\cclRrI3t.s:8361   .debug_str:000000000000083b .LASF231
C:\Users\liukai\AppData\Local\Temp\cclRrI3t.s:10623  .debug_str:00000000000080b1 .LASF232
C:\Users\liukai\AppData\Local\Temp\cclRrI3t.s:10013  .debug_str:0000000000005f5b .LASF233
C:\Users\liukai\AppData\Local\Temp\cclRrI3t.s:9741   .debug_str:0000000000005193 .LASF234
C:\Users\liukai\AppData\Local\Temp\cclRrI3t.s:9381   .debug_str:0000000000003f80 .LASF235
C:\Users\liukai\AppData\Local\Temp\cclRrI3t.s:9207   .debug_str:000000000000370a .LASF236
C:\Users\liukai\AppData\Local\Temp\cclRrI3t.s:9091   .debug_str:000000000000305c .LASF237
C:\Users\liukai\AppData\Local\Temp\cclRrI3t.s:8617   .debug_str:000000000000165f .LASF238
C:\Users\liukai\AppData\Local\Temp\cclRrI3t.s:9637   .debug_str:0000000000004c52 .LASF239
C:\Users\liukai\AppData\Local\Temp\cclRrI3t.s:9909   .debug_str:00000000000059e7 .LASF240
C:\Users\liukai\AppData\Local\Temp\cclRrI3t.s:10159  .debug_str:0000000000006783 .LASF241
C:\Users\liukai\AppData\Local\Temp\cclRrI3t.s:8793   .debug_str:0000000000002055 .LASF242
C:\Users\liukai\AppData\Local\Temp\cclRrI3t.s:9343   .debug_str:0000000000003dc5 .LASF243
C:\Users\liukai\AppData\Local\Temp\cclRrI3t.s:8583   .debug_str:00000000000013b3 .LASF244
C:\Users\liukai\AppData\Local\Temp\cclRrI3t.s:8621   .debug_str:0000000000001683 .LASF245
C:\Users\liukai\AppData\Local\Temp\cclRrI3t.s:9327   .debug_str:0000000000003d13 .LASF246
C:\Users\liukai\AppData\Local\Temp\cclRrI3t.s:9571   .debug_str:00000000000048c2 .LASF247
C:\Users\liukai\AppData\Local\Temp\cclRrI3t.s:9881   .debug_str:00000000000058ae .LASF248
C:\Users\liukai\AppData\Local\Temp\cclRrI3t.s:9261   .debug_str:0000000000003971 .LASF249
C:\Users\liukai\AppData\Local\Temp\cclRrI3t.s:10283  .debug_str:0000000000006ef9 .LASF250
C:\Users\liukai\AppData\Local\Temp\cclRrI3t.s:8475   .debug_str:0000000000000ebc .LASF251
C:\Users\liukai\AppData\Local\Temp\cclRrI3t.s:8339   .debug_str:000000000000077d .LASF252
C:\Users\liukai\AppData\Local\Temp\cclRrI3t.s:8371   .debug_str:000000000000095f .LASF253
C:\Users\liukai\AppData\Local\Temp\cclRrI3t.s:10127  .debug_str:00000000000065d0 .LASF254
C:\Users\liukai\AppData\Local\Temp\cclRrI3t.s:8287   .debug_str:0000000000000483 .LASF255
C:\Users\liukai\AppData\Local\Temp\cclRrI3t.s:9863   .debug_str:00000000000057ad .LASF256
C:\Users\liukai\AppData\Local\Temp\cclRrI3t.s:8655   .debug_str:0000000000001872 .LASF257
C:\Users\liukai\AppData\Local\Temp\cclRrI3t.s:9115   .debug_str:000000000000318d .LASF258
C:\Users\liukai\AppData\Local\Temp\cclRrI3t.s:9851   .debug_str:00000000000056ce .LASF259
C:\Users\liukai\AppData\Local\Temp\cclRrI3t.s:9795   .debug_str:0000000000005441 .LASF260
C:\Users\liukai\AppData\Local\Temp\cclRrI3t.s:8945   .debug_str:00000000000028a2 .LASF261
C:\Users\liukai\AppData\Local\Temp\cclRrI3t.s:9269   .debug_str:00000000000039b9 .LASF262
C:\Users\liukai\AppData\Local\Temp\cclRrI3t.s:8315   .debug_str:0000000000000653 .LASF263
C:\Users\liukai\AppData\Local\Temp\cclRrI3t.s:8571   .debug_str:0000000000001342 .LASF264
C:\Users\liukai\AppData\Local\Temp\cclRrI3t.s:8521   .debug_str:00000000000010e0 .LASF265
C:\Users\liukai\AppData\Local\Temp\cclRrI3t.s:8257   .debug_str:00000000000002fe .LASF266
C:\Users\liukai\AppData\Local\Temp\cclRrI3t.s:9955   .debug_str:0000000000005c64 .LASF267
C:\Users\liukai\AppData\Local\Temp\cclRrI3t.s:9107   .debug_str:0000000000003143 .LASF268
C:\Users\liukai\AppData\Local\Temp\cclRrI3t.s:8327   .debug_str:00000000000006dc .LASF269
C:\Users\liukai\AppData\Local\Temp\cclRrI3t.s:10313  .debug_str:00000000000070da .LASF270
C:\Users\liukai\AppData\Local\Temp\cclRrI3t.s:8725   .debug_str:0000000000001bca .LASF271
C:\Users\liukai\AppData\Local\Temp\cclRrI3t.s:10533  .debug_str:0000000000007b45 .LASF272
C:\Users\liukai\AppData\Local\Temp\cclRrI3t.s:9149   .debug_str:000000000000334c .LASF273
C:\Users\liukai\AppData\Local\Temp\cclRrI3t.s:9727   .debug_str:000000000000512a .LASF274
C:\Users\liukai\AppData\Local\Temp\cclRrI3t.s:8627   .debug_str:00000000000016e7 .LASF275
C:\Users\liukai\AppData\Local\Temp\cclRrI3t.s:8823   .debug_str:00000000000021fb .LASF276
C:\Users\liukai\AppData\Local\Temp\cclRrI3t.s:10221  .debug_str:0000000000006ace .LASF277
C:\Users\liukai\AppData\Local\Temp\cclRrI3t.s:8821   .debug_str:00000000000021c1 .LASF278
C:\Users\liukai\AppData\Local\Temp\cclRrI3t.s:8207   .debug_str:00000000000000ba .LASF279
C:\Users\liukai\AppData\Local\Temp\cclRrI3t.s:10205  .debug_str:0000000000006a00 .LASF280
C:\Users\liukai\AppData\Local\Temp\cclRrI3t.s:10203  .debug_str:00000000000069eb .LASF281
C:\Users\liukai\AppData\Local\Temp\cclRrI3t.s:9579   .debug_str:0000000000004904 .LASF282
C:\Users\liukai\AppData\Local\Temp\cclRrI3t.s:10511  .debug_str:0000000000007a70 .LASF283
C:\Users\liukai\AppData\Local\Temp\cclRrI3t.s:8489   .debug_str:0000000000000f4e .LASF284
C:\Users\liukai\AppData\Local\Temp\cclRrI3t.s:8219   .debug_str:000000000000015f .LASF285
C:\Users\liukai\AppData\Local\Temp\cclRrI3t.s:8651   .debug_str:000000000000183f .LASF286
C:\Users\liukai\AppData\Local\Temp\cclRrI3t.s:9745   .debug_str:00000000000051c2 .LASF287
C:\Users\liukai\AppData\Local\Temp\cclRrI3t.s:9329   .debug_str:0000000000003d2b .LASF288
C:\Users\liukai\AppData\Local\Temp\cclRrI3t.s:8769   .debug_str:0000000000001ec9 .LASF289
C:\Users\liukai\AppData\Local\Temp\cclRrI3t.s:8213   .debug_str:00000000000000f6 .LASF290
C:\Users\liukai\AppData\Local\Temp\cclRrI3t.s:9037   .debug_str:0000000000002dd8 .LASF291
C:\Users\liukai\AppData\Local\Temp\cclRrI3t.s:10155  .debug_str:0000000000006760 .LASF292
C:\Users\liukai\AppData\Local\Temp\cclRrI3t.s:9105   .debug_str:0000000000003125 .LASF293
C:\Users\liukai\AppData\Local\Temp\cclRrI3t.s:9471   .debug_str:00000000000043b0 .LASF294
C:\Users\liukai\AppData\Local\Temp\cclRrI3t.s:10365  .debug_str:00000000000073d2 .LASF295
C:\Users\liukai\AppData\Local\Temp\cclRrI3t.s:8549   .debug_str:0000000000001247 .LASF296
C:\Users\liukai\AppData\Local\Temp\cclRrI3t.s:9237   .debug_str:0000000000003864 .LASF297
C:\Users\liukai\AppData\Local\Temp\cclRrI3t.s:8899   .debug_str:0000000000002676 .LASF298
C:\Users\liukai\AppData\Local\Temp\cclRrI3t.s:9507   .debug_str:0000000000004550 .LASF299
C:\Users\liukai\AppData\Local\Temp\cclRrI3t.s:10393  .debug_str:0000000000007510 .LASF300
C:\Users\liukai\AppData\Local\Temp\cclRrI3t.s:9687   .debug_str:0000000000004f0a .LASF301
C:\Users\liukai\AppData\Local\Temp\cclRrI3t.s:8203   .debug_str:0000000000000092 .LASF302
C:\Users\liukai\AppData\Local\Temp\cclRrI3t.s:10567  .debug_str:0000000000007cff .LASF303
C:\Users\liukai\AppData\Local\Temp\cclRrI3t.s:8773   .debug_str:0000000000001f40 .LASF304
C:\Users\liukai\AppData\Local\Temp\cclRrI3t.s:8729   .debug_str:0000000000001bfd .LASF305
C:\Users\liukai\AppData\Local\Temp\cclRrI3t.s:8279   .debug_str:000000000000041f .LASF306
C:\Users\liukai\AppData\Local\Temp\cclRrI3t.s:10039  .debug_str:0000000000006077 .LASF307
C:\Users\liukai\AppData\Local\Temp\cclRrI3t.s:10037  .debug_str:000000000000605e .LASF308
C:\Users\liukai\AppData\Local\Temp\cclRrI3t.s:8503   .debug_str:0000000000000fd5 .LASF309
C:\Users\liukai\AppData\Local\Temp\cclRrI3t.s:8225   .debug_str:00000000000001a2 .LASF310
C:\Users\liukai\AppData\Local\Temp\cclRrI3t.s:8391   .debug_str:0000000000000a9c .LASF312
C:\Users\liukai\AppData\Local\Temp\cclRrI3t.s:9993   .debug_str:0000000000005e55 .LASF313
C:\Users\liukai\AppData\Local\Temp\cclRrI3t.s:10551  .debug_str:0000000000007c76 .LASF314
C:\Users\liukai\AppData\Local\Temp\cclRrI3t.s:8731   .debug_str:0000000000001c0b .LASF315
C:\Users\liukai\AppData\Local\Temp\cclRrI3t.s:10521  .debug_str:0000000000007ad7 .LASF316
C:\Users\liukai\AppData\Local\Temp\cclRrI3t.s:9419   .debug_str:0000000000004160 .LASF321
C:\Users\liukai\AppData\Local\Temp\cclRrI3t.s:9143   .debug_str:00000000000032f3 .LASF322
C:\Users\liukai\AppData\Local\Temp\cclRrI3t.s:8727   .debug_str:0000000000001bf0 .LASF323
C:\Users\liukai\AppData\Local\Temp\cclRrI3t.s:9615   .debug_str:0000000000004b77 .LASF324
C:\Users\liukai\AppData\Local\Temp\cclRrI3t.s:9943   .debug_str:0000000000005bb0 .LASF325
C:\Users\liukai\AppData\Local\Temp\cclRrI3t.s:8599   .debug_str:0000000000001531 .LASF326
C:\Users\liukai\AppData\Local\Temp\cclRrI3t.s:10373  .debug_str:000000000000742f .LASF327
C:\Users\liukai\AppData\Local\Temp\cclRrI3t.s:10453  .debug_str:00000000000077aa .LASF328
C:\Users\liukai\AppData\Local\Temp\cclRrI3t.s:9313   .debug_str:0000000000003c46 .LASF329
C:\Users\liukai\AppData\Local\Temp\cclRrI3t.s:9255   .debug_str:0000000000003923 .LASF330
C:\Users\liukai\AppData\Local\Temp\cclRrI3t.s:10505  .debug_str:0000000000007a04 .LASF331
C:\Users\liukai\AppData\Local\Temp\cclRrI3t.s:10686  .debug_str:00000000000085b9 .LASF332
C:\Users\liukai\AppData\Local\Temp\cclRrI3t.s:8687   .debug_str:0000000000001a28 .LASF333
C:\Users\liukai\AppData\Local\Temp\cclRrI3t.s:9181   .debug_str:0000000000003570 .LASF334
C:\Users\liukai\AppData\Local\Temp\cclRrI3t.s:9553   .debug_str:00000000000047e2 .LASF335
C:\Users\liukai\AppData\Local\Temp\cclRrI3t.s:9747   .debug_str:00000000000051e0 .LASF336
C:\Users\liukai\AppData\Local\Temp\cclRrI3t.s:9513   .debug_str:0000000000004589 .LASF337
C:\Users\liukai\AppData\Local\Temp\cclRrI3t.s:9975   .debug_str:0000000000005d6d .LASF338
C:\Users\liukai\AppData\Local\Temp\cclRrI3t.s:9785   .debug_str:00000000000053a8 .LASF339
C:\Users\liukai\AppData\Local\Temp\cclRrI3t.s:10327  .debug_str:0000000000007184 .LASF340
C:\Users\liukai\AppData\Local\Temp\cclRrI3t.s:9075   .debug_str:0000000000002f82 .LASF341
C:\Users\liukai\AppData\Local\Temp\cclRrI3t.s:8311   .debug_str:00000000000005d9 .LASF342
C:\Users\liukai\AppData\Local\Temp\cclRrI3t.s:8199   .debug_str:000000000000006e .LASF343
C:\Users\liukai\AppData\Local\Temp\cclRrI3t.s:10355  .debug_str:0000000000007334 .LASF344
C:\Users\liukai\AppData\Local\Temp\cclRrI3t.s:9363   .debug_str:0000000000003ea9 .LASF345
C:\Users\liukai\AppData\Local\Temp\cclRrI3t.s:9557   .debug_str:000000000000480f .LASF346
C:\Users\liukai\AppData\Local\Temp\cclRrI3t.s:10027  .debug_str:0000000000006010 .LASF347
C:\Users\liukai\AppData\Local\Temp\cclRrI3t.s:10321  .debug_str:0000000000007121 .LASF348
C:\Users\liukai\AppData\Local\Temp\cclRrI3t.s:9239   .debug_str:0000000000003880 .LASF349
C:\Users\liukai\AppData\Local\Temp\cclRrI3t.s:8969   .debug_str:0000000000002a01 .LASF350
C:\Users\liukai\AppData\Local\Temp\cclRrI3t.s:9491   .debug_str:00000000000044ab .LASF351
C:\Users\liukai\AppData\Local\Temp\cclRrI3t.s:8653   .debug_str:000000000000185d .LASF352
C:\Users\liukai\AppData\Local\Temp\cclRrI3t.s:9695   .debug_str:0000000000004f95 .LASF353
C:\Users\liukai\AppData\Local\Temp\cclRrI3t.s:8625   .debug_str:00000000000016cc .LASF354
C:\Users\liukai\AppData\Local\Temp\cclRrI3t.s:9161   .debug_str:000000000000348e .LASF355
C:\Users\liukai\AppData\Local\Temp\cclRrI3t.s:9535   .debug_str:0000000000004739 .LASF356
C:\Users\liukai\AppData\Local\Temp\cclRrI3t.s:8535   .debug_str:00000000000011a8 .LASF357
C:\Users\liukai\AppData\Local\Temp\cclRrI3t.s:10491  .debug_str:0000000000007963 .LASF358
C:\Users\liukai\AppData\Local\Temp\cclRrI3t.s:9555   .debug_str:00000000000047f3 .LASF359
C:\Users\liukai\AppData\Local\Temp\cclRrI3t.s:9245   .debug_str:00000000000038ab .LASF360
C:\Users\liukai\AppData\Local\Temp\cclRrI3t.s:10243  .debug_str:0000000000006cad .LASF361
C:\Users\liukai\AppData\Local\Temp\cclRrI3t.s:10157  .debug_str:000000000000677d .LASF363
C:\Users\liukai\AppData\Local\Temp\cclRrI3t.s:10672  .debug_str:0000000000008522 .LASF364
C:\Users\liukai\AppData\Local\Temp\cclRrI3t.s:9839   .debug_str:000000000000561d .LASF365
C:\Users\liukai\AppData\Local\Temp\cclRrI3t.s:10405  .debug_str:00000000000075b2 .LASF366
C:\Users\liukai\AppData\Local\Temp\cclRrI3t.s:9341   .debug_str:0000000000003db9 .LASF367
C:\Users\liukai\AppData\Local\Temp\cclRrI3t.s:10195  .debug_str:00000000000069a6 .LASF368
C:\Users\liukai\AppData\Local\Temp\cclRrI3t.s:10639  .debug_str:0000000000008148 .LASF369
C:\Users\liukai\AppData\Local\Temp\cclRrI3t.s:9369   .debug_str:0000000000003f03 .LASF370
C:\Users\liukai\AppData\Local\Temp\cclRrI3t.s:9277   .debug_str:0000000000003a01 .LASF371
C:\Users\liukai\AppData\Local\Temp\cclRrI3t.s:10603  .debug_str:0000000000007f5a .LASF372
C:\Users\liukai\AppData\Local\Temp\cclRrI3t.s:9205   .debug_str:00000000000036fa .LASF373
C:\Users\liukai\AppData\Local\Temp\cclRrI3t.s:10579  .debug_str:0000000000007df6 .LASF374
C:\Users\liukai\AppData\Local\Temp\cclRrI3t.s:8375   .debug_str:00000000000009ce .LASF375
C:\Users\liukai\AppData\Local\Temp\cclRrI3t.s:9665   .debug_str:0000000000004dc9 .LASF376
C:\Users\liukai\AppData\Local\Temp\cclRrI3t.s:10435  .debug_str:00000000000076bf .LASF377
C:\Users\liukai\AppData\Local\Temp\cclRrI3t.s:8547   .debug_str:000000000000123a .LASF378
C:\Users\liukai\AppData\Local\Temp\cclRrI3t.s:10351  .debug_str:00000000000072f0 .LASF379
C:\Users\liukai\AppData\Local\Temp\cclRrI3t.s:8719   .debug_str:0000000000001ba6 .LASF380
C:\Users\liukai\AppData\Local\Temp\cclRrI3t.s:10367  .debug_str:00000000000073f6 .LASF381
C:\Users\liukai\AppData\Local\Temp\cclRrI3t.s:9337   .debug_str:0000000000003d98 .LASF382
C:\Users\liukai\AppData\Local\Temp\cclRrI3t.s:9007   .debug_str:0000000000002c2a .LASF383
C:\Users\liukai\AppData\Local\Temp\cclRrI3t.s:10271  .debug_str:0000000000006e1a .LASF384
C:\Users\liukai\AppData\Local\Temp\cclRrI3t.s:8545   .debug_str:000000000000122c .LASF385
C:\Users\liukai\AppData\Local\Temp\cclRrI3t.s:9813   .debug_str:000000000000553f .LASF386
C:\Users\liukai\AppData\Local\Temp\cclRrI3t.s:8505   .debug_str:0000000000000fed .LASF387
C:\Users\liukai\AppData\Local\Temp\cclRrI3t.s:10475  .debug_str:00000000000078ca .LASF388
C:\Users\liukai\AppData\Local\Temp\cclRrI3t.s:8741   .debug_str:0000000000001c60 .LASF389
C:\Users\liukai\AppData\Local\Temp\cclRrI3t.s:8983   .debug_str:0000000000002ab8 .LASF390
C:\Users\liukai\AppData\Local\Temp\cclRrI3t.s:9123   .debug_str:000000000000321d .LASF391
C:\Users\liukai\AppData\Local\Temp\cclRrI3t.s:10209  .debug_str:0000000000006a54 .LASF392
C:\Users\liukai\AppData\Local\Temp\cclRrI3t.s:9379   .debug_str:0000000000003f6c .LASF393
C:\Users\liukai\AppData\Local\Temp\cclRrI3t.s:9361   .debug_str:0000000000003e96 .LASF394
C:\Users\liukai\AppData\Local\Temp\cclRrI3t.s:8249   .debug_str:00000000000002b0 .LASF395
C:\Users\liukai\AppData\Local\Temp\cclRrI3t.s:8609   .debug_str:00000000000015fd .LASF396
C:\Users\liukai\AppData\Local\Temp\cclRrI3t.s:10627  .debug_str:00000000000080db .LASF397
C:\Users\liukai\AppData\Local\Temp\cclRrI3t.s:8679   .debug_str:00000000000019d0 .LASF398
C:\Users\liukai\AppData\Local\Temp\cclRrI3t.s:10337  .debug_str:00000000000071fe .LASF399
C:\Users\liukai\AppData\Local\Temp\cclRrI3t.s:10005  .debug_str:0000000000005ee4 .LASF400
C:\Users\liukai\AppData\Local\Temp\cclRrI3t.s:9995   .debug_str:0000000000005e62 .LASF401
C:\Users\liukai\AppData\Local\Temp\cclRrI3t.s:8577   .debug_str:0000000000001374 .LASF402
C:\Users\liukai\AppData\Local\Temp\cclRrI3t.s:10045  .debug_str:00000000000060b7 .LASF403
C:\Users\liukai\AppData\Local\Temp\cclRrI3t.s:10601  .debug_str:0000000000007f41 .LASF404
C:\Users\liukai\AppData\Local\Temp\cclRrI3t.s:9049   .debug_str:0000000000002e4e .LASF405
C:\Users\liukai\AppData\Local\Temp\cclRrI3t.s:9169   .debug_str:00000000000034f9 .LASF406
C:\Users\liukai\AppData\Local\Temp\cclRrI3t.s:9135   .debug_str:0000000000003281 .LASF407
C:\Users\liukai\AppData\Local\Temp\cclRrI3t.s:9709   .debug_str:0000000000005035 .LASF408
C:\Users\liukai\AppData\Local\Temp\cclRrI3t.s:9589   .debug_str:0000000000004a46 .LASF409
C:\Users\liukai\AppData\Local\Temp\cclRrI3t.s:8463   .debug_str:0000000000000e46 .LASF410
C:\Users\liukai\AppData\Local\Temp\cclRrI3t.s:8863   .debug_str:00000000000024f5 .LASF411
C:\Users\liukai\AppData\Local\Temp\cclRrI3t.s:10680  .debug_str:000000000000856e .LASF412
C:\Users\liukai\AppData\Local\Temp\cclRrI3t.s:10275  .debug_str:0000000000006e87 .LASF413
C:\Users\liukai\AppData\Local\Temp\cclRrI3t.s:8661   .debug_str:000000000000189f .LASF414
C:\Users\liukai\AppData\Local\Temp\cclRrI3t.s:8491   .debug_str:0000000000000f5e .LASF415
C:\Users\liukai\AppData\Local\Temp\cclRrI3t.s:8403   .debug_str:0000000000000b55 .LASF416
C:\Users\liukai\AppData\Local\Temp\cclRrI3t.s:10593  .debug_str:0000000000007e9d .LASF417
C:\Users\liukai\AppData\Local\Temp\cclRrI3t.s:8247   .debug_str:0000000000000287 .LASF418
C:\Users\liukai\AppData\Local\Temp\cclRrI3t.s:8531   .debug_str:0000000000001156 .LASF419
C:\Users\liukai\AppData\Local\Temp\cclRrI3t.s:10137  .debug_str:0000000000006640 .LASF420
C:\Users\liukai\AppData\Local\Temp\cclRrI3t.s:9787   .debug_str:00000000000053bd .LASF421
C:\Users\liukai\AppData\Local\Temp\cclRrI3t.s:8451   .debug_str:0000000000000dbb .LASF422
C:\Users\liukai\AppData\Local\Temp\cclRrI3t.s:9505   .debug_str:0000000000004534 .LASF423
C:\Users\liukai\AppData\Local\Temp\cclRrI3t.s:9515   .debug_str:0000000000004599 .LASF424
C:\Users\liukai\AppData\Local\Temp\cclRrI3t.s:8379   .debug_str:00000000000009ed .LASF425
C:\Users\liukai\AppData\Local\Temp\cclRrI3t.s:9025   .debug_str:0000000000002d5b .LASF426
C:\Users\liukai\AppData\Local\Temp\cclRrI3t.s:9197   .debug_str:00000000000036a5 .LASF427
C:\Users\liukai\AppData\Local\Temp\cclRrI3t.s:8995   .debug_str:0000000000002b74 .LASF428
C:\Users\liukai\AppData\Local\Temp\cclRrI3t.s:9439   .debug_str:0000000000004251 .LASF429
C:\Users\liukai\AppData\Local\Temp\cclRrI3t.s:9057   .debug_str:0000000000002ed0 .LASF430
C:\Users\liukai\AppData\Local\Temp\cclRrI3t.s:9053   .debug_str:0000000000002e72 .LASF431
C:\Users\liukai\AppData\Local\Temp\cclRrI3t.s:10185  .debug_str:00000000000068eb .LASF432
C:\Users\liukai\AppData\Local\Temp\cclRrI3t.s:10281  .debug_str:0000000000006eda .LASF433
C:\Users\liukai\AppData\Local\Temp\cclRrI3t.s:9607   .debug_str:0000000000004b22 .LASF434
C:\Users\liukai\AppData\Local\Temp\cclRrI3t.s:9609   .debug_str:0000000000004b3c .LASF435
C:\Users\liukai\AppData\Local\Temp\cclRrI3t.s:8557   .debug_str:00000000000012a9 .LASF436
C:\Users\liukai\AppData\Local\Temp\cclRrI3t.s:8507   .debug_str:0000000000000ffd .LASF437
C:\Users\liukai\AppData\Local\Temp\cclRrI3t.s:9959   .debug_str:0000000000005c91 .LASF438
C:\Users\liukai\AppData\Local\Temp\cclRrI3t.s:10664  .debug_str:000000000000849a .LASF439
C:\Users\liukai\AppData\Local\Temp\cclRrI3t.s:8851   .debug_str:00000000000023f2 .LASF440
C:\Users\liukai\AppData\Local\Temp\cclRrI3t.s:9631   .debug_str:0000000000004c1d .LASF441
C:\Users\liukai\AppData\Local\Temp\cclRrI3t.s:9183   .debug_str:000000000000357f .LASF442
C:\Users\liukai\AppData\Local\Temp\cclRrI3t.s:8383   .debug_str:0000000000000a27 .LASF443
C:\Users\liukai\AppData\Local\Temp\cclRrI3t.s:10175  .debug_str:000000000000685a .LASF444
C:\Users\liukai\AppData\Local\Temp\cclRrI3t.s:8585   .debug_str:00000000000013cd .LASF445
C:\Users\liukai\AppData\Local\Temp\cclRrI3t.s:10674  .debug_str:000000000000852a .LASF446
C:\Users\liukai\AppData\Local\Temp\cclRrI3t.s:8277   .debug_str:00000000000003f9 .LASF447
C:\Users\liukai\AppData\Local\Temp\cclRrI3t.s:8647   .debug_str:0000000000001807 .LASF448
C:\Users\liukai\AppData\Local\Temp\cclRrI3t.s:10501  .debug_str:00000000000079bb .LASF449
C:\Users\liukai\AppData\Local\Temp\cclRrI3t.s:9461   .debug_str:0000000000004331 .LASF450
C:\Users\liukai\AppData\Local\Temp\cclRrI3t.s:8993   .debug_str:0000000000002b58 .LASF451
C:\Users\liukai\AppData\Local\Temp\cclRrI3t.s:8749   .debug_str:0000000000001d72 .LASF452
C:\Users\liukai\AppData\Local\Temp\cclRrI3t.s:9353   .debug_str:0000000000003e38 .LASF453
C:\Users\liukai\AppData\Local\Temp\cclRrI3t.s:8307   .debug_str:00000000000005a0 .LASF454
C:\Users\liukai\AppData\Local\Temp\cclRrI3t.s:9117   .debug_str:00000000000031a7 .LASF455
C:\Users\liukai\AppData\Local\Temp\cclRrI3t.s:8935   .debug_str:0000000000002814 .LASF456
C:\Users\liukai\AppData\Local\Temp\cclRrI3t.s:8413   .debug_str:0000000000000bd3 .LASF457
C:\Users\liukai\AppData\Local\Temp\cclRrI3t.s:8907   .debug_str:00000000000026c3 .LASF458
C:\Users\liukai\AppData\Local\Temp\cclRrI3t.s:8761   .debug_str:0000000000001e43 .LASF459
C:\Users\liukai\AppData\Local\Temp\cclRrI3t.s:9413   .debug_str:0000000000004108 .LASF460
C:\Users\liukai\AppData\Local\Temp\cclRrI3t.s:9457   .debug_str:00000000000042f7 .LASF461
C:\Users\liukai\AppData\Local\Temp\cclRrI3t.s:8193   .debug_str:000000000000002f .LASF462
C:\Users\liukai\AppData\Local\Temp\cclRrI3t.s:9279   .debug_str:0000000000003a08 .LASF463
C:\Users\liukai\AppData\Local\Temp\cclRrI3t.s:10311  .debug_str:00000000000070c2 .LASF464
C:\Users\liukai\AppData\Local\Temp\cclRrI3t.s:8469   .debug_str:0000000000000e89 .LASF465
C:\Users\liukai\AppData\Local\Temp\cclRrI3t.s:10485  .debug_str:000000000000793a .LASF466
C:\Users\liukai\AppData\Local\Temp\cclRrI3t.s:10173  .debug_str:0000000000006842 .LASF467
C:\Users\liukai\AppData\Local\Temp\cclRrI3t.s:9623   .debug_str:0000000000004bc3 .LASF468
C:\Users\liukai\AppData\Local\Temp\cclRrI3t.s:9179   .debug_str:0000000000003558 .LASF469
C:\Users\liukai\AppData\Local\Temp\cclRrI3t.s:10133  .debug_str:0000000000006620 .LASF470
C:\Users\liukai\AppData\Local\Temp\cclRrI3t.s:9223   .debug_str:00000000000037f6 .LASF471
C:\Users\liukai\AppData\Local\Temp\cclRrI3t.s:9891   .debug_str:0000000000005918 .LASF472
C:\Users\liukai\AppData\Local\Temp\cclRrI3t.s:8539   .debug_str:00000000000011c0 .LASF475
C:\Users\liukai\AppData\Local\Temp\cclRrI3t.s:9577   .debug_str:00000000000048ed .LASF476
C:\Users\liukai\AppData\Local\Temp\cclRrI3t.s:8579   .debug_str:0000000000001388 .LASF477
C:\Users\liukai\AppData\Local\Temp\cclRrI3t.s:10341  .debug_str:0000000000007227 .LASF478
C:\Users\liukai\AppData\Local\Temp\cclRrI3t.s:10219  .debug_str:0000000000006ab7 .LASF479
C:\Users\liukai\AppData\Local\Temp\cclRrI3t.s:8991   .debug_str:0000000000002b4a .LASF480
C:\Users\liukai\AppData\Local\Temp\cclRrI3t.s:10225  .debug_str:0000000000006afc .LASF481
C:\Users\liukai\AppData\Local\Temp\cclRrI3t.s:8757   .debug_str:0000000000001df9 .LASF482
C:\Users\liukai\AppData\Local\Temp\cclRrI3t.s:9495   .debug_str:00000000000044cf .LASF483
C:\Users\liukai\AppData\Local\Temp\cclRrI3t.s:9645   .debug_str:0000000000004cdd .LASF484
C:\Users\liukai\AppData\Local\Temp\cclRrI3t.s:9835   .debug_str:00000000000055fb .LASF485
C:\Users\liukai\AppData\Local\Temp\cclRrI3t.s:10411  .debug_str:00000000000075f0 .LASF486
C:\Users\liukai\AppData\Local\Temp\cclRrI3t.s:10397  .debug_str:0000000000007529 .LASF487
C:\Users\liukai\AppData\Local\Temp\cclRrI3t.s:10299  .debug_str:0000000000006fc6 .LASF488
C:\Users\liukai\AppData\Local\Temp\cclRrI3t.s:9739   .debug_str:000000000000517d .LASF490
C:\Users\liukai\AppData\Local\Temp\cclRrI3t.s:9715   .debug_str:0000000000005065 .LASF491
C:\Users\liukai\AppData\Local\Temp\cclRrI3t.s:9085   .debug_str:0000000000003006 .LASF492
C:\Users\liukai\AppData\Local\Temp\cclRrI3t.s:10265  .debug_str:0000000000006da5 .LASF493
C:\Users\liukai\AppData\Local\Temp\cclRrI3t.s:8385   .debug_str:0000000000000a4b .LASF494
C:\Users\liukai\AppData\Local\Temp\cclRrI3t.s:8553   .debug_str:000000000000127e .LASF495
C:\Users\liukai\AppData\Local\Temp\cclRrI3t.s:8551   .debug_str:0000000000001268 .LASF496
C:\Users\liukai\AppData\Local\Temp\cclRrI3t.s:9711   .debug_str:000000000000504d .LASF497
C:\Users\liukai\AppData\Local\Temp\cclRrI3t.s:10047  .debug_str:00000000000060cc .LASF498
C:\Users\liukai\AppData\Local\Temp\cclRrI3t.s:8703   .debug_str:0000000000001aeb .LASF499
C:\Users\liukai\AppData\Local\Temp\cclRrI3t.s:9755   .debug_str:0000000000005245 .LASF500
C:\Users\liukai\AppData\Local\Temp\cclRrI3t.s:9015   .debug_str:0000000000002cda .LASF501
C:\Users\liukai\AppData\Local\Temp\cclRrI3t.s:8519   .debug_str:00000000000010d6 .LASF502
C:\Users\liukai\AppData\Local\Temp\cclRrI3t.s:8245   .debug_str:000000000000026e .LASF503
C:\Users\liukai\AppData\Local\Temp\cclRrI3t.s:10289  .debug_str:0000000000006f39 .LASF504
C:\Users\liukai\AppData\Local\Temp\cclRrI3t.s:9067   .debug_str:0000000000002f3d .LASF505
C:\Users\liukai\AppData\Local\Temp\cclRrI3t.s:8631   .debug_str:0000000000001719 .LASF506
C:\Users\liukai\AppData\Local\Temp\cclRrI3t.s:10177  .debug_str:0000000000006880 .LASF507
C:\Users\liukai\AppData\Local\Temp\cclRrI3t.s:9773   .debug_str:00000000000052fe .LASF508
C:\Users\liukai\AppData\Local\Temp\cclRrI3t.s:8929   .debug_str:00000000000027e3 .LASF509
C:\Users\liukai\AppData\Local\Temp\cclRrI3t.s:9311   .debug_str:0000000000003c39 .LASF510
C:\Users\liukai\AppData\Local\Temp\cclRrI3t.s:8635   .debug_str:000000000000174f .LASF512
C:\Users\liukai\AppData\Local\Temp\cclRrI3t.s:8409   .debug_str:0000000000000b8c .LASF513
C:\Users\liukai\AppData\Local\Temp\cclRrI3t.s:9815   .debug_str:000000000000554e .LASF514
C:\Users\liukai\AppData\Local\Temp\cclRrI3t.s:8587   .debug_str:00000000000013f6 .LASF515
C:\Users\liukai\AppData\Local\Temp\cclRrI3t.s:9271   .debug_str:00000000000039ce .LASF516
C:\Users\liukai\AppData\Local\Temp\cclRrI3t.s:8477   .debug_str:0000000000000ed7 .LASF517
C:\Users\liukai\AppData\Local\Temp\cclRrI3t.s:9867   .debug_str:000000000000580b .LASF518
C:\Users\liukai\AppData\Local\Temp\cclRrI3t.s:9427   .debug_str:00000000000041c4 .LASF519
C:\Users\liukai\AppData\Local\Temp\cclRrI3t.s:10081  .debug_str:0000000000006374 .LASF520
C:\Users\liukai\AppData\Local\Temp\cclRrI3t.s:9613   .debug_str:0000000000004b65 .LASF521
C:\Users\liukai\AppData\Local\Temp\cclRrI3t.s:9971   .debug_str:0000000000005d43 .LASF522
C:\Users\liukai\AppData\Local\Temp\cclRrI3t.s:8801   .debug_str:00000000000020e8 .LASF523
C:\Users\liukai\AppData\Local\Temp\cclRrI3t.s:8681   .debug_str:00000000000019e4 .LASF524
C:\Users\liukai\AppData\Local\Temp\cclRrI3t.s:8807   .debug_str:0000000000002112 .LASF525
C:\Users\liukai\AppData\Local\Temp\cclRrI3t.s:10457  .debug_str:00000000000077d8 .LASF526
C:\Users\liukai\AppData\Local\Temp\cclRrI3t.s:10167  .debug_str:00000000000067f5 .LASF527
C:\Users\liukai\AppData\Local\Temp\cclRrI3t.s:8459   .debug_str:0000000000000e31 .LASF528
C:\Users\liukai\AppData\Local\Temp\cclRrI3t.s:9423   .debug_str:00000000000041ab .LASF529
C:\Users\liukai\AppData\Local\Temp\cclRrI3t.s:8885   .debug_str:00000000000025f5 .LASF530
C:\Users\liukai\AppData\Local\Temp\cclRrI3t.s:9151   .debug_str:000000000000337d .LASF531
C:\Users\liukai\AppData\Local\Temp\cclRrI3t.s:9163   .debug_str:00000000000034a9 .LASF532
C:\Users\liukai\AppData\Local\Temp\cclRrI3t.s:8819   .debug_str:00000000000021b0 .LASF533
C:\Users\liukai\AppData\Local\Temp\cclRrI3t.s:9953   .debug_str:0000000000005c57 .LASF534
C:\Users\liukai\AppData\Local\Temp\cclRrI3t.s:9541   .debug_str:0000000000004773 .LASF535
C:\Users\liukai\AppData\Local\Temp\cclRrI3t.s:10111  .debug_str:00000000000064ee .LASF536
C:\Users\liukai\AppData\Local\Temp\cclRrI3t.s:8755   .debug_str:0000000000001dea .LASF537
C:\Users\liukai\AppData\Local\Temp\cclRrI3t.s:10543  .debug_str:0000000000007bdb .LASF538
C:\Users\liukai\AppData\Local\Temp\cclRrI3t.s:9125   .debug_str:0000000000003230 .LASF539
C:\Users\liukai\AppData\Local\Temp\cclRrI3t.s:9039   .debug_str:0000000000002df7 .LASF540
C:\Users\liukai\AppData\Local\Temp\cclRrI3t.s:8799   .debug_str:00000000000020c5 .LASF541
C:\Users\liukai\AppData\Local\Temp\cclRrI3t.s:10329  .debug_str:000000000000719a .LASF542
C:\Users\liukai\AppData\Local\Temp\cclRrI3t.s:8461   .debug_str:0000000000000e3b .LASF543
C:\Users\liukai\AppData\Local\Temp\cclRrI3t.s:10692  .debug_str:0000000000008603 .LASF544
C:\Users\liukai\AppData\Local\Temp\cclRrI3t.s:9489   .debug_str:000000000000449f .LASF545
C:\Users\liukai\AppData\Local\Temp\cclRrI3t.s:8523   .debug_str:00000000000010f9 .LASF546
C:\Users\liukai\AppData\Local\Temp\cclRrI3t.s:8975   .debug_str:0000000000002a63 .LASF547
C:\Users\liukai\AppData\Local\Temp\cclRrI3t.s:10251  .debug_str:0000000000006cf1 .LASF548
C:\Users\liukai\AppData\Local\Temp\cclRrI3t.s:9913   .debug_str:0000000000005a2d .LASF549
C:\Users\liukai\AppData\Local\Temp\cclRrI3t.s:9299   .debug_str:0000000000003b91 .LASF550
C:\Users\liukai\AppData\Local\Temp\cclRrI3t.s:10403  .debug_str:00000000000075a1 .LASF551
C:\Users\liukai\AppData\Local\Temp\cclRrI3t.s:10445  .debug_str:0000000000007747 .LASF552
C:\Users\liukai\AppData\Local\Temp\cclRrI3t.s:8289   .debug_str:00000000000004c4 .LASF553
C:\Users\liukai\AppData\Local\Temp\cclRrI3t.s:10261  .debug_str:0000000000006d7d .LASF554
C:\Users\liukai\AppData\Local\Temp\cclRrI3t.s:8189   .debug_str:0000000000000000 .LASF555
C:\Users\liukai\AppData\Local\Temp\cclRrI3t.s:8965   .debug_str:00000000000029cb .LASF556
C:\Users\liukai\AppData\Local\Temp\cclRrI3t.s:8565   .debug_str:0000000000001315 .LASF557
C:\Users\liukai\AppData\Local\Temp\cclRrI3t.s:9847   .debug_str:0000000000005699 .LASF558
C:\Users\liukai\AppData\Local\Temp\cclRrI3t.s:8429   .debug_str:0000000000000cb1 .LASF559
C:\Users\liukai\AppData\Local\Temp\cclRrI3t.s:10427  .debug_str:000000000000766b .LASF560
C:\Users\liukai\AppData\Local\Temp\cclRrI3t.s:9917   .debug_str:0000000000005a53 .LASF561
C:\Users\liukai\AppData\Local\Temp\cclRrI3t.s:10573  .debug_str:0000000000007d40 .LASF562
C:\Users\liukai\AppData\Local\Temp\cclRrI3t.s:10455  .debug_str:00000000000077ba .LASF563
C:\Users\liukai\AppData\Local\Temp\cclRrI3t.s:8815   .debug_str:000000000000217a .LASF564
C:\Users\liukai\AppData\Local\Temp\cclRrI3t.s:10495  .debug_str:000000000000798c .LASF565
C:\Users\liukai\AppData\Local\Temp\cclRrI3t.s:9951   .debug_str:0000000000005c40 .LASF566
C:\Users\liukai\AppData\Local\Temp\cclRrI3t.s:10493  .debug_str:0000000000007973 .LASF567
C:\Users\liukai\AppData\Local\Temp\cclRrI3t.s:10267  .debug_str:0000000000006dc6 .LASF568
C:\Users\liukai\AppData\Local\Temp\cclRrI3t.s:10539  .debug_str:0000000000007bab .LASF569
C:\Users\liukai\AppData\Local\Temp\cclRrI3t.s:10459  .debug_str:00000000000077e5 .LASF570
C:\Users\liukai\AppData\Local\Temp\cclRrI3t.s:10065  .debug_str:00000000000061c6 .LASF571
C:\Users\liukai\AppData\Local\Temp\cclRrI3t.s:8689   .debug_str:0000000000001a40 .LASF572
C:\Users\liukai\AppData\Local\Temp\cclRrI3t.s:8873   .debug_str:0000000000002554 .LASF573
C:\Users\liukai\AppData\Local\Temp\cclRrI3t.s:8473   .debug_str:0000000000000ea6 .LASF574
C:\Users\liukai\AppData\Local\Temp\cclRrI3t.s:8283   .debug_str:000000000000045f .LASF575
C:\Users\liukai\AppData\Local\Temp\cclRrI3t.s:9763   .debug_str:0000000000005296 .LASF576
C:\Users\liukai\AppData\Local\Temp\cclRrI3t.s:9789   .debug_str:00000000000053dc .LASF577
C:\Users\liukai\AppData\Local\Temp\cclRrI3t.s:9403   .debug_str:0000000000004050 .LASF578
C:\Users\liukai\AppData\Local\Temp\cclRrI3t.s:10015  .debug_str:0000000000005f6d .LASF579
C:\Users\liukai\AppData\Local\Temp\cclRrI3t.s:9737   .debug_str:0000000000005169 .LASF580
C:\Users\liukai\AppData\Local\Temp\cclRrI3t.s:8955   .debug_str:00000000000028fa .LASF581
C:\Users\liukai\AppData\Local\Temp\cclRrI3t.s:9889   .debug_str:00000000000058f2 .LASF582
C:\Users\liukai\AppData\Local\Temp\cclRrI3t.s:10375  .debug_str:000000000000745c .LASF583
C:\Users\liukai\AppData\Local\Temp\cclRrI3t.s:9517   .debug_str:00000000000045c4 .LASF584
C:\Users\liukai\AppData\Local\Temp\cclRrI3t.s:8959   .debug_str:0000000000002943 .LASF585
C:\Users\liukai\AppData\Local\Temp\cclRrI3t.s:10660  .debug_str:000000000000845b .LASF586
C:\Users\liukai\AppData\Local\Temp\cclRrI3t.s:10239  .debug_str:0000000000006c6b .LASF587
C:\Users\liukai\AppData\Local\Temp\cclRrI3t.s:9217   .debug_str:0000000000003791 .LASF588
C:\Users\liukai\AppData\Local\Temp\cclRrI3t.s:8387   .debug_str:0000000000000a5d .LASF589
C:\Users\liukai\AppData\Local\Temp\cclRrI3t.s:10229  .debug_str:0000000000006b51 .LASF590
C:\Users\liukai\AppData\Local\Temp\cclRrI3t.s:8961   .debug_str:0000000000002964 .LASF591
C:\Users\liukai\AppData\Local\Temp\cclRrI3t.s:9297   .debug_str:0000000000003b78 .LASF592
C:\Users\liukai\AppData\Local\Temp\cclRrI3t.s:9759   .debug_str:000000000000525e .LASF593
C:\Users\liukai\AppData\Local\Temp\cclRrI3t.s:9097   .debug_str:0000000000003091 .LASF594
C:\Users\liukai\AppData\Local\Temp\cclRrI3t.s:10714  .debug_str:00000000000088b4 .LASF595
C:\Users\liukai\AppData\Local\Temp\cclRrI3t.s:8937   .debug_str:000000000000283b .LASF596
C:\Users\liukai\AppData\Local\Temp\cclRrI3t.s:10607  .debug_str:0000000000007f72 .LASF597
C:\Users\liukai\AppData\Local\Temp\cclRrI3t.s:9249   .debug_str:00000000000038ca .LASF598
C:\Users\liukai\AppData\Local\Temp\cclRrI3t.s:10277  .debug_str:0000000000006ea3 .LASF599
C:\Users\liukai\AppData\Local\Temp\cclRrI3t.s:10353  .debug_str:00000000000072f9 .LASF600
C:\Users\liukai\AppData\Local\Temp\cclRrI3t.s:9009   .debug_str:0000000000002c38 .LASF601
C:\Users\liukai\AppData\Local\Temp\cclRrI3t.s:10385  .debug_str:00000000000074ca .LASF602
C:\Users\liukai\AppData\Local\Temp\cclRrI3t.s:9283   .debug_str:0000000000003a52 .LASF603
C:\Users\liukai\AppData\Local\Temp\cclRrI3t.s:8787   .debug_str:0000000000001ffe .LASF604
C:\Users\liukai\AppData\Local\Temp\cclRrI3t.s:9753   .debug_str:0000000000005215 .LASF605
C:\Users\liukai\AppData\Local\Temp\cclRrI3t.s:8623   .debug_str:000000000000169e .LASF606
C:\Users\liukai\AppData\Local\Temp\cclRrI3t.s:8981   .debug_str:0000000000002a82 .LASF607
C:\Users\liukai\AppData\Local\Temp\cclRrI3t.s:8909   .debug_str:00000000000026e2 .LASF608
C:\Users\liukai\AppData\Local\Temp\cclRrI3t.s:9099   .debug_str:00000000000030b2 .LASF609
C:\Users\liukai\AppData\Local\Temp\cclRrI3t.s:10303  .debug_str:0000000000006fec .LASF610
C:\Users\liukai\AppData\Local\Temp\cclRrI3t.s:10077  .debug_str:00000000000062ce .LASF611
C:\Users\liukai\AppData\Local\Temp\cclRrI3t.s:10273  .debug_str:0000000000006e28 .LASF612
C:\Users\liukai\AppData\Local\Temp\cclRrI3t.s:9857   .debug_str:0000000000005709 .LASF613
C:\Users\liukai\AppData\Local\Temp\cclRrI3t.s:8827   .debug_str:0000000000002225 .LASF614
C:\Users\liukai\AppData\Local\Temp\cclRrI3t.s:10361  .debug_str:0000000000007365 .LASF615
C:\Users\liukai\AppData\Local\Temp\cclRrI3t.s:8593   .debug_str:0000000000001460 .LASF616
C:\Users\liukai\AppData\Local\Temp\cclRrI3t.s:9877   .debug_str:0000000000005851 .LASF617
C:\Users\liukai\AppData\Local\Temp\cclRrI3t.s:8313   .debug_str:00000000000005f0 .LASF618
C:\Users\liukai\AppData\Local\Temp\cclRrI3t.s:8513   .debug_str:0000000000001052 .LASF619
C:\Users\liukai\AppData\Local\Temp\cclRrI3t.s:9409   .debug_str:000000000000407b .LASF620
C:\Users\liukai\AppData\Local\Temp\cclRrI3t.s:10347  .debug_str:0000000000007293 .LASF621
C:\Users\liukai\AppData\Local\Temp\cclRrI3t.s:8845   .debug_str:0000000000002362 .LASF622
C:\Users\liukai\AppData\Local\Temp\cclRrI3t.s:10377  .debug_str:000000000000747f .LASF623
C:\Users\liukai\AppData\Local\Temp\cclRrI3t.s:10211  .debug_str:0000000000006a68 .LASF624
C:\Users\liukai\AppData\Local\Temp\cclRrI3t.s:8305   .debug_str:0000000000000580 .LASF625
C:\Users\liukai\AppData\Local\Temp\cclRrI3t.s:9719   .debug_str:0000000000005088 .LASF626
C:\Users\liukai\AppData\Local\Temp\cclRrI3t.s:10187  .debug_str:0000000000006913 .LASF627
C:\Users\liukai\AppData\Local\Temp\cclRrI3t.s:8881   .debug_str:00000000000025a7 .LASF628
C:\Users\liukai\AppData\Local\Temp\cclRrI3t.s:10345  .debug_str:0000000000007250 .LASF629
C:\Users\liukai\AppData\Local\Temp\cclRrI3t.s:10643  .debug_str:000000000000815c .LASF630
C:\Users\liukai\AppData\Local\Temp\cclRrI3t.s:9397   .debug_str:0000000000004020 .LASF631
C:\Users\liukai\AppData\Local\Temp\cclRrI3t.s:8419   .debug_str:0000000000000c35 .LASF632
C:\Users\liukai\AppData\Local\Temp\cclRrI3t.s:9033   .debug_str:0000000000002db3 .LASF633
C:\Users\liukai\AppData\Local\Temp\cclRrI3t.s:9333   .debug_str:0000000000003d71 .LASF634
C:\Users\liukai\AppData\Local\Temp\cclRrI3t.s:9751   .debug_str:00000000000051fb .LASF635
C:\Users\liukai\AppData\Local\Temp\cclRrI3t.s:10073  .debug_str:0000000000006290 .LASF636
C:\Users\liukai\AppData\Local\Temp\cclRrI3t.s:10237  .debug_str:0000000000006c4b .LASF637
C:\Users\liukai\AppData\Local\Temp\cclRrI3t.s:10437  .debug_str:00000000000076cb .LASF638
C:\Users\liukai\AppData\Local\Temp\cclRrI3t.s:10503  .debug_str:00000000000079df .LASF639
C:\Users\liukai\AppData\Local\Temp\cclRrI3t.s:8595   .debug_str:00000000000014c3 .LASF640
C:\Users\liukai\AppData\Local\Temp\cclRrI3t.s:10401  .debug_str:000000000000755a .LASF641
C:\Users\liukai\AppData\Local\Temp\cclRrI3t.s:10053  .debug_str:0000000000006114 .LASF642
C:\Users\liukai\AppData\Local\Temp\cclRrI3t.s:9189   .debug_str:00000000000035fb .LASF643
C:\Users\liukai\AppData\Local\Temp\cclRrI3t.s:8779   .debug_str:0000000000001f72 .LASF644
C:\Users\liukai\AppData\Local\Temp\cclRrI3t.s:9155   .debug_str:00000000000033c8 .LASF645
C:\Users\liukai\AppData\Local\Temp\cclRrI3t.s:10471  .debug_str:0000000000007869 .LASF646
C:\Users\liukai\AppData\Local\Temp\cclRrI3t.s:10149  .debug_str:00000000000066dd .LASF647
C:\Users\liukai\AppData\Local\Temp\cclRrI3t.s:9013   .debug_str:0000000000002c8f .LASF648
C:\Users\liukai\AppData\Local\Temp\cclRrI3t.s:9291   .debug_str:0000000000003aea .LASF649
C:\Users\liukai\AppData\Local\Temp\cclRrI3t.s:8763   .debug_str:0000000000001e5d .LASF650
C:\Users\liukai\AppData\Local\Temp\cclRrI3t.s:10259  .debug_str:0000000000006d4e .LASF651
C:\Users\liukai\AppData\Local\Temp\cclRrI3t.s:10257  .debug_str:0000000000006d19 .LASF652
C:\Users\liukai\AppData\Local\Temp\cclRrI3t.s:10255  .debug_str:0000000000006d0e .LASF653
C:\Users\liukai\AppData\Local\Temp\cclRrI3t.s:9861   .debug_str:00000000000057a1 .LASF654
C:\Users\liukai\AppData\Local\Temp\cclRrI3t.s:9573   .debug_str:00000000000048d4 .LASF655
C:\Users\liukai\AppData\Local\Temp\cclRrI3t.s:9509   .debug_str:0000000000004565 .LASF656
C:\Users\liukai\AppData\Local\Temp\cclRrI3t.s:8999   .debug_str:0000000000002ba5 .LASF657
C:\Users\liukai\AppData\Local\Temp\cclRrI3t.s:9673   .debug_str:0000000000004e7a .LASF658
C:\Users\liukai\AppData\Local\Temp\cclRrI3t.s:9981   .debug_str:0000000000005db4 .LASF659
C:\Users\liukai\AppData\Local\Temp\cclRrI3t.s:8633   .debug_str:0000000000001742 .LASF660
C:\Users\liukai\AppData\Local\Temp\cclRrI3t.s:9167   .debug_str:00000000000034e8 .LASF661
C:\Users\liukai\AppData\Local\Temp\cclRrI3t.s:9357   .debug_str:0000000000003e71 .LASF662
C:\Users\liukai\AppData\Local\Temp\cclRrI3t.s:9805   .debug_str:00000000000054da .LASF663
C:\Users\liukai\AppData\Local\Temp\cclRrI3t.s:9735   .debug_str:0000000000005154 .LASF664
C:\Users\liukai\AppData\Local\Temp\cclRrI3t.s:10315  .debug_str:00000000000070f1 .LASF665
C:\Users\liukai\AppData\Local\Temp\cclRrI3t.s:9445   .debug_str:000000000000428b .LASF666
C:\Users\liukai\AppData\Local\Temp\cclRrI3t.s:9819   .debug_str:0000000000005563 .LASF667
C:\Users\liukai\AppData\Local\Temp\cclRrI3t.s:9069   .debug_str:0000000000002f60 .LASF668
C:\Users\liukai\AppData\Local\Temp\cclRrI3t.s:9407   .debug_str:0000000000004070 .LASF669
C:\Users\liukai\AppData\Local\Temp\cclRrI3t.s:8573   .debug_str:000000000000135e .LASF670
C:\Users\liukai\AppData\Local\Temp\cclRrI3t.s:9483   .debug_str:0000000000004466 .LASF671
C:\Users\liukai\AppData\Local\Temp\cclRrI3t.s:10129  .debug_str:000000000000660f .LASF672
C:\Users\liukai\AppData\Local\Temp\cclRrI3t.s:9109   .debug_str:000000000000315c .LASF673
C:\Users\liukai\AppData\Local\Temp\cclRrI3t.s:9895   .debug_str:0000000000005942 .LASF674
C:\Users\liukai\AppData\Local\Temp\cclRrI3t.s:8439   .debug_str:0000000000000d2a .LASF675
C:\Users\liukai\AppData\Local\Temp\cclRrI3t.s:9817   .debug_str:0000000000005557 .LASF676
C:\Users\liukai\AppData\Local\Temp\cclRrI3t.s:8467   .debug_str:0000000000000e77 .LASF677
C:\Users\liukai\AppData\Local\Temp\cclRrI3t.s:9061   .debug_str:0000000000002f03 .LASF678
C:\Users\liukai\AppData\Local\Temp\cclRrI3t.s:10115  .debug_str:0000000000006547 .LASF679
C:\Users\liukai\AppData\Local\Temp\cclRrI3t.s:9647   .debug_str:0000000000004cf4 .LASF680
C:\Users\liukai\AppData\Local\Temp\cclRrI3t.s:10479  .debug_str:00000000000078ed .LASF681
C:\Users\liukai\AppData\Local\Temp\cclRrI3t.s:8435   .debug_str:0000000000000d02 .LASF682
C:\Users\liukai\AppData\Local\Temp\cclRrI3t.s:9319   .debug_str:0000000000003c75 .LASF683
C:\Users\liukai\AppData\Local\Temp\cclRrI3t.s:10163  .debug_str:00000000000067d7 .LASF684
C:\Users\liukai\AppData\Local\Temp\cclRrI3t.s:10581  .debug_str:0000000000007e06 .LASF686
C:\Users\liukai\AppData\Local\Temp\cclRrI3t.s:9093   .debug_str:0000000000003076 .LASF687
C:\Users\liukai\AppData\Local\Temp\cclRrI3t.s:10696  .debug_str:0000000000008628 .LASF692
C:\Users\liukai\AppData\Local\Temp\cclRrI3t.s:8841   .debug_str:000000000000232e .LASF693
C:\Users\liukai\AppData\Local\Temp\cclRrI3t.s:9691   .debug_str:0000000000004f2c .LASF694
C:\Users\liukai\AppData\Local\Temp\cclRrI3t.s:9153   .debug_str:000000000000338e .LASF695
C:\Users\liukai\AppData\Local\Temp\cclRrI3t.s:8607   .debug_str:00000000000015cf .LASF696
C:\Users\liukai\AppData\Local\Temp\cclRrI3t.s:10652  .debug_str:00000000000083ce .LASF697
C:\Users\liukai\AppData\Local\Temp\cclRrI3t.s:10463  .debug_str:000000000000780f .LASF698
C:\Users\liukai\AppData\Local\Temp\cclRrI3t.s:9289   .debug_str:0000000000003aa7 .LASF699
C:\Users\liukai\AppData\Local\Temp\cclRrI3t.s:9945   .debug_str:0000000000005bc8 .LASF700
C:\Users\liukai\AppData\Local\Temp\cclRrI3t.s:10615  .debug_str:000000000000801b .LASF701
C:\Users\liukai\AppData\Local\Temp\cclRrI3t.s:10331  .debug_str:00000000000071a8 .LASF702
C:\Users\liukai\AppData\Local\Temp\cclRrI3t.s:8987   .debug_str:0000000000002ae0 .LASF703
C:\Users\liukai\AppData\Local\Temp\cclRrI3t.s:8601   .debug_str:0000000000001585 .LASF704
C:\Users\liukai\AppData\Local\Temp\cclRrI3t.s:10613  .debug_str:0000000000007fd4 .LASF705
C:\Users\liukai\AppData\Local\Temp\cclRrI3t.s:9949   .debug_str:0000000000005c37 .LASF706
C:\Users\liukai\AppData\Local\Temp\cclRrI3t.s:9203   .debug_str:00000000000036ea .LASF707
C:\Users\liukai\AppData\Local\Temp\cclRrI3t.s:10513  .debug_str:0000000000007a87 .LASF708
C:\Users\liukai\AppData\Local\Temp\cclRrI3t.s:8925   .debug_str:00000000000027d3 .LASF709
C:\Users\liukai\AppData\Local\Temp\cclRrI3t.s:9387   .debug_str:0000000000003fcd .LASF710
C:\Users\liukai\AppData\Local\Temp\cclRrI3t.s:8711   .debug_str:0000000000001b47 .LASF711
C:\Users\liukai\AppData\Local\Temp\cclRrI3t.s:8713   .debug_str:0000000000001b5f .LASF712
C:\Users\liukai\AppData\Local\Temp\cclRrI3t.s:10095  .debug_str:000000000000645d .LASF713
C:\Users\liukai\AppData\Local\Temp\cclRrI3t.s:9849   .debug_str:00000000000056b6 .LASF714
C:\Users\liukai\AppData\Local\Temp\cclRrI3t.s:10305  .debug_str:0000000000007038 .LASF715
C:\Users\liukai\AppData\Local\Temp\cclRrI3t.s:10165  .debug_str:00000000000067e9 .LASF716
C:\Users\liukai\AppData\Local\Temp\cclRrI3t.s:10391  .debug_str:0000000000007500 .LASF717
C:\Users\liukai\AppData\Local\Temp\cclRrI3t.s:9139   .debug_str:00000000000032b1 .LASF718
C:\Users\liukai\AppData\Local\Temp\cclRrI3t.s:10698  .debug_str:0000000000008638 .LASF719
C:\Users\liukai\AppData\Local\Temp\cclRrI3t.s:9393   .debug_str:0000000000003fee .LASF720
C:\Users\liukai\AppData\Local\Temp\cclRrI3t.s:9511   .debug_str:0000000000004571 .LASF721
C:\Users\liukai\AppData\Local\Temp\cclRrI3t.s:9525   .debug_str:0000000000004679 .LASF722
C:\Users\liukai\AppData\Local\Temp\cclRrI3t.s:10694  .debug_str:0000000000008610 .LASF723
C:\Users\liukai\AppData\Local\Temp\cclRrI3t.s:10421  .debug_str:0000000000007643 .LASF724
C:\Users\liukai\AppData\Local\Temp\cclRrI3t.s:9963   .debug_str:0000000000005cc0 .LASF725
C:\Users\liukai\AppData\Local\Temp\cclRrI3t.s:9821   .debug_str:0000000000005570 .LASF726
C:\Users\liukai\AppData\Local\Temp\cclRrI3t.s:10609  .debug_str:0000000000007f9e .LASF727
C:\Users\liukai\AppData\Local\Temp\cclRrI3t.s:8697   .debug_str:0000000000001aa0 .LASF728
C:\Users\liukai\AppData\Local\Temp\cclRrI3t.s:10678  .debug_str:0000000000008557 .LASF729
C:\Users\liukai\AppData\Local\Temp\cclRrI3t.s:8269   .debug_str:00000000000003a6 .LASF730
C:\Users\liukai\AppData\Local\Temp\cclRrI3t.s:8575   .debug_str:0000000000001368 .LASF731
C:\Users\liukai\AppData\Local\Temp\cclRrI3t.s:10089  .debug_str:00000000000063a0 .LASF732
C:\Users\liukai\AppData\Local\Temp\cclRrI3t.s:10706  .debug_str:000000000000869f .LASF733
C:\Users\liukai\AppData\Local\Temp\cclRrI3t.s:10645  .debug_str:00000000000081a4 .LASF734
C:\Users\liukai\AppData\Local\Temp\cclRrI3t.s:10473  .debug_str:00000000000078b0 .LASF735
C:\Users\liukai\AppData\Local\Temp\cclRrI3t.s:8527   .debug_str:000000000000111d .LASF736
C:\Users\liukai\AppData\Local\Temp\cclRrI3t.s:10097  .debug_str:0000000000006477 .LASF737
C:\Users\liukai\AppData\Local\Temp\cclRrI3t.s:9465   .debug_str:000000000000436a .LASF738
C:\Users\liukai\AppData\Local\Temp\cclRrI3t.s:10189  .debug_str:0000000000006930 .LASF739
C:\Users\liukai\AppData\Local\Temp\cclRrI3t.s:9707   .debug_str:000000000000501d .LASF740
C:\Users\liukai\AppData\Local\Temp\cclRrI3t.s:9385   .debug_str:0000000000003faf .LASF741
C:\Users\liukai\AppData\Local\Temp\cclRrI3t.s:9055   .debug_str:0000000000002e98 .LASF742
C:\Users\liukai\AppData\Local\Temp\cclRrI3t.s:8641   .debug_str:00000000000017a4 .LASF743
C:\Users\liukai\AppData\Local\Temp\cclRrI3t.s:8589   .debug_str:0000000000001405 .LASF744
C:\Users\liukai\AppData\Local\Temp\cclRrI3t.s:9437   .debug_str:0000000000004219 .LASF745
C:\Users\liukai\AppData\Local\Temp\cclRrI3t.s:8759   .debug_str:0000000000001e0d .LASF746
C:\Users\liukai\AppData\Local\Temp\cclRrI3t.s:8397   .debug_str:0000000000000af4 .LASF747
C:\Users\liukai\AppData\Local\Temp\cclRrI3t.s:10183  .debug_str:00000000000068c0 .LASF748
C:\Users\liukai\AppData\Local\Temp\cclRrI3t.s:10041  .debug_str:0000000000006087 .LASF749
C:\Users\liukai\AppData\Local\Temp\cclRrI3t.s:8427   .debug_str:0000000000000c86 .LASF750
C:\Users\liukai\AppData\Local\Temp\cclRrI3t.s:10019  .debug_str:0000000000005f8b .LASF751
C:\Users\liukai\AppData\Local\Temp\cclRrI3t.s:10067  .debug_str:00000000000061e2 .LASF752
C:\Users\liukai\AppData\Local\Temp\cclRrI3t.s:8963   .debug_str:00000000000029a1 .LASF753
C:\Users\liukai\AppData\Local\Temp\cclRrI3t.s:10575  .debug_str:0000000000007d79 .LASF754
C:\Users\liukai\AppData\Local\Temp\cclRrI3t.s:9187   .debug_str:00000000000035c1 .LASF755
C:\Users\liukai\AppData\Local\Temp\cclRrI3t.s:10069  .debug_str:0000000000006216 .LASF756
C:\Users\liukai\AppData\Local\Temp\cclRrI3t.s:9985   .debug_str:0000000000005de3 .LASF757
C:\Users\liukai\AppData\Local\Temp\cclRrI3t.s:9533   .debug_str:00000000000046fd .LASF758
C:\Users\liukai\AppData\Local\Temp\cclRrI3t.s:8923   .debug_str:0000000000002795 .LASF759
C:\Users\liukai\AppData\Local\Temp\cclRrI3t.s:9521   .debug_str:000000000000461c .LASF760
C:\Users\liukai\AppData\Local\Temp\cclRrI3t.s:10071  .debug_str:0000000000006252 .LASF761
C:\Users\liukai\AppData\Local\Temp\cclRrI3t.s:9967   .debug_str:0000000000005cec .LASF762
C:\Users\liukai\AppData\Local\Temp\cclRrI3t.s:9281   .debug_str:0000000000003a1e .LASF763
C:\Users\liukai\AppData\Local\Temp\cclRrI3t.s:10583  .debug_str:0000000000007e17 .LASF764
C:\Users\liukai\AppData\Local\Temp\cclRrI3t.s:8215   .debug_str:0000000000000117 .LASF765
C:\Users\liukai\AppData\Local\Temp\cclRrI3t.s:9845   .debug_str:0000000000005641 .LASF766
C:\Users\liukai\AppData\Local\Temp\cclRrI3t.s:10059  .debug_str:0000000000006193 .LASF767
C:\Users\liukai\AppData\Local\Temp\cclRrI3t.s:10291  .debug_str:0000000000006f61 .LASF768
C:\Users\liukai\AppData\Local\Temp\cclRrI3t.s:8973   .debug_str:0000000000002a50 .LASF769
C:\Users\liukai\AppData\Local\Temp\cclRrI3t.s:10325  .debug_str:0000000000007163 .LASF770
C:\Users\liukai\AppData\Local\Temp\cclRrI3t.s:8221   .debug_str:0000000000000173 .LASF771
C:\Users\liukai\AppData\Local\Temp\cclRrI3t.s:8401   .debug_str:0000000000000b3d .LASF772
C:\Users\liukai\AppData\Local\Temp\cclRrI3t.s:9023   .debug_str:0000000000002d4d .LASF773
C:\Users\liukai\AppData\Local\Temp\cclRrI3t.s:9395   .debug_str:000000000000400c .LASF775
C:\Users\liukai\AppData\Local\Temp\cclRrI3t.s:10563  .debug_str:0000000000007ce0 .LASF776
C:\Users\liukai\AppData\Local\Temp\cclRrI3t.s:9175   .debug_str:0000000000003541 .LASF777
C:\Users\liukai\AppData\Local\Temp\cclRrI3t.s:8989   .debug_str:0000000000002b2f .LASF778
C:\Users\liukai\AppData\Local\Temp\cclRrI3t.s:9769   .debug_str:00000000000052cd .LASF779
C:\Users\liukai\AppData\Local\Temp\cclRrI3t.s:8255   .debug_str:00000000000002ee .LASF780
C:\Users\liukai\AppData\Local\Temp\cclRrI3t.s:9803   .debug_str:00000000000054bd .LASF781
C:\Users\liukai\AppData\Local\Temp\cclRrI3t.s:8665   .debug_str:00000000000018d3 .LASF782
C:\Users\liukai\AppData\Local\Temp\cclRrI3t.s:10619  .debug_str:000000000000808f .LASF783
C:\Users\liukai\AppData\Local\Temp\cclRrI3t.s:9195   .debug_str:000000000000368e .LASF784
C:\Users\liukai\AppData\Local\Temp\cclRrI3t.s:9331   .debug_str:0000000000003d4d .LASF785
C:\Users\liukai\AppData\Local\Temp\cclRrI3t.s:9011   .debug_str:0000000000002c6b .LASF786
C:\Users\liukai\AppData\Local\Temp\cclRrI3t.s:10245  .debug_str:0000000000006cb6 .LASF787
C:\Users\liukai\AppData\Local\Temp\cclRrI3t.s:8211   .debug_str:00000000000000dc .LASF788
C:\Users\liukai\AppData\Local\Temp\cclRrI3t.s:10057  .debug_str:0000000000006179 .LASF789
C:\Users\liukai\AppData\Local\Temp\cclRrI3t.s:8501   .debug_str:0000000000000fbb .LASF790
C:\Users\liukai\AppData\Local\Temp\cclRrI3t.s:9797   .debug_str:0000000000005456 .LASF791
C:\Users\liukai\AppData\Local\Temp\cclRrI3t.s:9063   .debug_str:0000000000002f14 .LASF794
C:\Users\liukai\AppData\Local\Temp\cclRrI3t.s:10371  .debug_str:0000000000007418 .LASF795
C:\Users\liukai\AppData\Local\Temp\cclRrI3t.s:10235  .debug_str:0000000000006c39 .LASF796
C:\Users\liukai\AppData\Local\Temp\cclRrI3t.s:9537   .debug_str:0000000000004754 .LASF797
C:\Users\liukai\AppData\Local\Temp\cclRrI3t.s:9035   .debug_str:0000000000002dc6 .LASF798
C:\Users\liukai\AppData\Local\Temp\cclRrI3t.s:9475   .debug_str:00000000000043de .LASF799
C:\Users\liukai\AppData\Local\Temp\cclRrI3t.s:9799   .debug_str:0000000000005470 .LASF800
C:\Users\liukai\AppData\Local\Temp\cclRrI3t.s:10093  .debug_str:00000000000063da .LASF801
C:\Users\liukai\AppData\Local\Temp\cclRrI3t.s:8367   .debug_str:0000000000000877 .LASF802
C:\Users\liukai\AppData\Local\Temp\cclRrI3t.s:9581   .debug_str:000000000000491b .LASF803
C:\Users\liukai\AppData\Local\Temp\cclRrI3t.s:9723   .debug_str:00000000000050b0 .LASF806
C:\Users\liukai\AppData\Local\Temp\cclRrI3t.s:10307  .debug_str:0000000000007040 .LASF807
C:\Users\liukai\AppData\Local\Temp\cclRrI3t.s:8381   .debug_str:0000000000000a13 .LASF808
C:\Users\liukai\AppData\Local\Temp\cclRrI3t.s:8943   .debug_str:000000000000288f .LASF809
C:\Users\liukai\AppData\Local\Temp\cclRrI3t.s:10279  .debug_str:0000000000006ecc .LASF810
C:\Users\liukai\AppData\Local\Temp\cclRrI3t.s:10451  .debug_str:000000000000778b .LASF811
C:\Users\liukai\AppData\Local\Temp\cclRrI3t.s:8443   .debug_str:0000000000000d6f .LASF812
C:\Users\liukai\AppData\Local\Temp\cclRrI3t.s:10241  .debug_str:0000000000006c98 .LASF813
C:\Users\liukai\AppData\Local\Temp\cclRrI3t.s:9003   .debug_str:0000000000002bcd .LASF814
C:\Users\liukai\AppData\Local\Temp\cclRrI3t.s:8543   .debug_str:00000000000011e7 .LASF815
C:\Users\liukai\AppData\Local\Temp\cclRrI3t.s:8393   .debug_str:0000000000000aa7 .LASF816
C:\Users\liukai\AppData\Local\Temp\cclRrI3t.s:10231  .debug_str:0000000000006b85 .LASF817
C:\Users\liukai\AppData\Local\Temp\cclRrI3t.s:9989   .debug_str:0000000000005e2b .LASF818
C:\Users\liukai\AppData\Local\Temp\cclRrI3t.s:8865   .debug_str:000000000000250e .LASF819
C:\Users\liukai\AppData\Local\Temp\cclRrI3t.s:10589  .debug_str:0000000000007e79 .LASF820
C:\Users\liukai\AppData\Local\Temp\cclRrI3t.s:8321   .debug_str:0000000000000692 .LASF821
C:\Users\liukai\AppData\Local\Temp\cclRrI3t.s:9377   .debug_str:0000000000003f5a .LASF822
C:\Users\liukai\AppData\Local\Temp\cclRrI3t.s:9041   .debug_str:0000000000002e0b .LASF823
C:\Users\liukai\AppData\Local\Temp\cclRrI3t.s:9359   .debug_str:0000000000003e85 .LASF824
C:\Users\liukai\AppData\Local\Temp\cclRrI3t.s:10700  .debug_str:0000000000008660 .LASF825
C:\Users\liukai\AppData\Local\Temp\cclRrI3t.s:9463   .debug_str:0000000000004357 .LASF826
C:\Users\liukai\AppData\Local\Temp\cclRrI3t.s:8721   .debug_str:0000000000001bb0 .LASF827
C:\Users\liukai\AppData\Local\Temp\cclRrI3t.s:9111   .debug_str:000000000000316b .LASF828
C:\Users\liukai\AppData\Local\Temp\cclRrI3t.s:10125  .debug_str:00000000000065bd .LASF829
C:\Users\liukai\AppData\Local\Temp\cclRrI3t.s:8237   .debug_str:000000000000021f .LASF830
C:\Users\liukai\AppData\Local\Temp\cclRrI3t.s:8425   .debug_str:0000000000000c73 .LASF831
C:\Users\liukai\AppData\Local\Temp\cclRrI3t.s:9073   .debug_str:0000000000002f6f .LASF832
C:\Users\liukai\AppData\Local\Temp\cclRrI3t.s:9127   .debug_str:0000000000003246 .LASF833
C:\Users\liukai\AppData\Local\Temp\cclRrI3t.s:10003  .debug_str:0000000000005ed4 .LASF834
C:\Users\liukai\AppData\Local\Temp\cclRrI3t.s:10335  .debug_str:00000000000071ed .LASF835
C:\Users\liukai\AppData\Local\Temp\cclRrI3t.s:9159   .debug_str:000000000000347d .LASF836
C:\Users\liukai\AppData\Local\Temp\cclRrI3t.s:8835   .debug_str:00000000000022ed .LASF837
C:\Users\liukai\AppData\Local\Temp\cclRrI3t.s:8921   .debug_str:0000000000002784 .LASF838
C:\Users\liukai\AppData\Local\Temp\cclRrI3t.s:10099  .debug_str:000000000000648d .LASF839
C:\Users\liukai\AppData\Local\Temp\cclRrI3t.s:8369   .debug_str:000000000000094e .LASF840
C:\Users\liukai\AppData\Local\Temp\cclRrI3t.s:8499   .debug_str:0000000000000faa .LASF841
C:\Users\liukai\AppData\Local\Temp\cclRrI3t.s:10161  .debug_str:00000000000067c4 .LASF842
C:\Users\liukai\AppData\Local\Temp\cclRrI3t.s:8453   .debug_str:0000000000000dd5 .LASF843
C:\Users\liukai\AppData\Local\Temp\cclRrI3t.s:8421   .debug_str:0000000000000c40 .LASF844
C:\Users\liukai\AppData\Local\Temp\cclRrI3t.s:8895   .debug_str:0000000000002622 .LASF845
C:\Users\liukai\AppData\Local\Temp\cclRrI3t.s:10535  .debug_str:0000000000007b5f .LASF846
C:\Users\liukai\AppData\Local\Temp\cclRrI3t.s:9467   .debug_str:0000000000004389 .LASF847
C:\Users\liukai\AppData\Local\Temp\cclRrI3t.s:8849   .debug_str:00000000000023df .LASF848
C:\Users\liukai\AppData\Local\Temp\cclRrI3t.s:8939   .debug_str:0000000000002865 .LASF849
C:\Users\liukai\AppData\Local\Temp\cclRrI3t.s:9823   .debug_str:0000000000005588 .LASF851
C:\Users\liukai\AppData\Local\Temp\cclRrI3t.s:9869   .debug_str:0000000000005815 .LASF852
C:\Users\liukai\AppData\Local\Temp\cclRrI3t.s:9371   .debug_str:0000000000003f0e .LASF853
C:\Users\liukai\AppData\Local\Temp\cclRrI3t.s:10621  .debug_str:00000000000080a6 .LASF854
C:\Users\liukai\AppData\Local\Temp\cclRrI3t.s:8879   .debug_str:000000000000258f .LASF855
C:\Users\liukai\AppData\Local\Temp\cclRrI3t.s:9065   .debug_str:0000000000002f26 .LASF856
C:\Users\liukai\AppData\Local\Temp\cclRrI3t.s:8271   .debug_str:00000000000003bc .LASF857
C:\Users\liukai\AppData\Local\Temp\cclRrI3t.s:8751   .debug_str:0000000000001d8f .LASF858
C:\Users\liukai\AppData\Local\Temp\cclRrI3t.s:9767   .debug_str:00000000000052b3 .LASF859
C:\Users\liukai\AppData\Local\Temp\cclRrI3t.s:9227   .debug_str:0000000000003820 .LASF860
C:\Users\liukai\AppData\Local\Temp\cclRrI3t.s:9879   .debug_str:0000000000005874 .LASF861
C:\Users\liukai\AppData\Local\Temp\cclRrI3t.s:10051  .debug_str:00000000000060dc .LASF862
C:\Users\liukai\AppData\Local\Temp\cclRrI3t.s:8197   .debug_str:0000000000000052 .LASF863
C:\Users\liukai\AppData\Local\Temp\cclRrI3t.s:10213  .debug_str:0000000000006a81 .LASF866
C:\Users\liukai\AppData\Local\Temp\cclRrI3t.s:8771   .debug_str:0000000000001eeb .LASF867
C:\Users\liukai\AppData\Local\Temp\cclRrI3t.s:8859   .debug_str:000000000000248b .LASF868
C:\Users\liukai\AppData\Local\Temp\cclRrI3t.s:8659   .debug_str:0000000000001891 .LASF869
C:\Users\liukai\AppData\Local\Temp\cclRrI3t.s:9893   .debug_str:0000000000005934 .LASF870
C:\Users\liukai\AppData\Local\Temp\cclRrI3t.s:8515   .debug_str:00000000000010aa .LASF871
C:\Users\liukai\AppData\Local\Temp\cclRrI3t.s:10447  .debug_str:000000000000776a .LASF872
C:\Users\liukai\AppData\Local\Temp\cclRrI3t.s:9591   .debug_str:0000000000004a5f .LASF873
C:\Users\liukai\AppData\Local\Temp\cclRrI3t.s:9597   .debug_str:0000000000004ab8 .LASF874
C:\Users\liukai\AppData\Local\Temp\cclRrI3t.s:9497   .debug_str:00000000000044f2 .LASF875
C:\Users\liukai\AppData\Local\Temp\cclRrI3t.s:8497   .debug_str:0000000000000f9c .LASF876
C:\Users\liukai\AppData\Local\Temp\cclRrI3t.s:9761   .debug_str:0000000000005288 .LASF877
C:\Users\liukai\AppData\Local\Temp\cclRrI3t.s:8493   .debug_str:0000000000000f7b .LASF878
C:\Users\liukai\AppData\Local\Temp\cclRrI3t.s:10031  .debug_str:000000000000603c .LASF879
C:\Users\liukai\AppData\Local\Temp\cclRrI3t.s:9047   .debug_str:0000000000002e40 .LASF880
C:\Users\liukai\AppData\Local\Temp\cclRrI3t.s:8915   .debug_str:0000000000002733 .LASF881
C:\Users\liukai\AppData\Local\Temp\cclRrI3t.s:9791   .debug_str:00000000000053f5 .LASF882
C:\Users\liukai\AppData\Local\Temp\cclRrI3t.s:9019   .debug_str:0000000000002d0d .LASF883
C:\Users\liukai\AppData\Local\Temp\cclRrI3t.s:10017  .debug_str:0000000000005f7d .LASF884
C:\Users\liukai\AppData\Local\Temp\cclRrI3t.s:9325   .debug_str:0000000000003d05 .LASF885
C:\Users\liukai\AppData\Local\Temp\cclRrI3t.s:9431   .debug_str:00000000000041e7 .LASF886
C:\Users\liukai\AppData\Local\Temp\cclRrI3t.s:10359  .debug_str:000000000000735c .LASF887
C:\Users\liukai\AppData\Local\Temp\cclRrI3t.s:9831   .debug_str:00000000000055cb .LASF888
C:\Users\liukai\AppData\Local\Temp\cclRrI3t.s:9575   .debug_str:00000000000048e4 .LASF889
C:\Users\liukai\AppData\Local\Temp\cclRrI3t.s:10363  .debug_str:00000000000073c6 .LASF890
C:\Users\liukai\AppData\Local\Temp\cclRrI3t.s:8735   .debug_str:0000000000001c30 .LASF891
C:\Users\liukai\AppData\Local\Temp\cclRrI3t.s:9443   .debug_str:0000000000004279 .LASF892
C:\Users\liukai\AppData\Local\Temp\cclRrI3t.s:8901   .debug_str:0000000000002692 .LASF893
C:\Users\liukai\AppData\Local\Temp\cclRrI3t.s:9451   .debug_str:00000000000042c9 .LASF894
C:\Users\liukai\AppData\Local\Temp\cclRrI3t.s:8261   .debug_str:0000000000000341 .LASF895
C:\Users\liukai\AppData\Local\Temp\cclRrI3t.s:8701   .debug_str:0000000000001ae0 .LASF896
C:\Users\liukai\AppData\Local\Temp\cclRrI3t.s:10035  .debug_str:0000000000006053 .LASF897
C:\Users\liukai\AppData\Local\Temp\cclRrI3t.s:9633   .debug_str:0000000000004c41 .LASF898
C:\Users\liukai\AppData\Local\Temp\cclRrI3t.s:8365   .debug_str:0000000000000860 .LASF899
C:\Users\liukai\AppData\Local\Temp\cclRrI3t.s:8561   .debug_str:00000000000012e2 .LASF900
C:\Users\liukai\AppData\Local\Temp\cclRrI3t.s:8433   .debug_str:0000000000000ce9 .LASF901
C:\Users\liukai\AppData\Local\Temp\cclRrI3t.s:10079  .debug_str:000000000000635a .LASF902
C:\Users\liukai\AppData\Local\Temp\cclRrI3t.s:9373   .debug_str:0000000000003f1b .LASF903
C:\Users\liukai\AppData\Local\Temp\cclRrI3t.s:8259   .debug_str:0000000000000325 .LASF904
C:\Users\liukai\AppData\Local\Temp\cclRrI3t.s:9449   .debug_str:00000000000042b1 .LASF905
C:\Users\liukai\AppData\Local\Temp\cclRrI3t.s:10549  .debug_str:0000000000007c1b .LASF906
C:\Users\liukai\AppData\Local\Temp\cclRrI3t.s:8853   .debug_str:0000000000002414 .LASF907
C:\Users\liukai\AppData\Local\Temp\cclRrI3t.s:8833   .debug_str:0000000000002294 .LASF908
C:\Users\liukai\AppData\Local\Temp\cclRrI3t.s:8281   .debug_str:0000000000000430 .LASF909
C:\Users\liukai\AppData\Local\Temp\cclRrI3t.s:9567   .debug_str:0000000000004882 .LASF910
C:\Users\liukai\AppData\Local\Temp\cclRrI3t.s:10323  .debug_str:0000000000007131 .LASF911
C:\Users\liukai\AppData\Local\Temp\cclRrI3t.s:10269  .debug_str:0000000000006de1 .LASF912
C:\Users\liukai\AppData\Local\Temp\cclRrI3t.s:10519  .debug_str:0000000000007abd .LASF913
C:\Users\liukai\AppData\Local\Temp\cclRrI3t.s:9201   .debug_str:00000000000036d7 .LASF914
C:\Users\liukai\AppData\Local\Temp\cclRrI3t.s:9213   .debug_str:000000000000376c .LASF915
C:\Users\liukai\AppData\Local\Temp\cclRrI3t.s:10465  .debug_str:000000000000783e .LASF916
C:\Users\liukai\AppData\Local\Temp\cclRrI3t.s:8241   .debug_str:0000000000000237 .LASF917
C:\Users\liukai\AppData\Local\Temp\cclRrI3t.s:10011  .debug_str:0000000000005f3b .LASF918
C:\Users\liukai\AppData\Local\Temp\cclRrI3t.s:10631  .debug_str:00000000000080f6 .LASF919
C:\Users\liukai\AppData\Local\Temp\cclRrI3t.s:9017   .debug_str:0000000000002ce6 .LASF920
C:\Users\liukai\AppData\Local\Temp\cclRrI3t.s:10712  .debug_str:0000000000008889 .LASF921
C:\Users\liukai\AppData\Local\Temp\cclRrI3t.s:9157   .debug_str:0000000000003415 .LASF922
C:\Users\liukai\AppData\Local\Temp\cclRrI3t.s:9045   .debug_str:0000000000002e33 .LASF923
C:\Users\liukai\AppData\Local\Temp\cclRrI3t.s:8791   .debug_str:0000000000002049 .LASF924
C:\Users\liukai\AppData\Local\Temp\cclRrI3t.s:9095   .debug_str:0000000000003086 .LASF925
C:\Users\liukai\AppData\Local\Temp\cclRrI3t.s:8947   .debug_str:00000000000028ba .LASF926
C:\Users\liukai\AppData\Local\Temp\cclRrI3t.s:9059   .debug_str:0000000000002efb .LASF927
C:\Users\liukai\AppData\Local\Temp\cclRrI3t.s:9871   .debug_str:0000000000005823 .LASF928
C:\Users\liukai\AppData\Local\Temp\cclRrI3t.s:10343  .debug_str:000000000000723d .LASF929
C:\Users\liukai\AppData\Local\Temp\cclRrI3t.s:9113   .debug_str:0000000000003180 .LASF930
C:\Users\liukai\AppData\Local\Temp\cclRrI3t.s:10301  .debug_str:0000000000006fde .LASF931
C:\Users\liukai\AppData\Local\Temp\cclRrI3t.s:9627   .debug_str:0000000000004bf2 .LASF932
C:\Users\liukai\AppData\Local\Temp\cclRrI3t.s:9215   .debug_str:0000000000003783 .LASF933
C:\Users\liukai\AppData\Local\Temp\cclRrI3t.s:8905   .debug_str:00000000000026ad .LASF934
C:\Users\liukai\AppData\Local\Temp\cclRrI3t.s:9031   .debug_str:0000000000002da7 .LASF935
C:\Users\liukai\AppData\Local\Temp\cclRrI3t.s:9933   .debug_str:0000000000005b1c .LASF936
C:\Users\liukai\AppData\Local\Temp\cclRrI3t.s:8309   .debug_str:00000000000005b8 .LASF937
C:\Users\liukai\AppData\Local\Temp\cclRrI3t.s:9417   .debug_str:0000000000004143 .LASF938
C:\Users\liukai\AppData\Local\Temp\cclRrI3t.s:10684  .debug_str:000000000000859c .LASF939
C:\Users\liukai\AppData\Local\Temp\cclRrI3t.s:10527  .debug_str:0000000000007b0a .LASF940
C:\Users\liukai\AppData\Local\Temp\cclRrI3t.s:9459   .debug_str:000000000000430f .LASF941
C:\Users\liukai\AppData\Local\Temp\cclRrI3t.s:9675   .debug_str:0000000000004e86 .LASF942
C:\Users\liukai\AppData\Local\Temp\cclRrI3t.s:9487   .debug_str:0000000000004483 .LASF943
C:\Users\liukai\AppData\Local\Temp\cclRrI3t.s:10101  .debug_str:000000000000649e .LASF944
C:\Users\liukai\AppData\Local\Temp\cclRrI3t.s:9559   .debug_str:0000000000004824 .LASF945
C:\Users\liukai\AppData\Local\Temp\cclRrI3t.s:9921   .debug_str:0000000000005a7c .LASF946
C:\Users\liukai\AppData\Local\Temp\cclRrI3t.s:10617  .debug_str:0000000000008062 .LASF947
C:\Users\liukai\AppData\Local\Temp\cclRrI3t.s:8639   .debug_str:0000000000001777 .LASF948
C:\Users\liukai\AppData\Local\Temp\cclRrI3t.s:9593   .debug_str:0000000000004a6c .LASF949
C:\Users\liukai\AppData\Local\Temp\cclRrI3t.s:8673   .debug_str:000000000000193c .LASF950
C:\Users\liukai\AppData\Local\Temp\cclRrI3t.s:9519   .debug_str:00000000000045e9 .LASF951
C:\Users\liukai\AppData\Local\Temp\cclRrI3t.s:10233  .debug_str:0000000000006c09 .LASF952
C:\Users\liukai\AppData\Local\Temp\cclRrI3t.s:8487   .debug_str:0000000000000f3c .LASF953
C:\Users\liukai\AppData\Local\Temp\cclRrI3t.s:9997   .debug_str:0000000000005e77 .LASF954
C:\Users\liukai\AppData\Local\Temp\cclRrI3t.s:9293   .debug_str:0000000000003b30 .LASF955
C:\Users\liukai\AppData\Local\Temp\cclRrI3t.s:10171  .debug_str:0000000000006816 .LASF956
C:\Users\liukai\AppData\Local\Temp\cclRrI3t.s:8335   .debug_str:000000000000073a .LASF957
C:\Users\liukai\AppData\Local\Temp\cclRrI3t.s:9531   .debug_str:00000000000046c9 .LASF958
C:\Users\liukai\AppData\Local\Temp\cclRrI3t.s:9165   .debug_str:00000000000034b5 .LASF959
C:\Users\liukai\AppData\Local\Temp\cclRrI3t.s:9263   .debug_str:000000000000398f .LASF960
C:\Users\liukai\AppData\Local\Temp\cclRrI3t.s:8441   .debug_str:0000000000000d3c .LASF961
C:\Users\liukai\AppData\Local\Temp\cclRrI3t.s:9587   .debug_str:0000000000004a18 .LASF962
C:\Users\liukai\AppData\Local\Temp\cclRrI3t.s:9529   .debug_str:000000000000469b .LASF963
C:\Users\liukai\AppData\Local\Temp\cclRrI3t.s:8533   .debug_str:000000000000117a .LASF964
C:\Users\liukai\AppData\Local\Temp\cclRrI3t.s:9811   .debug_str:0000000000005511 .LASF965
C:\Users\liukai\AppData\Local\Temp\cclRrI3t.s:8675   .debug_str:0000000000001972 .LASF966
C:\Users\liukai\AppData\Local\Temp\cclRrI3t.s:8415   .debug_str:0000000000000bf1 .LASF967
C:\Users\liukai\AppData\Local\Temp\cclRrI3t.s:10181  .debug_str:00000000000068ab .LASF968
C:\Users\liukai\AppData\Local\Temp\cclRrI3t.s:8227   .debug_str:00000000000001ac .LASF969
C:\Users\liukai\AppData\Local\Temp\cclRrI3t.s:9257   .debug_str:0000000000003931 .LASF970
C:\Users\liukai\AppData\Local\Temp\cclRrI3t.s:9655   .debug_str:0000000000004d3b .LASF971
C:\Users\liukai\AppData\Local\Temp\cclRrI3t.s:8781   .debug_str:0000000000001faf .LASF972
C:\Users\liukai\AppData\Local\Temp\cclRrI3t.s:8295   .debug_str:0000000000000516 .LASF973
C:\Users\liukai\AppData\Local\Temp\cclRrI3t.s:8699   .debug_str:0000000000001ab9 .LASF974
C:\Users\liukai\AppData\Local\Temp\cclRrI3t.s:9301   .debug_str:0000000000003b9e .LASF975
C:\Users\liukai\AppData\Local\Temp\cclRrI3t.s:9309   .debug_str:0000000000003c02 .LASF976
C:\Users\liukai\AppData\Local\Temp\cclRrI3t.s:9421   .debug_str:0000000000004176 .LASF977
C:\Users\liukai\AppData\Local\Temp\cclRrI3t.s:10481  .debug_str:00000000000078fb .LASF978
C:\Users\liukai\AppData\Local\Temp\cclRrI3t.s:9669   .debug_str:0000000000004e16 .LASF979
C:\Users\liukai\AppData\Local\Temp\cclRrI3t.s:9145   .debug_str:000000000000330b .LASF980
C:\Users\liukai\AppData\Local\Temp\cclRrI3t.s:9429   .debug_str:00000000000041ce .LASF981
C:\Users\liukai\AppData\Local\Temp\cclRrI3t.s:8677   .debug_str:000000000000199b .LASF982
C:\Users\liukai\AppData\Local\Temp\cclRrI3t.s:9783   .debug_str:0000000000005379 .LASF983
C:\Users\liukai\AppData\Local\Temp\cclRrI3t.s:9605   .debug_str:0000000000004af3 .LASF984
C:\Users\liukai\AppData\Local\Temp\cclRrI3t.s:8455   .debug_str:0000000000000de7 .LASF985
C:\Users\liukai\AppData\Local\Temp\cclRrI3t.s:9193   .debug_str:0000000000003660 .LASF986
C:\Users\liukai\AppData\Local\Temp\cclRrI3t.s:10599  .debug_str:0000000000007f0c .LASF987
C:\Users\liukai\AppData\Local\Temp\cclRrI3t.s:9907   .debug_str:00000000000059bc .LASF988
C:\Users\liukai\AppData\Local\Temp\cclRrI3t.s:8847   .debug_str:00000000000023b0 .LASF989
C:\Users\liukai\AppData\Local\Temp\cclRrI3t.s:9383   .debug_str:0000000000003f9d .LASF990
C:\Users\liukai\AppData\Local\Temp\cclRrI3t.s:8685   .debug_str:0000000000001a18 .LASF991
C:\Users\liukai\AppData\Local\Temp\cclRrI3t.s:9321   .debug_str:0000000000003cad .LASF992
C:\Users\liukai\AppData\Local\Temp\cclRrI3t.s:9481   .debug_str:0000000000004433 .LASF993
C:\Users\liukai\AppData\Local\Temp\cclRrI3t.s:8373   .debug_str:000000000000099e .LASF994
C:\Users\liukai\AppData\Local\Temp\cclRrI3t.s:8291   .debug_str:00000000000004da .LASF995
C:\Users\liukai\AppData\Local\Temp\cclRrI3t.s:8267   .debug_str:0000000000000378 .LASF996
C:\Users\liukai\AppData\Local\Temp\cclRrI3t.s:10141  .debug_str:0000000000006677 .LASF997
C:\Users\liukai\AppData\Local\Temp\cclRrI3t.s:9743   .debug_str:00000000000051ae .LASF998
C:\Users\liukai\AppData\Local\Temp\cclRrI3t.s:9043   .debug_str:0000000000002e1e .LASF999
C:\Users\liukai\AppData\Local\Temp\cclRrI3t.s:10431  .debug_str:00000000000076a2 .LASF1000
C:\Users\liukai\AppData\Local\Temp\cclRrI3t.s:9199   .debug_str:00000000000036c4 .LASF1001
C:\Users\liukai\AppData\Local\Temp\cclRrI3t.s:8953   .debug_str:00000000000028e7 .LASF1002
C:\Users\liukai\AppData\Local\Temp\cclRrI3t.s:8405   .debug_str:0000000000000b6d .LASF1003
C:\Users\liukai\AppData\Local\Temp\cclRrI3t.s:8611   .debug_str:0000000000001611 .LASF1004
C:\Users\liukai\AppData\Local\Temp\cclRrI3t.s:9625   .debug_str:0000000000004bdd .LASF1005
C:\Users\liukai\AppData\Local\Temp\cclRrI3t.s:9671   .debug_str:0000000000004e4e .LASF1006
C:\Users\liukai\AppData\Local\Temp\cclRrI3t.s:8423   .debug_str:0000000000000c53 .LASF1007
C:\Users\liukai\AppData\Local\Temp\cclRrI3t.s:9629   .debug_str:0000000000004bfd .LASF1008
C:\Users\liukai\AppData\Local\Temp\cclRrI3t.s:10113  .debug_str:0000000000006527 .LASF1009
C:\Users\liukai\AppData\Local\Temp\cclRrI3t.s:9287   .debug_str:0000000000003a87 .LASF1010
C:\Users\liukai\AppData\Local\Temp\cclRrI3t.s:8343   .debug_str:00000000000007a9 .LASF1011
C:\Users\liukai\AppData\Local\Temp\cclRrI3t.s:10569  .debug_str:0000000000007d14 .LASF1012
C:\Users\liukai\AppData\Local\Temp\cclRrI3t.s:10009  .debug_str:0000000000005f1b .LASF1013
C:\Users\liukai\AppData\Local\Temp\cclRrI3t.s:10611  .debug_str:0000000000007fb3 .LASF1014
C:\Users\liukai\AppData\Local\Temp\cclRrI3t.s:9415   .debug_str:0000000000004122 .LASF1015
C:\Users\liukai\AppData\Local\Temp\cclRrI3t.s:9771   .debug_str:00000000000052de .LASF1016
C:\Users\liukai\AppData\Local\Temp\cclRrI3t.s:8875   .debug_str:0000000000002567 .LASF1017
C:\Users\liukai\AppData\Local\Temp\cclRrI3t.s:9977   .debug_str:0000000000005d7d .LASF1018
C:\Users\liukai\AppData\Local\Temp\cclRrI3t.s:9083   .debug_str:0000000000002fe2 .LASF1019
C:\Users\liukai\AppData\Local\Temp\cclRrI3t.s:9683   .debug_str:0000000000004edd .LASF1020
C:\Users\liukai\AppData\Local\Temp\cclRrI3t.s:8597   .debug_str:0000000000001510 .LASF1021
C:\Users\liukai\AppData\Local\Temp\cclRrI3t.s:8957   .debug_str:0000000000002922 .LASF1022
C:\Users\liukai\AppData\Local\Temp\cclRrI3t.s:9089   .debug_str:0000000000003046 .LASF1023
C:\Users\liukai\AppData\Local\Temp\cclRrI3t.s:8919   .debug_str:000000000000276d .LASF1024
C:\Users\liukai\AppData\Local\Temp\cclRrI3t.s:8789   .debug_str:000000000000202d .LASF1025
C:\Users\liukai\AppData\Local\Temp\cclRrI3t.s:9355   .debug_str:0000000000003e56 .LASF1026
C:\Users\liukai\AppData\Local\Temp\cclRrI3t.s:9661   .debug_str:0000000000004d9a .LASF1027
C:\Users\liukai\AppData\Local\Temp\cclRrI3t.s:8717   .debug_str:0000000000001b91 .LASF1028
C:\Users\liukai\AppData\Local\Temp\cclRrI3t.s:9829   .debug_str:00000000000055b6 .LASF1029
C:\Users\liukai\AppData\Local\Temp\cclRrI3t.s:9303   .debug_str:0000000000003bb8 .LASF1030
C:\Users\liukai\AppData\Local\Temp\cclRrI3t.s:9523   .debug_str:000000000000465e .LASF1031
C:\Users\liukai\AppData\Local\Temp\cclRrI3t.s:9219   .debug_str:00000000000037be .LASF1032
C:\Users\liukai\AppData\Local\Temp\cclRrI3t.s:10055  .debug_str:0000000000006167 .LASF1033
C:\Users\liukai\AppData\Local\Temp\cclRrI3t.s:10379  .debug_str:0000000000007499 .LASF1034
C:\Users\liukai\AppData\Local\Temp\cclRrI3t.s:9549   .debug_str:00000000000047a8 .LASF1035
C:\Users\liukai\AppData\Local\Temp\cclRrI3t.s:9347   .debug_str:0000000000003df1 .LASF1036
C:\Users\liukai\AppData\Local\Temp\cclRrI3t.s:8265   .debug_str:0000000000000365 .LASF1037
C:\Users\liukai\AppData\Local\Temp\cclRrI3t.s:10029  .debug_str:0000000000006024 .LASF1038
C:\Users\liukai\AppData\Local\Temp\cclRrI3t.s:10117  .debug_str:0000000000006555 .LASF1039
C:\Users\liukai\AppData\Local\Temp\cclRrI3t.s:9585   .debug_str:0000000000004a06 .LASF1040
C:\Users\liukai\AppData\Local\Temp\cclRrI3t.s:8495   .debug_str:0000000000000f89 .LASF1041
C:\Users\liukai\AppData\Local\Temp\cclRrI3t.s:10449  .debug_str:0000000000007777 .LASF1042
C:\Users\liukai\AppData\Local\Temp\cclRrI3t.s:8485   .debug_str:0000000000000f20 .LASF1043
C:\Users\liukai\AppData\Local\Temp\cclRrI3t.s:9925   .debug_str:0000000000005ad3 .LASF1044
C:\Users\liukai\AppData\Local\Temp\cclRrI3t.s:8329   .debug_str:00000000000006f2 .LASF1045
C:\Users\liukai\AppData\Local\Temp\cclRrI3t.s:10561  .debug_str:0000000000007cc7 .LASF1046
C:\Users\liukai\AppData\Local\Temp\cclRrI3t.s:9697   .debug_str:0000000000004faf .LASF1047
C:\Users\liukai\AppData\Local\Temp\cclRrI3t.s:8581   .debug_str:000000000000139d .LASF1048
C:\Users\liukai\AppData\Local\Temp\cclRrI3t.s:9569   .debug_str:00000000000048b2 .LASF1049
C:\Users\liukai\AppData\Local\Temp\cclRrI3t.s:10553  .debug_str:0000000000007c83 .LASF1050
C:\Users\liukai\AppData\Local\Temp\cclRrI3t.s:8445   .debug_str:0000000000000d91 .LASF1051
                           .group:0000000000000000 wm4.0.37aa6d340f8b0e49c613fc152d20c88a
                           .group:0000000000000000 wm4.config.h.15.dbd1d893936398513163c62efe201c76
                           .group:0000000000000000 wm4._newlib_version.h.4.875b979a44719054cd750d0952ad3fd6
                           .group:0000000000000000 wm4.features.h.33.318b64d71e0957639cfb30f1db1f7ec8
                           .group:0000000000000000 wm4._default_types.h.15.247e5cd201eca3442cbf5404108c4935
                           .group:0000000000000000 wm4._intsup.h.10.cce27fed8484c08a33f522034c30d2b5
                           .group:0000000000000000 wm4._stdint.h.10.c24fa3af3bc1706662bb5593a907e841
                           .group:0000000000000000 wm4.stdint.h.23.d53047a68f4a85177f80b422d52785ed
                           .group:0000000000000000 wm4.newlib.h.8.9957ed579b08d5b19580d9fda2a8f437
                           .group:0000000000000000 wm4.ieeefp.h.193.a04996ad6548b0579a40a1f708027f95
                           .group:0000000000000000 wm4.config.h.79.b548f69d9f69fceadec535dc005f68c6
                           .group:0000000000000000 wm4._ansi.h.31.de524f58584151836e90d8620a16f8e8
                           .group:0000000000000000 wm4.stdio.h.31.7c0e28c411445f3f9c5b11accf882760
                           .group:0000000000000000 wm4.stddef.h.187.2ff233552538c6ff9b8575ca8ea52cb3
                           .group:0000000000000000 wm4.cdefs.h.47.9b1aff81ebf9fd459c1248694f70fc96
                           .group:0000000000000000 wm4.stddef.h.39.ec95e8feac892e292b69dc7ae75b0d64
                           .group:0000000000000000 wm4.stdarg.h.34.3a23a216c0c293b3d2ea2e89281481e6
                           .group:0000000000000000 wm4.lock.h.2.1461d1fff82dffe8bfddc23307f6484f
                           .group:0000000000000000 wm4._types.h.125.5cf8a495f1f7ef36777ad868a1e32068
                           .group:0000000000000000 wm4.stddef.h.161.5349cb105733e8777bfb0cf53c4e3f34
                           .group:0000000000000000 wm4._types.h.184.7120b8bb2e0149e2359704f4e2251b68
                           .group:0000000000000000 wm4.reent.h.17.87376802c2b370b32a762f0a30482d9e
                           .group:0000000000000000 wm4.types.h.40.e8c16e7ec36ba55f133d0616070e25fc
                           .group:0000000000000000 wm4._endian.h.18.1bf9649e8e5bbc91042012680270b9ed
                           .group:0000000000000000 wm4.endian.h.9.49f3a4695c1b61e8a0808de3c4a106cb
                           .group:0000000000000000 wm4._timeval.h.30.0e8bfd94e85db17dda3286ee81496fe6
                           .group:0000000000000000 wm4.timespec.h.41.d855182eb0e690443ab8651bcedca6e1
                           .group:0000000000000000 wm4.select.h.30.bbece7fa40993a78092dcc5805132560
                           .group:0000000000000000 wm4.types.h.69.ed3eae3cf73030a737515151ebcab7a1
                           .group:0000000000000000 wm4.sched.h.22.c60982713a5c428609783c78f9c78d95
                           .group:0000000000000000 wm4._pthreadtypes.h.36.fcee9961c35163dde6267ef772ad1972
                           .group:0000000000000000 wm4.stdio.h.2.4aa87247282eca6c8f36f9de33d8df1a
                           .group:0000000000000000 wm4.stdio.h.81.932d0c162786b883f622b8d05c120c78
                           .group:0000000000000000 wm4.stdbool.h.29.07dce69c3b78884144b7f7bd19483461
                           .group:0000000000000000 wm4.picorv32.h.23.4c64531f8d760694f3b621d5408cb184
                           .group:0000000000000000 wm4.advspi.h.25.c3630d8a84d7854d8d2262c346f8d6eb

UNDEFINED SYMBOLS
printf
__riscv_save_2
__riscv_restore_2
__riscv_save_3
__riscv_restore_3
