   1              		.file	"wbi2c.c"
   2              		.option nopic
   3              		.text
   4              	.Ltext0:
   5              		.cfi_sections	.debug_frame
   6              		.section	.text.Delay_ms_i2c,"ax",@progbits
   7              		.align	1
   8              		.globl	Delay_ms_i2c
  10              	Delay_ms_i2c:
  11              	.LFB3:
  12              		.file 1 "../src/bsp/wbi2c.c"
   1:../src/bsp/wbi2c.c **** /*
   2:../src/bsp/wbi2c.c ****  * *****************************************************************************************
   3:../src/bsp/wbi2c.c ****  *
   4:../src/bsp/wbi2c.c ****  * 		Copyright (C) 2014-2022 Gowin Semiconductor Technology Co.,Ltd.
   5:../src/bsp/wbi2c.c ****  *
   6:../src/bsp/wbi2c.c ****  * @file		wbi2c.c
   7:../src/bsp/wbi2c.c ****  * @author		Embedded Development Team
   8:../src/bsp/wbi2c.c ****  * @version		V1.2.x
   9:../src/bsp/wbi2c.c ****  * @date		2022-01-01 09:00:00
  10:../src/bsp/wbi2c.c ****  * @brief		Wishbone I2C Peripheral.
  11:../src/bsp/wbi2c.c ****  ******************************************************************************************
  12:../src/bsp/wbi2c.c ****  */
  13:../src/bsp/wbi2c.c **** 
  14:../src/bsp/wbi2c.c **** /* Includes ------------------------------------------------------------------*/
  15:../src/bsp/wbi2c.c **** #include "wbi2c.h"
  16:../src/bsp/wbi2c.c **** 
  17:../src/bsp/wbi2c.c **** /* Functions --------------------------------------------------------------------- */
  18:../src/bsp/wbi2c.c **** void Delay_ms_i2c(__IO uint32_t delay_ms)
  19:../src/bsp/wbi2c.c **** {
  13              		.loc 1 19 1
  14              		.cfi_startproc
  15 0000 0111     		addi	sp,sp,-32
  16              		.cfi_def_cfa_offset 32
  17 0002 22CE     		sw	s0,28(sp)
  18              		.cfi_offset 8, -4
  19 0004 0010     		addi	s0,sp,32
  20              		.cfi_def_cfa 8, 0
  21 0006 2326A4FE 		sw	a0,-20(s0)
  20:../src/bsp/wbi2c.c ****   for(delay_ms=delay_ms * (SYSCLKFREQ>>13); delay_ms != 0; delay_ms--);
  22              		.loc 1 20 25
  23 000a 0327C4FE 		lw	a4,-20(s0)
  24 000e 8567     		li	a5,4096
  25 0010 9387777D 		addi	a5,a5,2007
  26 0014 B307F702 		mul	a5,a4,a5
  27              		.loc 1 20 15
  28 0018 2326F4FE 		sw	a5,-20(s0)
  29              		.loc 1 20 3
  30 001c 31A0     		j	.L2
  31              	.L3:
  32              		.loc 1 20 68 discriminator 3
  33 001e 8327C4FE 		lw	a5,-20(s0)
  34 0022 FD17     		addi	a5,a5,-1
  35 0024 2326F4FE 		sw	a5,-20(s0)
  36              	.L2:
  37              		.loc 1 20 54 discriminator 1
  38 0028 8327C4FE 		lw	a5,-20(s0)
  39              		.loc 1 20 3 discriminator 1
  40 002c EDFB     		bnez	a5,.L3
  21:../src/bsp/wbi2c.c **** }
  41              		.loc 1 21 1
  42 002e 0100     		nop
  43 0030 7244     		lw	s0,28(sp)
  44              		.cfi_restore 8
  45 0032 0561     		addi	sp,sp,32
  46              		.cfi_def_cfa_register 2
  47 0034 8280     		jr	ra
  48              		.cfi_endproc
  49              	.LFE3:
  51              		.section	.text.I2C_Disable,"ax",@progbits
  52              		.align	1
  53              		.globl	I2C_Disable
  55              	I2C_Disable:
  56              	.LFB4:
  22:../src/bsp/wbi2c.c **** 
  23:../src/bsp/wbi2c.c **** void I2C_Disable(WBI2CMASTER_RegDef *I2Cx)
  24:../src/bsp/wbi2c.c **** {
  57              		.loc 1 24 1
  58              		.cfi_startproc
  59 0000 0111     		addi	sp,sp,-32
  60              		.cfi_def_cfa_offset 32
  61 0002 22CE     		sw	s0,28(sp)
  62              		.cfi_offset 8, -4
  63 0004 0010     		addi	s0,sp,32
  64              		.cfi_def_cfa 8, 0
  65 0006 2326A4FE 		sw	a0,-20(s0)
  25:../src/bsp/wbi2c.c **** 	I2Cx->CTR = ~I2C_CTR_EN;
  66              		.loc 1 25 12
  67 000a 8327C4FE 		lw	a5,-20(s0)
  68 000e 1307F0F7 		li	a4,-129
  69 0012 D8C3     		sw	a4,4(a5)
  26:../src/bsp/wbi2c.c **** }
  70              		.loc 1 26 1
  71 0014 0100     		nop
  72 0016 7244     		lw	s0,28(sp)
  73              		.cfi_restore 8
  74 0018 0561     		addi	sp,sp,32
  75              		.cfi_def_cfa_register 2
  76 001a 8280     		jr	ra
  77              		.cfi_endproc
  78              	.LFE4:
  80              		.section	.text.I2C_Enable,"ax",@progbits
  81              		.align	1
  82              		.globl	I2C_Enable
  84              	I2C_Enable:
  85              	.LFB5:
  27:../src/bsp/wbi2c.c **** 
  28:../src/bsp/wbi2c.c **** void I2C_Enable(WBI2CMASTER_RegDef *I2Cx)
  29:../src/bsp/wbi2c.c **** {
  86              		.loc 1 29 1
  87              		.cfi_startproc
  88 0000 0111     		addi	sp,sp,-32
  89              		.cfi_def_cfa_offset 32
  90 0002 22CE     		sw	s0,28(sp)
  91              		.cfi_offset 8, -4
  92 0004 0010     		addi	s0,sp,32
  93              		.cfi_def_cfa 8, 0
  94 0006 2326A4FE 		sw	a0,-20(s0)
  30:../src/bsp/wbi2c.c **** 	I2Cx->CTR |= I2C_CTR_EN ;//|I2C_CTR_IEN;
  95              		.loc 1 30 12
  96 000a 8327C4FE 		lw	a5,-20(s0)
  97 000e DC43     		lw	a5,4(a5)
  98 0010 13E70708 		ori	a4,a5,128
  99 0014 8327C4FE 		lw	a5,-20(s0)
 100 0018 D8C3     		sw	a4,4(a5)
  31:../src/bsp/wbi2c.c **** }
 101              		.loc 1 31 1
 102 001a 0100     		nop
 103 001c 7244     		lw	s0,28(sp)
 104              		.cfi_restore 8
 105 001e 0561     		addi	sp,sp,32
 106              		.cfi_def_cfa_register 2
 107 0020 8280     		jr	ra
 108              		.cfi_endproc
 109              	.LFE5:
 111              		.section	.text.I2C_Rate_Set,"ax",@progbits
 112              		.align	1
 113              		.globl	I2C_Rate_Set
 115              	I2C_Rate_Set:
 116              	.LFB6:
  32:../src/bsp/wbi2c.c **** 
  33:../src/bsp/wbi2c.c **** uint16_t I2C_Rate_Set(WBI2CMASTER_RegDef *I2Cx, uint16_t Rate)
  34:../src/bsp/wbi2c.c **** {
 117              		.loc 1 34 1
 118              		.cfi_startproc
 119 0000 7971     		addi	sp,sp,-48
 120              		.cfi_def_cfa_offset 48
 121 0002 22D6     		sw	s0,44(sp)
 122              		.cfi_offset 8, -4
 123 0004 0018     		addi	s0,sp,48
 124              		.cfi_def_cfa 8, 0
 125 0006 232EA4FC 		sw	a0,-36(s0)
 126 000a AE87     		mv	a5,a1
 127 000c 231DF4FC 		sh	a5,-38(s0)
  35:../src/bsp/wbi2c.c **** 	uint16_t     prescal = 0;
 128              		.loc 1 35 15
 129 0010 231704FE 		sh	zero,-18(s0)
  36:../src/bsp/wbi2c.c **** 	prescal =    (uint16_t) (SYSCLKFREQ / (5000 * Rate) - 1);
 130              		.loc 1 36 46
 131 0014 0357A4FD 		lhu	a4,-38(s0)
 132 0018 8567     		li	a5,4096
 133 001a 93878738 		addi	a5,a5,904
 134 001e B307F702 		mul	a5,a4,a5
 135              		.loc 1 36 38
 136 0022 37F7FA02 		li	a4,49999872
 137 0026 13070708 		addi	a4,a4,128
 138 002a B347F702 		div	a5,a4,a5
 139              		.loc 1 36 15
 140 002e C207     		slli	a5,a5,16
 141 0030 C183     		srli	a5,a5,16
 142              		.loc 1 36 10
 143 0032 FD17     		addi	a5,a5,-1
 144 0034 2317F4FE 		sh	a5,-18(s0)
  37:../src/bsp/wbi2c.c **** 	I2Cx->PRER = (prescal & I2C_CTR_PERE);
 145              		.loc 1 37 24
 146 0038 0357E4FE 		lhu	a4,-18(s0)
 147              		.loc 1 37 13
 148 003c 8327C4FD 		lw	a5,-36(s0)
 149 0040 98C3     		sw	a4,0(a5)
  38:../src/bsp/wbi2c.c **** 	return       prescal;
 150              		.loc 1 38 15
 151 0042 8357E4FE 		lhu	a5,-18(s0)
  39:../src/bsp/wbi2c.c **** }
 152              		.loc 1 39 1
 153 0046 3E85     		mv	a0,a5
 154 0048 3254     		lw	s0,44(sp)
 155              		.cfi_restore 8
 156 004a 4561     		addi	sp,sp,48
 157              		.cfi_def_cfa_register 2
 158 004c 8280     		jr	ra
 159              		.cfi_endproc
 160              	.LFE6:
 162              		.section	.text.I2C_Init,"ax",@progbits
 163              		.align	1
 164              		.globl	I2C_Init
 166              	I2C_Init:
 167              	.LFB7:
  40:../src/bsp/wbi2c.c **** 
  41:../src/bsp/wbi2c.c **** uint8_t I2C_Init(WBI2CMASTER_RegDef *I2Cx, uint16_t Rate)
  42:../src/bsp/wbi2c.c **** {
 168              		.loc 1 42 1
 169              		.cfi_startproc
 170 0000 7971     		addi	sp,sp,-48
 171              		.cfi_def_cfa_offset 48
 172 0002 06D6     		sw	ra,44(sp)
 173 0004 22D4     		sw	s0,40(sp)
 174              		.cfi_offset 1, -4
 175              		.cfi_offset 8, -8
 176 0006 0018     		addi	s0,sp,48
 177              		.cfi_def_cfa 8, 0
 178 0008 232EA4FC 		sw	a0,-36(s0)
 179 000c AE87     		mv	a5,a1
 180 000e 231DF4FC 		sh	a5,-38(s0)
  43:../src/bsp/wbi2c.c **** 	uint16_t temp_save;
  44:../src/bsp/wbi2c.c **** 	temp_save=I2C_Rate_Set(I2Cx, Rate);
 181              		.loc 1 44 12
 182 0012 8357A4FD 		lhu	a5,-38(s0)
 183 0016 BE85     		mv	a1,a5
 184 0018 0325C4FD 		lw	a0,-36(s0)
 185 001c 97000000 		call	I2C_Rate_Set
 185      E7800000 
 186 0024 AA87     		mv	a5,a0
 187 0026 2317F4FE 		sh	a5,-18(s0)
  45:../src/bsp/wbi2c.c **** 	I2C_Enable(I2Cx);
 188              		.loc 1 45 2
 189 002a 0325C4FD 		lw	a0,-36(s0)
 190 002e 97000000 		call	I2C_Enable
 190      E7800000 
  46:../src/bsp/wbi2c.c **** 
  47:../src/bsp/wbi2c.c **** 	if( (I2Cx->CTR & I2C_CTR_EN) && (I2Cx->PRER == (uint32_t)(temp_save & I2C_CTR_PERE)))
 191              		.loc 1 47 11
 192 0036 8327C4FD 		lw	a5,-36(s0)
 193 003a DC43     		lw	a5,4(a5)
 194              		.loc 1 47 17
 195 003c 93F70708 		andi	a5,a5,128
 196              		.loc 1 47 4
 197 0040 91CB     		beqz	a5,.L9
 198              		.loc 1 47 39 discriminator 1
 199 0042 8327C4FD 		lw	a5,-36(s0)
 200 0046 9843     		lw	a4,0(a5)
 201              		.loc 1 47 46 discriminator 1
 202 0048 8357E4FE 		lhu	a5,-18(s0)
 203              		.loc 1 47 31 discriminator 1
 204 004c 6314F700 		bne	a4,a5,.L9
  48:../src/bsp/wbi2c.c **** 	{
  49:../src/bsp/wbi2c.c **** 		return 0;
 205              		.loc 1 49 10
 206 0050 8147     		li	a5,0
 207 0052 11A0     		j	.L10
 208              	.L9:
  50:../src/bsp/wbi2c.c **** 	}
  51:../src/bsp/wbi2c.c **** 	else
  52:../src/bsp/wbi2c.c **** 		return 1;
 209              		.loc 1 52 10
 210 0054 8547     		li	a5,1
 211              	.L10:
  53:../src/bsp/wbi2c.c **** }
 212              		.loc 1 53 1
 213 0056 3E85     		mv	a0,a5
 214 0058 B250     		lw	ra,44(sp)
 215              		.cfi_restore 1
 216 005a 2254     		lw	s0,40(sp)
 217              		.cfi_restore 8
 218 005c 4561     		addi	sp,sp,48
 219              		.cfi_def_cfa_register 2
 220 005e 8280     		jr	ra
 221              		.cfi_endproc
 222              	.LFE7:
 224              		.section	.text.I2C_SendByte,"ax",@progbits
 225              		.align	1
 226              		.globl	I2C_SendByte
 228              	I2C_SendByte:
 229              	.LFB8:
  54:../src/bsp/wbi2c.c **** 
  55:../src/bsp/wbi2c.c **** void I2C_SendByte(WBI2CMASTER_RegDef *I2Cx, uint8_t slv_address, uint8_t data_address, uint8_t data
  56:../src/bsp/wbi2c.c **** {
 230              		.loc 1 56 1
 231              		.cfi_startproc
 232 0000 0111     		addi	sp,sp,-32
 233              		.cfi_def_cfa_offset 32
 234 0002 06CE     		sw	ra,28(sp)
 235 0004 22CC     		sw	s0,24(sp)
 236              		.cfi_offset 1, -4
 237              		.cfi_offset 8, -8
 238 0006 0010     		addi	s0,sp,32
 239              		.cfi_def_cfa 8, 0
 240 0008 2326A4FE 		sw	a0,-20(s0)
 241 000c AE87     		mv	a5,a1
 242 000e 3687     		mv	a4,a3
 243 0010 A305F4FE 		sb	a5,-21(s0)
 244 0014 B287     		mv	a5,a2
 245 0016 2305F4FE 		sb	a5,-22(s0)
 246 001a BA87     		mv	a5,a4
 247 001c A304F4FE 		sb	a5,-23(s0)
  57:../src/bsp/wbi2c.c **** 
  58:../src/bsp/wbi2c.c **** 	I2Cx->TXR = (slv_address << 1) | 0;
 248              		.loc 1 58 33
 249 0020 8347B4FE 		lbu	a5,-21(s0)
 250 0024 8607     		slli	a5,a5,1
 251 0026 3E87     		mv	a4,a5
 252              		.loc 1 58 12
 253 0028 8327C4FE 		lw	a5,-20(s0)
 254 002c 98C7     		sw	a4,8(a5)
  59:../src/bsp/wbi2c.c **** 	I2Cx->CR = I2C_CMD_STA | I2C_CMD_WR | I2C_CMD_ACK;
 255              		.loc 1 59 11
 256 002e 8327C4FE 		lw	a5,-20(s0)
 257 0032 13078009 		li	a4,152
 258 0036 D8C7     		sw	a4,12(a5)
  60:../src/bsp/wbi2c.c **** 	while(I2Cx->SR & I2C_SR_TIP);//wait TIP
 259              		.loc 1 60 7
 260 0038 0100     		nop
 261              	.L12:
 262              		.loc 1 60 12 discriminator 1
 263 003a 8327C4FE 		lw	a5,-20(s0)
 264 003e DC47     		lw	a5,12(a5)
 265              		.loc 1 60 17 discriminator 1
 266 0040 898B     		andi	a5,a5,2
 267              		.loc 1 60 7 discriminator 1
 268 0042 E5FF     		bnez	a5,.L12
  61:../src/bsp/wbi2c.c **** 	while(I2Cx->SR & I2C_SR_RXACK);//wait ack-----Over Here
 269              		.loc 1 61 7
 270 0044 0100     		nop
 271              	.L13:
 272              		.loc 1 61 12 discriminator 1
 273 0046 8327C4FE 		lw	a5,-20(s0)
 274 004a DC47     		lw	a5,12(a5)
 275              		.loc 1 61 17 discriminator 1
 276 004c 93F70708 		andi	a5,a5,128
 277              		.loc 1 61 7 discriminator 1
 278 0050 FDFB     		bnez	a5,.L13
  62:../src/bsp/wbi2c.c **** 
  63:../src/bsp/wbi2c.c **** 
  64:../src/bsp/wbi2c.c **** 	I2Cx->TXR = data_address;
 279              		.loc 1 64 12
 280 0052 0347A4FE 		lbu	a4,-22(s0)
 281 0056 8327C4FE 		lw	a5,-20(s0)
 282 005a 98C7     		sw	a4,8(a5)
  65:../src/bsp/wbi2c.c **** 	I2Cx->CR = (I2C_CMD_WR | I2C_CMD_ACK);
 283              		.loc 1 65 11
 284 005c 8327C4FE 		lw	a5,-20(s0)
 285 0060 6147     		li	a4,24
 286 0062 D8C7     		sw	a4,12(a5)
  66:../src/bsp/wbi2c.c **** 	while(I2Cx->SR & I2C_SR_TIP);//wait TIP
 287              		.loc 1 66 7
 288 0064 0100     		nop
 289              	.L14:
 290              		.loc 1 66 12 discriminator 1
 291 0066 8327C4FE 		lw	a5,-20(s0)
 292 006a DC47     		lw	a5,12(a5)
 293              		.loc 1 66 17 discriminator 1
 294 006c 898B     		andi	a5,a5,2
 295              		.loc 1 66 7 discriminator 1
 296 006e E5FF     		bnez	a5,.L14
  67:../src/bsp/wbi2c.c **** 	while(I2Cx->SR & I2C_SR_RXACK);//wait ack
 297              		.loc 1 67 7
 298 0070 0100     		nop
 299              	.L15:
 300              		.loc 1 67 12 discriminator 1
 301 0072 8327C4FE 		lw	a5,-20(s0)
 302 0076 DC47     		lw	a5,12(a5)
 303              		.loc 1 67 17 discriminator 1
 304 0078 93F70708 		andi	a5,a5,128
 305              		.loc 1 67 7 discriminator 1
 306 007c FDFB     		bnez	a5,.L15
  68:../src/bsp/wbi2c.c **** 
  69:../src/bsp/wbi2c.c **** 
  70:../src/bsp/wbi2c.c **** 	I2Cx->TXR = data;
 307              		.loc 1 70 12
 308 007e 034794FE 		lbu	a4,-23(s0)
 309 0082 8327C4FE 		lw	a5,-20(s0)
 310 0086 98C7     		sw	a4,8(a5)
  71:../src/bsp/wbi2c.c **** 	I2Cx->CR |= (I2C_CMD_STO | I2C_CMD_WR | I2C_CMD_ACK);//I2C_CMD_WR;//(I2C_CMD_STO|I2C_CMD_WR);
 311              		.loc 1 71 11
 312 0088 8327C4FE 		lw	a5,-20(s0)
 313 008c DC47     		lw	a5,12(a5)
 314 008e 13E78705 		ori	a4,a5,88
 315 0092 8327C4FE 		lw	a5,-20(s0)
 316 0096 D8C7     		sw	a4,12(a5)
  72:../src/bsp/wbi2c.c **** 	while(I2Cx->SR & I2C_SR_TIP);//wait TIP
 317              		.loc 1 72 7
 318 0098 0100     		nop
 319              	.L16:
 320              		.loc 1 72 12 discriminator 1
 321 009a 8327C4FE 		lw	a5,-20(s0)
 322 009e DC47     		lw	a5,12(a5)
 323              		.loc 1 72 17 discriminator 1
 324 00a0 898B     		andi	a5,a5,2
 325              		.loc 1 72 7 discriminator 1
 326 00a2 E5FF     		bnez	a5,.L16
  73:../src/bsp/wbi2c.c **** 	while(I2Cx->SR & I2C_SR_RXACK);//wait ack
 327              		.loc 1 73 7
 328 00a4 0100     		nop
 329              	.L17:
 330              		.loc 1 73 12 discriminator 1
 331 00a6 8327C4FE 		lw	a5,-20(s0)
 332 00aa DC47     		lw	a5,12(a5)
 333              		.loc 1 73 17 discriminator 1
 334 00ac 93F70708 		andi	a5,a5,128
 335              		.loc 1 73 7 discriminator 1
 336 00b0 FDFB     		bnez	a5,.L17
  74:../src/bsp/wbi2c.c **** 	while(I2Cx->SR & I2C_SR_BUSY);
 337              		.loc 1 74 7
 338 00b2 0100     		nop
 339              	.L18:
 340              		.loc 1 74 12 discriminator 1
 341 00b4 8327C4FE 		lw	a5,-20(s0)
 342 00b8 DC47     		lw	a5,12(a5)
 343              		.loc 1 74 17 discriminator 1
 344 00ba 93F70704 		andi	a5,a5,64
 345              		.loc 1 74 7 discriminator 1
 346 00be FDFB     		bnez	a5,.L18
  75:../src/bsp/wbi2c.c **** 	Delay_ms_i2c(3);//Wait the data to I2C Ready
 347              		.loc 1 75 2
 348 00c0 0D45     		li	a0,3
 349 00c2 97000000 		call	Delay_ms_i2c
 349      E7800000 
  76:../src/bsp/wbi2c.c **** }
 350              		.loc 1 76 1
 351 00ca 0100     		nop
 352 00cc F240     		lw	ra,28(sp)
 353              		.cfi_restore 1
 354 00ce 6244     		lw	s0,24(sp)
 355              		.cfi_restore 8
 356 00d0 0561     		addi	sp,sp,32
 357              		.cfi_def_cfa_register 2
 358 00d2 8280     		jr	ra
 359              		.cfi_endproc
 360              	.LFE8:
 362              		.section	.text.I2C_ReceiveByte,"ax",@progbits
 363              		.align	1
 364              		.globl	I2C_ReceiveByte
 366              	I2C_ReceiveByte:
 367              	.LFB9:
  77:../src/bsp/wbi2c.c **** 
  78:../src/bsp/wbi2c.c **** uint8_t I2C_ReceiveByte(WBI2CMASTER_RegDef *I2Cx, uint8_t slv_addr, uint8_t data_addr)
  79:../src/bsp/wbi2c.c **** {
 368              		.loc 1 79 1
 369              		.cfi_startproc
 370 0000 7971     		addi	sp,sp,-48
 371              		.cfi_def_cfa_offset 48
 372 0002 06D6     		sw	ra,44(sp)
 373 0004 22D4     		sw	s0,40(sp)
 374              		.cfi_offset 1, -4
 375              		.cfi_offset 8, -8
 376 0006 0018     		addi	s0,sp,48
 377              		.cfi_def_cfa 8, 0
 378 0008 232EA4FC 		sw	a0,-36(s0)
 379 000c AE87     		mv	a5,a1
 380 000e 3287     		mv	a4,a2
 381 0010 A30DF4FC 		sb	a5,-37(s0)
 382 0014 BA87     		mv	a5,a4
 383 0016 230DF4FC 		sb	a5,-38(s0)
  80:../src/bsp/wbi2c.c **** 	uint8_t data=0;
 384              		.loc 1 80 10
 385 001a A30704FE 		sb	zero,-17(s0)
  81:../src/bsp/wbi2c.c **** 	I2Cx->TXR = (slv_addr << 1) | 0;
 386              		.loc 1 81 30
 387 001e 8347B4FD 		lbu	a5,-37(s0)
 388 0022 8607     		slli	a5,a5,1
 389 0024 3E87     		mv	a4,a5
 390              		.loc 1 81 12
 391 0026 8327C4FD 		lw	a5,-36(s0)
 392 002a 98C7     		sw	a4,8(a5)
  82:../src/bsp/wbi2c.c **** 	I2Cx->CR = I2C_CMD_STA | I2C_CMD_WR | I2C_CMD_ACK;
 393              		.loc 1 82 11
 394 002c 8327C4FD 		lw	a5,-36(s0)
 395 0030 13078009 		li	a4,152
 396 0034 D8C7     		sw	a4,12(a5)
  83:../src/bsp/wbi2c.c **** 	while(I2Cx->SR & I2C_SR_TIP);
 397              		.loc 1 83 7
 398 0036 0100     		nop
 399              	.L20:
 400              		.loc 1 83 12 discriminator 1
 401 0038 8327C4FD 		lw	a5,-36(s0)
 402 003c DC47     		lw	a5,12(a5)
 403              		.loc 1 83 17 discriminator 1
 404 003e 898B     		andi	a5,a5,2
 405              		.loc 1 83 7 discriminator 1
 406 0040 E5FF     		bnez	a5,.L20
  84:../src/bsp/wbi2c.c **** 	while(I2Cx->SR & I2C_SR_RXACK);//wait ack-----Over Here
 407              		.loc 1 84 7
 408 0042 0100     		nop
 409              	.L21:
 410              		.loc 1 84 12 discriminator 1
 411 0044 8327C4FD 		lw	a5,-36(s0)
 412 0048 DC47     		lw	a5,12(a5)
 413              		.loc 1 84 17 discriminator 1
 414 004a 93F70708 		andi	a5,a5,128
 415              		.loc 1 84 7 discriminator 1
 416 004e FDFB     		bnez	a5,.L21
  85:../src/bsp/wbi2c.c **** 
  86:../src/bsp/wbi2c.c **** 
  87:../src/bsp/wbi2c.c **** 	I2Cx->TXR = data_addr;
 417              		.loc 1 87 12
 418 0050 0347A4FD 		lbu	a4,-38(s0)
 419 0054 8327C4FD 		lw	a5,-36(s0)
 420 0058 98C7     		sw	a4,8(a5)
  88:../src/bsp/wbi2c.c **** 	I2Cx->CR = I2C_CMD_WR | I2C_CMD_ACK;//stop
 421              		.loc 1 88 11
 422 005a 8327C4FD 		lw	a5,-36(s0)
 423 005e 6147     		li	a4,24
 424 0060 D8C7     		sw	a4,12(a5)
  89:../src/bsp/wbi2c.c **** 	while(I2Cx->SR & I2C_SR_TIP);//wait TIP
 425              		.loc 1 89 7
 426 0062 0100     		nop
 427              	.L22:
 428              		.loc 1 89 12 discriminator 1
 429 0064 8327C4FD 		lw	a5,-36(s0)
 430 0068 DC47     		lw	a5,12(a5)
 431              		.loc 1 89 17 discriminator 1
 432 006a 898B     		andi	a5,a5,2
 433              		.loc 1 89 7 discriminator 1
 434 006c E5FF     		bnez	a5,.L22
  90:../src/bsp/wbi2c.c **** 	while(I2Cx->SR & I2C_SR_RXACK);//wait ack
 435              		.loc 1 90 7
 436 006e 0100     		nop
 437              	.L23:
 438              		.loc 1 90 12 discriminator 1
 439 0070 8327C4FD 		lw	a5,-36(s0)
 440 0074 DC47     		lw	a5,12(a5)
 441              		.loc 1 90 17 discriminator 1
 442 0076 93F70708 		andi	a5,a5,128
 443              		.loc 1 90 7 discriminator 1
 444 007a FDFB     		bnez	a5,.L23
  91:../src/bsp/wbi2c.c **** 
  92:../src/bsp/wbi2c.c **** 
  93:../src/bsp/wbi2c.c **** 	I2Cx->TXR = (slv_addr << 1) | 1;
 445              		.loc 1 93 24
 446 007c 8347B4FD 		lbu	a5,-37(s0)
 447 0080 8607     		slli	a5,a5,1
 448              		.loc 1 93 30
 449 0082 93E71700 		ori	a5,a5,1
 450 0086 3E87     		mv	a4,a5
 451              		.loc 1 93 12
 452 0088 8327C4FD 		lw	a5,-36(s0)
 453 008c 98C7     		sw	a4,8(a5)
  94:../src/bsp/wbi2c.c **** 	I2Cx->CR = I2C_CMD_STA | I2C_CMD_WR | I2C_CMD_ACK;
 454              		.loc 1 94 11
 455 008e 8327C4FD 		lw	a5,-36(s0)
 456 0092 13078009 		li	a4,152
 457 0096 D8C7     		sw	a4,12(a5)
  95:../src/bsp/wbi2c.c **** 	while(I2Cx->SR & I2C_SR_TIP);
 458              		.loc 1 95 7
 459 0098 0100     		nop
 460              	.L24:
 461              		.loc 1 95 12 discriminator 1
 462 009a 8327C4FD 		lw	a5,-36(s0)
 463 009e DC47     		lw	a5,12(a5)
 464              		.loc 1 95 17 discriminator 1
 465 00a0 898B     		andi	a5,a5,2
 466              		.loc 1 95 7 discriminator 1
 467 00a2 E5FF     		bnez	a5,.L24
  96:../src/bsp/wbi2c.c **** 	while(I2Cx->SR & I2C_SR_RXACK);//wait ack
 468              		.loc 1 96 7
 469 00a4 0100     		nop
 470              	.L25:
 471              		.loc 1 96 12 discriminator 1
 472 00a6 8327C4FD 		lw	a5,-36(s0)
 473 00aa DC47     		lw	a5,12(a5)
 474              		.loc 1 96 17 discriminator 1
 475 00ac 93F70708 		andi	a5,a5,128
 476              		.loc 1 96 7 discriminator 1
 477 00b0 FDFB     		bnez	a5,.L25
  97:../src/bsp/wbi2c.c **** 
  98:../src/bsp/wbi2c.c **** 
  99:../src/bsp/wbi2c.c **** 	I2Cx->CR = ((I2C_CMD_ACK) | I2C_CMD_STO | I2C_CMD_RD);//send nack
 478              		.loc 1 99 11
 479 00b2 8327C4FD 		lw	a5,-36(s0)
 480 00b6 13078006 		li	a4,104
 481 00ba D8C7     		sw	a4,12(a5)
 100:../src/bsp/wbi2c.c **** 	while(I2Cx->SR & I2C_SR_TIP);
 482              		.loc 1 100 7
 483 00bc 0100     		nop
 484              	.L26:
 485              		.loc 1 100 12 discriminator 1
 486 00be 8327C4FD 		lw	a5,-36(s0)
 487 00c2 DC47     		lw	a5,12(a5)
 488              		.loc 1 100 17 discriminator 1
 489 00c4 898B     		andi	a5,a5,2
 490              		.loc 1 100 7 discriminator 1
 491 00c6 E5FF     		bnez	a5,.L26
 101:../src/bsp/wbi2c.c **** 	data = I2Cx->RXR;
 492              		.loc 1 101 13
 493 00c8 8327C4FD 		lw	a5,-36(s0)
 494 00cc 9C47     		lw	a5,8(a5)
 495              		.loc 1 101 7
 496 00ce A307F4FE 		sb	a5,-17(s0)
 102:../src/bsp/wbi2c.c **** 	Delay_ms_i2c(3);//Wait the data from I2C Ready
 497              		.loc 1 102 2
 498 00d2 0D45     		li	a0,3
 499 00d4 97000000 		call	Delay_ms_i2c
 499      E7800000 
 103:../src/bsp/wbi2c.c ****     return data;
 500              		.loc 1 103 12
 501 00dc 8347F4FE 		lbu	a5,-17(s0)
 104:../src/bsp/wbi2c.c **** }
 502              		.loc 1 104 1
 503 00e0 3E85     		mv	a0,a5
 504 00e2 B250     		lw	ra,44(sp)
 505              		.cfi_restore 1
 506 00e4 2254     		lw	s0,40(sp)
 507              		.cfi_restore 8
 508 00e6 4561     		addi	sp,sp,48
 509              		.cfi_def_cfa_register 2
 510 00e8 8280     		jr	ra
 511              		.cfi_endproc
 512              	.LFE9:
 514              		.section	.text.I2C_SendWord,"ax",@progbits
 515              		.align	1
 516              		.globl	I2C_SendWord
 518              	I2C_SendWord:
 519              	.LFB10:
 105:../src/bsp/wbi2c.c **** 
 106:../src/bsp/wbi2c.c **** //send a 16 bit data, dir == 1, upper byte first; dir == 0, lower byte first
 107:../src/bsp/wbi2c.c **** void I2C_SendWord(WBI2CMASTER_RegDef *I2Cx, uint8_t slv_address, uint8_t data_address, uint16_t dat
 108:../src/bsp/wbi2c.c **** {
 520              		.loc 1 108 1
 521              		.cfi_startproc
 522 0000 7971     		addi	sp,sp,-48
 523              		.cfi_def_cfa_offset 48
 524 0002 06D6     		sw	ra,44(sp)
 525 0004 22D4     		sw	s0,40(sp)
 526              		.cfi_offset 1, -4
 527              		.cfi_offset 8, -8
 528 0006 0018     		addi	s0,sp,48
 529              		.cfi_def_cfa 8, 0
 530 0008 232EA4FC 		sw	a0,-36(s0)
 531 000c AE87     		mv	a5,a1
 532 000e A30DF4FC 		sb	a5,-37(s0)
 533 0012 B287     		mv	a5,a2
 534 0014 230DF4FC 		sb	a5,-38(s0)
 535 0018 B687     		mv	a5,a3
 536 001a 231CF4FC 		sh	a5,-40(s0)
 537 001e BA87     		mv	a5,a4
 538 0020 A30BF4FC 		sb	a5,-41(s0)
 109:../src/bsp/wbi2c.c **** 	uint8_t data0 = 0;
 539              		.loc 1 109 10
 540 0024 A30704FE 		sb	zero,-17(s0)
 110:../src/bsp/wbi2c.c **** 	uint8_t data1 = 0;
 541              		.loc 1 110 10
 542 0028 230704FE 		sb	zero,-18(s0)
 111:../src/bsp/wbi2c.c **** 	if(dir)  //send upper byte first
 543              		.loc 1 111 4
 544 002c 834774FD 		lbu	a5,-41(s0)
 545 0030 89CF     		beqz	a5,.L29
 112:../src/bsp/wbi2c.c **** 	{
 113:../src/bsp/wbi2c.c **** 		data0 = (uint8_t)(data >> 8);
 546              		.loc 1 113 11
 547 0032 835784FD 		lhu	a5,-40(s0)
 548 0036 A183     		srli	a5,a5,8
 549 0038 C207     		slli	a5,a5,16
 550 003a C183     		srli	a5,a5,16
 551              		.loc 1 113 9
 552 003c A307F4FE 		sb	a5,-17(s0)
 114:../src/bsp/wbi2c.c **** 		data1 = (uint8_t)(data & 0xff);
 553              		.loc 1 114 9
 554 0040 835784FD 		lhu	a5,-40(s0)
 555 0044 2307F4FE 		sb	a5,-18(s0)
 556 0048 21A8     		j	.L30
 557              	.L29:
 115:../src/bsp/wbi2c.c **** 	}
 116:../src/bsp/wbi2c.c **** 	else  //send lower byte first
 117:../src/bsp/wbi2c.c **** 	{
 118:../src/bsp/wbi2c.c **** 		data0 = (uint8_t)(data & 0xff);
 558              		.loc 1 118 9
 559 004a 835784FD 		lhu	a5,-40(s0)
 560 004e A307F4FE 		sb	a5,-17(s0)
 119:../src/bsp/wbi2c.c **** 		data1 = (uint8_t)(data >> 8);
 561              		.loc 1 119 11
 562 0052 835784FD 		lhu	a5,-40(s0)
 563 0056 A183     		srli	a5,a5,8
 564 0058 C207     		slli	a5,a5,16
 565 005a C183     		srli	a5,a5,16
 566              		.loc 1 119 9
 567 005c 2307F4FE 		sb	a5,-18(s0)
 568              	.L30:
 120:../src/bsp/wbi2c.c **** 	}
 121:../src/bsp/wbi2c.c **** 
 122:../src/bsp/wbi2c.c **** 	I2Cx->TXR = (slv_address << 1) | 0;
 569              		.loc 1 122 33
 570 0060 8347B4FD 		lbu	a5,-37(s0)
 571 0064 8607     		slli	a5,a5,1
 572 0066 3E87     		mv	a4,a5
 573              		.loc 1 122 12
 574 0068 8327C4FD 		lw	a5,-36(s0)
 575 006c 98C7     		sw	a4,8(a5)
 123:../src/bsp/wbi2c.c **** 	I2Cx->CR = I2C_CMD_STA | I2C_CMD_WR | I2C_CMD_ACK;
 576              		.loc 1 123 11
 577 006e 8327C4FD 		lw	a5,-36(s0)
 578 0072 13078009 		li	a4,152
 579 0076 D8C7     		sw	a4,12(a5)
 124:../src/bsp/wbi2c.c **** 	while(I2Cx->SR & I2C_SR_TIP);//wait TIP
 580              		.loc 1 124 7
 581 0078 0100     		nop
 582              	.L31:
 583              		.loc 1 124 12 discriminator 1
 584 007a 8327C4FD 		lw	a5,-36(s0)
 585 007e DC47     		lw	a5,12(a5)
 586              		.loc 1 124 17 discriminator 1
 587 0080 898B     		andi	a5,a5,2
 588              		.loc 1 124 7 discriminator 1
 589 0082 E5FF     		bnez	a5,.L31
 125:../src/bsp/wbi2c.c **** 	while(I2Cx->SR & I2C_SR_RXACK);//wait ack-----Over Here
 590              		.loc 1 125 7
 591 0084 0100     		nop
 592              	.L32:
 593              		.loc 1 125 12 discriminator 1
 594 0086 8327C4FD 		lw	a5,-36(s0)
 595 008a DC47     		lw	a5,12(a5)
 596              		.loc 1 125 17 discriminator 1
 597 008c 93F70708 		andi	a5,a5,128
 598              		.loc 1 125 7 discriminator 1
 599 0090 FDFB     		bnez	a5,.L32
 126:../src/bsp/wbi2c.c **** 
 127:../src/bsp/wbi2c.c **** 
 128:../src/bsp/wbi2c.c **** 	I2Cx->TXR = data_address;
 600              		.loc 1 128 12
 601 0092 0347A4FD 		lbu	a4,-38(s0)
 602 0096 8327C4FD 		lw	a5,-36(s0)
 603 009a 98C7     		sw	a4,8(a5)
 129:../src/bsp/wbi2c.c **** 	I2Cx->CR = (I2C_CMD_WR | I2C_CMD_ACK);
 604              		.loc 1 129 11
 605 009c 8327C4FD 		lw	a5,-36(s0)
 606 00a0 6147     		li	a4,24
 607 00a2 D8C7     		sw	a4,12(a5)
 130:../src/bsp/wbi2c.c **** 	while(I2Cx->SR & I2C_SR_TIP);//wait TIP
 608              		.loc 1 130 7
 609 00a4 0100     		nop
 610              	.L33:
 611              		.loc 1 130 12 discriminator 1
 612 00a6 8327C4FD 		lw	a5,-36(s0)
 613 00aa DC47     		lw	a5,12(a5)
 614              		.loc 1 130 17 discriminator 1
 615 00ac 898B     		andi	a5,a5,2
 616              		.loc 1 130 7 discriminator 1
 617 00ae E5FF     		bnez	a5,.L33
 131:../src/bsp/wbi2c.c **** 	while(I2Cx->SR & I2C_SR_RXACK);//wait ack
 618              		.loc 1 131 7
 619 00b0 0100     		nop
 620              	.L34:
 621              		.loc 1 131 12 discriminator 1
 622 00b2 8327C4FD 		lw	a5,-36(s0)
 623 00b6 DC47     		lw	a5,12(a5)
 624              		.loc 1 131 17 discriminator 1
 625 00b8 93F70708 		andi	a5,a5,128
 626              		.loc 1 131 7 discriminator 1
 627 00bc FDFB     		bnez	a5,.L34
 132:../src/bsp/wbi2c.c **** 
 133:../src/bsp/wbi2c.c **** 	I2Cx->TXR = data0;
 628              		.loc 1 133 12
 629 00be 0347F4FE 		lbu	a4,-17(s0)
 630 00c2 8327C4FD 		lw	a5,-36(s0)
 631 00c6 98C7     		sw	a4,8(a5)
 134:../src/bsp/wbi2c.c **** 	I2Cx->CR = (I2C_CMD_WR | I2C_CMD_ACK);//I2C_CMD_WR;//(I2C_CMD_STO|I2C_CMD_WR);
 632              		.loc 1 134 11
 633 00c8 8327C4FD 		lw	a5,-36(s0)
 634 00cc 6147     		li	a4,24
 635 00ce D8C7     		sw	a4,12(a5)
 135:../src/bsp/wbi2c.c **** 	while(I2Cx->SR & I2C_SR_TIP);//wait TIP
 636              		.loc 1 135 7
 637 00d0 0100     		nop
 638              	.L35:
 639              		.loc 1 135 12 discriminator 1
 640 00d2 8327C4FD 		lw	a5,-36(s0)
 641 00d6 DC47     		lw	a5,12(a5)
 642              		.loc 1 135 17 discriminator 1
 643 00d8 898B     		andi	a5,a5,2
 644              		.loc 1 135 7 discriminator 1
 645 00da E5FF     		bnez	a5,.L35
 136:../src/bsp/wbi2c.c **** 	while(I2Cx->SR & I2C_SR_RXACK);//wait ack
 646              		.loc 1 136 7
 647 00dc 0100     		nop
 648              	.L36:
 649              		.loc 1 136 12 discriminator 1
 650 00de 8327C4FD 		lw	a5,-36(s0)
 651 00e2 DC47     		lw	a5,12(a5)
 652              		.loc 1 136 17 discriminator 1
 653 00e4 93F70708 		andi	a5,a5,128
 654              		.loc 1 136 7 discriminator 1
 655 00e8 FDFB     		bnez	a5,.L36
 137:../src/bsp/wbi2c.c **** 	Delay_ms_i2c(3);//Wait the data to I2C Ready
 656              		.loc 1 137 2
 657 00ea 0D45     		li	a0,3
 658 00ec 97000000 		call	Delay_ms_i2c
 658      E7800000 
 138:../src/bsp/wbi2c.c **** 
 139:../src/bsp/wbi2c.c **** 
 140:../src/bsp/wbi2c.c **** 	I2Cx->TXR = data1;
 659              		.loc 1 140 12
 660 00f4 0347E4FE 		lbu	a4,-18(s0)
 661 00f8 8327C4FD 		lw	a5,-36(s0)
 662 00fc 98C7     		sw	a4,8(a5)
 141:../src/bsp/wbi2c.c **** 	I2Cx->CR |= (I2C_CMD_STO | I2C_CMD_WR | I2C_CMD_ACK);//I2C_CMD_WR;//(I2C_CMD_STO|I2C_CMD_WR);
 663              		.loc 1 141 11
 664 00fe 8327C4FD 		lw	a5,-36(s0)
 665 0102 DC47     		lw	a5,12(a5)
 666 0104 13E78705 		ori	a4,a5,88
 667 0108 8327C4FD 		lw	a5,-36(s0)
 668 010c D8C7     		sw	a4,12(a5)
 142:../src/bsp/wbi2c.c **** 	while(I2Cx->SR & I2C_SR_TIP);//wait TIP
 669              		.loc 1 142 7
 670 010e 0100     		nop
 671              	.L37:
 672              		.loc 1 142 12 discriminator 1
 673 0110 8327C4FD 		lw	a5,-36(s0)
 674 0114 DC47     		lw	a5,12(a5)
 675              		.loc 1 142 17 discriminator 1
 676 0116 898B     		andi	a5,a5,2
 677              		.loc 1 142 7 discriminator 1
 678 0118 E5FF     		bnez	a5,.L37
 143:../src/bsp/wbi2c.c **** 	while(I2Cx->SR & I2C_SR_RXACK);//wait ack
 679              		.loc 1 143 7
 680 011a 0100     		nop
 681              	.L38:
 682              		.loc 1 143 12 discriminator 1
 683 011c 8327C4FD 		lw	a5,-36(s0)
 684 0120 DC47     		lw	a5,12(a5)
 685              		.loc 1 143 17 discriminator 1
 686 0122 93F70708 		andi	a5,a5,128
 687              		.loc 1 143 7 discriminator 1
 688 0126 FDFB     		bnez	a5,.L38
 144:../src/bsp/wbi2c.c **** 	while(I2Cx->SR & I2C_SR_BUSY);
 689              		.loc 1 144 7
 690 0128 0100     		nop
 691              	.L39:
 692              		.loc 1 144 12 discriminator 1
 693 012a 8327C4FD 		lw	a5,-36(s0)
 694 012e DC47     		lw	a5,12(a5)
 695              		.loc 1 144 17 discriminator 1
 696 0130 93F70704 		andi	a5,a5,64
 697              		.loc 1 144 7 discriminator 1
 698 0134 FDFB     		bnez	a5,.L39
 145:../src/bsp/wbi2c.c **** 	Delay_ms_i2c(3);//Wait the data to I2C Ready
 699              		.loc 1 145 2
 700 0136 0D45     		li	a0,3
 701 0138 97000000 		call	Delay_ms_i2c
 701      E7800000 
 146:../src/bsp/wbi2c.c **** }
 702              		.loc 1 146 1
 703 0140 0100     		nop
 704 0142 B250     		lw	ra,44(sp)
 705              		.cfi_restore 1
 706 0144 2254     		lw	s0,40(sp)
 707              		.cfi_restore 8
 708 0146 4561     		addi	sp,sp,48
 709              		.cfi_def_cfa_register 2
 710 0148 8280     		jr	ra
 711              		.cfi_endproc
 712              	.LFE10:
 714              		.section	.text.I2C_ReceiveWord,"ax",@progbits
 715              		.align	1
 716              		.globl	I2C_ReceiveWord
 718              	I2C_ReceiveWord:
 719              	.LFB11:
 147:../src/bsp/wbi2c.c **** 
 148:../src/bsp/wbi2c.c **** //receive a 16 bit data, dir == 1, upper byte first; dir == 0, lower byte first
 149:../src/bsp/wbi2c.c **** uint16_t I2C_ReceiveWord(WBI2CMASTER_RegDef *I2Cx, uint8_t slv_addr, uint8_t data_addr, uint8_t dir
 150:../src/bsp/wbi2c.c **** {
 720              		.loc 1 150 1
 721              		.cfi_startproc
 722 0000 7971     		addi	sp,sp,-48
 723              		.cfi_def_cfa_offset 48
 724 0002 06D6     		sw	ra,44(sp)
 725 0004 22D4     		sw	s0,40(sp)
 726              		.cfi_offset 1, -4
 727              		.cfi_offset 8, -8
 728 0006 0018     		addi	s0,sp,48
 729              		.cfi_def_cfa 8, 0
 730 0008 232EA4FC 		sw	a0,-36(s0)
 731 000c AE87     		mv	a5,a1
 732 000e 3687     		mv	a4,a3
 733 0010 A30DF4FC 		sb	a5,-37(s0)
 734 0014 B287     		mv	a5,a2
 735 0016 230DF4FC 		sb	a5,-38(s0)
 736 001a BA87     		mv	a5,a4
 737 001c A30CF4FC 		sb	a5,-39(s0)
 151:../src/bsp/wbi2c.c **** 	uint8_t rbyte0 = 0;
 738              		.loc 1 151 10
 739 0020 A30604FE 		sb	zero,-19(s0)
 152:../src/bsp/wbi2c.c **** 	uint8_t rbyte1 = 0;
 740              		.loc 1 152 10
 741 0024 230604FE 		sb	zero,-20(s0)
 153:../src/bsp/wbi2c.c **** 	uint16_t rword = 0;
 742              		.loc 1 153 11
 743 0028 231704FE 		sh	zero,-18(s0)
 154:../src/bsp/wbi2c.c **** 
 155:../src/bsp/wbi2c.c **** 	I2Cx->TXR = (slv_addr <<1) | 0;
 744              		.loc 1 155 29
 745 002c 8347B4FD 		lbu	a5,-37(s0)
 746 0030 8607     		slli	a5,a5,1
 747 0032 3E87     		mv	a4,a5
 748              		.loc 1 155 12
 749 0034 8327C4FD 		lw	a5,-36(s0)
 750 0038 98C7     		sw	a4,8(a5)
 156:../src/bsp/wbi2c.c **** 	I2Cx->CR = I2C_CMD_STA | I2C_CMD_WR;
 751              		.loc 1 156 11
 752 003a 8327C4FD 		lw	a5,-36(s0)
 753 003e 13070009 		li	a4,144
 754 0042 D8C7     		sw	a4,12(a5)
 157:../src/bsp/wbi2c.c **** 	while(I2Cx->SR & I2C_SR_TIP);
 755              		.loc 1 157 7
 756 0044 0100     		nop
 757              	.L41:
 758              		.loc 1 157 12 discriminator 1
 759 0046 8327C4FD 		lw	a5,-36(s0)
 760 004a DC47     		lw	a5,12(a5)
 761              		.loc 1 157 17 discriminator 1
 762 004c 898B     		andi	a5,a5,2
 763              		.loc 1 157 7 discriminator 1
 764 004e E5FF     		bnez	a5,.L41
 158:../src/bsp/wbi2c.c **** 	while(I2Cx->SR & I2C_SR_RXACK);//wait ack-----Over Here
 765              		.loc 1 158 7
 766 0050 0100     		nop
 767              	.L42:
 768              		.loc 1 158 12 discriminator 1
 769 0052 8327C4FD 		lw	a5,-36(s0)
 770 0056 DC47     		lw	a5,12(a5)
 771              		.loc 1 158 17 discriminator 1
 772 0058 93F70708 		andi	a5,a5,128
 773              		.loc 1 158 7 discriminator 1
 774 005c FDFB     		bnez	a5,.L42
 159:../src/bsp/wbi2c.c **** 
 160:../src/bsp/wbi2c.c **** 	I2Cx->TXR = data_addr;
 775              		.loc 1 160 12
 776 005e 0347A4FD 		lbu	a4,-38(s0)
 777 0062 8327C4FD 		lw	a5,-36(s0)
 778 0066 98C7     		sw	a4,8(a5)
 161:../src/bsp/wbi2c.c **** 	I2Cx->CR = I2C_CMD_WR;//stop
 779              		.loc 1 161 11
 780 0068 8327C4FD 		lw	a5,-36(s0)
 781 006c 4147     		li	a4,16
 782 006e D8C7     		sw	a4,12(a5)
 162:../src/bsp/wbi2c.c **** 	while(I2Cx->SR & I2C_SR_TIP);//wait TIP
 783              		.loc 1 162 7
 784 0070 0100     		nop
 785              	.L43:
 786              		.loc 1 162 12 discriminator 1
 787 0072 8327C4FD 		lw	a5,-36(s0)
 788 0076 DC47     		lw	a5,12(a5)
 789              		.loc 1 162 17 discriminator 1
 790 0078 898B     		andi	a5,a5,2
 791              		.loc 1 162 7 discriminator 1
 792 007a E5FF     		bnez	a5,.L43
 163:../src/bsp/wbi2c.c **** 	while(I2Cx->SR & I2C_SR_RXACK);//wait ack
 793              		.loc 1 163 7
 794 007c 0100     		nop
 795              	.L44:
 796              		.loc 1 163 12 discriminator 1
 797 007e 8327C4FD 		lw	a5,-36(s0)
 798 0082 DC47     		lw	a5,12(a5)
 799              		.loc 1 163 17 discriminator 1
 800 0084 93F70708 		andi	a5,a5,128
 801              		.loc 1 163 7 discriminator 1
 802 0088 FDFB     		bnez	a5,.L44
 164:../src/bsp/wbi2c.c **** 
 165:../src/bsp/wbi2c.c **** 	I2Cx->TXR = (slv_addr << 1) | 1;
 803              		.loc 1 165 24
 804 008a 8347B4FD 		lbu	a5,-37(s0)
 805 008e 8607     		slli	a5,a5,1
 806              		.loc 1 165 30
 807 0090 93E71700 		ori	a5,a5,1
 808 0094 3E87     		mv	a4,a5
 809              		.loc 1 165 12
 810 0096 8327C4FD 		lw	a5,-36(s0)
 811 009a 98C7     		sw	a4,8(a5)
 166:../src/bsp/wbi2c.c **** 	I2Cx->CR = (I2C_CMD_STA | I2C_CMD_WR);
 812              		.loc 1 166 11
 813 009c 8327C4FD 		lw	a5,-36(s0)
 814 00a0 13070009 		li	a4,144
 815 00a4 D8C7     		sw	a4,12(a5)
 167:../src/bsp/wbi2c.c **** 	while(I2Cx->SR & I2C_SR_TIP);
 816              		.loc 1 167 7
 817 00a6 0100     		nop
 818              	.L45:
 819              		.loc 1 167 12 discriminator 1
 820 00a8 8327C4FD 		lw	a5,-36(s0)
 821 00ac DC47     		lw	a5,12(a5)
 822              		.loc 1 167 17 discriminator 1
 823 00ae 898B     		andi	a5,a5,2
 824              		.loc 1 167 7 discriminator 1
 825 00b0 E5FF     		bnez	a5,.L45
 168:../src/bsp/wbi2c.c **** 	while(I2Cx->SR & I2C_SR_RXACK);//wait ack
 826              		.loc 1 168 7
 827 00b2 0100     		nop
 828              	.L46:
 829              		.loc 1 168 12 discriminator 1
 830 00b4 8327C4FD 		lw	a5,-36(s0)
 831 00b8 DC47     		lw	a5,12(a5)
 832              		.loc 1 168 17 discriminator 1
 833 00ba 93F70708 		andi	a5,a5,128
 834              		.loc 1 168 7 discriminator 1
 835 00be FDFB     		bnez	a5,.L46
 169:../src/bsp/wbi2c.c **** 
 170:../src/bsp/wbi2c.c **** 	I2Cx->CR = ((~I2C_CMD_ACK) & I2C_CMD_RD);//send nack
 836              		.loc 1 170 11
 837 00c0 8327C4FD 		lw	a5,-36(s0)
 838 00c4 13070002 		li	a4,32
 839 00c8 D8C7     		sw	a4,12(a5)
 171:../src/bsp/wbi2c.c **** 	while(I2Cx->SR & I2C_SR_TIP);
 840              		.loc 1 171 7
 841 00ca 0100     		nop
 842              	.L47:
 843              		.loc 1 171 12 discriminator 1
 844 00cc 8327C4FD 		lw	a5,-36(s0)
 845 00d0 DC47     		lw	a5,12(a5)
 846              		.loc 1 171 17 discriminator 1
 847 00d2 898B     		andi	a5,a5,2
 848              		.loc 1 171 7 discriminator 1
 849 00d4 E5FF     		bnez	a5,.L47
 172:../src/bsp/wbi2c.c **** 	rbyte0 = (uint8_t)(I2Cx->RXR);
 850              		.loc 1 172 25
 851 00d6 8327C4FD 		lw	a5,-36(s0)
 852 00da 9C47     		lw	a5,8(a5)
 853              		.loc 1 172 9
 854 00dc A306F4FE 		sb	a5,-19(s0)
 173:../src/bsp/wbi2c.c **** 	Delay_ms_i2c(3);
 855              		.loc 1 173 2
 856 00e0 0D45     		li	a0,3
 857 00e2 97000000 		call	Delay_ms_i2c
 857      E7800000 
 174:../src/bsp/wbi2c.c **** 
 175:../src/bsp/wbi2c.c **** 	I2Cx->CR = (I2C_CMD_RD | I2C_CMD_STO) & (~I2C_CMD_ACK);//send nack
 858              		.loc 1 175 11
 859 00ea 8327C4FD 		lw	a5,-36(s0)
 860 00ee 13070006 		li	a4,96
 861 00f2 D8C7     		sw	a4,12(a5)
 176:../src/bsp/wbi2c.c **** 	while(I2Cx->SR & I2C_SR_TIP);
 862              		.loc 1 176 7
 863 00f4 0100     		nop
 864              	.L48:
 865              		.loc 1 176 12 discriminator 1
 866 00f6 8327C4FD 		lw	a5,-36(s0)
 867 00fa DC47     		lw	a5,12(a5)
 868              		.loc 1 176 17 discriminator 1
 869 00fc 898B     		andi	a5,a5,2
 870              		.loc 1 176 7 discriminator 1
 871 00fe E5FF     		bnez	a5,.L48
 177:../src/bsp/wbi2c.c **** 	rbyte1  = (uint8_t)(I2Cx->RXR);
 872              		.loc 1 177 26
 873 0100 8327C4FD 		lw	a5,-36(s0)
 874 0104 9C47     		lw	a5,8(a5)
 875              		.loc 1 177 10
 876 0106 2306F4FE 		sb	a5,-20(s0)
 178:../src/bsp/wbi2c.c **** 	Delay_ms_i2c(3);
 877              		.loc 1 178 2
 878 010a 0D45     		li	a0,3
 879 010c 97000000 		call	Delay_ms_i2c
 879      E7800000 
 179:../src/bsp/wbi2c.c **** 
 180:../src/bsp/wbi2c.c **** 	if(dir) //the first byte received is upper byte
 880              		.loc 1 180 4
 881 0114 834794FD 		lbu	a5,-39(s0)
 882 0118 8DC3     		beqz	a5,.L49
 181:../src/bsp/wbi2c.c **** 	{
 182:../src/bsp/wbi2c.c **** 		rword = (((uint16_t)(rbyte0)) << 8) + rbyte1;
 883              		.loc 1 182 33
 884 011a 8347D4FE 		lbu	a5,-19(s0)
 885 011e C207     		slli	a5,a5,16
 886 0120 C183     		srli	a5,a5,16
 887 0122 A207     		slli	a5,a5,8
 888 0124 13970701 		slli	a4,a5,16
 889 0128 4183     		srli	a4,a4,16
 890              		.loc 1 182 39
 891 012a 8347C4FE 		lbu	a5,-20(s0)
 892 012e C207     		slli	a5,a5,16
 893 0130 C183     		srli	a5,a5,16
 894              		.loc 1 182 9
 895 0132 BA97     		add	a5,a4,a5
 896 0134 2317F4FE 		sh	a5,-18(s0)
 897 0138 05A0     		j	.L50
 898              	.L49:
 183:../src/bsp/wbi2c.c **** 	}
 184:../src/bsp/wbi2c.c **** 	else  	//the first byte received is lower byte
 185:../src/bsp/wbi2c.c **** 	{
 186:../src/bsp/wbi2c.c **** 		rword = (((uint16_t)(rbyte1)) << 8) + rbyte0;
 899              		.loc 1 186 33
 900 013a 8347C4FE 		lbu	a5,-20(s0)
 901 013e C207     		slli	a5,a5,16
 902 0140 C183     		srli	a5,a5,16
 903 0142 A207     		slli	a5,a5,8
 904 0144 13970701 		slli	a4,a5,16
 905 0148 4183     		srli	a4,a4,16
 906              		.loc 1 186 39
 907 014a 8347D4FE 		lbu	a5,-19(s0)
 908 014e C207     		slli	a5,a5,16
 909 0150 C183     		srli	a5,a5,16
 910              		.loc 1 186 9
 911 0152 BA97     		add	a5,a4,a5
 912 0154 2317F4FE 		sh	a5,-18(s0)
 913              	.L50:
 187:../src/bsp/wbi2c.c **** 	}
 188:../src/bsp/wbi2c.c **** 
 189:../src/bsp/wbi2c.c **** 	return rword;
 914              		.loc 1 189 9
 915 0158 8357E4FE 		lhu	a5,-18(s0)
 190:../src/bsp/wbi2c.c **** }
 916              		.loc 1 190 1
 917 015c 3E85     		mv	a0,a5
 918 015e B250     		lw	ra,44(sp)
 919              		.cfi_restore 1
 920 0160 2254     		lw	s0,40(sp)
 921              		.cfi_restore 8
 922 0162 4561     		addi	sp,sp,48
 923              		.cfi_def_cfa_register 2
 924 0164 8280     		jr	ra
 925              		.cfi_endproc
 926              	.LFE11:
 928              		.section	.text.I2C_SendArray,"ax",@progbits
 929              		.align	1
 930              		.globl	I2C_SendArray
 932              	I2C_SendArray:
 933              	.LFB12:
 191:../src/bsp/wbi2c.c **** 
 192:../src/bsp/wbi2c.c **** void I2C_SendArray(WBI2CMASTER_RegDef *I2Cx, uint8_t slv_address, uint8_t data_address, uint8_t *se
 193:../src/bsp/wbi2c.c **** {
 934              		.loc 1 193 1
 935              		.cfi_startproc
 936 0000 7971     		addi	sp,sp,-48
 937              		.cfi_def_cfa_offset 48
 938 0002 06D6     		sw	ra,44(sp)
 939 0004 22D4     		sw	s0,40(sp)
 940              		.cfi_offset 1, -4
 941              		.cfi_offset 8, -8
 942 0006 0018     		addi	s0,sp,48
 943              		.cfi_def_cfa 8, 0
 944 0008 232EA4FC 		sw	a0,-36(s0)
 945 000c AE87     		mv	a5,a1
 946 000e 232AD4FC 		sw	a3,-44(s0)
 947 0012 2328E4FC 		sw	a4,-48(s0)
 948 0016 A30DF4FC 		sb	a5,-37(s0)
 949 001a B287     		mv	a5,a2
 950 001c 230DF4FC 		sb	a5,-38(s0)
 194:../src/bsp/wbi2c.c **** 	uint8_t *data_ptr = send_data;
 951              		.loc 1 194 11
 952 0020 832744FD 		lw	a5,-44(s0)
 953 0024 2326F4FE 		sw	a5,-20(s0)
 195:../src/bsp/wbi2c.c **** 	I2Cx->TXR = (slv_address << 1) | 0;
 954              		.loc 1 195 33
 955 0028 8347B4FD 		lbu	a5,-37(s0)
 956 002c 8607     		slli	a5,a5,1
 957 002e 3E87     		mv	a4,a5
 958              		.loc 1 195 12
 959 0030 8327C4FD 		lw	a5,-36(s0)
 960 0034 98C7     		sw	a4,8(a5)
 196:../src/bsp/wbi2c.c **** 	I2Cx->CR = I2C_CMD_STA | I2C_CMD_WR | I2C_CMD_ACK;
 961              		.loc 1 196 11
 962 0036 8327C4FD 		lw	a5,-36(s0)
 963 003a 13078009 		li	a4,152
 964 003e D8C7     		sw	a4,12(a5)
 197:../src/bsp/wbi2c.c **** 	while(I2Cx->SR & I2C_SR_TIP);//wait TIP
 965              		.loc 1 197 7
 966 0040 0100     		nop
 967              	.L53:
 968              		.loc 1 197 12 discriminator 1
 969 0042 8327C4FD 		lw	a5,-36(s0)
 970 0046 DC47     		lw	a5,12(a5)
 971              		.loc 1 197 17 discriminator 1
 972 0048 898B     		andi	a5,a5,2
 973              		.loc 1 197 7 discriminator 1
 974 004a E5FF     		bnez	a5,.L53
 198:../src/bsp/wbi2c.c **** 	while(I2Cx->SR & I2C_SR_RXACK);//wait ack-----Over Here
 975              		.loc 1 198 7
 976 004c 0100     		nop
 977              	.L54:
 978              		.loc 1 198 12 discriminator 1
 979 004e 8327C4FD 		lw	a5,-36(s0)
 980 0052 DC47     		lw	a5,12(a5)
 981              		.loc 1 198 17 discriminator 1
 982 0054 93F70708 		andi	a5,a5,128
 983              		.loc 1 198 7 discriminator 1
 984 0058 FDFB     		bnez	a5,.L54
 199:../src/bsp/wbi2c.c **** 
 200:../src/bsp/wbi2c.c **** 
 201:../src/bsp/wbi2c.c **** 	I2Cx->TXR = data_address;
 985              		.loc 1 201 12
 986 005a 0347A4FD 		lbu	a4,-38(s0)
 987 005e 8327C4FD 		lw	a5,-36(s0)
 988 0062 98C7     		sw	a4,8(a5)
 202:../src/bsp/wbi2c.c **** 	I2Cx->CR = (I2C_CMD_WR | I2C_CMD_ACK);
 989              		.loc 1 202 11
 990 0064 8327C4FD 		lw	a5,-36(s0)
 991 0068 6147     		li	a4,24
 992 006a D8C7     		sw	a4,12(a5)
 203:../src/bsp/wbi2c.c **** 	while(I2Cx->SR & I2C_SR_TIP);//wait TIP
 993              		.loc 1 203 7
 994 006c 0100     		nop
 995              	.L55:
 996              		.loc 1 203 12 discriminator 1
 997 006e 8327C4FD 		lw	a5,-36(s0)
 998 0072 DC47     		lw	a5,12(a5)
 999              		.loc 1 203 17 discriminator 1
 1000 0074 898B     		andi	a5,a5,2
 1001              		.loc 1 203 7 discriminator 1
 1002 0076 E5FF     		bnez	a5,.L55
 204:../src/bsp/wbi2c.c **** 	while(I2Cx->SR & I2C_SR_RXACK);//wait ack
 1003              		.loc 1 204 7
 1004 0078 0100     		nop
 1005              	.L56:
 1006              		.loc 1 204 12 discriminator 1
 1007 007a 8327C4FD 		lw	a5,-36(s0)
 1008 007e DC47     		lw	a5,12(a5)
 1009              		.loc 1 204 17 discriminator 1
 1010 0080 93F70708 		andi	a5,a5,128
 1011              		.loc 1 204 7 discriminator 1
 1012 0084 FDFB     		bnez	a5,.L56
 1013              	.LBB2:
 205:../src/bsp/wbi2c.c **** 
 206:../src/bsp/wbi2c.c **** 	for(uint32_t cnt = 0; cnt < send_length - 1; cnt++)
 1014              		.loc 1 206 15
 1015 0086 232404FE 		sw	zero,-24(s0)
 1016              		.loc 1 206 2
 1017 008a 89A8     		j	.L57
 1018              	.L60:
 207:../src/bsp/wbi2c.c **** 	{
 208:../src/bsp/wbi2c.c **** 		I2Cx->TXR = *data_ptr;
 1019              		.loc 1 208 15
 1020 008c 8327C4FE 		lw	a5,-20(s0)
 1021 0090 83C70700 		lbu	a5,0(a5)
 1022 0094 3E87     		mv	a4,a5
 1023              		.loc 1 208 13
 1024 0096 8327C4FD 		lw	a5,-36(s0)
 1025 009a 98C7     		sw	a4,8(a5)
 209:../src/bsp/wbi2c.c **** 		I2Cx->CR = (I2C_CMD_WR | I2C_CMD_ACK);//I2C_CMD_WR;//(I2C_CMD_STO|I2C_CMD_WR);
 1026              		.loc 1 209 12
 1027 009c 8327C4FD 		lw	a5,-36(s0)
 1028 00a0 6147     		li	a4,24
 1029 00a2 D8C7     		sw	a4,12(a5)
 210:../src/bsp/wbi2c.c **** 		while(I2Cx->SR & I2C_SR_TIP);//wait TIP
 1030              		.loc 1 210 8
 1031 00a4 0100     		nop
 1032              	.L58:
 1033              		.loc 1 210 13 discriminator 1
 1034 00a6 8327C4FD 		lw	a5,-36(s0)
 1035 00aa DC47     		lw	a5,12(a5)
 1036              		.loc 1 210 18 discriminator 1
 1037 00ac 898B     		andi	a5,a5,2
 1038              		.loc 1 210 8 discriminator 1
 1039 00ae E5FF     		bnez	a5,.L58
 211:../src/bsp/wbi2c.c **** 		while(I2Cx->SR & I2C_SR_RXACK);//wait ack
 1040              		.loc 1 211 8
 1041 00b0 0100     		nop
 1042              	.L59:
 1043              		.loc 1 211 13 discriminator 1
 1044 00b2 8327C4FD 		lw	a5,-36(s0)
 1045 00b6 DC47     		lw	a5,12(a5)
 1046              		.loc 1 211 18 discriminator 1
 1047 00b8 93F70708 		andi	a5,a5,128
 1048              		.loc 1 211 8 discriminator 1
 1049 00bc FDFB     		bnez	a5,.L59
 212:../src/bsp/wbi2c.c **** 		data_ptr++;
 1050              		.loc 1 212 11 discriminator 2
 1051 00be 8327C4FE 		lw	a5,-20(s0)
 1052 00c2 8507     		addi	a5,a5,1
 1053 00c4 2326F4FE 		sw	a5,-20(s0)
 213:../src/bsp/wbi2c.c **** 		Delay_ms_i2c(3);//Wait the data to I2C Ready
 1054              		.loc 1 213 3 discriminator 2
 1055 00c8 0D45     		li	a0,3
 1056 00ca 97000000 		call	Delay_ms_i2c
 1056      E7800000 
 206:../src/bsp/wbi2c.c **** 	{
 1057              		.loc 1 206 50 discriminator 2
 1058 00d2 832784FE 		lw	a5,-24(s0)
 1059 00d6 8507     		addi	a5,a5,1
 1060 00d8 2324F4FE 		sw	a5,-24(s0)
 1061              	.L57:
 206:../src/bsp/wbi2c.c **** 	{
 1062              		.loc 1 206 42 discriminator 1
 1063 00dc 832704FD 		lw	a5,-48(s0)
 1064 00e0 FD17     		addi	a5,a5,-1
 206:../src/bsp/wbi2c.c **** 	{
 1065              		.loc 1 206 2 discriminator 1
 1066 00e2 032784FE 		lw	a4,-24(s0)
 1067 00e6 E363F7FA 		bltu	a4,a5,.L60
 1068              	.LBE2:
 214:../src/bsp/wbi2c.c **** 	}
 215:../src/bsp/wbi2c.c **** 
 216:../src/bsp/wbi2c.c **** 	I2Cx->TXR = *data_ptr;
 1069              		.loc 1 216 14
 1070 00ea 8327C4FE 		lw	a5,-20(s0)
 1071 00ee 83C70700 		lbu	a5,0(a5)
 1072 00f2 3E87     		mv	a4,a5
 1073              		.loc 1 216 12
 1074 00f4 8327C4FD 		lw	a5,-36(s0)
 1075 00f8 98C7     		sw	a4,8(a5)
 217:../src/bsp/wbi2c.c **** 	I2Cx->CR |= (I2C_CMD_STO | I2C_CMD_WR | I2C_CMD_ACK);//I2C_CMD_WR;//(I2C_CMD_STO|I2C_CMD_WR);
 1076              		.loc 1 217 11
 1077 00fa 8327C4FD 		lw	a5,-36(s0)
 1078 00fe DC47     		lw	a5,12(a5)
 1079 0100 13E78705 		ori	a4,a5,88
 1080 0104 8327C4FD 		lw	a5,-36(s0)
 1081 0108 D8C7     		sw	a4,12(a5)
 218:../src/bsp/wbi2c.c **** 	while(I2Cx->SR & I2C_SR_TIP);//wait TIP
 1082              		.loc 1 218 7
 1083 010a 0100     		nop
 1084              	.L61:
 1085              		.loc 1 218 12 discriminator 1
 1086 010c 8327C4FD 		lw	a5,-36(s0)
 1087 0110 DC47     		lw	a5,12(a5)
 1088              		.loc 1 218 17 discriminator 1
 1089 0112 898B     		andi	a5,a5,2
 1090              		.loc 1 218 7 discriminator 1
 1091 0114 E5FF     		bnez	a5,.L61
 219:../src/bsp/wbi2c.c **** 	while(I2Cx->SR & I2C_SR_RXACK);//wait ack
 1092              		.loc 1 219 7
 1093 0116 0100     		nop
 1094              	.L62:
 1095              		.loc 1 219 12 discriminator 1
 1096 0118 8327C4FD 		lw	a5,-36(s0)
 1097 011c DC47     		lw	a5,12(a5)
 1098              		.loc 1 219 17 discriminator 1
 1099 011e 93F70708 		andi	a5,a5,128
 1100              		.loc 1 219 7 discriminator 1
 1101 0122 FDFB     		bnez	a5,.L62
 220:../src/bsp/wbi2c.c **** 	while(I2Cx->SR & I2C_SR_BUSY);
 1102              		.loc 1 220 7
 1103 0124 0100     		nop
 1104              	.L63:
 1105              		.loc 1 220 12 discriminator 1
 1106 0126 8327C4FD 		lw	a5,-36(s0)
 1107 012a DC47     		lw	a5,12(a5)
 1108              		.loc 1 220 17 discriminator 1
 1109 012c 93F70704 		andi	a5,a5,64
 1110              		.loc 1 220 7 discriminator 1
 1111 0130 FDFB     		bnez	a5,.L63
 221:../src/bsp/wbi2c.c **** 	Delay_ms_i2c(3);//Wait the data to I2C Ready
 1112              		.loc 1 221 2
 1113 0132 0D45     		li	a0,3
 1114 0134 97000000 		call	Delay_ms_i2c
 1114      E7800000 
 222:../src/bsp/wbi2c.c **** }
 1115              		.loc 1 222 1
 1116 013c 0100     		nop
 1117 013e B250     		lw	ra,44(sp)
 1118              		.cfi_restore 1
 1119 0140 2254     		lw	s0,40(sp)
 1120              		.cfi_restore 8
 1121 0142 4561     		addi	sp,sp,48
 1122              		.cfi_def_cfa_register 2
 1123 0144 8280     		jr	ra
 1124              		.cfi_endproc
 1125              	.LFE12:
 1127              		.section	.text.I2C_ReceiveArray,"ax",@progbits
 1128              		.align	1
 1129              		.globl	I2C_ReceiveArray
 1131              	I2C_ReceiveArray:
 1132              	.LFB13:
 223:../src/bsp/wbi2c.c **** 
 224:../src/bsp/wbi2c.c **** void I2C_ReceiveArray(WBI2CMASTER_RegDef *I2Cx, uint8_t slv_addr, uint8_t data_addr, uint8_t *recei
 225:../src/bsp/wbi2c.c **** {
 1133              		.loc 1 225 1
 1134              		.cfi_startproc
 1135 0000 7971     		addi	sp,sp,-48
 1136              		.cfi_def_cfa_offset 48
 1137 0002 06D6     		sw	ra,44(sp)
 1138 0004 22D4     		sw	s0,40(sp)
 1139              		.cfi_offset 1, -4
 1140              		.cfi_offset 8, -8
 1141 0006 0018     		addi	s0,sp,48
 1142              		.cfi_def_cfa 8, 0
 1143 0008 232EA4FC 		sw	a0,-36(s0)
 1144 000c AE87     		mv	a5,a1
 1145 000e 232AD4FC 		sw	a3,-44(s0)
 1146 0012 2328E4FC 		sw	a4,-48(s0)
 1147 0016 A30DF4FC 		sb	a5,-37(s0)
 1148 001a B287     		mv	a5,a2
 1149 001c 230DF4FC 		sb	a5,-38(s0)
 226:../src/bsp/wbi2c.c **** 	uint8_t *buffer_ptr = receive_buffer;
 1150              		.loc 1 226 11
 1151 0020 832744FD 		lw	a5,-44(s0)
 1152 0024 2326F4FE 		sw	a5,-20(s0)
 227:../src/bsp/wbi2c.c **** 	I2Cx->TXR = (slv_addr <<1) | 0;
 1153              		.loc 1 227 29
 1154 0028 8347B4FD 		lbu	a5,-37(s0)
 1155 002c 8607     		slli	a5,a5,1
 1156 002e 3E87     		mv	a4,a5
 1157              		.loc 1 227 12
 1158 0030 8327C4FD 		lw	a5,-36(s0)
 1159 0034 98C7     		sw	a4,8(a5)
 228:../src/bsp/wbi2c.c **** 	I2Cx->CR = I2C_CMD_STA | I2C_CMD_WR;
 1160              		.loc 1 228 11
 1161 0036 8327C4FD 		lw	a5,-36(s0)
 1162 003a 13070009 		li	a4,144
 1163 003e D8C7     		sw	a4,12(a5)
 229:../src/bsp/wbi2c.c **** 	while(I2Cx->SR & I2C_SR_TIP);
 1164              		.loc 1 229 7
 1165 0040 0100     		nop
 1166              	.L65:
 1167              		.loc 1 229 12 discriminator 1
 1168 0042 8327C4FD 		lw	a5,-36(s0)
 1169 0046 DC47     		lw	a5,12(a5)
 1170              		.loc 1 229 17 discriminator 1
 1171 0048 898B     		andi	a5,a5,2
 1172              		.loc 1 229 7 discriminator 1
 1173 004a E5FF     		bnez	a5,.L65
 230:../src/bsp/wbi2c.c **** 	while(I2Cx->SR & I2C_SR_RXACK);//wait ack-----Over Here
 1174              		.loc 1 230 7
 1175 004c 0100     		nop
 1176              	.L66:
 1177              		.loc 1 230 12 discriminator 1
 1178 004e 8327C4FD 		lw	a5,-36(s0)
 1179 0052 DC47     		lw	a5,12(a5)
 1180              		.loc 1 230 17 discriminator 1
 1181 0054 93F70708 		andi	a5,a5,128
 1182              		.loc 1 230 7 discriminator 1
 1183 0058 FDFB     		bnez	a5,.L66
 231:../src/bsp/wbi2c.c **** 
 232:../src/bsp/wbi2c.c **** 	I2Cx->TXR = data_addr;
 1184              		.loc 1 232 12
 1185 005a 0347A4FD 		lbu	a4,-38(s0)
 1186 005e 8327C4FD 		lw	a5,-36(s0)
 1187 0062 98C7     		sw	a4,8(a5)
 233:../src/bsp/wbi2c.c **** 	I2Cx->CR = I2C_CMD_WR;//stop
 1188              		.loc 1 233 11
 1189 0064 8327C4FD 		lw	a5,-36(s0)
 1190 0068 4147     		li	a4,16
 1191 006a D8C7     		sw	a4,12(a5)
 234:../src/bsp/wbi2c.c **** 	while(I2Cx->SR & I2C_SR_TIP);//wait TIP
 1192              		.loc 1 234 7
 1193 006c 0100     		nop
 1194              	.L67:
 1195              		.loc 1 234 12 discriminator 1
 1196 006e 8327C4FD 		lw	a5,-36(s0)
 1197 0072 DC47     		lw	a5,12(a5)
 1198              		.loc 1 234 17 discriminator 1
 1199 0074 898B     		andi	a5,a5,2
 1200              		.loc 1 234 7 discriminator 1
 1201 0076 E5FF     		bnez	a5,.L67
 235:../src/bsp/wbi2c.c **** 	while(I2Cx->SR & I2C_SR_RXACK);//wait ack
 1202              		.loc 1 235 7
 1203 0078 0100     		nop
 1204              	.L68:
 1205              		.loc 1 235 12 discriminator 1
 1206 007a 8327C4FD 		lw	a5,-36(s0)
 1207 007e DC47     		lw	a5,12(a5)
 1208              		.loc 1 235 17 discriminator 1
 1209 0080 93F70708 		andi	a5,a5,128
 1210              		.loc 1 235 7 discriminator 1
 1211 0084 FDFB     		bnez	a5,.L68
 236:../src/bsp/wbi2c.c **** 
 237:../src/bsp/wbi2c.c **** 	I2Cx->TXR = (slv_addr << 1) | 1;
 1212              		.loc 1 237 24
 1213 0086 8347B4FD 		lbu	a5,-37(s0)
 1214 008a 8607     		slli	a5,a5,1
 1215              		.loc 1 237 30
 1216 008c 93E71700 		ori	a5,a5,1
 1217 0090 3E87     		mv	a4,a5
 1218              		.loc 1 237 12
 1219 0092 8327C4FD 		lw	a5,-36(s0)
 1220 0096 98C7     		sw	a4,8(a5)
 238:../src/bsp/wbi2c.c **** 	I2Cx->CR = (I2C_CMD_STA | I2C_CMD_WR);
 1221              		.loc 1 238 11
 1222 0098 8327C4FD 		lw	a5,-36(s0)
 1223 009c 13070009 		li	a4,144
 1224 00a0 D8C7     		sw	a4,12(a5)
 239:../src/bsp/wbi2c.c **** 	while(I2Cx->SR & I2C_SR_TIP);
 1225              		.loc 1 239 7
 1226 00a2 0100     		nop
 1227              	.L69:
 1228              		.loc 1 239 12 discriminator 1
 1229 00a4 8327C4FD 		lw	a5,-36(s0)
 1230 00a8 DC47     		lw	a5,12(a5)
 1231              		.loc 1 239 17 discriminator 1
 1232 00aa 898B     		andi	a5,a5,2
 1233              		.loc 1 239 7 discriminator 1
 1234 00ac E5FF     		bnez	a5,.L69
 240:../src/bsp/wbi2c.c **** 	while(I2Cx->SR & I2C_SR_RXACK);//wait ack
 1235              		.loc 1 240 7
 1236 00ae 0100     		nop
 1237              	.L70:
 1238              		.loc 1 240 12 discriminator 1
 1239 00b0 8327C4FD 		lw	a5,-36(s0)
 1240 00b4 DC47     		lw	a5,12(a5)
 1241              		.loc 1 240 17 discriminator 1
 1242 00b6 93F70708 		andi	a5,a5,128
 1243              		.loc 1 240 7 discriminator 1
 1244 00ba FDFB     		bnez	a5,.L70
 1245              	.LBB3:
 241:../src/bsp/wbi2c.c **** 
 242:../src/bsp/wbi2c.c **** 	for(uint32_t cnt = 0; cnt < receive_length - 1; cnt++)
 1246              		.loc 1 242 15
 1247 00bc 232404FE 		sw	zero,-24(s0)
 1248              		.loc 1 242 2
 1249 00c0 A1A0     		j	.L71
 1250              	.L73:
 243:../src/bsp/wbi2c.c **** 	{
 244:../src/bsp/wbi2c.c **** 		I2Cx->CR = ((~I2C_CMD_ACK) & I2C_CMD_RD);//send nack
 1251              		.loc 1 244 12
 1252 00c2 8327C4FD 		lw	a5,-36(s0)
 1253 00c6 13070002 		li	a4,32
 1254 00ca D8C7     		sw	a4,12(a5)
 245:../src/bsp/wbi2c.c **** 		while(I2Cx->SR & I2C_SR_TIP);
 1255              		.loc 1 245 8
 1256 00cc 0100     		nop
 1257              	.L72:
 1258              		.loc 1 245 13 discriminator 1
 1259 00ce 8327C4FD 		lw	a5,-36(s0)
 1260 00d2 DC47     		lw	a5,12(a5)
 1261              		.loc 1 245 18 discriminator 1
 1262 00d4 898B     		andi	a5,a5,2
 1263              		.loc 1 245 8 discriminator 1
 1264 00d6 E5FF     		bnez	a5,.L72
 246:../src/bsp/wbi2c.c **** 		*buffer_ptr = (uint8_t)(I2Cx->RXR);
 1265              		.loc 1 246 31 discriminator 2
 1266 00d8 8327C4FD 		lw	a5,-36(s0)
 1267 00dc 9C47     		lw	a5,8(a5)
 1268              		.loc 1 246 17 discriminator 2
 1269 00de 13F7F70F 		andi	a4,a5,0xff
 1270              		.loc 1 246 15 discriminator 2
 1271 00e2 8327C4FE 		lw	a5,-20(s0)
 1272 00e6 2380E700 		sb	a4,0(a5)
 247:../src/bsp/wbi2c.c **** 		buffer_ptr++;
 1273              		.loc 1 247 13 discriminator 2
 1274 00ea 8327C4FE 		lw	a5,-20(s0)
 1275 00ee 8507     		addi	a5,a5,1
 1276 00f0 2326F4FE 		sw	a5,-20(s0)
 248:../src/bsp/wbi2c.c **** 		Delay_ms_i2c(3);
 1277              		.loc 1 248 3 discriminator 2
 1278 00f4 0D45     		li	a0,3
 1279 00f6 97000000 		call	Delay_ms_i2c
 1279      E7800000 
 242:../src/bsp/wbi2c.c **** 	{
 1280              		.loc 1 242 53 discriminator 2
 1281 00fe 832784FE 		lw	a5,-24(s0)
 1282 0102 8507     		addi	a5,a5,1
 1283 0104 2324F4FE 		sw	a5,-24(s0)
 1284              	.L71:
 242:../src/bsp/wbi2c.c **** 	{
 1285              		.loc 1 242 45 discriminator 1
 1286 0108 832704FD 		lw	a5,-48(s0)
 1287 010c FD17     		addi	a5,a5,-1
 242:../src/bsp/wbi2c.c **** 	{
 1288              		.loc 1 242 2 discriminator 1
 1289 010e 032784FE 		lw	a4,-24(s0)
 1290 0112 E368F7FA 		bltu	a4,a5,.L73
 1291              	.LBE3:
 249:../src/bsp/wbi2c.c **** 	}
 250:../src/bsp/wbi2c.c **** 
 251:../src/bsp/wbi2c.c **** 	I2Cx->CR = (I2C_CMD_RD | I2C_CMD_STO) & (~I2C_CMD_ACK);//send nack
 1292              		.loc 1 251 11
 1293 0116 8327C4FD 		lw	a5,-36(s0)
 1294 011a 13070006 		li	a4,96
 1295 011e D8C7     		sw	a4,12(a5)
 252:../src/bsp/wbi2c.c **** 	while(I2Cx->SR & I2C_SR_TIP);
 1296              		.loc 1 252 7
 1297 0120 0100     		nop
 1298              	.L74:
 1299              		.loc 1 252 12 discriminator 1
 1300 0122 8327C4FD 		lw	a5,-36(s0)
 1301 0126 DC47     		lw	a5,12(a5)
 1302              		.loc 1 252 17 discriminator 1
 1303 0128 898B     		andi	a5,a5,2
 1304              		.loc 1 252 7 discriminator 1
 1305 012a E5FF     		bnez	a5,.L74
 253:../src/bsp/wbi2c.c **** 	*buffer_ptr  = (uint8_t)(I2Cx->RXR);
 1306              		.loc 1 253 31
 1307 012c 8327C4FD 		lw	a5,-36(s0)
 1308 0130 9C47     		lw	a5,8(a5)
 1309              		.loc 1 253 17
 1310 0132 13F7F70F 		andi	a4,a5,0xff
 1311              		.loc 1 253 15
 1312 0136 8327C4FE 		lw	a5,-20(s0)
 1313 013a 2380E700 		sb	a4,0(a5)
 254:../src/bsp/wbi2c.c **** 	Delay_ms_i2c(3);
 1314              		.loc 1 254 2
 1315 013e 0D45     		li	a0,3
 1316 0140 97000000 		call	Delay_ms_i2c
 1316      E7800000 
 255:../src/bsp/wbi2c.c **** 
 256:../src/bsp/wbi2c.c **** 	return;
 1317              		.loc 1 256 2
 1318 0148 0100     		nop
 257:../src/bsp/wbi2c.c **** }
 1319              		.loc 1 257 1
 1320 014a B250     		lw	ra,44(sp)
 1321              		.cfi_restore 1
 1322 014c 2254     		lw	s0,40(sp)
 1323              		.cfi_restore 8
 1324 014e 4561     		addi	sp,sp,48
 1325              		.cfi_def_cfa_register 2
 1326 0150 8280     		jr	ra
 1327              		.cfi_endproc
 1328              	.LFE13:
 1330              		.section	.text.I2C_SendBytes,"ax",@progbits
 1331              		.align	1
 1332              		.globl	I2C_SendBytes
 1334              	I2C_SendBytes:
 1335              	.LFB14:
 258:../src/bsp/wbi2c.c **** 
 259:../src/bsp/wbi2c.c **** void I2C_SendBytes(WBI2CMASTER_RegDef *I2Cx, uint8_t slv_address, uint8_t data_start_address, uint8
 260:../src/bsp/wbi2c.c **** {
 1336              		.loc 1 260 1
 1337              		.cfi_startproc
 1338 0000 7971     		addi	sp,sp,-48
 1339              		.cfi_def_cfa_offset 48
 1340 0002 06D6     		sw	ra,44(sp)
 1341 0004 22D4     		sw	s0,40(sp)
 1342              		.cfi_offset 1, -4
 1343              		.cfi_offset 8, -8
 1344 0006 0018     		addi	s0,sp,48
 1345              		.cfi_def_cfa 8, 0
 1346 0008 232EA4FC 		sw	a0,-36(s0)
 1347 000c AE87     		mv	a5,a1
 1348 000e 232AD4FC 		sw	a3,-44(s0)
 1349 0012 2328E4FC 		sw	a4,-48(s0)
 1350 0016 A30DF4FC 		sb	a5,-37(s0)
 1351 001a B287     		mv	a5,a2
 1352 001c 230DF4FC 		sb	a5,-38(s0)
 261:../src/bsp/wbi2c.c **** 	int32_t i;
 262:../src/bsp/wbi2c.c **** 	for(i = 0; i < data_num; i++)
 1353              		.loc 1 262 8
 1354 0020 232604FE 		sw	zero,-20(s0)
 1355              		.loc 1 262 2
 1356 0024 81A0     		j	.L77
 1357              	.L78:
 263:../src/bsp/wbi2c.c **** 	{
 264:../src/bsp/wbi2c.c **** 		I2C_SendByte(I2Cx, slv_address, (data_start_address + i), data[i]);
 1358              		.loc 1 264 3 discriminator 3
 1359 0026 8327C4FE 		lw	a5,-20(s0)
 1360 002a 13F7F70F 		andi	a4,a5,0xff
 1361 002e 8347A4FD 		lbu	a5,-38(s0)
 1362 0032 BA97     		add	a5,a4,a5
 1363 0034 13F6F70F 		andi	a2,a5,0xff
 1364              		.loc 1 264 65 discriminator 3
 1365 0038 8327C4FE 		lw	a5,-20(s0)
 1366 003c 032744FD 		lw	a4,-44(s0)
 1367 0040 BA97     		add	a5,a4,a5
 1368              		.loc 1 264 3 discriminator 3
 1369 0042 03C70700 		lbu	a4,0(a5)
 1370 0046 8347B4FD 		lbu	a5,-37(s0)
 1371 004a BA86     		mv	a3,a4
 1372 004c BE85     		mv	a1,a5
 1373 004e 0325C4FD 		lw	a0,-36(s0)
 1374 0052 97000000 		call	I2C_SendByte
 1374      E7800000 
 262:../src/bsp/wbi2c.c **** 	{
 1375              		.loc 1 262 28 discriminator 3
 1376 005a 8327C4FE 		lw	a5,-20(s0)
 1377 005e 8507     		addi	a5,a5,1
 1378 0060 2326F4FE 		sw	a5,-20(s0)
 1379              	.L77:
 262:../src/bsp/wbi2c.c **** 	{
 1380              		.loc 1 262 2 discriminator 1
 1381 0064 0327C4FE 		lw	a4,-20(s0)
 1382 0068 832704FD 		lw	a5,-48(s0)
 1383 006c E34DF7FA 		blt	a4,a5,.L78
 265:../src/bsp/wbi2c.c **** 	}
 266:../src/bsp/wbi2c.c **** }
 1384              		.loc 1 266 1
 1385 0070 0100     		nop
 1386 0072 B250     		lw	ra,44(sp)
 1387              		.cfi_restore 1
 1388 0074 2254     		lw	s0,40(sp)
 1389              		.cfi_restore 8
 1390 0076 4561     		addi	sp,sp,48
 1391              		.cfi_def_cfa_register 2
 1392 0078 8280     		jr	ra
 1393              		.cfi_endproc
 1394              	.LFE14:
 1396              		.section	.text.I2C_ReadBytes,"ax",@progbits
 1397              		.align	1
 1398              		.globl	I2C_ReadBytes
 1400              	I2C_ReadBytes:
 1401              	.LFB15:
 267:../src/bsp/wbi2c.c **** 
 268:../src/bsp/wbi2c.c **** void I2C_ReadBytes(WBI2CMASTER_RegDef *I2Cx, uint8_t slv_address, uint8_t data_start_address, uint8
 269:../src/bsp/wbi2c.c **** {
 1402              		.loc 1 269 1
 1403              		.cfi_startproc
 1404 0000 7971     		addi	sp,sp,-48
 1405              		.cfi_def_cfa_offset 48
 1406 0002 06D6     		sw	ra,44(sp)
 1407 0004 22D4     		sw	s0,40(sp)
 1408 0006 26D2     		sw	s1,36(sp)
 1409              		.cfi_offset 1, -4
 1410              		.cfi_offset 8, -8
 1411              		.cfi_offset 9, -12
 1412 0008 0018     		addi	s0,sp,48
 1413              		.cfi_def_cfa 8, 0
 1414 000a 232EA4FC 		sw	a0,-36(s0)
 1415 000e AE87     		mv	a5,a1
 1416 0010 232AD4FC 		sw	a3,-44(s0)
 1417 0014 2328E4FC 		sw	a4,-48(s0)
 1418 0018 A30DF4FC 		sb	a5,-37(s0)
 1419 001c B287     		mv	a5,a2
 1420 001e 230DF4FC 		sb	a5,-38(s0)
 270:../src/bsp/wbi2c.c **** 	int32_t i;
 271:../src/bsp/wbi2c.c **** 	for(i = 0; i < data_num; i++)
 1421              		.loc 1 271 8
 1422 0022 232604FE 		sw	zero,-20(s0)
 1423              		.loc 1 271 2
 1424 0026 91A0     		j	.L80
 1425              	.L81:
 272:../src/bsp/wbi2c.c **** 	{
 273:../src/bsp/wbi2c.c **** 		data[i] = I2C_ReceiveByte(I2Cx, slv_address, (data_start_address + i));
 1426              		.loc 1 273 13 discriminator 3
 1427 0028 8327C4FE 		lw	a5,-20(s0)
 1428 002c 13F7F70F 		andi	a4,a5,0xff
 1429 0030 8347A4FD 		lbu	a5,-38(s0)
 1430 0034 BA97     		add	a5,a4,a5
 1431 0036 93F6F70F 		andi	a3,a5,0xff
 1432              		.loc 1 273 7 discriminator 3
 1433 003a 8327C4FE 		lw	a5,-20(s0)
 1434 003e 032744FD 		lw	a4,-44(s0)
 1435 0042 B304F700 		add	s1,a4,a5
 1436              		.loc 1 273 13 discriminator 3
 1437 0046 8347B4FD 		lbu	a5,-37(s0)
 1438 004a 3686     		mv	a2,a3
 1439 004c BE85     		mv	a1,a5
 1440 004e 0325C4FD 		lw	a0,-36(s0)
 1441 0052 97000000 		call	I2C_ReceiveByte
 1441      E7800000 
 1442 005a AA87     		mv	a5,a0
 1443              		.loc 1 273 11 discriminator 3
 1444 005c 2380F400 		sb	a5,0(s1)
 271:../src/bsp/wbi2c.c **** 	{
 1445              		.loc 1 271 28 discriminator 3
 1446 0060 8327C4FE 		lw	a5,-20(s0)
 1447 0064 8507     		addi	a5,a5,1
 1448 0066 2326F4FE 		sw	a5,-20(s0)
 1449              	.L80:
 271:../src/bsp/wbi2c.c **** 	{
 1450              		.loc 1 271 2 discriminator 1
 1451 006a 0327C4FE 		lw	a4,-20(s0)
 1452 006e 832704FD 		lw	a5,-48(s0)
 1453 0072 E34BF7FA 		blt	a4,a5,.L81
 274:../src/bsp/wbi2c.c **** 	}
 275:../src/bsp/wbi2c.c **** }
 1454              		.loc 1 275 1
 1455 0076 0100     		nop
 1456 0078 B250     		lw	ra,44(sp)
 1457              		.cfi_restore 1
 1458 007a 2254     		lw	s0,40(sp)
 1459              		.cfi_restore 8
 1460 007c 9254     		lw	s1,36(sp)
 1461              		.cfi_restore 9
 1462 007e 4561     		addi	sp,sp,48
 1463              		.cfi_def_cfa_register 2
 1464 0080 8280     		jr	ra
 1465              		.cfi_endproc
 1466              	.LFE15:
 1468              		.section	.text.I2C_InterruptOpen,"ax",@progbits
 1469              		.align	1
 1470              		.globl	I2C_InterruptOpen
 1472              	I2C_InterruptOpen:
 1473              	.LFB16:
 276:../src/bsp/wbi2c.c **** 
 277:../src/bsp/wbi2c.c **** void I2C_InterruptOpen(WBI2CMASTER_RegDef *I2Cx)
 278:../src/bsp/wbi2c.c **** {
 1474              		.loc 1 278 1
 1475              		.cfi_startproc
 1476 0000 0111     		addi	sp,sp,-32
 1477              		.cfi_def_cfa_offset 32
 1478 0002 22CE     		sw	s0,28(sp)
 1479              		.cfi_offset 8, -4
 1480 0004 0010     		addi	s0,sp,32
 1481              		.cfi_def_cfa 8, 0
 1482 0006 2326A4FE 		sw	a0,-20(s0)
 279:../src/bsp/wbi2c.c **** 	I2Cx->CTR = I2C_CTR_IEN;
 1483              		.loc 1 279 12
 1484 000a 8327C4FE 		lw	a5,-20(s0)
 1485 000e 13070004 		li	a4,64
 1486 0012 D8C3     		sw	a4,4(a5)
 280:../src/bsp/wbi2c.c **** }
 1487              		.loc 1 280 1
 1488 0014 0100     		nop
 1489 0016 7244     		lw	s0,28(sp)
 1490              		.cfi_restore 8
 1491 0018 0561     		addi	sp,sp,32
 1492              		.cfi_def_cfa_register 2
 1493 001a 8280     		jr	ra
 1494              		.cfi_endproc
 1495              	.LFE16:
 1497              		.section	.text.I2C_InterruptClose,"ax",@progbits
 1498              		.align	1
 1499              		.globl	I2C_InterruptClose
 1501              	I2C_InterruptClose:
 1502              	.LFB17:
 281:../src/bsp/wbi2c.c **** 
 282:../src/bsp/wbi2c.c **** void I2C_InterruptClose(WBI2CMASTER_RegDef *I2Cx)
 283:../src/bsp/wbi2c.c **** {
 1503              		.loc 1 283 1
 1504              		.cfi_startproc
 1505 0000 0111     		addi	sp,sp,-32
 1506              		.cfi_def_cfa_offset 32
 1507 0002 22CE     		sw	s0,28(sp)
 1508              		.cfi_offset 8, -4
 1509 0004 0010     		addi	s0,sp,32
 1510              		.cfi_def_cfa 8, 0
 1511 0006 2326A4FE 		sw	a0,-20(s0)
 284:../src/bsp/wbi2c.c **** 	I2Cx->CTR &= ~I2C_CTR_IEN;
 1512              		.loc 1 284 12
 1513 000a 8327C4FE 		lw	a5,-20(s0)
 1514 000e DC43     		lw	a5,4(a5)
 1515 0010 13F7F7FB 		andi	a4,a5,-65
 1516 0014 8327C4FE 		lw	a5,-20(s0)
 1517 0018 D8C3     		sw	a4,4(a5)
 285:../src/bsp/wbi2c.c **** }
 1518              		.loc 1 285 1
 1519 001a 0100     		nop
 1520 001c 7244     		lw	s0,28(sp)
 1521              		.cfi_restore 8
 1522 001e 0561     		addi	sp,sp,32
 1523              		.cfi_def_cfa_register 2
 1524 0020 8280     		jr	ra
 1525              		.cfi_endproc
 1526              	.LFE17:
 1528              		.text
 1529              	.Letext0:
 1530              		.file 2 "c:\\gmd\\toolchain\\risc-v_toolchain\\riscv-none-embed\\include\\machine\\_default_types.
 1531              		.file 3 "c:\\gmd\\toolchain\\risc-v_toolchain\\riscv-none-embed\\include\\sys\\_stdint.h"
 1532              		.file 4 "c:\\gmd\\toolchain\\risc-v_toolchain\\riscv-none-embed\\include\\sys\\lock.h"
 1533              		.file 5 "c:\\gmd\\toolchain\\risc-v_toolchain\\riscv-none-embed\\include\\sys\\_types.h"
 1534              		.file 6 "c:\\gmd\\toolchain\\risc-v_toolchain\\lib\\gcc\\riscv-none-embed\\8.2.0\\include\\stddef.
 1535              		.file 7 "c:\\gmd\\toolchain\\risc-v_toolchain\\riscv-none-embed\\include\\sys\\reent.h"
 1536              		.file 8 "E:\\GMD\\workspace\\picorv32_demo\\src/picorv32.h"