   1              		.file	"wbi2c.c"
   2              		.option nopic
   3              		.text
   4              	.Ltext0:
   5              		.cfi_sections	.debug_frame
   6              		.section	.text.Delay_ms_i2c,"ax",@progbits
   7              		.align	1
   8              		.globl	Delay_ms_i2c
  10              	Delay_ms_i2c:
  11              	.LFB3:
  12              		.file 1 "../src/bsp/wbi2c.c"
   1:../src/bsp/wbi2c.c **** /*
   2:../src/bsp/wbi2c.c ****  * *****************************************************************************************
   3:../src/bsp/wbi2c.c ****  *
   4:../src/bsp/wbi2c.c ****  * 		Copyright (C) 2014-2022 Gowin Semiconductor Technology Co.,Ltd.
   5:../src/bsp/wbi2c.c ****  *
   6:../src/bsp/wbi2c.c ****  * @file		wbi2c.c
   7:../src/bsp/wbi2c.c ****  * @author		Embedded Development Team
   8:../src/bsp/wbi2c.c ****  * @version		V1.2.x
   9:../src/bsp/wbi2c.c ****  * @date		2022-01-01 09:00:00
  10:../src/bsp/wbi2c.c ****  * @brief		Wishbone I2C Peripheral.
  11:../src/bsp/wbi2c.c ****  ******************************************************************************************
  12:../src/bsp/wbi2c.c ****  */
  13:../src/bsp/wbi2c.c **** 
  14:../src/bsp/wbi2c.c **** /* Includes ------------------------------------------------------------------*/
  15:../src/bsp/wbi2c.c **** #include "wbi2c.h"
  16:../src/bsp/wbi2c.c **** 
  17:../src/bsp/wbi2c.c **** /* Functions --------------------------------------------------------------------- */
  18:../src/bsp/wbi2c.c **** void Delay_ms_i2c(__IO uint32_t delay_ms)
  19:../src/bsp/wbi2c.c **** {
  13              		.loc 1 19 1
  14              		.cfi_startproc
  15 0000 0111     		addi	sp,sp,-32
  16              		.cfi_def_cfa_offset 32
  17 0002 22CE     		sw	s0,28(sp)
  18              		.cfi_offset 8, -4
  19 0004 0010     		addi	s0,sp,32
  20              		.cfi_def_cfa 8, 0
  21 0006 2326A4FE 		sw	a0,-20(s0)
  20:../src/bsp/wbi2c.c ****   for(delay_ms=delay_ms * (SYSCLKFREQ>>13); delay_ms != 0; delay_ms--);
  22              		.loc 1 20 25
  23 000a 0327C4FE 		lw	a4,-20(s0)
  24 000e 8567     		li	a5,4096
  25 0010 9387777D 		addi	a5,a5,2007
  26 0014 B307F702 		mul	a5,a4,a5
  27              		.loc 1 20 15
  28 0018 2326F4FE 		sw	a5,-20(s0)
  29              		.loc 1 20 3
  30 001c 31A0     		j	.L2
  31              	.L3:
  32              		.loc 1 20 68 discriminator 3
  33 001e 8327C4FE 		lw	a5,-20(s0)
  34 0022 FD17     		addi	a5,a5,-1
  35 0024 2326F4FE 		sw	a5,-20(s0)
  36              	.L2:
  37              		.loc 1 20 54 discriminator 1
  38 0028 8327C4FE 		lw	a5,-20(s0)
  39              		.loc 1 20 3 discriminator 1
  40 002c EDFB     		bnez	a5,.L3
  21:../src/bsp/wbi2c.c **** }
  41              		.loc 1 21 1
  42 002e 0100     		nop
  43 0030 7244     		lw	s0,28(sp)
  44              		.cfi_restore 8
  45 0032 0561     		addi	sp,sp,32
  46              		.cfi_def_cfa_register 2
  47 0034 8280     		jr	ra
  48              		.cfi_endproc
  49              	.LFE3:
  51              		.section	.text.I2C_Disable,"ax",@progbits
  52              		.align	1
  53              		.globl	I2C_Disable
  55              	I2C_Disable:
  56              	.LFB4:
  22:../src/bsp/wbi2c.c **** 
  23:../src/bsp/wbi2c.c **** void I2C_Disable(WBI2CMASTER_RegDef *I2Cx)
  24:../src/bsp/wbi2c.c **** {
  57              		.loc 1 24 1
  58              		.cfi_startproc
  59 0000 0111     		addi	sp,sp,-32
  60              		.cfi_def_cfa_offset 32
  61 0002 22CE     		sw	s0,28(sp)
  62              		.cfi_offset 8, -4
  63 0004 0010     		addi	s0,sp,32
  64              		.cfi_def_cfa 8, 0
  65 0006 2326A4FE 		sw	a0,-20(s0)
  25:../src/bsp/wbi2c.c **** 	I2Cx->CTR = ~I2C_CTR_EN;
  66              		.loc 1 25 12
  67 000a 8327C4FE 		lw	a5,-20(s0)
  68 000e 1307F0F7 		li	a4,-129
  69 0012 D8C3     		sw	a4,4(a5)
  26:../src/bsp/wbi2c.c **** }
  70              		.loc 1 26 1
  71 0014 0100     		nop
  72 0016 7244     		lw	s0,28(sp)
  73              		.cfi_restore 8
  74 0018 0561     		addi	sp,sp,32
  75              		.cfi_def_cfa_register 2
  76 001a 8280     		jr	ra
  77              		.cfi_endproc
  78              	.LFE4:
  80              		.section	.text.I2C_Enable,"ax",@progbits
  81              		.align	1
  82              		.globl	I2C_Enable
  84              	I2C_Enable:
  85              	.LFB5:
  27:../src/bsp/wbi2c.c **** 
  28:../src/bsp/wbi2c.c **** void I2C_Enable(WBI2CMASTER_RegDef *I2Cx)
  29:../src/bsp/wbi2c.c **** {
  86              		.loc 1 29 1
  87              		.cfi_startproc
  88 0000 0111     		addi	sp,sp,-32
  89              		.cfi_def_cfa_offset 32
  90 0002 22CE     		sw	s0,28(sp)
  91              		.cfi_offset 8, -4
  92 0004 0010     		addi	s0,sp,32
  93              		.cfi_def_cfa 8, 0
  94 0006 2326A4FE 		sw	a0,-20(s0)
  30:../src/bsp/wbi2c.c **** 	I2Cx->CTR |= I2C_CTR_EN ;//|I2C_CTR_IEN;
  95              		.loc 1 30 12
  96 000a 8327C4FE 		lw	a5,-20(s0)
  97 000e DC43     		lw	a5,4(a5)
  98 0010 13E70708 		ori	a4,a5,128
  99 0014 8327C4FE 		lw	a5,-20(s0)
 100 0018 D8C3     		sw	a4,4(a5)
  31:../src/bsp/wbi2c.c **** }
 101              		.loc 1 31 1
 102 001a 0100     		nop
 103 001c 7244     		lw	s0,28(sp)
 104              		.cfi_restore 8
 105 001e 0561     		addi	sp,sp,32
 106              		.cfi_def_cfa_register 2
 107 0020 8280     		jr	ra
 108              		.cfi_endproc
 109              	.LFE5:
 111              		.section	.text.I2C_Rate_Set,"ax",@progbits
 112              		.align	1
 113              		.globl	I2C_Rate_Set
 115              	I2C_Rate_Set:
 116              	.LFB6:
  32:../src/bsp/wbi2c.c **** 
  33:../src/bsp/wbi2c.c **** uint16_t I2C_Rate_Set(WBI2CMASTER_RegDef *I2Cx, uint16_t Rate)
  34:../src/bsp/wbi2c.c **** {
 117              		.loc 1 34 1
 118              		.cfi_startproc
 119 0000 7971     		addi	sp,sp,-48
 120              		.cfi_def_cfa_offset 48
 121 0002 22D6     		sw	s0,44(sp)
 122              		.cfi_offset 8, -4
 123 0004 0018     		addi	s0,sp,48
 124              		.cfi_def_cfa 8, 0
 125 0006 232EA4FC 		sw	a0,-36(s0)
 126 000a AE87     		mv	a5,a1
 127 000c 231DF4FC 		sh	a5,-38(s0)
  35:../src/bsp/wbi2c.c **** 	uint16_t     prescal = 0;
 128              		.loc 1 35 15
 129 0010 231704FE 		sh	zero,-18(s0)
  36:../src/bsp/wbi2c.c **** 	prescal =    (uint16_t) (SYSCLKFREQ / (5000 * Rate) - 1);
 130              		.loc 1 36 46
 131 0014 0357A4FD 		lhu	a4,-38(s0)
 132 0018 8567     		li	a5,4096
 133 001a 93878738 		addi	a5,a5,904
 134 001e B307F702 		mul	a5,a4,a5
 135              		.loc 1 36 38
 136 0022 37F7FA02 		li	a4,49999872
 137 0026 13070708 		addi	a4,a4,128
 138 002a B347F702 		div	a5,a4,a5
 139              		.loc 1 36 15
 140 002e C207     		slli	a5,a5,16
 141 0030 C183     		srli	a5,a5,16
 142              		.loc 1 36 10
 143 0032 FD17     		addi	a5,a5,-1
 144 0034 2317F4FE 		sh	a5,-18(s0)
  37:../src/bsp/wbi2c.c **** 	I2Cx->PRER = (prescal & I2C_CTR_PERE);
 145              		.loc 1 37 24
 146 0038 0357E4FE 		lhu	a4,-18(s0)
 147              		.loc 1 37 13
 148 003c 8327C4FD 		lw	a5,-36(s0)
 149 0040 98C3     		sw	a4,0(a5)
  38:../src/bsp/wbi2c.c **** 	return       prescal;
 150              		.loc 1 38 15
 151 0042 8357E4FE 		lhu	a5,-18(s0)
  39:../src/bsp/wbi2c.c **** }
 152              		.loc 1 39 1
 153 0046 3E85     		mv	a0,a5
 154 0048 3254     		lw	s0,44(sp)
 155              		.cfi_restore 8
 156 004a 4561     		addi	sp,sp,48
 157              		.cfi_def_cfa_register 2
 158 004c 8280     		jr	ra
 159              		.cfi_endproc
 160              	.LFE6:
 162              		.section	.text.I2C_Init,"ax",@progbits
 163              		.align	1
 164              		.globl	I2C_Init
 166              	I2C_Init:
 167              	.LFB7:
  40:../src/bsp/wbi2c.c **** 
  41:../src/bsp/wbi2c.c **** uint8_t I2C_Init(WBI2CMASTER_RegDef *I2Cx, uint16_t Rate)
  42:../src/bsp/wbi2c.c **** {
 168              		.loc 1 42 1
 169              		.cfi_startproc
 170 0000 7971     		addi	sp,sp,-48
 171              		.cfi_def_cfa_offset 48
 172 0002 06D6     		sw	ra,44(sp)
 173 0004 22D4     		sw	s0,40(sp)
 174              		.cfi_offset 1, -4
 175              		.cfi_offset 8, -8
 176 0006 0018     		addi	s0,sp,48
 177              		.cfi_def_cfa 8, 0
 178 0008 232EA4FC 		sw	a0,-36(s0)
 179 000c AE87     		mv	a5,a1
 180 000e 231DF4FC 		sh	a5,-38(s0)
  43:../src/bsp/wbi2c.c **** 	uint16_t temp_save;
  44:../src/bsp/wbi2c.c **** 	temp_save=I2C_Rate_Set(I2Cx, Rate);
 181              		.loc 1 44 12
 182 0012 8357A4FD 		lhu	a5,-38(s0)
 183 0016 BE85     		mv	a1,a5
 184 0018 0325C4FD 		lw	a0,-36(s0)
 185 001c 97000000 		call	I2C_Rate_Set
 185      E7800000 
 186 0024 AA87     		mv	a5,a0
 187 0026 2317F4FE 		sh	a5,-18(s0)
  45:../src/bsp/wbi2c.c **** 	I2C_Enable(I2Cx);
 188              		.loc 1 45 2
 189 002a 0325C4FD 		lw	a0,-36(s0)
 190 002e 97000000 		call	I2C_Enable
 190      E7800000 
  46:../src/bsp/wbi2c.c **** 
  47:../src/bsp/wbi2c.c **** 	if( (I2Cx->CTR & I2C_CTR_EN) && (I2Cx->PRER == (uint32_t)(temp_save & I2C_CTR_PERE)))
 191              		.loc 1 47 11
 192 0036 8327C4FD 		lw	a5,-36(s0)
 193 003a DC43     		lw	a5,4(a5)
 194              		.loc 1 47 17
 195 003c 93F70708 		andi	a5,a5,128
 196              		.loc 1 47 4
 197 0040 91CB     		beqz	a5,.L9
 198              		.loc 1 47 39 discriminator 1
 199 0042 8327C4FD 		lw	a5,-36(s0)
 200 0046 9843     		lw	a4,0(a5)
 201              		.loc 1 47 46 discriminator 1
 202 0048 8357E4FE 		lhu	a5,-18(s0)
 203              		.loc 1 47 31 discriminator 1
 204 004c 6314F700 		bne	a4,a5,.L9
  48:../src/bsp/wbi2c.c **** 	{
  49:../src/bsp/wbi2c.c **** 		return 0;
 205              		.loc 1 49 10
 206 0050 8147     		li	a5,0
 207 0052 11A0     		j	.L10
 208              	.L9:
  50:../src/bsp/wbi2c.c **** 	}
  51:../src/bsp/wbi2c.c **** 	else
  52:../src/bsp/wbi2c.c **** 		return 1;
 209              		.loc 1 52 10
 210 0054 8547     		li	a5,1
 211              	.L10:
  53:../src/bsp/wbi2c.c **** }
 212              		.loc 1 53 1
 213 0056 3E85     		mv	a0,a5
 214 0058 B250     		lw	ra,44(sp)
 215              		.cfi_restore 1
 216 005a 2254     		lw	s0,40(sp)
 217              		.cfi_restore 8
 218 005c 4561     		addi	sp,sp,48
 219              		.cfi_def_cfa_register 2
 220 005e 8280     		jr	ra
 221              		.cfi_endproc
 222              	.LFE7:
 224              		.section	.text.I2C_SendByte,"ax",@progbits
 225              		.align	1
 226              		.globl	I2C_SendByte
 228              	I2C_SendByte:
 229              	.LFB8:
  54:../src/bsp/wbi2c.c **** 
  55:../src/bsp/wbi2c.c **** void I2C_SendByte(WBI2CMASTER_RegDef *I2Cx, uint8_t slv_address, uint8_t data_address, uint8_t data
  56:../src/bsp/wbi2c.c **** {
 230              		.loc 1 56 1
 231              		.cfi_startproc
 232 0000 0111     		addi	sp,sp,-32
 233              		.cfi_def_cfa_offset 32
 234 0002 06CE     		sw	ra,28(sp)
 235 0004 22CC     		sw	s0,24(sp)
 236              		.cfi_offset 1, -4
 237              		.cfi_offset 8, -8
 238 0006 0010     		addi	s0,sp,32
 239              		.cfi_def_cfa 8, 0
 240 0008 2326A4FE 		sw	a0,-20(s0)
 241 000c AE87     		mv	a5,a1
 242 000e 3687     		mv	a4,a3
 243 0010 A305F4FE 		sb	a5,-21(s0)
 244 0014 B287     		mv	a5,a2
 245 0016 2305F4FE 		sb	a5,-22(s0)
 246 001a BA87     		mv	a5,a4
 247 001c A304F4FE 		sb	a5,-23(s0)
  57:../src/bsp/wbi2c.c **** 
  58:../src/bsp/wbi2c.c **** 	I2Cx->TXR = (slv_address << 1) | 0;
 248              		.loc 1 58 33
 249 0020 8347B4FE 		lbu	a5,-21(s0)
 250 0024 8607     		slli	a5,a5,1
 251 0026 3E87     		mv	a4,a5
 252              		.loc 1 58 12
 253 0028 8327C4FE 		lw	a5,-20(s0)
 254 002c 98C7     		sw	a4,8(a5)
  59:../src/bsp/wbi2c.c **** 	I2Cx->CR = I2C_CMD_STA | I2C_CMD_WR | I2C_CMD_ACK;
 255              		.loc 1 59 11
 256 002e 8327C4FE 		lw	a5,-20(s0)
 257 0032 13078009 		li	a4,152
 258 0036 D8C7     		sw	a4,12(a5)
  60:../src/bsp/wbi2c.c **** 	while(I2Cx->SR & I2C_SR_TIP);//wait TIP
 259              		.loc 1 60 7
 260 0038 0100     		nop
 261              	.L12:
 262              		.loc 1 60 12 discriminator 1
 263 003a 8327C4FE 		lw	a5,-20(s0)
 264 003e DC47     		lw	a5,12(a5)
 265              		.loc 1 60 17 discriminator 1
 266 0040 898B     		andi	a5,a5,2
 267              		.loc 1 60 7 discriminator 1
 268 0042 E5FF     		bnez	a5,.L12
  61:../src/bsp/wbi2c.c **** 	while(I2Cx->SR & I2C_SR_RXACK);//wait ack-----Over Here
 269              		.loc 1 61 7
 270 0044 0100     		nop
 271              	.L13:
 272              		.loc 1 61 12 discriminator 1
 273 0046 8327C4FE 		lw	a5,-20(s0)
 274 004a DC47     		lw	a5,12(a5)
 275              		.loc 1 61 17 discriminator 1
 276 004c 93F70708 		andi	a5,a5,128
 277              		.loc 1 61 7 discriminator 1
 278 0050 FDFB     		bnez	a5,.L13
  62:../src/bsp/wbi2c.c **** 
  63:../src/bsp/wbi2c.c **** 
  64:../src/bsp/wbi2c.c **** 	I2Cx->TXR = data_address;
 279              		.loc 1 64 12
 280 0052 0347A4FE 		lbu	a4,-22(s0)
 281 0056 8327C4FE 		lw	a5,-20(s0)
 282 005a 98C7     		sw	a4,8(a5)
  65:../src/bsp/wbi2c.c **** 	I2Cx->CR = (I2C_CMD_WR | I2C_CMD_ACK);
 283              		.loc 1 65 11
 284 005c 8327C4FE 		lw	a5,-20(s0)
 285 0060 6147     		li	a4,24
 286 0062 D8C7     		sw	a4,12(a5)
  66:../src/bsp/wbi2c.c **** 	while(I2Cx->SR & I2C_SR_TIP);//wait TIP
 287              		.loc 1 66 7
 288 0064 0100     		nop
 289              	.L14:
 290              		.loc 1 66 12 discriminator 1
 291 0066 8327C4FE 		lw	a5,-20(s0)
 292 006a DC47     		lw	a5,12(a5)
 293              		.loc 1 66 17 discriminator 1
 294 006c 898B     		andi	a5,a5,2
 295              		.loc 1 66 7 discriminator 1
 296 006e E5FF     		bnez	a5,.L14
  67:../src/bsp/wbi2c.c **** 	while(I2Cx->SR & I2C_SR_RXACK);//wait ack
 297              		.loc 1 67 7
 298 0070 0100     		nop
 299              	.L15:
 300              		.loc 1 67 12 discriminator 1
 301 0072 8327C4FE 		lw	a5,-20(s0)
 302 0076 DC47     		lw	a5,12(a5)
 303              		.loc 1 67 17 discriminator 1
 304 0078 93F70708 		andi	a5,a5,128
 305              		.loc 1 67 7 discriminator 1
 306 007c FDFB     		bnez	a5,.L15
  68:../src/bsp/wbi2c.c **** 
  69:../src/bsp/wbi2c.c **** 
  70:../src/bsp/wbi2c.c **** 	I2Cx->TXR = data;
 307              		.loc 1 70 12
 308 007e 034794FE 		lbu	a4,-23(s0)
 309 0082 8327C4FE 		lw	a5,-20(s0)
 310 0086 98C7     		sw	a4,8(a5)
  71:../src/bsp/wbi2c.c **** 	I2Cx->CR |= (I2C_CMD_STO | I2C_CMD_WR | I2C_CMD_ACK);//I2C_CMD_WR;//(I2C_CMD_STO|I2C_CMD_WR);
 311              		.loc 1 71 11
 312 0088 8327C4FE 		lw	a5,-20(s0)
 313 008c DC47     		lw	a5,12(a5)
 314 008e 13E78705 		ori	a4,a5,88
 315 0092 8327C4FE 		lw	a5,-20(s0)
 316 0096 D8C7     		sw	a4,12(a5)
  72:../src/bsp/wbi2c.c **** 	while(I2Cx->SR & I2C_SR_TIP);//wait TIP
 317              		.loc 1 72 7
 318 0098 0100     		nop
 319              	.L16:
 320              		.loc 1 72 12 discriminator 1
 321 009a 8327C4FE 		lw	a5,-20(s0)
 322 009e DC47     		lw	a5,12(a5)
 323              		.loc 1 72 17 discriminator 1
 324 00a0 898B     		andi	a5,a5,2
 325              		.loc 1 72 7 discriminator 1
 326 00a2 E5FF     		bnez	a5,.L16
  73:../src/bsp/wbi2c.c **** 	while(I2Cx->SR & I2C_SR_RXACK);//wait ack
 327              		.loc 1 73 7
 328 00a4 0100     		nop
 329              	.L17:
 330              		.loc 1 73 12 discriminator 1
 331 00a6 8327C4FE 		lw	a5,-20(s0)
 332 00aa DC47     		lw	a5,12(a5)
 333              		.loc 1 73 17 discriminator 1
 334 00ac 93F70708 		andi	a5,a5,128
 335              		.loc 1 73 7 discriminator 1
 336 00b0 FDFB     		bnez	a5,.L17
  74:../src/bsp/wbi2c.c **** 	while(I2Cx->SR & I2C_SR_BUSY);
 337              		.loc 1 74 7
 338 00b2 0100     		nop
 339              	.L18:
 340              		.loc 1 74 12 discriminator 1
 341 00b4 8327C4FE 		lw	a5,-20(s0)
 342 00b8 DC47     		lw	a5,12(a5)
 343              		.loc 1 74 17 discriminator 1
 344 00ba 93F70704 		andi	a5,a5,64
 345              		.loc 1 74 7 discriminator 1
 346 00be FDFB     		bnez	a5,.L18
  75:../src/bsp/wbi2c.c **** 	Delay_ms_i2c(3);//Wait the data to I2C Ready
 347              		.loc 1 75 2
 348 00c0 0D45     		li	a0,3
 349 00c2 97000000 		call	Delay_ms_i2c
 349      E7800000 
  76:../src/bsp/wbi2c.c **** }
 350              		.loc 1 76 1
 351 00ca 0100     		nop
 352 00cc F240     		lw	ra,28(sp)
 353              		.cfi_restore 1
 354 00ce 6244     		lw	s0,24(sp)
 355              		.cfi_restore 8
 356 00d0 0561     		addi	sp,sp,32
 357              		.cfi_def_cfa_register 2
 358 00d2 8280     		jr	ra
 359              		.cfi_endproc
 360              	.LFE8:
 362              		.section	.text.I2C_ReceiveByte,"ax",@progbits
 363              		.align	1
 364              		.globl	I2C_ReceiveByte
 366              	I2C_ReceiveByte:
 367              	.LFB9:
  77:../src/bsp/wbi2c.c **** 
  78:../src/bsp/wbi2c.c **** uint8_t I2C_ReceiveByte(WBI2CMASTER_RegDef *I2Cx, uint8_t slv_addr, uint8_t data_addr)
  79:../src/bsp/wbi2c.c **** {
 368              		.loc 1 79 1
 369              		.cfi_startproc
 370 0000 7971     		addi	sp,sp,-48
 371              		.cfi_def_cfa_offset 48
 372 0002 06D6     		sw	ra,44(sp)
 373 0004 22D4     		sw	s0,40(sp)
 374              		.cfi_offset 1, -4
 375              		.cfi_offset 8, -8
 376 0006 0018     		addi	s0,sp,48
 377              		.cfi_def_cfa 8, 0
 378 0008 232EA4FC 		sw	a0,-36(s0)
 379 000c AE87     		mv	a5,a1
 380 000e 3287     		mv	a4,a2
 381 0010 A30DF4FC 		sb	a5,-37(s0)
 382 0014 BA87     		mv	a5,a4
 383 0016 230DF4FC 		sb	a5,-38(s0)
  80:../src/bsp/wbi2c.c **** 	uint8_t data=0;
 384              		.loc 1 80 10
 385 001a A30704FE 		sb	zero,-17(s0)
  81:../src/bsp/wbi2c.c **** 	I2Cx->TXR = (slv_addr << 1) | 0;
 386              		.loc 1 81 30
 387 001e 8347B4FD 		lbu	a5,-37(s0)
 388 0022 8607     		slli	a5,a5,1
 389 0024 3E87     		mv	a4,a5
 390              		.loc 1 81 12
 391 0026 8327C4FD 		lw	a5,-36(s0)
 392 002a 98C7     		sw	a4,8(a5)
  82:../src/bsp/wbi2c.c **** 	I2Cx->CR = I2C_CMD_STA | I2C_CMD_WR | I2C_CMD_ACK;
 393              		.loc 1 82 11
 394 002c 8327C4FD 		lw	a5,-36(s0)
 395 0030 13078009 		li	a4,152
 396 0034 D8C7     		sw	a4,12(a5)
  83:../src/bsp/wbi2c.c **** 	while(I2Cx->SR & I2C_SR_TIP);
 397              		.loc 1 83 7
 398 0036 0100     		nop
 399              	.L20:
 400              		.loc 1 83 12 discriminator 1
 401 0038 8327C4FD 		lw	a5,-36(s0)
 402 003c DC47     		lw	a5,12(a5)
 403              		.loc 1 83 17 discriminator 1
 404 003e 898B     		andi	a5,a5,2
 405              		.loc 1 83 7 discriminator 1
 406 0040 E5FF     		bnez	a5,.L20
  84:../src/bsp/wbi2c.c **** 	while(I2Cx->SR & I2C_SR_RXACK);//wait ack-----Over Here
 407              		.loc 1 84 7
 408 0042 0100     		nop
 409              	.L21:
 410              		.loc 1 84 12 discriminator 1
 411 0044 8327C4FD 		lw	a5,-36(s0)
 412 0048 DC47     		lw	a5,12(a5)
 413              		.loc 1 84 17 discriminator 1
 414 004a 93F70708 		andi	a5,a5,128
 415              		.loc 1 84 7 discriminator 1
 416 004e FDFB     		bnez	a5,.L21
  85:../src/bsp/wbi2c.c **** 
  86:../src/bsp/wbi2c.c **** 
  87:../src/bsp/wbi2c.c **** 	I2Cx->TXR = data_addr;
 417              		.loc 1 87 12
 418 0050 0347A4FD 		lbu	a4,-38(s0)
 419 0054 8327C4FD 		lw	a5,-36(s0)
 420 0058 98C7     		sw	a4,8(a5)
  88:../src/bsp/wbi2c.c **** 	I2Cx->CR = I2C_CMD_WR | I2C_CMD_ACK;//stop
 421              		.loc 1 88 11
 422 005a 8327C4FD 		lw	a5,-36(s0)
 423 005e 6147     		li	a4,24
 424 0060 D8C7     		sw	a4,12(a5)
  89:../src/bsp/wbi2c.c **** 	while(I2Cx->SR & I2C_SR_TIP);//wait TIP
 425              		.loc 1 89 7
 426 0062 0100     		nop
 427              	.L22:
 428              		.loc 1 89 12 discriminator 1
 429 0064 8327C4FD 		lw	a5,-36(s0)
 430 0068 DC47     		lw	a5,12(a5)
 431              		.loc 1 89 17 discriminator 1
 432 006a 898B     		andi	a5,a5,2
 433              		.loc 1 89 7 discriminator 1
 434 006c E5FF     		bnez	a5,.L22
  90:../src/bsp/wbi2c.c **** 	while(I2Cx->SR & I2C_SR_RXACK);//wait ack
 435              		.loc 1 90 7
 436 006e 0100     		nop
 437              	.L23:
 438              		.loc 1 90 12 discriminator 1
 439 0070 8327C4FD 		lw	a5,-36(s0)
 440 0074 DC47     		lw	a5,12(a5)
 441              		.loc 1 90 17 discriminator 1
 442 0076 93F70708 		andi	a5,a5,128
 443              		.loc 1 90 7 discriminator 1
 444 007a FDFB     		bnez	a5,.L23
  91:../src/bsp/wbi2c.c **** 
  92:../src/bsp/wbi2c.c **** 
  93:../src/bsp/wbi2c.c **** 	I2Cx->TXR = (slv_addr << 1) | 1;
 445              		.loc 1 93 24
 446 007c 8347B4FD 		lbu	a5,-37(s0)
 447 0080 8607     		slli	a5,a5,1
 448              		.loc 1 93 30
 449 0082 93E71700 		ori	a5,a5,1
 450 0086 3E87     		mv	a4,a5
 451              		.loc 1 93 12
 452 0088 8327C4FD 		lw	a5,-36(s0)
 453 008c 98C7     		sw	a4,8(a5)
  94:../src/bsp/wbi2c.c **** 	I2Cx->CR = I2C_CMD_STA | I2C_CMD_WR | I2C_CMD_ACK;
 454              		.loc 1 94 11
 455 008e 8327C4FD 		lw	a5,-36(s0)
 456 0092 13078009 		li	a4,152
 457 0096 D8C7     		sw	a4,12(a5)
  95:../src/bsp/wbi2c.c **** 	while(I2Cx->SR & I2C_SR_TIP);
 458              		.loc 1 95 7
 459 0098 0100     		nop
 460              	.L24:
 461              		.loc 1 95 12 discriminator 1
 462 009a 8327C4FD 		lw	a5,-36(s0)
 463 009e DC47     		lw	a5,12(a5)
 464              		.loc 1 95 17 discriminator 1
 465 00a0 898B     		andi	a5,a5,2
 466              		.loc 1 95 7 discriminator 1
 467 00a2 E5FF     		bnez	a5,.L24
  96:../src/bsp/wbi2c.c **** 	while(I2Cx->SR & I2C_SR_RXACK);//wait ack
 468              		.loc 1 96 7
 469 00a4 0100     		nop
 470              	.L25:
 471              		.loc 1 96 12 discriminator 1
 472 00a6 8327C4FD 		lw	a5,-36(s0)
 473 00aa DC47     		lw	a5,12(a5)
 474              		.loc 1 96 17 discriminator 1
 475 00ac 93F70708 		andi	a5,a5,128
 476              		.loc 1 96 7 discriminator 1
 477 00b0 FDFB     		bnez	a5,.L25
  97:../src/bsp/wbi2c.c **** 
  98:../src/bsp/wbi2c.c **** 
  99:../src/bsp/wbi2c.c **** 	I2Cx->CR = ((I2C_CMD_ACK) | I2C_CMD_STO | I2C_CMD_RD);//send nack
 478              		.loc 1 99 11
 479 00b2 8327C4FD 		lw	a5,-36(s0)
 480 00b6 13078006 		li	a4,104
 481 00ba D8C7     		sw	a4,12(a5)
 100:../src/bsp/wbi2c.c **** 	while(I2Cx->SR & I2C_SR_TIP);
 482              		.loc 1 100 7
 483 00bc 0100     		nop
 484              	.L26:
 485              		.loc 1 100 12 discriminator 1
 486 00be 8327C4FD 		lw	a5,-36(s0)
 487 00c2 DC47     		lw	a5,12(a5)
 488              		.loc 1 100 17 discriminator 1
 489 00c4 898B     		andi	a5,a5,2
 490              		.loc 1 100 7 discriminator 1
 491 00c6 E5FF     		bnez	a5,.L26
 101:../src/bsp/wbi2c.c **** 	data = I2Cx->RXR;
 492              		.loc 1 101 13
 493 00c8 8327C4FD 		lw	a5,-36(s0)
 494 00cc 9C47     		lw	a5,8(a5)
 495              		.loc 1 101 7
 496 00ce A307F4FE 		sb	a5,-17(s0)
 102:../src/bsp/wbi2c.c **** 	Delay_ms_i2c(3);//Wait the data from I2C Ready
 497              		.loc 1 102 2
 498 00d2 0D45     		li	a0,3
 499 00d4 97000000 		call	Delay_ms_i2c
 499      E7800000 
 103:../src/bsp/wbi2c.c ****     return data;
 500              		.loc 1 103 12
 501 00dc 8347F4FE 		lbu	a5,-17(s0)
 104:../src/bsp/wbi2c.c **** }
 502              		.loc 1 104 1
 503 00e0 3E85     		mv	a0,a5
 504 00e2 B250     		lw	ra,44(sp)
 505              		.cfi_restore 1
 506 00e4 2254     		lw	s0,40(sp)
 507              		.cfi_restore 8
 508 00e6 4561     		addi	sp,sp,48
 509              		.cfi_def_cfa_register 2
 510 00e8 8280     		jr	ra
 511              		.cfi_endproc
 512              	.LFE9:
 514              		.section	.text.I2C_SendWord,"ax",@progbits
 515              		.align	1
 516              		.globl	I2C_SendWord
 518              	I2C_SendWord:
 519              	.LFB10:
 105:../src/bsp/wbi2c.c **** 
 106:../src/bsp/wbi2c.c **** //send a 16 bit data, dir == 1, upper byte first; dir == 0, lower byte first
 107:../src/bsp/wbi2c.c **** void I2C_SendWord(WBI2CMASTER_RegDef *I2Cx, uint8_t slv_address, uint8_t data_address, uint16_t dat
 108:../src/bsp/wbi2c.c **** {
 520              		.loc 1 108 1
 521              		.cfi_startproc
 522 0000 7971     		addi	sp,sp,-48
 523              		.cfi_def_cfa_offset 48
 524 0002 06D6     		sw	ra,44(sp)
 525 0004 22D4     		sw	s0,40(sp)
 526              		.cfi_offset 1, -4
 527              		.cfi_offset 8, -8
 528 0006 0018     		addi	s0,sp,48
 529              		.cfi_def_cfa 8, 0
 530 0008 232EA4FC 		sw	a0,-36(s0)
 531 000c AE87     		mv	a5,a1
 532 000e A30DF4FC 		sb	a5,-37(s0)
 533 0012 B287     		mv	a5,a2
 534 0014 230DF4FC 		sb	a5,-38(s0)
 535 0018 B687     		mv	a5,a3
 536 001a 231CF4FC 		sh	a5,-40(s0)
 537 001e BA87     		mv	a5,a4
 538 0020 A30BF4FC 		sb	a5,-41(s0)
 109:../src/bsp/wbi2c.c **** 	uint8_t data0 = 0;
 539              		.loc 1 109 10
 540 0024 A30704FE 		sb	zero,-17(s0)
 110:../src/bsp/wbi2c.c **** 	uint8_t data1 = 0;
 541              		.loc 1 110 10
 542 0028 230704FE 		sb	zero,-18(s0)
 111:../src/bsp/wbi2c.c **** 	if(dir)  //send upper byte first
 543              		.loc 1 111 4
 544 002c 834774FD 		lbu	a5,-41(s0)
 545 0030 89CF     		beqz	a5,.L29
 112:../src/bsp/wbi2c.c **** 	{
 113:../src/bsp/wbi2c.c **** 		data0 = (uint8_t)(data >> 8);
 546              		.loc 1 113 11
 547 0032 835784FD 		lhu	a5,-40(s0)
 548 0036 A183     		srli	a5,a5,8
 549 0038 C207     		slli	a5,a5,16
 550 003a C183     		srli	a5,a5,16
 551              		.loc 1 113 9
 552 003c A307F4FE 		sb	a5,-17(s0)
 114:../src/bsp/wbi2c.c **** 		data1 = (uint8_t)(data & 0xff);
 553              		.loc 1 114 9
 554 0040 835784FD 		lhu	a5,-40(s0)
 555 0044 2307F4FE 		sb	a5,-18(s0)
 556 0048 21A8     		j	.L30
 557              	.L29:
 115:../src/bsp/wbi2c.c **** 	}
 116:../src/bsp/wbi2c.c **** 	else  //send lower byte first
 117:../src/bsp/wbi2c.c **** 	{
 118:../src/bsp/wbi2c.c **** 		data0 = (uint8_t)(data & 0xff);
 558              		.loc 1 118 9
 559 004a 835784FD 		lhu	a5,-40(s0)
 560 004e A307F4FE 		sb	a5,-17(s0)
 119:../src/bsp/wbi2c.c **** 		data1 = (uint8_t)(data >> 8);
 561              		.loc 1 119 11
 562 0052 835784FD 		lhu	a5,-40(s0)
 563 0056 A183     		srli	a5,a5,8
 564 0058 C207     		slli	a5,a5,16
 565 005a C183     		srli	a5,a5,16
 566              		.loc 1 119 9
 567 005c 2307F4FE 		sb	a5,-18(s0)
 568              	.L30:
 120:../src/bsp/wbi2c.c **** 	}
 121:../src/bsp/wbi2c.c **** 
 122:../src/bsp/wbi2c.c **** 	I2Cx->TXR = (slv_address << 1) | 0;
 569              		.loc 1 122 33
 570 0060 8347B4FD 		lbu	a5,-37(s0)
 571 0064 8607     		slli	a5,a5,1
 572 0066 3E87     		mv	a4,a5
 573              		.loc 1 122 12
 574 0068 8327C4FD 		lw	a5,-36(s0)
 575 006c 98C7     		sw	a4,8(a5)
 123:../src/bsp/wbi2c.c **** 	I2Cx->CR = I2C_CMD_STA | I2C_CMD_WR | I2C_CMD_ACK;
 576              		.loc 1 123 11
 577 006e 8327C4FD 		lw	a5,-36(s0)
 578 0072 13078009 		li	a4,152
 579 0076 D8C7     		sw	a4,12(a5)
 124:../src/bsp/wbi2c.c **** 	while(I2Cx->SR & I2C_SR_TIP);//wait TIP
 580              		.loc 1 124 7
 581 0078 0100     		nop
 582              	.L31:
 583              		.loc 1 124 12 discriminator 1
 584 007a 8327C4FD 		lw	a5,-36(s0)
 585 007e DC47     		lw	a5,12(a5)
 586              		.loc 1 124 17 discriminator 1
 587 0080 898B     		andi	a5,a5,2
 588              		.loc 1 124 7 discriminator 1
 589 0082 E5FF     		bnez	a5,.L31
 125:../src/bsp/wbi2c.c **** 	while(I2Cx->SR & I2C_SR_RXACK);//wait ack-----Over Here
 590              		.loc 1 125 7
 591 0084 0100     		nop
 592              	.L32:
 593              		.loc 1 125 12 discriminator 1
 594 0086 8327C4FD 		lw	a5,-36(s0)
 595 008a DC47     		lw	a5,12(a5)
 596              		.loc 1 125 17 discriminator 1
 597 008c 93F70708 		andi	a5,a5,128
 598              		.loc 1 125 7 discriminator 1
 599 0090 FDFB     		bnez	a5,.L32
 126:../src/bsp/wbi2c.c **** 
 127:../src/bsp/wbi2c.c **** 
 128:../src/bsp/wbi2c.c **** 	I2Cx->TXR = data_address;
 600              		.loc 1 128 12
 601 0092 0347A4FD 		lbu	a4,-38(s0)
 602 0096 8327C4FD 		lw	a5,-36(s0)
 603 009a 98C7     		sw	a4,8(a5)
 129:../src/bsp/wbi2c.c **** 	I2Cx->CR = (I2C_CMD_WR | I2C_CMD_ACK);
 604              		.loc 1 129 11
 605 009c 8327C4FD 		lw	a5,-36(s0)
 606 00a0 6147     		li	a4,24
 607 00a2 D8C7     		sw	a4,12(a5)
 130:../src/bsp/wbi2c.c **** 	while(I2Cx->SR & I2C_SR_TIP);//wait TIP
 608              		.loc 1 130 7
 609 00a4 0100     		nop
 610              	.L33:
 611              		.loc 1 130 12 discriminator 1
 612 00a6 8327C4FD 		lw	a5,-36(s0)
 613 00aa DC47     		lw	a5,12(a5)
 614              		.loc 1 130 17 discriminator 1
 615 00ac 898B     		andi	a5,a5,2
 616              		.loc 1 130 7 discriminator 1
 617 00ae E5FF     		bnez	a5,.L33
 131:../src/bsp/wbi2c.c **** 	while(I2Cx->SR & I2C_SR_RXACK);//wait ack
 618              		.loc 1 131 7
 619 00b0 0100     		nop
 620              	.L34:
 621              		.loc 1 131 12 discriminator 1
 622 00b2 8327C4FD 		lw	a5,-36(s0)
 623 00b6 DC47     		lw	a5,12(a5)
 624              		.loc 1 131 17 discriminator 1
 625 00b8 93F70708 		andi	a5,a5,128
 626              		.loc 1 131 7 discriminator 1
 627 00bc FDFB     		bnez	a5,.L34
 132:../src/bsp/wbi2c.c **** 
 133:../src/bsp/wbi2c.c **** 	I2Cx->TXR = data0;
 628              		.loc 1 133 12
 629 00be 0347F4FE 		lbu	a4,-17(s0)
 630 00c2 8327C4FD 		lw	a5,-36(s0)
 631 00c6 98C7     		sw	a4,8(a5)
 134:../src/bsp/wbi2c.c **** 	I2Cx->CR = (I2C_CMD_WR | I2C_CMD_ACK);//I2C_CMD_WR;//(I2C_CMD_STO|I2C_CMD_WR);
 632              		.loc 1 134 11
 633 00c8 8327C4FD 		lw	a5,-36(s0)
 634 00cc 6147     		li	a4,24
 635 00ce D8C7     		sw	a4,12(a5)
 135:../src/bsp/wbi2c.c **** 	while(I2Cx->SR & I2C_SR_TIP);//wait TIP
 636              		.loc 1 135 7
 637 00d0 0100     		nop
 638              	.L35:
 639              		.loc 1 135 12 discriminator 1
 640 00d2 8327C4FD 		lw	a5,-36(s0)
 641 00d6 DC47     		lw	a5,12(a5)
 642              		.loc 1 135 17 discriminator 1
 643 00d8 898B     		andi	a5,a5,2
 644              		.loc 1 135 7 discriminator 1
 645 00da E5FF     		bnez	a5,.L35
 136:../src/bsp/wbi2c.c **** 	while(I2Cx->SR & I2C_SR_RXACK);//wait ack
 646              		.loc 1 136 7
 647 00dc 0100     		nop
 648              	.L36:
 649              		.loc 1 136 12 discriminator 1
 650 00de 8327C4FD 		lw	a5,-36(s0)
 651 00e2 DC47     		lw	a5,12(a5)
 652              		.loc 1 136 17 discriminator 1
 653 00e4 93F70708 		andi	a5,a5,128
 654              		.loc 1 136 7 discriminator 1
 655 00e8 FDFB     		bnez	a5,.L36
 137:../src/bsp/wbi2c.c **** 	Delay_ms_i2c(3);//Wait the data to I2C Ready
 656              		.loc 1 137 2
 657 00ea 0D45     		li	a0,3
 658 00ec 97000000 		call	Delay_ms_i2c
 658      E7800000 
 138:../src/bsp/wbi2c.c **** 
 139:../src/bsp/wbi2c.c **** 
 140:../src/bsp/wbi2c.c **** 	I2Cx->TXR = data1;
 659              		.loc 1 140 12
 660 00f4 0347E4FE 		lbu	a4,-18(s0)
 661 00f8 8327C4FD 		lw	a5,-36(s0)
 662 00fc 98C7     		sw	a4,8(a5)
 141:../src/bsp/wbi2c.c **** 	I2Cx->CR |= (I2C_CMD_STO | I2C_CMD_WR | I2C_CMD_ACK);//I2C_CMD_WR;//(I2C_CMD_STO|I2C_CMD_WR);
 663              		.loc 1 141 11
 664 00fe 8327C4FD 		lw	a5,-36(s0)
 665 0102 DC47     		lw	a5,12(a5)
 666 0104 13E78705 		ori	a4,a5,88
 667 0108 8327C4FD 		lw	a5,-36(s0)
 668 010c D8C7     		sw	a4,12(a5)
 142:../src/bsp/wbi2c.c **** 	while(I2Cx->SR & I2C_SR_TIP);//wait TIP
 669              		.loc 1 142 7
 670 010e 0100     		nop
 671              	.L37:
 672              		.loc 1 142 12 discriminator 1
 673 0110 8327C4FD 		lw	a5,-36(s0)
 674 0114 DC47     		lw	a5,12(a5)
 675              		.loc 1 142 17 discriminator 1
 676 0116 898B     		andi	a5,a5,2
 677              		.loc 1 142 7 discriminator 1
 678 0118 E5FF     		bnez	a5,.L37
 143:../src/bsp/wbi2c.c **** 	while(I2Cx->SR & I2C_SR_RXACK);//wait ack
 679              		.loc 1 143 7
 680 011a 0100     		nop
 681              	.L38:
 682              		.loc 1 143 12 discriminator 1
 683 011c 8327C4FD 		lw	a5,-36(s0)
 684 0120 DC47     		lw	a5,12(a5)
 685              		.loc 1 143 17 discriminator 1
 686 0122 93F70708 		andi	a5,a5,128
 687              		.loc 1 143 7 discriminator 1
 688 0126 FDFB     		bnez	a5,.L38
 144:../src/bsp/wbi2c.c **** 	while(I2Cx->SR & I2C_SR_BUSY);
 689              		.loc 1 144 7
 690 0128 0100     		nop
 691              	.L39:
 692              		.loc 1 144 12 discriminator 1
 693 012a 8327C4FD 		lw	a5,-36(s0)
 694 012e DC47     		lw	a5,12(a5)
 695              		.loc 1 144 17 discriminator 1
 696 0130 93F70704 		andi	a5,a5,64
 697              		.loc 1 144 7 discriminator 1
 698 0134 FDFB     		bnez	a5,.L39
 145:../src/bsp/wbi2c.c **** 	Delay_ms_i2c(3);//Wait the data to I2C Ready
 699              		.loc 1 145 2
 700 0136 0D45     		li	a0,3
 701 0138 97000000 		call	Delay_ms_i2c
 701      E7800000 
 146:../src/bsp/wbi2c.c **** }
 702              		.loc 1 146 1
 703 0140 0100     		nop
 704 0142 B250     		lw	ra,44(sp)
 705              		.cfi_restore 1
 706 0144 2254     		lw	s0,40(sp)
 707              		.cfi_restore 8
 708 0146 4561     		addi	sp,sp,48
 709              		.cfi_def_cfa_register 2
 710 0148 8280     		jr	ra
 711              		.cfi_endproc
 712              	.LFE10:
 714              		.section	.text.I2C_ReceiveWord,"ax",@progbits
 715              		.align	1
 716              		.globl	I2C_ReceiveWord
 718              	I2C_ReceiveWord:
 719              	.LFB11:
 147:../src/bsp/wbi2c.c **** 
 148:../src/bsp/wbi2c.c **** //receive a 16 bit data, dir == 1, upper byte first; dir == 0, lower byte first
 149:../src/bsp/wbi2c.c **** uint16_t I2C_ReceiveWord(WBI2CMASTER_RegDef *I2Cx, uint8_t slv_addr, uint8_t data_addr, uint8_t dir
 150:../src/bsp/wbi2c.c **** {
 720              		.loc 1 150 1
 721              		.cfi_startproc
 722 0000 7971     		addi	sp,sp,-48
 723              		.cfi_def_cfa_offset 48
 724 0002 06D6     		sw	ra,44(sp)
 725 0004 22D4     		sw	s0,40(sp)
 726              		.cfi_offset 1, -4
 727              		.cfi_offset 8, -8
 728 0006 0018     		addi	s0,sp,48
 729              		.cfi_def_cfa 8, 0
 730 0008 232EA4FC 		sw	a0,-36(s0)
 731 000c AE87     		mv	a5,a1
 732 000e 3687     		mv	a4,a3
 733 0010 A30DF4FC 		sb	a5,-37(s0)
 734 0014 B287     		mv	a5,a2
 735 0016 230DF4FC 		sb	a5,-38(s0)
 736 001a BA87     		mv	a5,a4
 737 001c A30CF4FC 		sb	a5,-39(s0)
 151:../src/bsp/wbi2c.c **** 	uint8_t rbyte0 = 0;
 738              		.loc 1 151 10
 739 0020 A30604FE 		sb	zero,-19(s0)
 152:../src/bsp/wbi2c.c **** 	uint8_t rbyte1 = 0;
 740              		.loc 1 152 10
 741 0024 230604FE 		sb	zero,-20(s0)
 153:../src/bsp/wbi2c.c **** 	uint16_t rword = 0;
 742              		.loc 1 153 11
 743 0028 231704FE 		sh	zero,-18(s0)
 154:../src/bsp/wbi2c.c **** 
 155:../src/bsp/wbi2c.c **** 	I2Cx->TXR = (slv_addr <<1) | 0;
 744              		.loc 1 155 29
 745 002c 8347B4FD 		lbu	a5,-37(s0)
 746 0030 8607     		slli	a5,a5,1
 747 0032 3E87     		mv	a4,a5
 748              		.loc 1 155 12
 749 0034 8327C4FD 		lw	a5,-36(s0)
 750 0038 98C7     		sw	a4,8(a5)
 156:../src/bsp/wbi2c.c **** 	I2Cx->CR = I2C_CMD_STA | I2C_CMD_WR;
 751              		.loc 1 156 11
 752 003a 8327C4FD 		lw	a5,-36(s0)
 753 003e 13070009 		li	a4,144
 754 0042 D8C7     		sw	a4,12(a5)
 157:../src/bsp/wbi2c.c **** 	while(I2Cx->SR & I2C_SR_TIP);
 755              		.loc 1 157 7
 756 0044 0100     		nop
 757              	.L41:
 758              		.loc 1 157 12 discriminator 1
 759 0046 8327C4FD 		lw	a5,-36(s0)
 760 004a DC47     		lw	a5,12(a5)
 761              		.loc 1 157 17 discriminator 1
 762 004c 898B     		andi	a5,a5,2
 763              		.loc 1 157 7 discriminator 1
 764 004e E5FF     		bnez	a5,.L41
 158:../src/bsp/wbi2c.c **** 	while(I2Cx->SR & I2C_SR_RXACK);//wait ack-----Over Here
 765              		.loc 1 158 7
 766 0050 0100     		nop
 767              	.L42:
 768              		.loc 1 158 12 discriminator 1
 769 0052 8327C4FD 		lw	a5,-36(s0)
 770 0056 DC47     		lw	a5,12(a5)
 771              		.loc 1 158 17 discriminator 1
 772 0058 93F70708 		andi	a5,a5,128
 773              		.loc 1 158 7 discriminator 1
 774 005c FDFB     		bnez	a5,.L42
 159:../src/bsp/wbi2c.c **** 
 160:../src/bsp/wbi2c.c **** 	I2Cx->TXR = data_addr;
 775              		.loc 1 160 12
 776 005e 0347A4FD 		lbu	a4,-38(s0)
 777 0062 8327C4FD 		lw	a5,-36(s0)
 778 0066 98C7     		sw	a4,8(a5)
 161:../src/bsp/wbi2c.c **** 	I2Cx->CR = I2C_CMD_WR;//stop
 779              		.loc 1 161 11
 780 0068 8327C4FD 		lw	a5,-36(s0)
 781 006c 4147     		li	a4,16
 782 006e D8C7     		sw	a4,12(a5)
 162:../src/bsp/wbi2c.c **** 	while(I2Cx->SR & I2C_SR_TIP);//wait TIP
 783              		.loc 1 162 7
 784 0070 0100     		nop
 785              	.L43:
 786              		.loc 1 162 12 discriminator 1
 787 0072 8327C4FD 		lw	a5,-36(s0)
 788 0076 DC47     		lw	a5,12(a5)
 789              		.loc 1 162 17 discriminator 1
 790 0078 898B     		andi	a5,a5,2
 791              		.loc 1 162 7 discriminator 1
 792 007a E5FF     		bnez	a5,.L43
 163:../src/bsp/wbi2c.c **** 	while(I2Cx->SR & I2C_SR_RXACK);//wait ack
 793              		.loc 1 163 7
 794 007c 0100     		nop
 795              	.L44:
 796              		.loc 1 163 12 discriminator 1
 797 007e 8327C4FD 		lw	a5,-36(s0)
 798 0082 DC47     		lw	a5,12(a5)
 799              		.loc 1 163 17 discriminator 1
 800 0084 93F70708 		andi	a5,a5,128
 801              		.loc 1 163 7 discriminator 1
 802 0088 FDFB     		bnez	a5,.L44
 164:../src/bsp/wbi2c.c **** 
 165:../src/bsp/wbi2c.c **** 	I2Cx->TXR = (slv_addr << 1) | 1;
 803              		.loc 1 165 24
 804 008a 8347B4FD 		lbu	a5,-37(s0)
 805 008e 8607     		slli	a5,a5,1
 806              		.loc 1 165 30
 807 0090 93E71700 		ori	a5,a5,1
 808 0094 3E87     		mv	a4,a5
 809              		.loc 1 165 12
 810 0096 8327C4FD 		lw	a5,-36(s0)
 811 009a 98C7     		sw	a4,8(a5)
 166:../src/bsp/wbi2c.c **** 	I2Cx->CR = (I2C_CMD_STA | I2C_CMD_WR);
 812              		.loc 1 166 11
 813 009c 8327C4FD 		lw	a5,-36(s0)
 814 00a0 13070009 		li	a4,144
 815 00a4 D8C7     		sw	a4,12(a5)
 167:../src/bsp/wbi2c.c **** 	while(I2Cx->SR & I2C_SR_TIP);
 816              		.loc 1 167 7
 817 00a6 0100     		nop
 818              	.L45:
 819              		.loc 1 167 12 discriminator 1
 820 00a8 8327C4FD 		lw	a5,-36(s0)
 821 00ac DC47     		lw	a5,12(a5)
 822              		.loc 1 167 17 discriminator 1
 823 00ae 898B     		andi	a5,a5,2
 824              		.loc 1 167 7 discriminator 1
 825 00b0 E5FF     		bnez	a5,.L45
 168:../src/bsp/wbi2c.c **** 	while(I2Cx->SR & I2C_SR_RXACK);//wait ack
 826              		.loc 1 168 7
 827 00b2 0100     		nop
 828              	.L46:
 829              		.loc 1 168 12 discriminator 1
 830 00b4 8327C4FD 		lw	a5,-36(s0)
 831 00b8 DC47     		lw	a5,12(a5)
 832              		.loc 1 168 17 discriminator 1
 833 00ba 93F70708 		andi	a5,a5,128
 834              		.loc 1 168 7 discriminator 1
 835 00be FDFB     		bnez	a5,.L46
 169:../src/bsp/wbi2c.c **** 
 170:../src/bsp/wbi2c.c **** 	I2Cx->CR = ((~I2C_CMD_ACK) & I2C_CMD_RD);//send nack
 836              		.loc 1 170 11
 837 00c0 8327C4FD 		lw	a5,-36(s0)
 838 00c4 13070002 		li	a4,32
 839 00c8 D8C7     		sw	a4,12(a5)
 171:../src/bsp/wbi2c.c **** 	while(I2Cx->SR & I2C_SR_TIP);
 840              		.loc 1 171 7
 841 00ca 0100     		nop
 842              	.L47:
 843              		.loc 1 171 12 discriminator 1
 844 00cc 8327C4FD 		lw	a5,-36(s0)
 845 00d0 DC47     		lw	a5,12(a5)
 846              		.loc 1 171 17 discriminator 1
 847 00d2 898B     		andi	a5,a5,2
 848              		.loc 1 171 7 discriminator 1
 849 00d4 E5FF     		bnez	a5,.L47
 172:../src/bsp/wbi2c.c **** 	rbyte0 = (uint8_t)(I2Cx->RXR);
 850              		.loc 1 172 25
 851 00d6 8327C4FD 		lw	a5,-36(s0)
 852 00da 9C47     		lw	a5,8(a5)
 853              		.loc 1 172 9
 854 00dc A306F4FE 		sb	a5,-19(s0)
 173:../src/bsp/wbi2c.c **** 	Delay_ms_i2c(3);
 855              		.loc 1 173 2
 856 00e0 0D45     		li	a0,3
 857 00e2 97000000 		call	Delay_ms_i2c
 857      E7800000 
 174:../src/bsp/wbi2c.c **** 
 175:../src/bsp/wbi2c.c **** 	I2Cx->CR = (I2C_CMD_RD | I2C_CMD_STO) & (~I2C_CMD_ACK);//send nack
 858              		.loc 1 175 11
 859 00ea 8327C4FD 		lw	a5,-36(s0)
 860 00ee 13070006 		li	a4,96
 861 00f2 D8C7     		sw	a4,12(a5)
 176:../src/bsp/wbi2c.c **** 	while(I2Cx->SR & I2C_SR_TIP);
 862              		.loc 1 176 7
 863 00f4 0100     		nop
 864              	.L48:
 865              		.loc 1 176 12 discriminator 1
 866 00f6 8327C4FD 		lw	a5,-36(s0)
 867 00fa DC47     		lw	a5,12(a5)
 868              		.loc 1 176 17 discriminator 1
 869 00fc 898B     		andi	a5,a5,2
 870              		.loc 1 176 7 discriminator 1
 871 00fe E5FF     		bnez	a5,.L48
 177:../src/bsp/wbi2c.c **** 	rbyte1  = (uint8_t)(I2Cx->RXR);
 872              		.loc 1 177 26
 873 0100 8327C4FD 		lw	a5,-36(s0)
 874 0104 9C47     		lw	a5,8(a5)
 875              		.loc 1 177 10
 876 0106 2306F4FE 		sb	a5,-20(s0)
 178:../src/bsp/wbi2c.c **** 	Delay_ms_i2c(3);
 877              		.loc 1 178 2
 878 010a 0D45     		li	a0,3
 879 010c 97000000 		call	Delay_ms_i2c
 879      E7800000 
 179:../src/bsp/wbi2c.c **** 
 180:../src/bsp/wbi2c.c **** 	if(dir) //the first byte received is upper byte
 880              		.loc 1 180 4
 881 0114 834794FD 		lbu	a5,-39(s0)
 882 0118 8DC3     		beqz	a5,.L49
 181:../src/bsp/wbi2c.c **** 	{
 182:../src/bsp/wbi2c.c **** 		rword = (((uint16_t)(rbyte0)) << 8) + rbyte1;
 883              		.loc 1 182 33
 884 011a 8347D4FE 		lbu	a5,-19(s0)
 885 011e C207     		slli	a5,a5,16
 886 0120 C183     		srli	a5,a5,16
 887 0122 A207     		slli	a5,a5,8
 888 0124 13970701 		slli	a4,a5,16
 889 0128 4183     		srli	a4,a4,16
 890              		.loc 1 182 39
 891 012a 8347C4FE 		lbu	a5,-20(s0)
 892 012e C207     		slli	a5,a5,16
 893 0130 C183     		srli	a5,a5,16
 894              		.loc 1 182 9
 895 0132 BA97     		add	a5,a4,a5
 896 0134 2317F4FE 		sh	a5,-18(s0)
 897 0138 05A0     		j	.L50
 898              	.L49:
 183:../src/bsp/wbi2c.c **** 	}
 184:../src/bsp/wbi2c.c **** 	else  	//the first byte received is lower byte
 185:../src/bsp/wbi2c.c **** 	{
 186:../src/bsp/wbi2c.c **** 		rword = (((uint16_t)(rbyte1)) << 8) + rbyte0;
 899              		.loc 1 186 33
 900 013a 8347C4FE 		lbu	a5,-20(s0)
 901 013e C207     		slli	a5,a5,16
 902 0140 C183     		srli	a5,a5,16
 903 0142 A207     		slli	a5,a5,8
 904 0144 13970701 		slli	a4,a5,16
 905 0148 4183     		srli	a4,a4,16
 906              		.loc 1 186 39
 907 014a 8347D4FE 		lbu	a5,-19(s0)
 908 014e C207     		slli	a5,a5,16
 909 0150 C183     		srli	a5,a5,16
 910              		.loc 1 186 9
 911 0152 BA97     		add	a5,a4,a5
 912 0154 2317F4FE 		sh	a5,-18(s0)
 913              	.L50:
 187:../src/bsp/wbi2c.c **** 	}
 188:../src/bsp/wbi2c.c **** 
 189:../src/bsp/wbi2c.c **** 	return rword;
 914              		.loc 1 189 9
 915 0158 8357E4FE 		lhu	a5,-18(s0)
 190:../src/bsp/wbi2c.c **** }
 916              		.loc 1 190 1
 917 015c 3E85     		mv	a0,a5
 918 015e B250     		lw	ra,44(sp)
 919              		.cfi_restore 1
 920 0160 2254     		lw	s0,40(sp)
 921              		.cfi_restore 8
 922 0162 4561     		addi	sp,sp,48
 923              		.cfi_def_cfa_register 2
 924 0164 8280     		jr	ra
 925              		.cfi_endproc
 926              	.LFE11:
 928              		.section	.text.I2C_SendArray,"ax",@progbits
 929              		.align	1
 930              		.globl	I2C_SendArray
 932              	I2C_SendArray:
 933              	.LFB12:
 191:../src/bsp/wbi2c.c **** 
 192:../src/bsp/wbi2c.c **** void I2C_SendArray(WBI2CMASTER_RegDef *I2Cx, uint8_t slv_address, uint8_t data_address, uint8_t *se
 193:../src/bsp/wbi2c.c **** {
 934              		.loc 1 193 1
 935              		.cfi_startproc
 936 0000 7971     		addi	sp,sp,-48
 937              		.cfi_def_cfa_offset 48
 938 0002 06D6     		sw	ra,44(sp)
 939 0004 22D4     		sw	s0,40(sp)
 940              		.cfi_offset 1, -4
 941              		.cfi_offset 8, -8
 942 0006 0018     		addi	s0,sp,48
 943              		.cfi_def_cfa 8, 0
 944 0008 232EA4FC 		sw	a0,-36(s0)
 945 000c AE87     		mv	a5,a1
 946 000e 232AD4FC 		sw	a3,-44(s0)
 947 0012 2328E4FC 		sw	a4,-48(s0)
 948 0016 A30DF4FC 		sb	a5,-37(s0)
 949 001a B287     		mv	a5,a2
 950 001c 230DF4FC 		sb	a5,-38(s0)
 194:../src/bsp/wbi2c.c **** 	uint8_t *data_ptr = send_data;
 951              		.loc 1 194 11
 952 0020 832744FD 		lw	a5,-44(s0)
 953 0024 2326F4FE 		sw	a5,-20(s0)
 195:../src/bsp/wbi2c.c **** 	I2Cx->TXR = (slv_address << 1) | 0;
 954              		.loc 1 195 33
 955 0028 8347B4FD 		lbu	a5,-37(s0)
 956 002c 8607     		slli	a5,a5,1
 957 002e 3E87     		mv	a4,a5
 958              		.loc 1 195 12
 959 0030 8327C4FD 		lw	a5,-36(s0)
 960 0034 98C7     		sw	a4,8(a5)
 196:../src/bsp/wbi2c.c **** 	I2Cx->CR = I2C_CMD_STA | I2C_CMD_WR | I2C_CMD_ACK;
 961              		.loc 1 196 11
 962 0036 8327C4FD 		lw	a5,-36(s0)
 963 003a 13078009 		li	a4,152
 964 003e D8C7     		sw	a4,12(a5)
 197:../src/bsp/wbi2c.c **** 	while(I2Cx->SR & I2C_SR_TIP);//wait TIP
 965              		.loc 1 197 7
 966 0040 0100     		nop
 967              	.L53:
 968              		.loc 1 197 12 discriminator 1
 969 0042 8327C4FD 		lw	a5,-36(s0)
 970 0046 DC47     		lw	a5,12(a5)
 971              		.loc 1 197 17 discriminator 1
 972 0048 898B     		andi	a5,a5,2
 973              		.loc 1 197 7 discriminator 1
 974 004a E5FF     		bnez	a5,.L53
 198:../src/bsp/wbi2c.c **** 	while(I2Cx->SR & I2C_SR_RXACK);//wait ack-----Over Here
 975              		.loc 1 198 7
 976 004c 0100     		nop
 977              	.L54:
 978              		.loc 1 198 12 discriminator 1
 979 004e 8327C4FD 		lw	a5,-36(s0)
 980 0052 DC47     		lw	a5,12(a5)
 981              		.loc 1 198 17 discriminator 1
 982 0054 93F70708 		andi	a5,a5,128
 983              		.loc 1 198 7 discriminator 1
 984 0058 FDFB     		bnez	a5,.L54
 199:../src/bsp/wbi2c.c **** 
 200:../src/bsp/wbi2c.c **** 
 201:../src/bsp/wbi2c.c **** 	I2Cx->TXR = data_address;
 985              		.loc 1 201 12
 986 005a 0347A4FD 		lbu	a4,-38(s0)
 987 005e 8327C4FD 		lw	a5,-36(s0)
 988 0062 98C7     		sw	a4,8(a5)
 202:../src/bsp/wbi2c.c **** 	I2Cx->CR = (I2C_CMD_WR | I2C_CMD_ACK);
 989              		.loc 1 202 11
 990 0064 8327C4FD 		lw	a5,-36(s0)
 991 0068 6147     		li	a4,24
 992 006a D8C7     		sw	a4,12(a5)
 203:../src/bsp/wbi2c.c **** 	while(I2Cx->SR & I2C_SR_TIP);//wait TIP
 993              		.loc 1 203 7
 994 006c 0100     		nop
 995              	.L55:
 996              		.loc 1 203 12 discriminator 1
 997 006e 8327C4FD 		lw	a5,-36(s0)
 998 0072 DC47     		lw	a5,12(a5)
 999              		.loc 1 203 17 discriminator 1
 1000 0074 898B     		andi	a5,a5,2
 1001              		.loc 1 203 7 discriminator 1
 1002 0076 E5FF     		bnez	a5,.L55
 204:../src/bsp/wbi2c.c **** 	while(I2Cx->SR & I2C_SR_RXACK);//wait ack
 1003              		.loc 1 204 7
 1004 0078 0100     		nop
 1005              	.L56:
 1006              		.loc 1 204 12 discriminator 1
 1007 007a 8327C4FD 		lw	a5,-36(s0)
 1008 007e DC47     		lw	a5,12(a5)
 1009              		.loc 1 204 17 discriminator 1
 1010 0080 93F70708 		andi	a5,a5,128
 1011              		.loc 1 204 7 discriminator 1
 1012 0084 FDFB     		bnez	a5,.L56
 1013              	.LBB2:
 205:../src/bsp/wbi2c.c **** 
 206:../src/bsp/wbi2c.c **** 	for(uint32_t cnt = 0; cnt < send_length - 1; cnt++)
 1014              		.loc 1 206 15
 1015 0086 232404FE 		sw	zero,-24(s0)
 1016              		.loc 1 206 2
 1017 008a 89A8     		j	.L57
 1018              	.L60:
 207:../src/bsp/wbi2c.c **** 	{
 208:../src/bsp/wbi2c.c **** 		I2Cx->TXR = *data_ptr;
 1019              		.loc 1 208 15
 1020 008c 8327C4FE 		lw	a5,-20(s0)
 1021 0090 83C70700 		lbu	a5,0(a5)
 1022 0094 3E87     		mv	a4,a5
 1023              		.loc 1 208 13
 1024 0096 8327C4FD 		lw	a5,-36(s0)
 1025 009a 98C7     		sw	a4,8(a5)
 209:../src/bsp/wbi2c.c **** 		I2Cx->CR = (I2C_CMD_WR | I2C_CMD_ACK);//I2C_CMD_WR;//(I2C_CMD_STO|I2C_CMD_WR);
 1026              		.loc 1 209 12
 1027 009c 8327C4FD 		lw	a5,-36(s0)
 1028 00a0 6147     		li	a4,24
 1029 00a2 D8C7     		sw	a4,12(a5)
 210:../src/bsp/wbi2c.c **** 		while(I2Cx->SR & I2C_SR_TIP);//wait TIP
 1030              		.loc 1 210 8
 1031 00a4 0100     		nop
 1032              	.L58:
 1033              		.loc 1 210 13 discriminator 1
 1034 00a6 8327C4FD 		lw	a5,-36(s0)
 1035 00aa DC47     		lw	a5,12(a5)
 1036              		.loc 1 210 18 discriminator 1
 1037 00ac 898B     		andi	a5,a5,2
 1038              		.loc 1 210 8 discriminator 1
 1039 00ae E5FF     		bnez	a5,.L58
 211:../src/bsp/wbi2c.c **** 		while(I2Cx->SR & I2C_SR_RXACK);//wait ack
 1040              		.loc 1 211 8
 1041 00b0 0100     		nop
 1042              	.L59:
 1043              		.loc 1 211 13 discriminator 1
 1044 00b2 8327C4FD 		lw	a5,-36(s0)
 1045 00b6 DC47     		lw	a5,12(a5)
 1046              		.loc 1 211 18 discriminator 1
 1047 00b8 93F70708 		andi	a5,a5,128
 1048              		.loc 1 211 8 discriminator 1
 1049 00bc FDFB     		bnez	a5,.L59
 212:../src/bsp/wbi2c.c **** 		data_ptr++;
 1050              		.loc 1 212 11 discriminator 2
 1051 00be 8327C4FE 		lw	a5,-20(s0)
 1052 00c2 8507     		addi	a5,a5,1
 1053 00c4 2326F4FE 		sw	a5,-20(s0)
 213:../src/bsp/wbi2c.c **** 		Delay_ms_i2c(3);//Wait the data to I2C Ready
 1054              		.loc 1 213 3 discriminator 2
 1055 00c8 0D45     		li	a0,3
 1056 00ca 97000000 		call	Delay_ms_i2c
 1056      E7800000 
 206:../src/bsp/wbi2c.c **** 	{
 1057              		.loc 1 206 50 discriminator 2
 1058 00d2 832784FE 		lw	a5,-24(s0)
 1059 00d6 8507     		addi	a5,a5,1
 1060 00d8 2324F4FE 		sw	a5,-24(s0)
 1061              	.L57:
 206:../src/bsp/wbi2c.c **** 	{
 1062              		.loc 1 206 42 discriminator 1
 1063 00dc 832704FD 		lw	a5,-48(s0)
 1064 00e0 FD17     		addi	a5,a5,-1
 206:../src/bsp/wbi2c.c **** 	{
 1065              		.loc 1 206 2 discriminator 1
 1066 00e2 032784FE 		lw	a4,-24(s0)
 1067 00e6 E363F7FA 		bltu	a4,a5,.L60
 1068              	.LBE2:
 214:../src/bsp/wbi2c.c **** 	}
 215:../src/bsp/wbi2c.c **** 
 216:../src/bsp/wbi2c.c **** 	I2Cx->TXR = *data_ptr;
 1069              		.loc 1 216 14
 1070 00ea 8327C4FE 		lw	a5,-20(s0)
 1071 00ee 83C70700 		lbu	a5,0(a5)
 1072 00f2 3E87     		mv	a4,a5
 1073              		.loc 1 216 12
 1074 00f4 8327C4FD 		lw	a5,-36(s0)
 1075 00f8 98C7     		sw	a4,8(a5)
 217:../src/bsp/wbi2c.c **** 	I2Cx->CR |= (I2C_CMD_STO | I2C_CMD_WR | I2C_CMD_ACK);//I2C_CMD_WR;//(I2C_CMD_STO|I2C_CMD_WR);
 1076              		.loc 1 217 11
 1077 00fa 8327C4FD 		lw	a5,-36(s0)
 1078 00fe DC47     		lw	a5,12(a5)
 1079 0100 13E78705 		ori	a4,a5,88
 1080 0104 8327C4FD 		lw	a5,-36(s0)
 1081 0108 D8C7     		sw	a4,12(a5)
 218:../src/bsp/wbi2c.c **** 	while(I2Cx->SR & I2C_SR_TIP);//wait TIP
 1082              		.loc 1 218 7
 1083 010a 0100     		nop
 1084              	.L61:
 1085              		.loc 1 218 12 discriminator 1
 1086 010c 8327C4FD 		lw	a5,-36(s0)
 1087 0110 DC47     		lw	a5,12(a5)
 1088              		.loc 1 218 17 discriminator 1
 1089 0112 898B     		andi	a5,a5,2
 1090              		.loc 1 218 7 discriminator 1
 1091 0114 E5FF     		bnez	a5,.L61
 219:../src/bsp/wbi2c.c **** 	while(I2Cx->SR & I2C_SR_RXACK);//wait ack
 1092              		.loc 1 219 7
 1093 0116 0100     		nop
 1094              	.L62:
 1095              		.loc 1 219 12 discriminator 1
 1096 0118 8327C4FD 		lw	a5,-36(s0)
 1097 011c DC47     		lw	a5,12(a5)
 1098              		.loc 1 219 17 discriminator 1
 1099 011e 93F70708 		andi	a5,a5,128
 1100              		.loc 1 219 7 discriminator 1
 1101 0122 FDFB     		bnez	a5,.L62
 220:../src/bsp/wbi2c.c **** 	while(I2Cx->SR & I2C_SR_BUSY);
 1102              		.loc 1 220 7
 1103 0124 0100     		nop
 1104              	.L63:
 1105              		.loc 1 220 12 discriminator 1
 1106 0126 8327C4FD 		lw	a5,-36(s0)
 1107 012a DC47     		lw	a5,12(a5)
 1108              		.loc 1 220 17 discriminator 1
 1109 012c 93F70704 		andi	a5,a5,64
 1110              		.loc 1 220 7 discriminator 1
 1111 0130 FDFB     		bnez	a5,.L63
 221:../src/bsp/wbi2c.c **** 	Delay_ms_i2c(3);//Wait the data to I2C Ready
 1112              		.loc 1 221 2
 1113 0132 0D45     		li	a0,3
 1114 0134 97000000 		call	Delay_ms_i2c
 1114      E7800000 
 222:../src/bsp/wbi2c.c **** }
 1115              		.loc 1 222 1
 1116 013c 0100     		nop
 1117 013e B250     		lw	ra,44(sp)
 1118              		.cfi_restore 1
 1119 0140 2254     		lw	s0,40(sp)
 1120              		.cfi_restore 8
 1121 0142 4561     		addi	sp,sp,48
 1122              		.cfi_def_cfa_register 2
 1123 0144 8280     		jr	ra
 1124              		.cfi_endproc
 1125              	.LFE12:
 1127              		.section	.text.I2C_ReceiveArray,"ax",@progbits
 1128              		.align	1
 1129              		.globl	I2C_ReceiveArray
 1131              	I2C_ReceiveArray:
 1132              	.LFB13:
 223:../src/bsp/wbi2c.c **** 
 224:../src/bsp/wbi2c.c **** void I2C_ReceiveArray(WBI2CMASTER_RegDef *I2Cx, uint8_t slv_addr, uint8_t data_addr, uint8_t *recei
 225:../src/bsp/wbi2c.c **** {
 1133              		.loc 1 225 1
 1134              		.cfi_startproc
 1135 0000 7971     		addi	sp,sp,-48
 1136              		.cfi_def_cfa_offset 48
 1137 0002 06D6     		sw	ra,44(sp)
 1138 0004 22D4     		sw	s0,40(sp)
 1139              		.cfi_offset 1, -4
 1140              		.cfi_offset 8, -8
 1141 0006 0018     		addi	s0,sp,48
 1142              		.cfi_def_cfa 8, 0
 1143 0008 232EA4FC 		sw	a0,-36(s0)
 1144 000c AE87     		mv	a5,a1
 1145 000e 232AD4FC 		sw	a3,-44(s0)
 1146 0012 2328E4FC 		sw	a4,-48(s0)
 1147 0016 A30DF4FC 		sb	a5,-37(s0)
 1148 001a B287     		mv	a5,a2
 1149 001c 230DF4FC 		sb	a5,-38(s0)
 226:../src/bsp/wbi2c.c **** 	uint8_t *buffer_ptr = receive_buffer;
 1150              		.loc 1 226 11
 1151 0020 832744FD 		lw	a5,-44(s0)
 1152 0024 2326F4FE 		sw	a5,-20(s0)
 227:../src/bsp/wbi2c.c **** 	I2Cx->TXR = (slv_addr <<1) | 0;
 1153              		.loc 1 227 29
 1154 0028 8347B4FD 		lbu	a5,-37(s0)
 1155 002c 8607     		slli	a5,a5,1
 1156 002e 3E87     		mv	a4,a5
 1157              		.loc 1 227 12
 1158 0030 8327C4FD 		lw	a5,-36(s0)
 1159 0034 98C7     		sw	a4,8(a5)
 228:../src/bsp/wbi2c.c **** 	I2Cx->CR = I2C_CMD_STA | I2C_CMD_WR;
 1160              		.loc 1 228 11
 1161 0036 8327C4FD 		lw	a5,-36(s0)
 1162 003a 13070009 		li	a4,144
 1163 003e D8C7     		sw	a4,12(a5)
 229:../src/bsp/wbi2c.c **** 	while(I2Cx->SR & I2C_SR_TIP);
 1164              		.loc 1 229 7
 1165 0040 0100     		nop
 1166              	.L65:
 1167              		.loc 1 229 12 discriminator 1
 1168 0042 8327C4FD 		lw	a5,-36(s0)
 1169 0046 DC47     		lw	a5,12(a5)
 1170              		.loc 1 229 17 discriminator 1
 1171 0048 898B     		andi	a5,a5,2
 1172              		.loc 1 229 7 discriminator 1
 1173 004a E5FF     		bnez	a5,.L65
 230:../src/bsp/wbi2c.c **** 	while(I2Cx->SR & I2C_SR_RXACK);//wait ack-----Over Here
 1174              		.loc 1 230 7
 1175 004c 0100     		nop
 1176              	.L66:
 1177              		.loc 1 230 12 discriminator 1
 1178 004e 8327C4FD 		lw	a5,-36(s0)
 1179 0052 DC47     		lw	a5,12(a5)
 1180              		.loc 1 230 17 discriminator 1
 1181 0054 93F70708 		andi	a5,a5,128
 1182              		.loc 1 230 7 discriminator 1
 1183 0058 FDFB     		bnez	a5,.L66
 231:../src/bsp/wbi2c.c **** 
 232:../src/bsp/wbi2c.c **** 	I2Cx->TXR = data_addr;
 1184              		.loc 1 232 12
 1185 005a 0347A4FD 		lbu	a4,-38(s0)
 1186 005e 8327C4FD 		lw	a5,-36(s0)
 1187 0062 98C7     		sw	a4,8(a5)
 233:../src/bsp/wbi2c.c **** 	I2Cx->CR = I2C_CMD_WR;//stop
 1188              		.loc 1 233 11
 1189 0064 8327C4FD 		lw	a5,-36(s0)
 1190 0068 4147     		li	a4,16
 1191 006a D8C7     		sw	a4,12(a5)
 234:../src/bsp/wbi2c.c **** 	while(I2Cx->SR & I2C_SR_TIP);//wait TIP
 1192              		.loc 1 234 7
 1193 006c 0100     		nop
 1194              	.L67:
 1195              		.loc 1 234 12 discriminator 1
 1196 006e 8327C4FD 		lw	a5,-36(s0)
 1197 0072 DC47     		lw	a5,12(a5)
 1198              		.loc 1 234 17 discriminator 1
 1199 0074 898B     		andi	a5,a5,2
 1200              		.loc 1 234 7 discriminator 1
 1201 0076 E5FF     		bnez	a5,.L67
 235:../src/bsp/wbi2c.c **** 	while(I2Cx->SR & I2C_SR_RXACK);//wait ack
 1202              		.loc 1 235 7
 1203 0078 0100     		nop
 1204              	.L68:
 1205              		.loc 1 235 12 discriminator 1
 1206 007a 8327C4FD 		lw	a5,-36(s0)
 1207 007e DC47     		lw	a5,12(a5)
 1208              		.loc 1 235 17 discriminator 1
 1209 0080 93F70708 		andi	a5,a5,128
 1210              		.loc 1 235 7 discriminator 1
 1211 0084 FDFB     		bnez	a5,.L68
 236:../src/bsp/wbi2c.c **** 
 237:../src/bsp/wbi2c.c **** 	I2Cx->TXR = (slv_addr << 1) | 1;
 1212              		.loc 1 237 24
 1213 0086 8347B4FD 		lbu	a5,-37(s0)
 1214 008a 8607     		slli	a5,a5,1
 1215              		.loc 1 237 30
 1216 008c 93E71700 		ori	a5,a5,1
 1217 0090 3E87     		mv	a4,a5
 1218              		.loc 1 237 12
 1219 0092 8327C4FD 		lw	a5,-36(s0)
 1220 0096 98C7     		sw	a4,8(a5)
 238:../src/bsp/wbi2c.c **** 	I2Cx->CR = (I2C_CMD_STA | I2C_CMD_WR);
 1221              		.loc 1 238 11
 1222 0098 8327C4FD 		lw	a5,-36(s0)
 1223 009c 13070009 		li	a4,144
 1224 00a0 D8C7     		sw	a4,12(a5)
 239:../src/bsp/wbi2c.c **** 	while(I2Cx->SR & I2C_SR_TIP);
 1225              		.loc 1 239 7
 1226 00a2 0100     		nop
 1227              	.L69:
 1228              		.loc 1 239 12 discriminator 1
 1229 00a4 8327C4FD 		lw	a5,-36(s0)
 1230 00a8 DC47     		lw	a5,12(a5)
 1231              		.loc 1 239 17 discriminator 1
 1232 00aa 898B     		andi	a5,a5,2
 1233              		.loc 1 239 7 discriminator 1
 1234 00ac E5FF     		bnez	a5,.L69
 240:../src/bsp/wbi2c.c **** 	while(I2Cx->SR & I2C_SR_RXACK);//wait ack
 1235              		.loc 1 240 7
 1236 00ae 0100     		nop
 1237              	.L70:
 1238              		.loc 1 240 12 discriminator 1
 1239 00b0 8327C4FD 		lw	a5,-36(s0)
 1240 00b4 DC47     		lw	a5,12(a5)
 1241              		.loc 1 240 17 discriminator 1
 1242 00b6 93F70708 		andi	a5,a5,128
 1243              		.loc 1 240 7 discriminator 1
 1244 00ba FDFB     		bnez	a5,.L70
 1245              	.LBB3:
 241:../src/bsp/wbi2c.c **** 
 242:../src/bsp/wbi2c.c **** 	for(uint32_t cnt = 0; cnt < receive_length - 1; cnt++)
 1246              		.loc 1 242 15
 1247 00bc 232404FE 		sw	zero,-24(s0)
 1248              		.loc 1 242 2
 1249 00c0 A1A0     		j	.L71
 1250              	.L73:
 243:../src/bsp/wbi2c.c **** 	{
 244:../src/bsp/wbi2c.c **** 		I2Cx->CR = ((~I2C_CMD_ACK) & I2C_CMD_RD);//send nack
 1251              		.loc 1 244 12
 1252 00c2 8327C4FD 		lw	a5,-36(s0)
 1253 00c6 13070002 		li	a4,32
 1254 00ca D8C7     		sw	a4,12(a5)
 245:../src/bsp/wbi2c.c **** 		while(I2Cx->SR & I2C_SR_TIP);
 1255              		.loc 1 245 8
 1256 00cc 0100     		nop
 1257              	.L72:
 1258              		.loc 1 245 13 discriminator 1
 1259 00ce 8327C4FD 		lw	a5,-36(s0)
 1260 00d2 DC47     		lw	a5,12(a5)
 1261              		.loc 1 245 18 discriminator 1
 1262 00d4 898B     		andi	a5,a5,2
 1263              		.loc 1 245 8 discriminator 1
 1264 00d6 E5FF     		bnez	a5,.L72
 246:../src/bsp/wbi2c.c **** 		*buffer_ptr = (uint8_t)(I2Cx->RXR);
 1265              		.loc 1 246 31 discriminator 2
 1266 00d8 8327C4FD 		lw	a5,-36(s0)
 1267 00dc 9C47     		lw	a5,8(a5)
 1268              		.loc 1 246 17 discriminator 2
 1269 00de 13F7F70F 		andi	a4,a5,0xff
 1270              		.loc 1 246 15 discriminator 2
 1271 00e2 8327C4FE 		lw	a5,-20(s0)
 1272 00e6 2380E700 		sb	a4,0(a5)
 247:../src/bsp/wbi2c.c **** 		buffer_ptr++;
 1273              		.loc 1 247 13 discriminator 2
 1274 00ea 8327C4FE 		lw	a5,-20(s0)
 1275 00ee 8507     		addi	a5,a5,1
 1276 00f0 2326F4FE 		sw	a5,-20(s0)
 248:../src/bsp/wbi2c.c **** 		Delay_ms_i2c(3);
 1277              		.loc 1 248 3 discriminator 2
 1278 00f4 0D45     		li	a0,3
 1279 00f6 97000000 		call	Delay_ms_i2c
 1279      E7800000 
 242:../src/bsp/wbi2c.c **** 	{
 1280              		.loc 1 242 53 discriminator 2
 1281 00fe 832784FE 		lw	a5,-24(s0)
 1282 0102 8507     		addi	a5,a5,1
 1283 0104 2324F4FE 		sw	a5,-24(s0)
 1284              	.L71:
 242:../src/bsp/wbi2c.c **** 	{
 1285              		.loc 1 242 45 discriminator 1
 1286 0108 832704FD 		lw	a5,-48(s0)
 1287 010c FD17     		addi	a5,a5,-1
 242:../src/bsp/wbi2c.c **** 	{
 1288              		.loc 1 242 2 discriminator 1
 1289 010e 032784FE 		lw	a4,-24(s0)
 1290 0112 E368F7FA 		bltu	a4,a5,.L73
 1291              	.LBE3:
 249:../src/bsp/wbi2c.c **** 	}
 250:../src/bsp/wbi2c.c **** 
 251:../src/bsp/wbi2c.c **** 	I2Cx->CR = (I2C_CMD_RD | I2C_CMD_STO) & (~I2C_CMD_ACK);//send nack
 1292              		.loc 1 251 11
 1293 0116 8327C4FD 		lw	a5,-36(s0)
 1294 011a 13070006 		li	a4,96
 1295 011e D8C7     		sw	a4,12(a5)
 252:../src/bsp/wbi2c.c **** 	while(I2Cx->SR & I2C_SR_TIP);
 1296              		.loc 1 252 7
 1297 0120 0100     		nop
 1298              	.L74:
 1299              		.loc 1 252 12 discriminator 1
 1300 0122 8327C4FD 		lw	a5,-36(s0)
 1301 0126 DC47     		lw	a5,12(a5)
 1302              		.loc 1 252 17 discriminator 1
 1303 0128 898B     		andi	a5,a5,2
 1304              		.loc 1 252 7 discriminator 1
 1305 012a E5FF     		bnez	a5,.L74
 253:../src/bsp/wbi2c.c **** 	*buffer_ptr  = (uint8_t)(I2Cx->RXR);
 1306              		.loc 1 253 31
 1307 012c 8327C4FD 		lw	a5,-36(s0)
 1308 0130 9C47     		lw	a5,8(a5)
 1309              		.loc 1 253 17
 1310 0132 13F7F70F 		andi	a4,a5,0xff
 1311              		.loc 1 253 15
 1312 0136 8327C4FE 		lw	a5,-20(s0)
 1313 013a 2380E700 		sb	a4,0(a5)
 254:../src/bsp/wbi2c.c **** 	Delay_ms_i2c(3);
 1314              		.loc 1 254 2
 1315 013e 0D45     		li	a0,3
 1316 0140 97000000 		call	Delay_ms_i2c
 1316      E7800000 
 255:../src/bsp/wbi2c.c **** 
 256:../src/bsp/wbi2c.c **** 	return;
 1317              		.loc 1 256 2
 1318 0148 0100     		nop
 257:../src/bsp/wbi2c.c **** }
 1319              		.loc 1 257 1
 1320 014a B250     		lw	ra,44(sp)
 1321              		.cfi_restore 1
 1322 014c 2254     		lw	s0,40(sp)
 1323              		.cfi_restore 8
 1324 014e 4561     		addi	sp,sp,48
 1325              		.cfi_def_cfa_register 2
 1326 0150 8280     		jr	ra
 1327              		.cfi_endproc
 1328              	.LFE13:
 1330              		.section	.text.I2C_SendBytes,"ax",@progbits
 1331              		.align	1
 1332              		.globl	I2C_SendBytes
 1334              	I2C_SendBytes:
 1335              	.LFB14:
 258:../src/bsp/wbi2c.c **** 
 259:../src/bsp/wbi2c.c **** void I2C_SendBytes(WBI2CMASTER_RegDef *I2Cx, uint8_t slv_address, uint8_t data_start_address, uint8
 260:../src/bsp/wbi2c.c **** {
 1336              		.loc 1 260 1
 1337              		.cfi_startproc
 1338 0000 7971     		addi	sp,sp,-48
 1339              		.cfi_def_cfa_offset 48
 1340 0002 06D6     		sw	ra,44(sp)
 1341 0004 22D4     		sw	s0,40(sp)
 1342              		.cfi_offset 1, -4
 1343              		.cfi_offset 8, -8
 1344 0006 0018     		addi	s0,sp,48
 1345              		.cfi_def_cfa 8, 0
 1346 0008 232EA4FC 		sw	a0,-36(s0)
 1347 000c AE87     		mv	a5,a1
 1348 000e 232AD4FC 		sw	a3,-44(s0)
 1349 0012 2328E4FC 		sw	a4,-48(s0)
 1350 0016 A30DF4FC 		sb	a5,-37(s0)
 1351 001a B287     		mv	a5,a2
 1352 001c 230DF4FC 		sb	a5,-38(s0)
 261:../src/bsp/wbi2c.c **** 	int32_t i;
 262:../src/bsp/wbi2c.c **** 	for(i = 0; i < data_num; i++)
 1353              		.loc 1 262 8
 1354 0020 232604FE 		sw	zero,-20(s0)
 1355              		.loc 1 262 2
 1356 0024 81A0     		j	.L77
 1357              	.L78:
 263:../src/bsp/wbi2c.c **** 	{
 264:../src/bsp/wbi2c.c **** 		I2C_SendByte(I2Cx, slv_address, (data_start_address + i), data[i]);
 1358              		.loc 1 264 3 discriminator 3
 1359 0026 8327C4FE 		lw	a5,-20(s0)
 1360 002a 13F7F70F 		andi	a4,a5,0xff
 1361 002e 8347A4FD 		lbu	a5,-38(s0)
 1362 0032 BA97     		add	a5,a4,a5
 1363 0034 13F6F70F 		andi	a2,a5,0xff
 1364              		.loc 1 264 65 discriminator 3
 1365 0038 8327C4FE 		lw	a5,-20(s0)
 1366 003c 032744FD 		lw	a4,-44(s0)
 1367 0040 BA97     		add	a5,a4,a5
 1368              		.loc 1 264 3 discriminator 3
 1369 0042 03C70700 		lbu	a4,0(a5)
 1370 0046 8347B4FD 		lbu	a5,-37(s0)
 1371 004a BA86     		mv	a3,a4
 1372 004c BE85     		mv	a1,a5
 1373 004e 0325C4FD 		lw	a0,-36(s0)
 1374 0052 97000000 		call	I2C_SendByte
 1374      E7800000 
 262:../src/bsp/wbi2c.c **** 	{
 1375              		.loc 1 262 28 discriminator 3
 1376 005a 8327C4FE 		lw	a5,-20(s0)
 1377 005e 8507     		addi	a5,a5,1
 1378 0060 2326F4FE 		sw	a5,-20(s0)
 1379              	.L77:
 262:../src/bsp/wbi2c.c **** 	{
 1380              		.loc 1 262 2 discriminator 1
 1381 0064 0327C4FE 		lw	a4,-20(s0)
 1382 0068 832704FD 		lw	a5,-48(s0)
 1383 006c E34DF7FA 		blt	a4,a5,.L78
 265:../src/bsp/wbi2c.c **** 	}
 266:../src/bsp/wbi2c.c **** }
 1384              		.loc 1 266 1
 1385 0070 0100     		nop
 1386 0072 B250     		lw	ra,44(sp)
 1387              		.cfi_restore 1
 1388 0074 2254     		lw	s0,40(sp)
 1389              		.cfi_restore 8
 1390 0076 4561     		addi	sp,sp,48
 1391              		.cfi_def_cfa_register 2
 1392 0078 8280     		jr	ra
 1393              		.cfi_endproc
 1394              	.LFE14:
 1396              		.section	.text.I2C_ReadBytes,"ax",@progbits
 1397              		.align	1
 1398              		.globl	I2C_ReadBytes
 1400              	I2C_ReadBytes:
 1401              	.LFB15:
 267:../src/bsp/wbi2c.c **** 
 268:../src/bsp/wbi2c.c **** void I2C_ReadBytes(WBI2CMASTER_RegDef *I2Cx, uint8_t slv_address, uint8_t data_start_address, uint8
 269:../src/bsp/wbi2c.c **** {
 1402              		.loc 1 269 1
 1403              		.cfi_startproc
 1404 0000 7971     		addi	sp,sp,-48
 1405              		.cfi_def_cfa_offset 48
 1406 0002 06D6     		sw	ra,44(sp)
 1407 0004 22D4     		sw	s0,40(sp)
 1408 0006 26D2     		sw	s1,36(sp)
 1409              		.cfi_offset 1, -4
 1410              		.cfi_offset 8, -8
 1411              		.cfi_offset 9, -12
 1412 0008 0018     		addi	s0,sp,48
 1413              		.cfi_def_cfa 8, 0
 1414 000a 232EA4FC 		sw	a0,-36(s0)
 1415 000e AE87     		mv	a5,a1
 1416 0010 232AD4FC 		sw	a3,-44(s0)
 1417 0014 2328E4FC 		sw	a4,-48(s0)
 1418 0018 A30DF4FC 		sb	a5,-37(s0)
 1419 001c B287     		mv	a5,a2
 1420 001e 230DF4FC 		sb	a5,-38(s0)
 270:../src/bsp/wbi2c.c **** 	int32_t i;
 271:../src/bsp/wbi2c.c **** 	for(i = 0; i < data_num; i++)
 1421              		.loc 1 271 8
 1422 0022 232604FE 		sw	zero,-20(s0)
 1423              		.loc 1 271 2
 1424 0026 91A0     		j	.L80
 1425              	.L81:
 272:../src/bsp/wbi2c.c **** 	{
 273:../src/bsp/wbi2c.c **** 		data[i] = I2C_ReceiveByte(I2Cx, slv_address, (data_start_address + i));
 1426              		.loc 1 273 13 discriminator 3
 1427 0028 8327C4FE 		lw	a5,-20(s0)
 1428 002c 13F7F70F 		andi	a4,a5,0xff
 1429 0030 8347A4FD 		lbu	a5,-38(s0)
 1430 0034 BA97     		add	a5,a4,a5
 1431 0036 93F6F70F 		andi	a3,a5,0xff
 1432              		.loc 1 273 7 discriminator 3
 1433 003a 8327C4FE 		lw	a5,-20(s0)
 1434 003e 032744FD 		lw	a4,-44(s0)
 1435 0042 B304F700 		add	s1,a4,a5
 1436              		.loc 1 273 13 discriminator 3
 1437 0046 8347B4FD 		lbu	a5,-37(s0)
 1438 004a 3686     		mv	a2,a3
 1439 004c BE85     		mv	a1,a5
 1440 004e 0325C4FD 		lw	a0,-36(s0)
 1441 0052 97000000 		call	I2C_ReceiveByte
 1441      E7800000 
 1442 005a AA87     		mv	a5,a0
 1443              		.loc 1 273 11 discriminator 3
 1444 005c 2380F400 		sb	a5,0(s1)
 271:../src/bsp/wbi2c.c **** 	{
 1445              		.loc 1 271 28 discriminator 3
 1446 0060 8327C4FE 		lw	a5,-20(s0)
 1447 0064 8507     		addi	a5,a5,1
 1448 0066 2326F4FE 		sw	a5,-20(s0)
 1449              	.L80:
 271:../src/bsp/wbi2c.c **** 	{
 1450              		.loc 1 271 2 discriminator 1
 1451 006a 0327C4FE 		lw	a4,-20(s0)
 1452 006e 832704FD 		lw	a5,-48(s0)
 1453 0072 E34BF7FA 		blt	a4,a5,.L81
 274:../src/bsp/wbi2c.c **** 	}
 275:../src/bsp/wbi2c.c **** }
 1454              		.loc 1 275 1
 1455 0076 0100     		nop
 1456 0078 B250     		lw	ra,44(sp)
 1457              		.cfi_restore 1
 1458 007a 2254     		lw	s0,40(sp)
 1459              		.cfi_restore 8
 1460 007c 9254     		lw	s1,36(sp)
 1461              		.cfi_restore 9
 1462 007e 4561     		addi	sp,sp,48
 1463              		.cfi_def_cfa_register 2
 1464 0080 8280     		jr	ra
 1465              		.cfi_endproc
 1466              	.LFE15:
 1468              		.section	.text.I2C_InterruptOpen,"ax",@progbits
 1469              		.align	1
 1470              		.globl	I2C_InterruptOpen
 1472              	I2C_InterruptOpen:
 1473              	.LFB16:
 276:../src/bsp/wbi2c.c **** 
 277:../src/bsp/wbi2c.c **** void I2C_InterruptOpen(WBI2CMASTER_RegDef *I2Cx)
 278:../src/bsp/wbi2c.c **** {
 1474              		.loc 1 278 1
 1475              		.cfi_startproc
 1476 0000 0111     		addi	sp,sp,-32
 1477              		.cfi_def_cfa_offset 32
 1478 0002 22CE     		sw	s0,28(sp)
 1479              		.cfi_offset 8, -4
 1480 0004 0010     		addi	s0,sp,32
 1481              		.cfi_def_cfa 8, 0
 1482 0006 2326A4FE 		sw	a0,-20(s0)
 279:../src/bsp/wbi2c.c **** 	I2Cx->CTR = I2C_CTR_IEN;
 1483              		.loc 1 279 12
 1484 000a 8327C4FE 		lw	a5,-20(s0)
 1485 000e 13070004 		li	a4,64
 1486 0012 D8C3     		sw	a4,4(a5)
 280:../src/bsp/wbi2c.c **** }
 1487              		.loc 1 280 1
 1488 0014 0100     		nop
 1489 0016 7244     		lw	s0,28(sp)
 1490              		.cfi_restore 8
 1491 0018 0561     		addi	sp,sp,32
 1492              		.cfi_def_cfa_register 2
 1493 001a 8280     		jr	ra
 1494              		.cfi_endproc
 1495              	.LFE16:
 1497              		.section	.text.I2C_InterruptClose,"ax",@progbits
 1498              		.align	1
 1499              		.globl	I2C_InterruptClose
 1501              	I2C_InterruptClose:
 1502              	.LFB17:
 281:../src/bsp/wbi2c.c **** 
 282:../src/bsp/wbi2c.c **** void I2C_InterruptClose(WBI2CMASTER_RegDef *I2Cx)
 283:../src/bsp/wbi2c.c **** {
 1503              		.loc 1 283 1
 1504              		.cfi_startproc
 1505 0000 0111     		addi	sp,sp,-32
 1506              		.cfi_def_cfa_offset 32
 1507 0002 22CE     		sw	s0,28(sp)
 1508              		.cfi_offset 8, -4
 1509 0004 0010     		addi	s0,sp,32
 1510              		.cfi_def_cfa 8, 0
 1511 0006 2326A4FE 		sw	a0,-20(s0)
 284:../src/bsp/wbi2c.c **** 	I2Cx->CTR &= ~I2C_CTR_IEN;
 1512              		.loc 1 284 12
 1513 000a 8327C4FE 		lw	a5,-20(s0)
 1514 000e DC43     		lw	a5,4(a5)
 1515 0010 13F7F7FB 		andi	a4,a5,-65
 1516 0014 8327C4FE 		lw	a5,-20(s0)
 1517 0018 D8C3     		sw	a4,4(a5)
 285:../src/bsp/wbi2c.c **** }
 1518              		.loc 1 285 1
 1519 001a 0100     		nop
 1520 001c 7244     		lw	s0,28(sp)
 1521              		.cfi_restore 8
 1522 001e 0561     		addi	sp,sp,32
 1523              		.cfi_def_cfa_register 2
 1524 0020 8280     		jr	ra
 1525              		.cfi_endproc
 1526              	.LFE17:
 1528              		.text
 1529              	.Letext0:
 1530              		.file 2 "c:\\gmd\\toolchain\\risc-v_toolchain\\riscv-none-embed\\include\\machine\\_default_types.
 1531              		.file 3 "c:\\gmd\\toolchain\\risc-v_toolchain\\riscv-none-embed\\include\\sys\\_stdint.h"
 1532              		.file 4 "c:\\gmd\\toolchain\\risc-v_toolchain\\riscv-none-embed\\include\\sys\\lock.h"
 1533              		.file 5 "c:\\gmd\\toolchain\\risc-v_toolchain\\riscv-none-embed\\include\\sys\\_types.h"
 1534              		.file 6 "c:\\gmd\\toolchain\\risc-v_toolchain\\lib\\gcc\\riscv-none-embed\\8.2.0\\include\\stddef.
 1535              		.file 7 "c:\\gmd\\toolchain\\risc-v_toolchain\\riscv-none-embed\\include\\sys\\reent.h"
 1536              		.file 8 "E:\\GMD\\workspace\\picorv32_demo\\src/picorv32.h"
DEFINED SYMBOLS
                            *ABS*:0000000000000000 wbi2c.c
C:\Users\liukai\AppData\Local\Temp\ccrBK0vc.s:10     .text.Delay_ms_i2c:0000000000000000 Delay_ms_i2c
C:\Users\liukai\AppData\Local\Temp\ccrBK0vc.s:14     .text.Delay_ms_i2c:0000000000000000 .L0 
C:\Users\liukai\AppData\Local\Temp\ccrBK0vc.s:15     .text.Delay_ms_i2c:0000000000000000 .L0 
C:\Users\liukai\AppData\Local\Temp\ccrBK0vc.s:16     .text.Delay_ms_i2c:0000000000000002 .L0 
C:\Users\liukai\AppData\Local\Temp\ccrBK0vc.s:18     .text.Delay_ms_i2c:0000000000000004 .L0 
C:\Users\liukai\AppData\Local\Temp\ccrBK0vc.s:20     .text.Delay_ms_i2c:0000000000000006 .L0 
C:\Users\liukai\AppData\Local\Temp\ccrBK0vc.s:23     .text.Delay_ms_i2c:000000000000000a .L0 
C:\Users\liukai\AppData\Local\Temp\ccrBK0vc.s:28     .text.Delay_ms_i2c:0000000000000018 .L0 
C:\Users\liukai\AppData\Local\Temp\ccrBK0vc.s:30     .text.Delay_ms_i2c:000000000000001c .L0 
C:\Users\liukai\AppData\Local\Temp\ccrBK0vc.s:33     .text.Delay_ms_i2c:000000000000001e .L0 
C:\Users\liukai\AppData\Local\Temp\ccrBK0vc.s:38     .text.Delay_ms_i2c:0000000000000028 .L0 
C:\Users\liukai\AppData\Local\Temp\ccrBK0vc.s:40     .text.Delay_ms_i2c:000000000000002c .L0 
C:\Users\liukai\AppData\Local\Temp\ccrBK0vc.s:42     .text.Delay_ms_i2c:000000000000002e .L0 
C:\Users\liukai\AppData\Local\Temp\ccrBK0vc.s:44     .text.Delay_ms_i2c:0000000000000032 .L0 
C:\Users\liukai\AppData\Local\Temp\ccrBK0vc.s:46     .text.Delay_ms_i2c:0000000000000034 .L0 
C:\Users\liukai\AppData\Local\Temp\ccrBK0vc.s:48     .text.Delay_ms_i2c:0000000000000036 .L0 
C:\Users\liukai\AppData\Local\Temp\ccrBK0vc.s:55     .text.I2C_Disable:0000000000000000 I2C_Disable
C:\Users\liukai\AppData\Local\Temp\ccrBK0vc.s:58     .text.I2C_Disable:0000000000000000 .L0 
C:\Users\liukai\AppData\Local\Temp\ccrBK0vc.s:59     .text.I2C_Disable:0000000000000000 .L0 
C:\Users\liukai\AppData\Local\Temp\ccrBK0vc.s:60     .text.I2C_Disable:0000000000000002 .L0 
C:\Users\liukai\AppData\Local\Temp\ccrBK0vc.s:62     .text.I2C_Disable:0000000000000004 .L0 
C:\Users\liukai\AppData\Local\Temp\ccrBK0vc.s:64     .text.I2C_Disable:0000000000000006 .L0 
C:\Users\liukai\AppData\Local\Temp\ccrBK0vc.s:67     .text.I2C_Disable:000000000000000a .L0 
C:\Users\liukai\AppData\Local\Temp\ccrBK0vc.s:71     .text.I2C_Disable:0000000000000014 .L0 
C:\Users\liukai\AppData\Local\Temp\ccrBK0vc.s:73     .text.I2C_Disable:0000000000000018 .L0 
C:\Users\liukai\AppData\Local\Temp\ccrBK0vc.s:75     .text.I2C_Disable:000000000000001a .L0 
C:\Users\liukai\AppData\Local\Temp\ccrBK0vc.s:77     .text.I2C_Disable:000000000000001c .L0 
C:\Users\liukai\AppData\Local\Temp\ccrBK0vc.s:84     .text.I2C_Enable:0000000000000000 I2C_Enable
C:\Users\liukai\AppData\Local\Temp\ccrBK0vc.s:87     .text.I2C_Enable:0000000000000000 .L0 
C:\Users\liukai\AppData\Local\Temp\ccrBK0vc.s:88     .text.I2C_Enable:0000000000000000 .L0 
C:\Users\liukai\AppData\Local\Temp\ccrBK0vc.s:89     .text.I2C_Enable:0000000000000002 .L0 
C:\Users\liukai\AppData\Local\Temp\ccrBK0vc.s:91     .text.I2C_Enable:0000000000000004 .L0 
C:\Users\liukai\AppData\Local\Temp\ccrBK0vc.s:93     .text.I2C_Enable:0000000000000006 .L0 
C:\Users\liukai\AppData\Local\Temp\ccrBK0vc.s:96     .text.I2C_Enable:000000000000000a .L0 
C:\Users\liukai\AppData\Local\Temp\ccrBK0vc.s:102    .text.I2C_Enable:000000000000001a .L0 
C:\Users\liukai\AppData\Local\Temp\ccrBK0vc.s:104    .text.I2C_Enable:000000000000001e .L0 
C:\Users\liukai\AppData\Local\Temp\ccrBK0vc.s:106    .text.I2C_Enable:0000000000000020 .L0 
C:\Users\liukai\AppData\Local\Temp\ccrBK0vc.s:108    .text.I2C_Enable:0000000000000022 .L0 
C:\Users\liukai\AppData\Local\Temp\ccrBK0vc.s:115    .text.I2C_Rate_Set:0000000000000000 I2C_Rate_Set
C:\Users\liukai\AppData\Local\Temp\ccrBK0vc.s:118    .text.I2C_Rate_Set:0000000000000000 .L0 
C:\Users\liukai\AppData\Local\Temp\ccrBK0vc.s:119    .text.I2C_Rate_Set:0000000000000000 .L0 
C:\Users\liukai\AppData\Local\Temp\ccrBK0vc.s:120    .text.I2C_Rate_Set:0000000000000002 .L0 
C:\Users\liukai\AppData\Local\Temp\ccrBK0vc.s:122    .text.I2C_Rate_Set:0000000000000004 .L0 
C:\Users\liukai\AppData\Local\Temp\ccrBK0vc.s:124    .text.I2C_Rate_Set:0000000000000006 .L0 
C:\Users\liukai\AppData\Local\Temp\ccrBK0vc.s:129    .text.I2C_Rate_Set:0000000000000010 .L0 
C:\Users\liukai\AppData\Local\Temp\ccrBK0vc.s:131    .text.I2C_Rate_Set:0000000000000014 .L0 
C:\Users\liukai\AppData\Local\Temp\ccrBK0vc.s:136    .text.I2C_Rate_Set:0000000000000022 .L0 
C:\Users\liukai\AppData\Local\Temp\ccrBK0vc.s:140    .text.I2C_Rate_Set:000000000000002e .L0 
C:\Users\liukai\AppData\Local\Temp\ccrBK0vc.s:143    .text.I2C_Rate_Set:0000000000000032 .L0 
C:\Users\liukai\AppData\Local\Temp\ccrBK0vc.s:146    .text.I2C_Rate_Set:0000000000000038 .L0 
C:\Users\liukai\AppData\Local\Temp\ccrBK0vc.s:148    .text.I2C_Rate_Set:000000000000003c .L0 
C:\Users\liukai\AppData\Local\Temp\ccrBK0vc.s:151    .text.I2C_Rate_Set:0000000000000042 .L0 
C:\Users\liukai\AppData\Local\Temp\ccrBK0vc.s:153    .text.I2C_Rate_Set:0000000000000046 .L0 
C:\Users\liukai\AppData\Local\Temp\ccrBK0vc.s:155    .text.I2C_Rate_Set:000000000000004a .L0 
C:\Users\liukai\AppData\Local\Temp\ccrBK0vc.s:157    .text.I2C_Rate_Set:000000000000004c .L0 
C:\Users\liukai\AppData\Local\Temp\ccrBK0vc.s:159    .text.I2C_Rate_Set:000000000000004e .L0 
C:\Users\liukai\AppData\Local\Temp\ccrBK0vc.s:166    .text.I2C_Init:0000000000000000 I2C_Init
C:\Users\liukai\AppData\Local\Temp\ccrBK0vc.s:169    .text.I2C_Init:0000000000000000 .L0 
C:\Users\liukai\AppData\Local\Temp\ccrBK0vc.s:170    .text.I2C_Init:0000000000000000 .L0 
C:\Users\liukai\AppData\Local\Temp\ccrBK0vc.s:171    .text.I2C_Init:0000000000000002 .L0 
C:\Users\liukai\AppData\Local\Temp\ccrBK0vc.s:174    .text.I2C_Init:0000000000000006 .L0 
C:\Users\liukai\AppData\Local\Temp\ccrBK0vc.s:175    .text.I2C_Init:0000000000000006 .L0 
C:\Users\liukai\AppData\Local\Temp\ccrBK0vc.s:177    .text.I2C_Init:0000000000000008 .L0 
C:\Users\liukai\AppData\Local\Temp\ccrBK0vc.s:182    .text.I2C_Init:0000000000000012 .L0 
C:\Users\liukai\AppData\Local\Temp\ccrBK0vc.s:189    .text.I2C_Init:000000000000002a .L0 
C:\Users\liukai\AppData\Local\Temp\ccrBK0vc.s:192    .text.I2C_Init:0000000000000036 .L0 
C:\Users\liukai\AppData\Local\Temp\ccrBK0vc.s:195    .text.I2C_Init:000000000000003c .L0 
C:\Users\liukai\AppData\Local\Temp\ccrBK0vc.s:197    .text.I2C_Init:0000000000000040 .L0 
C:\Users\liukai\AppData\Local\Temp\ccrBK0vc.s:199    .text.I2C_Init:0000000000000042 .L0 
C:\Users\liukai\AppData\Local\Temp\ccrBK0vc.s:202    .text.I2C_Init:0000000000000048 .L0 
C:\Users\liukai\AppData\Local\Temp\ccrBK0vc.s:204    .text.I2C_Init:000000000000004c .L0 
C:\Users\liukai\AppData\Local\Temp\ccrBK0vc.s:206    .text.I2C_Init:0000000000000050 .L0 
C:\Users\liukai\AppData\Local\Temp\ccrBK0vc.s:210    .text.I2C_Init:0000000000000054 .L0 
C:\Users\liukai\AppData\Local\Temp\ccrBK0vc.s:213    .text.I2C_Init:0000000000000056 .L0 
C:\Users\liukai\AppData\Local\Temp\ccrBK0vc.s:215    .text.I2C_Init:000000000000005a .L0 
C:\Users\liukai\AppData\Local\Temp\ccrBK0vc.s:217    .text.I2C_Init:000000000000005c .L0 
C:\Users\liukai\AppData\Local\Temp\ccrBK0vc.s:219    .text.I2C_Init:000000000000005e .L0 
C:\Users\liukai\AppData\Local\Temp\ccrBK0vc.s:221    .text.I2C_Init:0000000000000060 .L0 
C:\Users\liukai\AppData\Local\Temp\ccrBK0vc.s:228    .text.I2C_SendByte:0000000000000000 I2C_SendByte
C:\Users\liukai\AppData\Local\Temp\ccrBK0vc.s:231    .text.I2C_SendByte:0000000000000000 .L0 
C:\Users\liukai\AppData\Local\Temp\ccrBK0vc.s:232    .text.I2C_SendByte:0000000000000000 .L0 
C:\Users\liukai\AppData\Local\Temp\ccrBK0vc.s:233    .text.I2C_SendByte:0000000000000002 .L0 
C:\Users\liukai\AppData\Local\Temp\ccrBK0vc.s:236    .text.I2C_SendByte:0000000000000006 .L0 
C:\Users\liukai\AppData\Local\Temp\ccrBK0vc.s:237    .text.I2C_SendByte:0000000000000006 .L0 
C:\Users\liukai\AppData\Local\Temp\ccrBK0vc.s:239    .text.I2C_SendByte:0000000000000008 .L0 
C:\Users\liukai\AppData\Local\Temp\ccrBK0vc.s:249    .text.I2C_SendByte:0000000000000020 .L0 
C:\Users\liukai\AppData\Local\Temp\ccrBK0vc.s:253    .text.I2C_SendByte:0000000000000028 .L0 
C:\Users\liukai\AppData\Local\Temp\ccrBK0vc.s:256    .text.I2C_SendByte:000000000000002e .L0 
C:\Users\liukai\AppData\Local\Temp\ccrBK0vc.s:260    .text.I2C_SendByte:0000000000000038 .L0 
C:\Users\liukai\AppData\Local\Temp\ccrBK0vc.s:263    .text.I2C_SendByte:000000000000003a .L0 
C:\Users\liukai\AppData\Local\Temp\ccrBK0vc.s:266    .text.I2C_SendByte:0000000000000040 .L0 
C:\Users\liukai\AppData\Local\Temp\ccrBK0vc.s:268    .text.I2C_SendByte:0000000000000042 .L0 
C:\Users\liukai\AppData\Local\Temp\ccrBK0vc.s:270    .text.I2C_SendByte:0000000000000044 .L0 
C:\Users\liukai\AppData\Local\Temp\ccrBK0vc.s:273    .text.I2C_SendByte:0000000000000046 .L0 
C:\Users\liukai\AppData\Local\Temp\ccrBK0vc.s:276    .text.I2C_SendByte:000000000000004c .L0 
C:\Users\liukai\AppData\Local\Temp\ccrBK0vc.s:278    .text.I2C_SendByte:0000000000000050 .L0 
C:\Users\liukai\AppData\Local\Temp\ccrBK0vc.s:280    .text.I2C_SendByte:0000000000000052 .L0 
C:\Users\liukai\AppData\Local\Temp\ccrBK0vc.s:284    .text.I2C_SendByte:000000000000005c .L0 
C:\Users\liukai\AppData\Local\Temp\ccrBK0vc.s:288    .text.I2C_SendByte:0000000000000064 .L0 
C:\Users\liukai\AppData\Local\Temp\ccrBK0vc.s:291    .text.I2C_SendByte:0000000000000066 .L0 
C:\Users\liukai\AppData\Local\Temp\ccrBK0vc.s:294    .text.I2C_SendByte:000000000000006c .L0 
C:\Users\liukai\AppData\Local\Temp\ccrBK0vc.s:296    .text.I2C_SendByte:000000000000006e .L0 
C:\Users\liukai\AppData\Local\Temp\ccrBK0vc.s:298    .text.I2C_SendByte:0000000000000070 .L0 
C:\Users\liukai\AppData\Local\Temp\ccrBK0vc.s:301    .text.I2C_SendByte:0000000000000072 .L0 
C:\Users\liukai\AppData\Local\Temp\ccrBK0vc.s:304    .text.I2C_SendByte:0000000000000078 .L0 
C:\Users\liukai\AppData\Local\Temp\ccrBK0vc.s:306    .text.I2C_SendByte:000000000000007c .L0 
C:\Users\liukai\AppData\Local\Temp\ccrBK0vc.s:308    .text.I2C_SendByte:000000000000007e .L0 
C:\Users\liukai\AppData\Local\Temp\ccrBK0vc.s:312    .text.I2C_SendByte:0000000000000088 .L0 
C:\Users\liukai\AppData\Local\Temp\ccrBK0vc.s:318    .text.I2C_SendByte:0000000000000098 .L0 
C:\Users\liukai\AppData\Local\Temp\ccrBK0vc.s:321    .text.I2C_SendByte:000000000000009a .L0 
C:\Users\liukai\AppData\Local\Temp\ccrBK0vc.s:324    .text.I2C_SendByte:00000000000000a0 .L0 
C:\Users\liukai\AppData\Local\Temp\ccrBK0vc.s:326    .text.I2C_SendByte:00000000000000a2 .L0 
C:\Users\liukai\AppData\Local\Temp\ccrBK0vc.s:328    .text.I2C_SendByte:00000000000000a4 .L0 
C:\Users\liukai\AppData\Local\Temp\ccrBK0vc.s:331    .text.I2C_SendByte:00000000000000a6 .L0 
C:\Users\liukai\AppData\Local\Temp\ccrBK0vc.s:334    .text.I2C_SendByte:00000000000000ac .L0 
C:\Users\liukai\AppData\Local\Temp\ccrBK0vc.s:336    .text.I2C_SendByte:00000000000000b0 .L0 
C:\Users\liukai\AppData\Local\Temp\ccrBK0vc.s:338    .text.I2C_SendByte:00000000000000b2 .L0 
C:\Users\liukai\AppData\Local\Temp\ccrBK0vc.s:341    .text.I2C_SendByte:00000000000000b4 .L0 
C:\Users\liukai\AppData\Local\Temp\ccrBK0vc.s:344    .text.I2C_SendByte:00000000000000ba .L0 
C:\Users\liukai\AppData\Local\Temp\ccrBK0vc.s:346    .text.I2C_SendByte:00000000000000be .L0 
C:\Users\liukai\AppData\Local\Temp\ccrBK0vc.s:348    .text.I2C_SendByte:00000000000000c0 .L0 
C:\Users\liukai\AppData\Local\Temp\ccrBK0vc.s:351    .text.I2C_SendByte:00000000000000ca .L0 
C:\Users\liukai\AppData\Local\Temp\ccrBK0vc.s:353    .text.I2C_SendByte:00000000000000ce .L0 
C:\Users\liukai\AppData\Local\Temp\ccrBK0vc.s:355    .text.I2C_SendByte:00000000000000d0 .L0 
C:\Users\liukai\AppData\Local\Temp\ccrBK0vc.s:357    .text.I2C_SendByte:00000000000000d2 .L0 
C:\Users\liukai\AppData\Local\Temp\ccrBK0vc.s:359    .text.I2C_SendByte:00000000000000d4 .L0 
C:\Users\liukai\AppData\Local\Temp\ccrBK0vc.s:366    .text.I2C_ReceiveByte:0000000000000000 I2C_ReceiveByte
C:\Users\liukai\AppData\Local\Temp\ccrBK0vc.s:369    .text.I2C_ReceiveByte:0000000000000000 .L0 
C:\Users\liukai\AppData\Local\Temp\ccrBK0vc.s:370    .text.I2C_ReceiveByte:0000000000000000 .L0 
C:\Users\liukai\AppData\Local\Temp\ccrBK0vc.s:371    .text.I2C_ReceiveByte:0000000000000002 .L0 
C:\Users\liukai\AppData\Local\Temp\ccrBK0vc.s:374    .text.I2C_ReceiveByte:0000000000000006 .L0 
C:\Users\liukai\AppData\Local\Temp\ccrBK0vc.s:375    .text.I2C_ReceiveByte:0000000000000006 .L0 
C:\Users\liukai\AppData\Local\Temp\ccrBK0vc.s:377    .text.I2C_ReceiveByte:0000000000000008 .L0 
C:\Users\liukai\AppData\Local\Temp\ccrBK0vc.s:385    .text.I2C_ReceiveByte:000000000000001a .L0 
C:\Users\liukai\AppData\Local\Temp\ccrBK0vc.s:387    .text.I2C_ReceiveByte:000000000000001e .L0 
C:\Users\liukai\AppData\Local\Temp\ccrBK0vc.s:391    .text.I2C_ReceiveByte:0000000000000026 .L0 
C:\Users\liukai\AppData\Local\Temp\ccrBK0vc.s:394    .text.I2C_ReceiveByte:000000000000002c .L0 
C:\Users\liukai\AppData\Local\Temp\ccrBK0vc.s:398    .text.I2C_ReceiveByte:0000000000000036 .L0 
C:\Users\liukai\AppData\Local\Temp\ccrBK0vc.s:401    .text.I2C_ReceiveByte:0000000000000038 .L0 
C:\Users\liukai\AppData\Local\Temp\ccrBK0vc.s:404    .text.I2C_ReceiveByte:000000000000003e .L0 
C:\Users\liukai\AppData\Local\Temp\ccrBK0vc.s:406    .text.I2C_ReceiveByte:0000000000000040 .L0 
C:\Users\liukai\AppData\Local\Temp\ccrBK0vc.s:408    .text.I2C_ReceiveByte:0000000000000042 .L0 
C:\Users\liukai\AppData\Local\Temp\ccrBK0vc.s:411    .text.I2C_ReceiveByte:0000000000000044 .L0 
C:\Users\liukai\AppData\Local\Temp\ccrBK0vc.s:414    .text.I2C_ReceiveByte:000000000000004a .L0 
C:\Users\liukai\AppData\Local\Temp\ccrBK0vc.s:416    .text.I2C_ReceiveByte:000000000000004e .L0 
C:\Users\liukai\AppData\Local\Temp\ccrBK0vc.s:418    .text.I2C_ReceiveByte:0000000000000050 .L0 
C:\Users\liukai\AppData\Local\Temp\ccrBK0vc.s:422    .text.I2C_ReceiveByte:000000000000005a .L0 
C:\Users\liukai\AppData\Local\Temp\ccrBK0vc.s:426    .text.I2C_ReceiveByte:0000000000000062 .L0 
C:\Users\liukai\AppData\Local\Temp\ccrBK0vc.s:429    .text.I2C_ReceiveByte:0000000000000064 .L0 
C:\Users\liukai\AppData\Local\Temp\ccrBK0vc.s:432    .text.I2C_ReceiveByte:000000000000006a .L0 
C:\Users\liukai\AppData\Local\Temp\ccrBK0vc.s:434    .text.I2C_ReceiveByte:000000000000006c .L0 
C:\Users\liukai\AppData\Local\Temp\ccrBK0vc.s:436    .text.I2C_ReceiveByte:000000000000006e .L0 
C:\Users\liukai\AppData\Local\Temp\ccrBK0vc.s:439    .text.I2C_ReceiveByte:0000000000000070 .L0 
C:\Users\liukai\AppData\Local\Temp\ccrBK0vc.s:442    .text.I2C_ReceiveByte:0000000000000076 .L0 
C:\Users\liukai\AppData\Local\Temp\ccrBK0vc.s:444    .text.I2C_ReceiveByte:000000000000007a .L0 
C:\Users\liukai\AppData\Local\Temp\ccrBK0vc.s:446    .text.I2C_ReceiveByte:000000000000007c .L0 
C:\Users\liukai\AppData\Local\Temp\ccrBK0vc.s:449    .text.I2C_ReceiveByte:0000000000000082 .L0 
C:\Users\liukai\AppData\Local\Temp\ccrBK0vc.s:452    .text.I2C_ReceiveByte:0000000000000088 .L0 
C:\Users\liukai\AppData\Local\Temp\ccrBK0vc.s:455    .text.I2C_ReceiveByte:000000000000008e .L0 
C:\Users\liukai\AppData\Local\Temp\ccrBK0vc.s:459    .text.I2C_ReceiveByte:0000000000000098 .L0 
C:\Users\liukai\AppData\Local\Temp\ccrBK0vc.s:462    .text.I2C_ReceiveByte:000000000000009a .L0 
C:\Users\liukai\AppData\Local\Temp\ccrBK0vc.s:465    .text.I2C_ReceiveByte:00000000000000a0 .L0 
C:\Users\liukai\AppData\Local\Temp\ccrBK0vc.s:467    .text.I2C_ReceiveByte:00000000000000a2 .L0 
C:\Users\liukai\AppData\Local\Temp\ccrBK0vc.s:469    .text.I2C_ReceiveByte:00000000000000a4 .L0 
C:\Users\liukai\AppData\Local\Temp\ccrBK0vc.s:472    .text.I2C_ReceiveByte:00000000000000a6 .L0 
C:\Users\liukai\AppData\Local\Temp\ccrBK0vc.s:475    .text.I2C_ReceiveByte:00000000000000ac .L0 
C:\Users\liukai\AppData\Local\Temp\ccrBK0vc.s:477    .text.I2C_ReceiveByte:00000000000000b0 .L0 
C:\Users\liukai\AppData\Local\Temp\ccrBK0vc.s:479    .text.I2C_ReceiveByte:00000000000000b2 .L0 
C:\Users\liukai\AppData\Local\Temp\ccrBK0vc.s:483    .text.I2C_ReceiveByte:00000000000000bc .L0 
C:\Users\liukai\AppData\Local\Temp\ccrBK0vc.s:486    .text.I2C_ReceiveByte:00000000000000be .L0 
C:\Users\liukai\AppData\Local\Temp\ccrBK0vc.s:489    .text.I2C_ReceiveByte:00000000000000c4 .L0 
C:\Users\liukai\AppData\Local\Temp\ccrBK0vc.s:491    .text.I2C_ReceiveByte:00000000000000c6 .L0 
C:\Users\liukai\AppData\Local\Temp\ccrBK0vc.s:493    .text.I2C_ReceiveByte:00000000000000c8 .L0 
C:\Users\liukai\AppData\Local\Temp\ccrBK0vc.s:496    .text.I2C_ReceiveByte:00000000000000ce .L0 
C:\Users\liukai\AppData\Local\Temp\ccrBK0vc.s:498    .text.I2C_ReceiveByte:00000000000000d2 .L0 
C:\Users\liukai\AppData\Local\Temp\ccrBK0vc.s:501    .text.I2C_ReceiveByte:00000000000000dc .L0 
C:\Users\liukai\AppData\Local\Temp\ccrBK0vc.s:503    .text.I2C_ReceiveByte:00000000000000e0 .L0 
C:\Users\liukai\AppData\Local\Temp\ccrBK0vc.s:505    .text.I2C_ReceiveByte:00000000000000e4 .L0 
C:\Users\liukai\AppData\Local\Temp\ccrBK0vc.s:507    .text.I2C_ReceiveByte:00000000000000e6 .L0 
C:\Users\liukai\AppData\Local\Temp\ccrBK0vc.s:509    .text.I2C_ReceiveByte:00000000000000e8 .L0 
C:\Users\liukai\AppData\Local\Temp\ccrBK0vc.s:511    .text.I2C_ReceiveByte:00000000000000ea .L0 
C:\Users\liukai\AppData\Local\Temp\ccrBK0vc.s:518    .text.I2C_SendWord:0000000000000000 I2C_SendWord
C:\Users\liukai\AppData\Local\Temp\ccrBK0vc.s:521    .text.I2C_SendWord:0000000000000000 .L0 
C:\Users\liukai\AppData\Local\Temp\ccrBK0vc.s:522    .text.I2C_SendWord:0000000000000000 .L0 
C:\Users\liukai\AppData\Local\Temp\ccrBK0vc.s:523    .text.I2C_SendWord:0000000000000002 .L0 
C:\Users\liukai\AppData\Local\Temp\ccrBK0vc.s:526    .text.I2C_SendWord:0000000000000006 .L0 
C:\Users\liukai\AppData\Local\Temp\ccrBK0vc.s:527    .text.I2C_SendWord:0000000000000006 .L0 
C:\Users\liukai\AppData\Local\Temp\ccrBK0vc.s:529    .text.I2C_SendWord:0000000000000008 .L0 
C:\Users\liukai\AppData\Local\Temp\ccrBK0vc.s:540    .text.I2C_SendWord:0000000000000024 .L0 
C:\Users\liukai\AppData\Local\Temp\ccrBK0vc.s:542    .text.I2C_SendWord:0000000000000028 .L0 
C:\Users\liukai\AppData\Local\Temp\ccrBK0vc.s:544    .text.I2C_SendWord:000000000000002c .L0 
C:\Users\liukai\AppData\Local\Temp\ccrBK0vc.s:547    .text.I2C_SendWord:0000000000000032 .L0 
C:\Users\liukai\AppData\Local\Temp\ccrBK0vc.s:552    .text.I2C_SendWord:000000000000003c .L0 
C:\Users\liukai\AppData\Local\Temp\ccrBK0vc.s:554    .text.I2C_SendWord:0000000000000040 .L0 
C:\Users\liukai\AppData\Local\Temp\ccrBK0vc.s:559    .text.I2C_SendWord:000000000000004a .L0 
C:\Users\liukai\AppData\Local\Temp\ccrBK0vc.s:562    .text.I2C_SendWord:0000000000000052 .L0 
C:\Users\liukai\AppData\Local\Temp\ccrBK0vc.s:567    .text.I2C_SendWord:000000000000005c .L0 
C:\Users\liukai\AppData\Local\Temp\ccrBK0vc.s:570    .text.I2C_SendWord:0000000000000060 .L0 
C:\Users\liukai\AppData\Local\Temp\ccrBK0vc.s:574    .text.I2C_SendWord:0000000000000068 .L0 
C:\Users\liukai\AppData\Local\Temp\ccrBK0vc.s:577    .text.I2C_SendWord:000000000000006e .L0 
C:\Users\liukai\AppData\Local\Temp\ccrBK0vc.s:581    .text.I2C_SendWord:0000000000000078 .L0 
C:\Users\liukai\AppData\Local\Temp\ccrBK0vc.s:584    .text.I2C_SendWord:000000000000007a .L0 
C:\Users\liukai\AppData\Local\Temp\ccrBK0vc.s:587    .text.I2C_SendWord:0000000000000080 .L0 
C:\Users\liukai\AppData\Local\Temp\ccrBK0vc.s:589    .text.I2C_SendWord:0000000000000082 .L0 
C:\Users\liukai\AppData\Local\Temp\ccrBK0vc.s:591    .text.I2C_SendWord:0000000000000084 .L0 
C:\Users\liukai\AppData\Local\Temp\ccrBK0vc.s:594    .text.I2C_SendWord:0000000000000086 .L0 
C:\Users\liukai\AppData\Local\Temp\ccrBK0vc.s:597    .text.I2C_SendWord:000000000000008c .L0 
C:\Users\liukai\AppData\Local\Temp\ccrBK0vc.s:599    .text.I2C_SendWord:0000000000000090 .L0 
C:\Users\liukai\AppData\Local\Temp\ccrBK0vc.s:601    .text.I2C_SendWord:0000000000000092 .L0 
C:\Users\liukai\AppData\Local\Temp\ccrBK0vc.s:605    .text.I2C_SendWord:000000000000009c .L0 
C:\Users\liukai\AppData\Local\Temp\ccrBK0vc.s:609    .text.I2C_SendWord:00000000000000a4 .L0 
C:\Users\liukai\AppData\Local\Temp\ccrBK0vc.s:612    .text.I2C_SendWord:00000000000000a6 .L0 
C:\Users\liukai\AppData\Local\Temp\ccrBK0vc.s:615    .text.I2C_SendWord:00000000000000ac .L0 
C:\Users\liukai\AppData\Local\Temp\ccrBK0vc.s:617    .text.I2C_SendWord:00000000000000ae .L0 
C:\Users\liukai\AppData\Local\Temp\ccrBK0vc.s:619    .text.I2C_SendWord:00000000000000b0 .L0 
C:\Users\liukai\AppData\Local\Temp\ccrBK0vc.s:622    .text.I2C_SendWord:00000000000000b2 .L0 
C:\Users\liukai\AppData\Local\Temp\ccrBK0vc.s:625    .text.I2C_SendWord:00000000000000b8 .L0 
C:\Users\liukai\AppData\Local\Temp\ccrBK0vc.s:627    .text.I2C_SendWord:00000000000000bc .L0 
C:\Users\liukai\AppData\Local\Temp\ccrBK0vc.s:629    .text.I2C_SendWord:00000000000000be .L0 
C:\Users\liukai\AppData\Local\Temp\ccrBK0vc.s:633    .text.I2C_SendWord:00000000000000c8 .L0 
C:\Users\liukai\AppData\Local\Temp\ccrBK0vc.s:637    .text.I2C_SendWord:00000000000000d0 .L0 
C:\Users\liukai\AppData\Local\Temp\ccrBK0vc.s:640    .text.I2C_SendWord:00000000000000d2 .L0 
C:\Users\liukai\AppData\Local\Temp\ccrBK0vc.s:643    .text.I2C_SendWord:00000000000000d8 .L0 
C:\Users\liukai\AppData\Local\Temp\ccrBK0vc.s:645    .text.I2C_SendWord:00000000000000da .L0 
C:\Users\liukai\AppData\Local\Temp\ccrBK0vc.s:647    .text.I2C_SendWord:00000000000000dc .L0 
C:\Users\liukai\AppData\Local\Temp\ccrBK0vc.s:650    .text.I2C_SendWord:00000000000000de .L0 
C:\Users\liukai\AppData\Local\Temp\ccrBK0vc.s:653    .text.I2C_SendWord:00000000000000e4 .L0 
C:\Users\liukai\AppData\Local\Temp\ccrBK0vc.s:655    .text.I2C_SendWord:00000000000000e8 .L0 
C:\Users\liukai\AppData\Local\Temp\ccrBK0vc.s:657    .text.I2C_SendWord:00000000000000ea .L0 
C:\Users\liukai\AppData\Local\Temp\ccrBK0vc.s:660    .text.I2C_SendWord:00000000000000f4 .L0 
C:\Users\liukai\AppData\Local\Temp\ccrBK0vc.s:664    .text.I2C_SendWord:00000000000000fe .L0 
C:\Users\liukai\AppData\Local\Temp\ccrBK0vc.s:670    .text.I2C_SendWord:000000000000010e .L0 
C:\Users\liukai\AppData\Local\Temp\ccrBK0vc.s:673    .text.I2C_SendWord:0000000000000110 .L0 
C:\Users\liukai\AppData\Local\Temp\ccrBK0vc.s:676    .text.I2C_SendWord:0000000000000116 .L0 
C:\Users\liukai\AppData\Local\Temp\ccrBK0vc.s:678    .text.I2C_SendWord:0000000000000118 .L0 
C:\Users\liukai\AppData\Local\Temp\ccrBK0vc.s:680    .text.I2C_SendWord:000000000000011a .L0 
C:\Users\liukai\AppData\Local\Temp\ccrBK0vc.s:683    .text.I2C_SendWord:000000000000011c .L0 
C:\Users\liukai\AppData\Local\Temp\ccrBK0vc.s:686    .text.I2C_SendWord:0000000000000122 .L0 
C:\Users\liukai\AppData\Local\Temp\ccrBK0vc.s:688    .text.I2C_SendWord:0000000000000126 .L0 
C:\Users\liukai\AppData\Local\Temp\ccrBK0vc.s:690    .text.I2C_SendWord:0000000000000128 .L0 
C:\Users\liukai\AppData\Local\Temp\ccrBK0vc.s:693    .text.I2C_SendWord:000000000000012a .L0 
C:\Users\liukai\AppData\Local\Temp\ccrBK0vc.s:696    .text.I2C_SendWord:0000000000000130 .L0 
C:\Users\liukai\AppData\Local\Temp\ccrBK0vc.s:698    .text.I2C_SendWord:0000000000000134 .L0 
C:\Users\liukai\AppData\Local\Temp\ccrBK0vc.s:700    .text.I2C_SendWord:0000000000000136 .L0 
C:\Users\liukai\AppData\Local\Temp\ccrBK0vc.s:703    .text.I2C_SendWord:0000000000000140 .L0 
C:\Users\liukai\AppData\Local\Temp\ccrBK0vc.s:705    .text.I2C_SendWord:0000000000000144 .L0 
C:\Users\liukai\AppData\Local\Temp\ccrBK0vc.s:707    .text.I2C_SendWord:0000000000000146 .L0 
C:\Users\liukai\AppData\Local\Temp\ccrBK0vc.s:709    .text.I2C_SendWord:0000000000000148 .L0 
C:\Users\liukai\AppData\Local\Temp\ccrBK0vc.s:711    .text.I2C_SendWord:000000000000014a .L0 
C:\Users\liukai\AppData\Local\Temp\ccrBK0vc.s:718    .text.I2C_ReceiveWord:0000000000000000 I2C_ReceiveWord
C:\Users\liukai\AppData\Local\Temp\ccrBK0vc.s:721    .text.I2C_ReceiveWord:0000000000000000 .L0 
C:\Users\liukai\AppData\Local\Temp\ccrBK0vc.s:722    .text.I2C_ReceiveWord:0000000000000000 .L0 
C:\Users\liukai\AppData\Local\Temp\ccrBK0vc.s:723    .text.I2C_ReceiveWord:0000000000000002 .L0 
C:\Users\liukai\AppData\Local\Temp\ccrBK0vc.s:726    .text.I2C_ReceiveWord:0000000000000006 .L0 
C:\Users\liukai\AppData\Local\Temp\ccrBK0vc.s:727    .text.I2C_ReceiveWord:0000000000000006 .L0 
C:\Users\liukai\AppData\Local\Temp\ccrBK0vc.s:729    .text.I2C_ReceiveWord:0000000000000008 .L0 
C:\Users\liukai\AppData\Local\Temp\ccrBK0vc.s:739    .text.I2C_ReceiveWord:0000000000000020 .L0 
C:\Users\liukai\AppData\Local\Temp\ccrBK0vc.s:741    .text.I2C_ReceiveWord:0000000000000024 .L0 
C:\Users\liukai\AppData\Local\Temp\ccrBK0vc.s:743    .text.I2C_ReceiveWord:0000000000000028 .L0 
C:\Users\liukai\AppData\Local\Temp\ccrBK0vc.s:745    .text.I2C_ReceiveWord:000000000000002c .L0 
C:\Users\liukai\AppData\Local\Temp\ccrBK0vc.s:749    .text.I2C_ReceiveWord:0000000000000034 .L0 
C:\Users\liukai\AppData\Local\Temp\ccrBK0vc.s:752    .text.I2C_ReceiveWord:000000000000003a .L0 
C:\Users\liukai\AppData\Local\Temp\ccrBK0vc.s:756    .text.I2C_ReceiveWord:0000000000000044 .L0 
C:\Users\liukai\AppData\Local\Temp\ccrBK0vc.s:759    .text.I2C_ReceiveWord:0000000000000046 .L0 
C:\Users\liukai\AppData\Local\Temp\ccrBK0vc.s:762    .text.I2C_ReceiveWord:000000000000004c .L0 
C:\Users\liukai\AppData\Local\Temp\ccrBK0vc.s:764    .text.I2C_ReceiveWord:000000000000004e .L0 
C:\Users\liukai\AppData\Local\Temp\ccrBK0vc.s:766    .text.I2C_ReceiveWord:0000000000000050 .L0 
C:\Users\liukai\AppData\Local\Temp\ccrBK0vc.s:769    .text.I2C_ReceiveWord:0000000000000052 .L0 
C:\Users\liukai\AppData\Local\Temp\ccrBK0vc.s:772    .text.I2C_ReceiveWord:0000000000000058 .L0 
C:\Users\liukai\AppData\Local\Temp\ccrBK0vc.s:774    .text.I2C_ReceiveWord:000000000000005c .L0 
C:\Users\liukai\AppData\Local\Temp\ccrBK0vc.s:776    .text.I2C_ReceiveWord:000000000000005e .L0 
C:\Users\liukai\AppData\Local\Temp\ccrBK0vc.s:780    .text.I2C_ReceiveWord:0000000000000068 .L0 
C:\Users\liukai\AppData\Local\Temp\ccrBK0vc.s:784    .text.I2C_ReceiveWord:0000000000000070 .L0 
C:\Users\liukai\AppData\Local\Temp\ccrBK0vc.s:787    .text.I2C_ReceiveWord:0000000000000072 .L0 
C:\Users\liukai\AppData\Local\Temp\ccrBK0vc.s:790    .text.I2C_ReceiveWord:0000000000000078 .L0 
C:\Users\liukai\AppData\Local\Temp\ccrBK0vc.s:792    .text.I2C_ReceiveWord:000000000000007a .L0 
C:\Users\liukai\AppData\Local\Temp\ccrBK0vc.s:794    .text.I2C_ReceiveWord:000000000000007c .L0 
C:\Users\liukai\AppData\Local\Temp\ccrBK0vc.s:797    .text.I2C_ReceiveWord:000000000000007e .L0 
C:\Users\liukai\AppData\Local\Temp\ccrBK0vc.s:800    .text.I2C_ReceiveWord:0000000000000084 .L0 
C:\Users\liukai\AppData\Local\Temp\ccrBK0vc.s:802    .text.I2C_ReceiveWord:0000000000000088 .L0 
C:\Users\liukai\AppData\Local\Temp\ccrBK0vc.s:804    .text.I2C_ReceiveWord:000000000000008a .L0 
C:\Users\liukai\AppData\Local\Temp\ccrBK0vc.s:807    .text.I2C_ReceiveWord:0000000000000090 .L0 
C:\Users\liukai\AppData\Local\Temp\ccrBK0vc.s:810    .text.I2C_ReceiveWord:0000000000000096 .L0 
C:\Users\liukai\AppData\Local\Temp\ccrBK0vc.s:813    .text.I2C_ReceiveWord:000000000000009c .L0 
C:\Users\liukai\AppData\Local\Temp\ccrBK0vc.s:817    .text.I2C_ReceiveWord:00000000000000a6 .L0 
C:\Users\liukai\AppData\Local\Temp\ccrBK0vc.s:820    .text.I2C_ReceiveWord:00000000000000a8 .L0 
C:\Users\liukai\AppData\Local\Temp\ccrBK0vc.s:823    .text.I2C_ReceiveWord:00000000000000ae .L0 
C:\Users\liukai\AppData\Local\Temp\ccrBK0vc.s:825    .text.I2C_ReceiveWord:00000000000000b0 .L0 
C:\Users\liukai\AppData\Local\Temp\ccrBK0vc.s:827    .text.I2C_ReceiveWord:00000000000000b2 .L0 
C:\Users\liukai\AppData\Local\Temp\ccrBK0vc.s:830    .text.I2C_ReceiveWord:00000000000000b4 .L0 
C:\Users\liukai\AppData\Local\Temp\ccrBK0vc.s:833    .text.I2C_ReceiveWord:00000000000000ba .L0 
C:\Users\liukai\AppData\Local\Temp\ccrBK0vc.s:835    .text.I2C_ReceiveWord:00000000000000be .L0 
C:\Users\liukai\AppData\Local\Temp\ccrBK0vc.s:837    .text.I2C_ReceiveWord:00000000000000c0 .L0 
C:\Users\liukai\AppData\Local\Temp\ccrBK0vc.s:841    .text.I2C_ReceiveWord:00000000000000ca .L0 
C:\Users\liukai\AppData\Local\Temp\ccrBK0vc.s:844    .text.I2C_ReceiveWord:00000000000000cc .L0 
C:\Users\liukai\AppData\Local\Temp\ccrBK0vc.s:847    .text.I2C_ReceiveWord:00000000000000d2 .L0 
C:\Users\liukai\AppData\Local\Temp\ccrBK0vc.s:849    .text.I2C_ReceiveWord:00000000000000d4 .L0 
C:\Users\liukai\AppData\Local\Temp\ccrBK0vc.s:851    .text.I2C_ReceiveWord:00000000000000d6 .L0 
C:\Users\liukai\AppData\Local\Temp\ccrBK0vc.s:854    .text.I2C_ReceiveWord:00000000000000dc .L0 
C:\Users\liukai\AppData\Local\Temp\ccrBK0vc.s:856    .text.I2C_ReceiveWord:00000000000000e0 .L0 
C:\Users\liukai\AppData\Local\Temp\ccrBK0vc.s:859    .text.I2C_ReceiveWord:00000000000000ea .L0 
C:\Users\liukai\AppData\Local\Temp\ccrBK0vc.s:863    .text.I2C_ReceiveWord:00000000000000f4 .L0 
C:\Users\liukai\AppData\Local\Temp\ccrBK0vc.s:866    .text.I2C_ReceiveWord:00000000000000f6 .L0 
C:\Users\liukai\AppData\Local\Temp\ccrBK0vc.s:869    .text.I2C_ReceiveWord:00000000000000fc .L0 
C:\Users\liukai\AppData\Local\Temp\ccrBK0vc.s:871    .text.I2C_ReceiveWord:00000000000000fe .L0 
C:\Users\liukai\AppData\Local\Temp\ccrBK0vc.s:873    .text.I2C_ReceiveWord:0000000000000100 .L0 
C:\Users\liukai\AppData\Local\Temp\ccrBK0vc.s:876    .text.I2C_ReceiveWord:0000000000000106 .L0 
C:\Users\liukai\AppData\Local\Temp\ccrBK0vc.s:878    .text.I2C_ReceiveWord:000000000000010a .L0 
C:\Users\liukai\AppData\Local\Temp\ccrBK0vc.s:881    .text.I2C_ReceiveWord:0000000000000114 .L0 
C:\Users\liukai\AppData\Local\Temp\ccrBK0vc.s:884    .text.I2C_ReceiveWord:000000000000011a .L0 
C:\Users\liukai\AppData\Local\Temp\ccrBK0vc.s:891    .text.I2C_ReceiveWord:000000000000012a .L0 
C:\Users\liukai\AppData\Local\Temp\ccrBK0vc.s:895    .text.I2C_ReceiveWord:0000000000000132 .L0 
C:\Users\liukai\AppData\Local\Temp\ccrBK0vc.s:900    .text.I2C_ReceiveWord:000000000000013a .L0 
C:\Users\liukai\AppData\Local\Temp\ccrBK0vc.s:907    .text.I2C_ReceiveWord:000000000000014a .L0 
C:\Users\liukai\AppData\Local\Temp\ccrBK0vc.s:911    .text.I2C_ReceiveWord:0000000000000152 .L0 
C:\Users\liukai\AppData\Local\Temp\ccrBK0vc.s:915    .text.I2C_ReceiveWord:0000000000000158 .L0 
C:\Users\liukai\AppData\Local\Temp\ccrBK0vc.s:917    .text.I2C_ReceiveWord:000000000000015c .L0 
C:\Users\liukai\AppData\Local\Temp\ccrBK0vc.s:919    .text.I2C_ReceiveWord:0000000000000160 .L0 
C:\Users\liukai\AppData\Local\Temp\ccrBK0vc.s:921    .text.I2C_ReceiveWord:0000000000000162 .L0 
C:\Users\liukai\AppData\Local\Temp\ccrBK0vc.s:923    .text.I2C_ReceiveWord:0000000000000164 .L0 
C:\Users\liukai\AppData\Local\Temp\ccrBK0vc.s:925    .text.I2C_ReceiveWord:0000000000000166 .L0 
C:\Users\liukai\AppData\Local\Temp\ccrBK0vc.s:932    .text.I2C_SendArray:0000000000000000 I2C_SendArray
C:\Users\liukai\AppData\Local\Temp\ccrBK0vc.s:935    .text.I2C_SendArray:0000000000000000 .L0 
C:\Users\liukai\AppData\Local\Temp\ccrBK0vc.s:936    .text.I2C_SendArray:0000000000000000 .L0 
C:\Users\liukai\AppData\Local\Temp\ccrBK0vc.s:937    .text.I2C_SendArray:0000000000000002 .L0 
C:\Users\liukai\AppData\Local\Temp\ccrBK0vc.s:940    .text.I2C_SendArray:0000000000000006 .L0 
C:\Users\liukai\AppData\Local\Temp\ccrBK0vc.s:941    .text.I2C_SendArray:0000000000000006 .L0 
C:\Users\liukai\AppData\Local\Temp\ccrBK0vc.s:943    .text.I2C_SendArray:0000000000000008 .L0 
C:\Users\liukai\AppData\Local\Temp\ccrBK0vc.s:952    .text.I2C_SendArray:0000000000000020 .L0 
C:\Users\liukai\AppData\Local\Temp\ccrBK0vc.s:955    .text.I2C_SendArray:0000000000000028 .L0 
C:\Users\liukai\AppData\Local\Temp\ccrBK0vc.s:959    .text.I2C_SendArray:0000000000000030 .L0 
C:\Users\liukai\AppData\Local\Temp\ccrBK0vc.s:962    .text.I2C_SendArray:0000000000000036 .L0 
C:\Users\liukai\AppData\Local\Temp\ccrBK0vc.s:966    .text.I2C_SendArray:0000000000000040 .L0 
C:\Users\liukai\AppData\Local\Temp\ccrBK0vc.s:969    .text.I2C_SendArray:0000000000000042 .L0 
C:\Users\liukai\AppData\Local\Temp\ccrBK0vc.s:972    .text.I2C_SendArray:0000000000000048 .L0 
C:\Users\liukai\AppData\Local\Temp\ccrBK0vc.s:974    .text.I2C_SendArray:000000000000004a .L0 
C:\Users\liukai\AppData\Local\Temp\ccrBK0vc.s:976    .text.I2C_SendArray:000000000000004c .L0 
C:\Users\liukai\AppData\Local\Temp\ccrBK0vc.s:979    .text.I2C_SendArray:000000000000004e .L0 
C:\Users\liukai\AppData\Local\Temp\ccrBK0vc.s:982    .text.I2C_SendArray:0000000000000054 .L0 
C:\Users\liukai\AppData\Local\Temp\ccrBK0vc.s:984    .text.I2C_SendArray:0000000000000058 .L0 
C:\Users\liukai\AppData\Local\Temp\ccrBK0vc.s:986    .text.I2C_SendArray:000000000000005a .L0 
C:\Users\liukai\AppData\Local\Temp\ccrBK0vc.s:990    .text.I2C_SendArray:0000000000000064 .L0 
C:\Users\liukai\AppData\Local\Temp\ccrBK0vc.s:994    .text.I2C_SendArray:000000000000006c .L0 
C:\Users\liukai\AppData\Local\Temp\ccrBK0vc.s:997    .text.I2C_SendArray:000000000000006e .L0 
C:\Users\liukai\AppData\Local\Temp\ccrBK0vc.s:1000   .text.I2C_SendArray:0000000000000074 .L0 
C:\Users\liukai\AppData\Local\Temp\ccrBK0vc.s:1002   .text.I2C_SendArray:0000000000000076 .L0 
C:\Users\liukai\AppData\Local\Temp\ccrBK0vc.s:1004   .text.I2C_SendArray:0000000000000078 .L0 
C:\Users\liukai\AppData\Local\Temp\ccrBK0vc.s:1007   .text.I2C_SendArray:000000000000007a .L0 
C:\Users\liukai\AppData\Local\Temp\ccrBK0vc.s:1010   .text.I2C_SendArray:0000000000000080 .L0 
C:\Users\liukai\AppData\Local\Temp\ccrBK0vc.s:1012   .text.I2C_SendArray:0000000000000084 .L0 
C:\Users\liukai\AppData\Local\Temp\ccrBK0vc.s:1015   .text.I2C_SendArray:0000000000000086 .L0 
C:\Users\liukai\AppData\Local\Temp\ccrBK0vc.s:1017   .text.I2C_SendArray:000000000000008a .L0 
C:\Users\liukai\AppData\Local\Temp\ccrBK0vc.s:1020   .text.I2C_SendArray:000000000000008c .L0 
C:\Users\liukai\AppData\Local\Temp\ccrBK0vc.s:1024   .text.I2C_SendArray:0000000000000096 .L0 
C:\Users\liukai\AppData\Local\Temp\ccrBK0vc.s:1027   .text.I2C_SendArray:000000000000009c .L0 
C:\Users\liukai\AppData\Local\Temp\ccrBK0vc.s:1031   .text.I2C_SendArray:00000000000000a4 .L0 
C:\Users\liukai\AppData\Local\Temp\ccrBK0vc.s:1034   .text.I2C_SendArray:00000000000000a6 .L0 
C:\Users\liukai\AppData\Local\Temp\ccrBK0vc.s:1037   .text.I2C_SendArray:00000000000000ac .L0 
C:\Users\liukai\AppData\Local\Temp\ccrBK0vc.s:1039   .text.I2C_SendArray:00000000000000ae .L0 
C:\Users\liukai\AppData\Local\Temp\ccrBK0vc.s:1041   .text.I2C_SendArray:00000000000000b0 .L0 
C:\Users\liukai\AppData\Local\Temp\ccrBK0vc.s:1044   .text.I2C_SendArray:00000000000000b2 .L0 
C:\Users\liukai\AppData\Local\Temp\ccrBK0vc.s:1047   .text.I2C_SendArray:00000000000000b8 .L0 
C:\Users\liukai\AppData\Local\Temp\ccrBK0vc.s:1049   .text.I2C_SendArray:00000000000000bc .L0 
C:\Users\liukai\AppData\Local\Temp\ccrBK0vc.s:1051   .text.I2C_SendArray:00000000000000be .L0 
C:\Users\liukai\AppData\Local\Temp\ccrBK0vc.s:1055   .text.I2C_SendArray:00000000000000c8 .L0 
C:\Users\liukai\AppData\Local\Temp\ccrBK0vc.s:1058   .text.I2C_SendArray:00000000000000d2 .L0 
C:\Users\liukai\AppData\Local\Temp\ccrBK0vc.s:1063   .text.I2C_SendArray:00000000000000dc .L0 
C:\Users\liukai\AppData\Local\Temp\ccrBK0vc.s:1066   .text.I2C_SendArray:00000000000000e2 .L0 
C:\Users\liukai\AppData\Local\Temp\ccrBK0vc.s:1070   .text.I2C_SendArray:00000000000000ea .L0 
C:\Users\liukai\AppData\Local\Temp\ccrBK0vc.s:1074   .text.I2C_SendArray:00000000000000f4 .L0 
C:\Users\liukai\AppData\Local\Temp\ccrBK0vc.s:1077   .text.I2C_SendArray:00000000000000fa .L0 
C:\Users\liukai\AppData\Local\Temp\ccrBK0vc.s:1083   .text.I2C_SendArray:000000000000010a .L0 
C:\Users\liukai\AppData\Local\Temp\ccrBK0vc.s:1086   .text.I2C_SendArray:000000000000010c .L0 
C:\Users\liukai\AppData\Local\Temp\ccrBK0vc.s:1089   .text.I2C_SendArray:0000000000000112 .L0 
C:\Users\liukai\AppData\Local\Temp\ccrBK0vc.s:1091   .text.I2C_SendArray:0000000000000114 .L0 
C:\Users\liukai\AppData\Local\Temp\ccrBK0vc.s:1093   .text.I2C_SendArray:0000000000000116 .L0 
C:\Users\liukai\AppData\Local\Temp\ccrBK0vc.s:1096   .text.I2C_SendArray:0000000000000118 .L0 
C:\Users\liukai\AppData\Local\Temp\ccrBK0vc.s:1099   .text.I2C_SendArray:000000000000011e .L0 
C:\Users\liukai\AppData\Local\Temp\ccrBK0vc.s:1101   .text.I2C_SendArray:0000000000000122 .L0 
C:\Users\liukai\AppData\Local\Temp\ccrBK0vc.s:1103   .text.I2C_SendArray:0000000000000124 .L0 
C:\Users\liukai\AppData\Local\Temp\ccrBK0vc.s:1106   .text.I2C_SendArray:0000000000000126 .L0 
C:\Users\liukai\AppData\Local\Temp\ccrBK0vc.s:1109   .text.I2C_SendArray:000000000000012c .L0 
C:\Users\liukai\AppData\Local\Temp\ccrBK0vc.s:1111   .text.I2C_SendArray:0000000000000130 .L0 
C:\Users\liukai\AppData\Local\Temp\ccrBK0vc.s:1113   .text.I2C_SendArray:0000000000000132 .L0 
C:\Users\liukai\AppData\Local\Temp\ccrBK0vc.s:1116   .text.I2C_SendArray:000000000000013c .L0 
C:\Users\liukai\AppData\Local\Temp\ccrBK0vc.s:1118   .text.I2C_SendArray:0000000000000140 .L0 
C:\Users\liukai\AppData\Local\Temp\ccrBK0vc.s:1120   .text.I2C_SendArray:0000000000000142 .L0 
C:\Users\liukai\AppData\Local\Temp\ccrBK0vc.s:1122   .text.I2C_SendArray:0000000000000144 .L0 
C:\Users\liukai\AppData\Local\Temp\ccrBK0vc.s:1124   .text.I2C_SendArray:0000000000000146 .L0 
C:\Users\liukai\AppData\Local\Temp\ccrBK0vc.s:1131   .text.I2C_ReceiveArray:0000000000000000 I2C_ReceiveArray
C:\Users\liukai\AppData\Local\Temp\ccrBK0vc.s:1134   .text.I2C_ReceiveArray:0000000000000000 .L0 
C:\Users\liukai\AppData\Local\Temp\ccrBK0vc.s:1135   .text.I2C_ReceiveArray:0000000000000000 .L0 
C:\Users\liukai\AppData\Local\Temp\ccrBK0vc.s:1136   .text.I2C_ReceiveArray:0000000000000002 .L0 
C:\Users\liukai\AppData\Local\Temp\ccrBK0vc.s:1139   .text.I2C_ReceiveArray:0000000000000006 .L0 
C:\Users\liukai\AppData\Local\Temp\ccrBK0vc.s:1140   .text.I2C_ReceiveArray:0000000000000006 .L0 
C:\Users\liukai\AppData\Local\Temp\ccrBK0vc.s:1142   .text.I2C_ReceiveArray:0000000000000008 .L0 
C:\Users\liukai\AppData\Local\Temp\ccrBK0vc.s:1151   .text.I2C_ReceiveArray:0000000000000020 .L0 
C:\Users\liukai\AppData\Local\Temp\ccrBK0vc.s:1154   .text.I2C_ReceiveArray:0000000000000028 .L0 
C:\Users\liukai\AppData\Local\Temp\ccrBK0vc.s:1158   .text.I2C_ReceiveArray:0000000000000030 .L0 
C:\Users\liukai\AppData\Local\Temp\ccrBK0vc.s:1161   .text.I2C_ReceiveArray:0000000000000036 .L0 
C:\Users\liukai\AppData\Local\Temp\ccrBK0vc.s:1165   .text.I2C_ReceiveArray:0000000000000040 .L0 
C:\Users\liukai\AppData\Local\Temp\ccrBK0vc.s:1168   .text.I2C_ReceiveArray:0000000000000042 .L0 
C:\Users\liukai\AppData\Local\Temp\ccrBK0vc.s:1171   .text.I2C_ReceiveArray:0000000000000048 .L0 
C:\Users\liukai\AppData\Local\Temp\ccrBK0vc.s:1173   .text.I2C_ReceiveArray:000000000000004a .L0 
C:\Users\liukai\AppData\Local\Temp\ccrBK0vc.s:1175   .text.I2C_ReceiveArray:000000000000004c .L0 
C:\Users\liukai\AppData\Local\Temp\ccrBK0vc.s:1178   .text.I2C_ReceiveArray:000000000000004e .L0 
C:\Users\liukai\AppData\Local\Temp\ccrBK0vc.s:1181   .text.I2C_ReceiveArray:0000000000000054 .L0 
C:\Users\liukai\AppData\Local\Temp\ccrBK0vc.s:1183   .text.I2C_ReceiveArray:0000000000000058 .L0 
C:\Users\liukai\AppData\Local\Temp\ccrBK0vc.s:1185   .text.I2C_ReceiveArray:000000000000005a .L0 
C:\Users\liukai\AppData\Local\Temp\ccrBK0vc.s:1189   .text.I2C_ReceiveArray:0000000000000064 .L0 
C:\Users\liukai\AppData\Local\Temp\ccrBK0vc.s:1193   .text.I2C_ReceiveArray:000000000000006c .L0 
C:\Users\liukai\AppData\Local\Temp\ccrBK0vc.s:1196   .text.I2C_ReceiveArray:000000000000006e .L0 
C:\Users\liukai\AppData\Local\Temp\ccrBK0vc.s:1199   .text.I2C_ReceiveArray:0000000000000074 .L0 
C:\Users\liukai\AppData\Local\Temp\ccrBK0vc.s:1201   .text.I2C_ReceiveArray:0000000000000076 .L0 
C:\Users\liukai\AppData\Local\Temp\ccrBK0vc.s:1203   .text.I2C_ReceiveArray:0000000000000078 .L0 
C:\Users\liukai\AppData\Local\Temp\ccrBK0vc.s:1206   .text.I2C_ReceiveArray:000000000000007a .L0 
C:\Users\liukai\AppData\Local\Temp\ccrBK0vc.s:1209   .text.I2C_ReceiveArray:0000000000000080 .L0 
C:\Users\liukai\AppData\Local\Temp\ccrBK0vc.s:1211   .text.I2C_ReceiveArray:0000000000000084 .L0 
C:\Users\liukai\AppData\Local\Temp\ccrBK0vc.s:1213   .text.I2C_ReceiveArray:0000000000000086 .L0 
C:\Users\liukai\AppData\Local\Temp\ccrBK0vc.s:1216   .text.I2C_ReceiveArray:000000000000008c .L0 
C:\Users\liukai\AppData\Local\Temp\ccrBK0vc.s:1219   .text.I2C_ReceiveArray:0000000000000092 .L0 
C:\Users\liukai\AppData\Local\Temp\ccrBK0vc.s:1222   .text.I2C_ReceiveArray:0000000000000098 .L0 
C:\Users\liukai\AppData\Local\Temp\ccrBK0vc.s:1226   .text.I2C_ReceiveArray:00000000000000a2 .L0 
C:\Users\liukai\AppData\Local\Temp\ccrBK0vc.s:1229   .text.I2C_ReceiveArray:00000000000000a4 .L0 
C:\Users\liukai\AppData\Local\Temp\ccrBK0vc.s:1232   .text.I2C_ReceiveArray:00000000000000aa .L0 
C:\Users\liukai\AppData\Local\Temp\ccrBK0vc.s:1234   .text.I2C_ReceiveArray:00000000000000ac .L0 
C:\Users\liukai\AppData\Local\Temp\ccrBK0vc.s:1236   .text.I2C_ReceiveArray:00000000000000ae .L0 
C:\Users\liukai\AppData\Local\Temp\ccrBK0vc.s:1239   .text.I2C_ReceiveArray:00000000000000b0 .L0 
C:\Users\liukai\AppData\Local\Temp\ccrBK0vc.s:1242   .text.I2C_ReceiveArray:00000000000000b6 .L0 
C:\Users\liukai\AppData\Local\Temp\ccrBK0vc.s:1244   .text.I2C_ReceiveArray:00000000000000ba .L0 
C:\Users\liukai\AppData\Local\Temp\ccrBK0vc.s:1247   .text.I2C_ReceiveArray:00000000000000bc .L0 
C:\Users\liukai\AppData\Local\Temp\ccrBK0vc.s:1249   .text.I2C_ReceiveArray:00000000000000c0 .L0 
C:\Users\liukai\AppData\Local\Temp\ccrBK0vc.s:1252   .text.I2C_ReceiveArray:00000000000000c2 .L0 
C:\Users\liukai\AppData\Local\Temp\ccrBK0vc.s:1256   .text.I2C_ReceiveArray:00000000000000cc .L0 
C:\Users\liukai\AppData\Local\Temp\ccrBK0vc.s:1259   .text.I2C_ReceiveArray:00000000000000ce .L0 
C:\Users\liukai\AppData\Local\Temp\ccrBK0vc.s:1262   .text.I2C_ReceiveArray:00000000000000d4 .L0 
C:\Users\liukai\AppData\Local\Temp\ccrBK0vc.s:1264   .text.I2C_ReceiveArray:00000000000000d6 .L0 
C:\Users\liukai\AppData\Local\Temp\ccrBK0vc.s:1266   .text.I2C_ReceiveArray:00000000000000d8 .L0 
C:\Users\liukai\AppData\Local\Temp\ccrBK0vc.s:1269   .text.I2C_ReceiveArray:00000000000000de .L0 
C:\Users\liukai\AppData\Local\Temp\ccrBK0vc.s:1271   .text.I2C_ReceiveArray:00000000000000e2 .L0 
C:\Users\liukai\AppData\Local\Temp\ccrBK0vc.s:1274   .text.I2C_ReceiveArray:00000000000000ea .L0 
C:\Users\liukai\AppData\Local\Temp\ccrBK0vc.s:1278   .text.I2C_ReceiveArray:00000000000000f4 .L0 
C:\Users\liukai\AppData\Local\Temp\ccrBK0vc.s:1281   .text.I2C_ReceiveArray:00000000000000fe .L0 
C:\Users\liukai\AppData\Local\Temp\ccrBK0vc.s:1286   .text.I2C_ReceiveArray:0000000000000108 .L0 
C:\Users\liukai\AppData\Local\Temp\ccrBK0vc.s:1289   .text.I2C_ReceiveArray:000000000000010e .L0 
C:\Users\liukai\AppData\Local\Temp\ccrBK0vc.s:1293   .text.I2C_ReceiveArray:0000000000000116 .L0 
C:\Users\liukai\AppData\Local\Temp\ccrBK0vc.s:1297   .text.I2C_ReceiveArray:0000000000000120 .L0 
C:\Users\liukai\AppData\Local\Temp\ccrBK0vc.s:1300   .text.I2C_ReceiveArray:0000000000000122 .L0 
C:\Users\liukai\AppData\Local\Temp\ccrBK0vc.s:1303   .text.I2C_ReceiveArray:0000000000000128 .L0 
C:\Users\liukai\AppData\Local\Temp\ccrBK0vc.s:1305   .text.I2C_ReceiveArray:000000000000012a .L0 
C:\Users\liukai\AppData\Local\Temp\ccrBK0vc.s:1307   .text.I2C_ReceiveArray:000000000000012c .L0 
C:\Users\liukai\AppData\Local\Temp\ccrBK0vc.s:1310   .text.I2C_ReceiveArray:0000000000000132 .L0 
C:\Users\liukai\AppData\Local\Temp\ccrBK0vc.s:1312   .text.I2C_ReceiveArray:0000000000000136 .L0 
C:\Users\liukai\AppData\Local\Temp\ccrBK0vc.s:1315   .text.I2C_ReceiveArray:000000000000013e .L0 
C:\Users\liukai\AppData\Local\Temp\ccrBK0vc.s:1318   .text.I2C_ReceiveArray:0000000000000148 .L0 
C:\Users\liukai\AppData\Local\Temp\ccrBK0vc.s:1320   .text.I2C_ReceiveArray:000000000000014a .L0 
C:\Users\liukai\AppData\Local\Temp\ccrBK0vc.s:1321   .text.I2C_ReceiveArray:000000000000014c .L0 
C:\Users\liukai\AppData\Local\Temp\ccrBK0vc.s:1323   .text.I2C_ReceiveArray:000000000000014e .L0 
C:\Users\liukai\AppData\Local\Temp\ccrBK0vc.s:1325   .text.I2C_ReceiveArray:0000000000000150 .L0 
C:\Users\liukai\AppData\Local\Temp\ccrBK0vc.s:1327   .text.I2C_ReceiveArray:0000000000000152 .L0 
C:\Users\liukai\AppData\Local\Temp\ccrBK0vc.s:1334   .text.I2C_SendBytes:0000000000000000 I2C_SendBytes
C:\Users\liukai\AppData\Local\Temp\ccrBK0vc.s:1337   .text.I2C_SendBytes:0000000000000000 .L0 
C:\Users\liukai\AppData\Local\Temp\ccrBK0vc.s:1338   .text.I2C_SendBytes:0000000000000000 .L0 
C:\Users\liukai\AppData\Local\Temp\ccrBK0vc.s:1339   .text.I2C_SendBytes:0000000000000002 .L0 
C:\Users\liukai\AppData\Local\Temp\ccrBK0vc.s:1342   .text.I2C_SendBytes:0000000000000006 .L0 
C:\Users\liukai\AppData\Local\Temp\ccrBK0vc.s:1343   .text.I2C_SendBytes:0000000000000006 .L0 
C:\Users\liukai\AppData\Local\Temp\ccrBK0vc.s:1345   .text.I2C_SendBytes:0000000000000008 .L0 
C:\Users\liukai\AppData\Local\Temp\ccrBK0vc.s:1354   .text.I2C_SendBytes:0000000000000020 .L0 
C:\Users\liukai\AppData\Local\Temp\ccrBK0vc.s:1356   .text.I2C_SendBytes:0000000000000024 .L0 
C:\Users\liukai\AppData\Local\Temp\ccrBK0vc.s:1359   .text.I2C_SendBytes:0000000000000026 .L0 
C:\Users\liukai\AppData\Local\Temp\ccrBK0vc.s:1365   .text.I2C_SendBytes:0000000000000038 .L0 
C:\Users\liukai\AppData\Local\Temp\ccrBK0vc.s:1369   .text.I2C_SendBytes:0000000000000042 .L0 
C:\Users\liukai\AppData\Local\Temp\ccrBK0vc.s:1376   .text.I2C_SendBytes:000000000000005a .L0 
C:\Users\liukai\AppData\Local\Temp\ccrBK0vc.s:1381   .text.I2C_SendBytes:0000000000000064 .L0 
C:\Users\liukai\AppData\Local\Temp\ccrBK0vc.s:1385   .text.I2C_SendBytes:0000000000000070 .L0 
C:\Users\liukai\AppData\Local\Temp\ccrBK0vc.s:1387   .text.I2C_SendBytes:0000000000000074 .L0 
C:\Users\liukai\AppData\Local\Temp\ccrBK0vc.s:1389   .text.I2C_SendBytes:0000000000000076 .L0 
C:\Users\liukai\AppData\Local\Temp\ccrBK0vc.s:1391   .text.I2C_SendBytes:0000000000000078 .L0 
C:\Users\liukai\AppData\Local\Temp\ccrBK0vc.s:1393   .text.I2C_SendBytes:000000000000007a .L0 
C:\Users\liukai\AppData\Local\Temp\ccrBK0vc.s:1400   .text.I2C_ReadBytes:0000000000000000 I2C_ReadBytes
C:\Users\liukai\AppData\Local\Temp\ccrBK0vc.s:1403   .text.I2C_ReadBytes:0000000000000000 .L0 
C:\Users\liukai\AppData\Local\Temp\ccrBK0vc.s:1404   .text.I2C_ReadBytes:0000000000000000 .L0 
C:\Users\liukai\AppData\Local\Temp\ccrBK0vc.s:1405   .text.I2C_ReadBytes:0000000000000002 .L0 
C:\Users\liukai\AppData\Local\Temp\ccrBK0vc.s:1409   .text.I2C_ReadBytes:0000000000000008 .L0 
C:\Users\liukai\AppData\Local\Temp\ccrBK0vc.s:1410   .text.I2C_ReadBytes:0000000000000008 .L0 
C:\Users\liukai\AppData\Local\Temp\ccrBK0vc.s:1411   .text.I2C_ReadBytes:0000000000000008 .L0 
C:\Users\liukai\AppData\Local\Temp\ccrBK0vc.s:1413   .text.I2C_ReadBytes:000000000000000a .L0 
C:\Users\liukai\AppData\Local\Temp\ccrBK0vc.s:1422   .text.I2C_ReadBytes:0000000000000022 .L0 
C:\Users\liukai\AppData\Local\Temp\ccrBK0vc.s:1424   .text.I2C_ReadBytes:0000000000000026 .L0 
C:\Users\liukai\AppData\Local\Temp\ccrBK0vc.s:1427   .text.I2C_ReadBytes:0000000000000028 .L0 
C:\Users\liukai\AppData\Local\Temp\ccrBK0vc.s:1433   .text.I2C_ReadBytes:000000000000003a .L0 
C:\Users\liukai\AppData\Local\Temp\ccrBK0vc.s:1437   .text.I2C_ReadBytes:0000000000000046 .L0 
C:\Users\liukai\AppData\Local\Temp\ccrBK0vc.s:1444   .text.I2C_ReadBytes:000000000000005c .L0 
C:\Users\liukai\AppData\Local\Temp\ccrBK0vc.s:1446   .text.I2C_ReadBytes:0000000000000060 .L0 
C:\Users\liukai\AppData\Local\Temp\ccrBK0vc.s:1451   .text.I2C_ReadBytes:000000000000006a .L0 
C:\Users\liukai\AppData\Local\Temp\ccrBK0vc.s:1455   .text.I2C_ReadBytes:0000000000000076 .L0 
C:\Users\liukai\AppData\Local\Temp\ccrBK0vc.s:1457   .text.I2C_ReadBytes:000000000000007a .L0 
C:\Users\liukai\AppData\Local\Temp\ccrBK0vc.s:1459   .text.I2C_ReadBytes:000000000000007c .L0 
C:\Users\liukai\AppData\Local\Temp\ccrBK0vc.s:1461   .text.I2C_ReadBytes:000000000000007e .L0 
C:\Users\liukai\AppData\Local\Temp\ccrBK0vc.s:1463   .text.I2C_ReadBytes:0000000000000080 .L0 
C:\Users\liukai\AppData\Local\Temp\ccrBK0vc.s:1465   .text.I2C_ReadBytes:0000000000000082 .L0 
C:\Users\liukai\AppData\Local\Temp\ccrBK0vc.s:1472   .text.I2C_InterruptOpen:0000000000000000 I2C_InterruptOpen
C:\Users\liukai\AppData\Local\Temp\ccrBK0vc.s:1475   .text.I2C_InterruptOpen:0000000000000000 .L0 
C:\Users\liukai\AppData\Local\Temp\ccrBK0vc.s:1476   .text.I2C_InterruptOpen:0000000000000000 .L0 
C:\Users\liukai\AppData\Local\Temp\ccrBK0vc.s:1477   .text.I2C_InterruptOpen:0000000000000002 .L0 
C:\Users\liukai\AppData\Local\Temp\ccrBK0vc.s:1479   .text.I2C_InterruptOpen:0000000000000004 .L0 
C:\Users\liukai\AppData\Local\Temp\ccrBK0vc.s:1481   .text.I2C_InterruptOpen:0000000000000006 .L0 
C:\Users\liukai\AppData\Local\Temp\ccrBK0vc.s:1484   .text.I2C_InterruptOpen:000000000000000a .L0 
C:\Users\liukai\AppData\Local\Temp\ccrBK0vc.s:1488   .text.I2C_InterruptOpen:0000000000000014 .L0 
C:\Users\liukai\AppData\Local\Temp\ccrBK0vc.s:1490   .text.I2C_InterruptOpen:0000000000000018 .L0 
C:\Users\liukai\AppData\Local\Temp\ccrBK0vc.s:1492   .text.I2C_InterruptOpen:000000000000001a .L0 
C:\Users\liukai\AppData\Local\Temp\ccrBK0vc.s:1494   .text.I2C_InterruptOpen:000000000000001c .L0 
C:\Users\liukai\AppData\Local\Temp\ccrBK0vc.s:1501   .text.I2C_InterruptClose:0000000000000000 I2C_InterruptClose
C:\Users\liukai\AppData\Local\Temp\ccrBK0vc.s:1504   .text.I2C_InterruptClose:0000000000000000 .L0 
C:\Users\liukai\AppData\Local\Temp\ccrBK0vc.s:1505   .text.I2C_InterruptClose:0000000000000000 .L0 
C:\Users\liukai\AppData\Local\Temp\ccrBK0vc.s:1506   .text.I2C_InterruptClose:0000000000000002 .L0 
C:\Users\liukai\AppData\Local\Temp\ccrBK0vc.s:1508   .text.I2C_InterruptClose:0000000000000004 .L0 
C:\Users\liukai\AppData\Local\Temp\ccrBK0vc.s:1510   .text.I2C_InterruptClose:0000000000000006 .L0 
C:\Users\liukai\AppData\Local\Temp\ccrBK0vc.s:1513   .text.I2C_InterruptClose:000000000000000a .L0 
C:\Users\liukai\AppData\Local\Temp\ccrBK0vc.s:1519   .text.I2C_InterruptClose:000000000000001a .L0 
C:\Users\liukai\AppData\Local\Temp\ccrBK0vc.s:1521   .text.I2C_InterruptClose:000000000000001e .L0 
C:\Users\liukai\AppData\Local\Temp\ccrBK0vc.s:1523   .text.I2C_InterruptClose:0000000000000020 .L0 
C:\Users\liukai\AppData\Local\Temp\ccrBK0vc.s:1525   .text.I2C_InterruptClose:0000000000000022 .L0 
C:\Users\liukai\AppData\Local\Temp\ccrBK0vc.s:51     .text.Delay_ms_i2c:0000000000000036 .L0 
C:\Users\liukai\AppData\Local\Temp\ccrBK0vc.s:80     .text.I2C_Disable:000000000000001c .L0 
C:\Users\liukai\AppData\Local\Temp\ccrBK0vc.s:111    .text.I2C_Enable:0000000000000022 .L0 
C:\Users\liukai\AppData\Local\Temp\ccrBK0vc.s:162    .text.I2C_Rate_Set:000000000000004e .L0 
C:\Users\liukai\AppData\Local\Temp\ccrBK0vc.s:224    .text.I2C_Init:0000000000000060 .L0 
C:\Users\liukai\AppData\Local\Temp\ccrBK0vc.s:362    .text.I2C_SendByte:00000000000000d4 .L0 
C:\Users\liukai\AppData\Local\Temp\ccrBK0vc.s:514    .text.I2C_ReceiveByte:00000000000000ea .L0 
C:\Users\liukai\AppData\Local\Temp\ccrBK0vc.s:714    .text.I2C_SendWord:000000000000014a .L0 
C:\Users\liukai\AppData\Local\Temp\ccrBK0vc.s:928    .text.I2C_ReceiveWord:0000000000000166 .L0 
C:\Users\liukai\AppData\Local\Temp\ccrBK0vc.s:1127   .text.I2C_SendArray:0000000000000146 .L0 
C:\Users\liukai\AppData\Local\Temp\ccrBK0vc.s:1330   .text.I2C_ReceiveArray:0000000000000152 .L0 
C:\Users\liukai\AppData\Local\Temp\ccrBK0vc.s:1396   .text.I2C_SendBytes:000000000000007a .L0 
C:\Users\liukai\AppData\Local\Temp\ccrBK0vc.s:1468   .text.I2C_ReadBytes:0000000000000082 .L0 
C:\Users\liukai\AppData\Local\Temp\ccrBK0vc.s:1497   .text.I2C_InterruptOpen:000000000000001c .L0 
C:\Users\liukai\AppData\Local\Temp\ccrBK0vc.s:1528   .text.I2C_InterruptClose:0000000000000022 .L0 
                     .debug_frame:0000000000000000 .L0 
C:\Users\liukai\AppData\Local\Temp\ccrBK0vc.s:36     .text.Delay_ms_i2c:0000000000000028 .L2
C:\Users\liukai\AppData\Local\Temp\ccrBK0vc.s:31     .text.Delay_ms_i2c:000000000000001e .L3
C:\Users\liukai\AppData\Local\Temp\ccrBK0vc.s:208    .text.I2C_Init:0000000000000054 .L9
C:\Users\liukai\AppData\Local\Temp\ccrBK0vc.s:211    .text.I2C_Init:0000000000000056 .L10
C:\Users\liukai\AppData\Local\Temp\ccrBK0vc.s:261    .text.I2C_SendByte:000000000000003a .L12
C:\Users\liukai\AppData\Local\Temp\ccrBK0vc.s:271    .text.I2C_SendByte:0000000000000046 .L13
C:\Users\liukai\AppData\Local\Temp\ccrBK0vc.s:289    .text.I2C_SendByte:0000000000000066 .L14
C:\Users\liukai\AppData\Local\Temp\ccrBK0vc.s:299    .text.I2C_SendByte:0000000000000072 .L15
C:\Users\liukai\AppData\Local\Temp\ccrBK0vc.s:319    .text.I2C_SendByte:000000000000009a .L16
C:\Users\liukai\AppData\Local\Temp\ccrBK0vc.s:329    .text.I2C_SendByte:00000000000000a6 .L17
C:\Users\liukai\AppData\Local\Temp\ccrBK0vc.s:339    .text.I2C_SendByte:00000000000000b4 .L18
C:\Users\liukai\AppData\Local\Temp\ccrBK0vc.s:399    .text.I2C_ReceiveByte:0000000000000038 .L20
C:\Users\liukai\AppData\Local\Temp\ccrBK0vc.s:409    .text.I2C_ReceiveByte:0000000000000044 .L21
C:\Users\liukai\AppData\Local\Temp\ccrBK0vc.s:427    .text.I2C_ReceiveByte:0000000000000064 .L22
C:\Users\liukai\AppData\Local\Temp\ccrBK0vc.s:437    .text.I2C_ReceiveByte:0000000000000070 .L23
C:\Users\liukai\AppData\Local\Temp\ccrBK0vc.s:460    .text.I2C_ReceiveByte:000000000000009a .L24
C:\Users\liukai\AppData\Local\Temp\ccrBK0vc.s:470    .text.I2C_ReceiveByte:00000000000000a6 .L25
C:\Users\liukai\AppData\Local\Temp\ccrBK0vc.s:484    .text.I2C_ReceiveByte:00000000000000be .L26
C:\Users\liukai\AppData\Local\Temp\ccrBK0vc.s:557    .text.I2C_SendWord:000000000000004a .L29
C:\Users\liukai\AppData\Local\Temp\ccrBK0vc.s:568    .text.I2C_SendWord:0000000000000060 .L30
C:\Users\liukai\AppData\Local\Temp\ccrBK0vc.s:582    .text.I2C_SendWord:000000000000007a .L31
C:\Users\liukai\AppData\Local\Temp\ccrBK0vc.s:592    .text.I2C_SendWord:0000000000000086 .L32
C:\Users\liukai\AppData\Local\Temp\ccrBK0vc.s:610    .text.I2C_SendWord:00000000000000a6 .L33
C:\Users\liukai\AppData\Local\Temp\ccrBK0vc.s:620    .text.I2C_SendWord:00000000000000b2 .L34
C:\Users\liukai\AppData\Local\Temp\ccrBK0vc.s:638    .text.I2C_SendWord:00000000000000d2 .L35
C:\Users\liukai\AppData\Local\Temp\ccrBK0vc.s:648    .text.I2C_SendWord:00000000000000de .L36
C:\Users\liukai\AppData\Local\Temp\ccrBK0vc.s:671    .text.I2C_SendWord:0000000000000110 .L37
C:\Users\liukai\AppData\Local\Temp\ccrBK0vc.s:681    .text.I2C_SendWord:000000000000011c .L38
C:\Users\liukai\AppData\Local\Temp\ccrBK0vc.s:691    .text.I2C_SendWord:000000000000012a .L39
C:\Users\liukai\AppData\Local\Temp\ccrBK0vc.s:757    .text.I2C_ReceiveWord:0000000000000046 .L41
C:\Users\liukai\AppData\Local\Temp\ccrBK0vc.s:767    .text.I2C_ReceiveWord:0000000000000052 .L42
C:\Users\liukai\AppData\Local\Temp\ccrBK0vc.s:785    .text.I2C_ReceiveWord:0000000000000072 .L43
C:\Users\liukai\AppData\Local\Temp\ccrBK0vc.s:795    .text.I2C_ReceiveWord:000000000000007e .L44
C:\Users\liukai\AppData\Local\Temp\ccrBK0vc.s:818    .text.I2C_ReceiveWord:00000000000000a8 .L45
C:\Users\liukai\AppData\Local\Temp\ccrBK0vc.s:828    .text.I2C_ReceiveWord:00000000000000b4 .L46
C:\Users\liukai\AppData\Local\Temp\ccrBK0vc.s:842    .text.I2C_ReceiveWord:00000000000000cc .L47
C:\Users\liukai\AppData\Local\Temp\ccrBK0vc.s:864    .text.I2C_ReceiveWord:00000000000000f6 .L48
C:\Users\liukai\AppData\Local\Temp\ccrBK0vc.s:898    .text.I2C_ReceiveWord:000000000000013a .L49
C:\Users\liukai\AppData\Local\Temp\ccrBK0vc.s:913    .text.I2C_ReceiveWord:0000000000000158 .L50
C:\Users\liukai\AppData\Local\Temp\ccrBK0vc.s:967    .text.I2C_SendArray:0000000000000042 .L53
C:\Users\liukai\AppData\Local\Temp\ccrBK0vc.s:977    .text.I2C_SendArray:000000000000004e .L54
C:\Users\liukai\AppData\Local\Temp\ccrBK0vc.s:995    .text.I2C_SendArray:000000000000006e .L55
C:\Users\liukai\AppData\Local\Temp\ccrBK0vc.s:1005   .text.I2C_SendArray:000000000000007a .L56
C:\Users\liukai\AppData\Local\Temp\ccrBK0vc.s:1061   .text.I2C_SendArray:00000000000000dc .L57
C:\Users\liukai\AppData\Local\Temp\ccrBK0vc.s:1032   .text.I2C_SendArray:00000000000000a6 .L58
C:\Users\liukai\AppData\Local\Temp\ccrBK0vc.s:1042   .text.I2C_SendArray:00000000000000b2 .L59
C:\Users\liukai\AppData\Local\Temp\ccrBK0vc.s:1018   .text.I2C_SendArray:000000000000008c .L60
C:\Users\liukai\AppData\Local\Temp\ccrBK0vc.s:1084   .text.I2C_SendArray:000000000000010c .L61
C:\Users\liukai\AppData\Local\Temp\ccrBK0vc.s:1094   .text.I2C_SendArray:0000000000000118 .L62
C:\Users\liukai\AppData\Local\Temp\ccrBK0vc.s:1104   .text.I2C_SendArray:0000000000000126 .L63
C:\Users\liukai\AppData\Local\Temp\ccrBK0vc.s:1166   .text.I2C_ReceiveArray:0000000000000042 .L65
C:\Users\liukai\AppData\Local\Temp\ccrBK0vc.s:1176   .text.I2C_ReceiveArray:000000000000004e .L66
C:\Users\liukai\AppData\Local\Temp\ccrBK0vc.s:1194   .text.I2C_ReceiveArray:000000000000006e .L67
C:\Users\liukai\AppData\Local\Temp\ccrBK0vc.s:1204   .text.I2C_ReceiveArray:000000000000007a .L68
C:\Users\liukai\AppData\Local\Temp\ccrBK0vc.s:1227   .text.I2C_ReceiveArray:00000000000000a4 .L69
C:\Users\liukai\AppData\Local\Temp\ccrBK0vc.s:1237   .text.I2C_ReceiveArray:00000000000000b0 .L70
C:\Users\liukai\AppData\Local\Temp\ccrBK0vc.s:1284   .text.I2C_ReceiveArray:0000000000000108 .L71
C:\Users\liukai\AppData\Local\Temp\ccrBK0vc.s:1257   .text.I2C_ReceiveArray:00000000000000ce .L72
C:\Users\liukai\AppData\Local\Temp\ccrBK0vc.s:1250   .text.I2C_ReceiveArray:00000000000000c2 .L73
C:\Users\liukai\AppData\Local\Temp\ccrBK0vc.s:1298   .text.I2C_ReceiveArray:0000000000000122 .L74
C:\Users\liukai\AppData\Local\Temp\ccrBK0vc.s:1379   .text.I2C_SendBytes:0000000000000064 .L77
C:\Users\liukai\AppData\Local\Temp\ccrBK0vc.s:1357   .text.I2C_SendBytes:0000000000000026 .L78
C:\Users\liukai\AppData\Local\Temp\ccrBK0vc.s:1449   .text.I2C_ReadBytes:000000000000006a .L80
C:\Users\liukai\AppData\Local\Temp\ccrBK0vc.s:1425   .text.I2C_ReadBytes:0000000000000028 .L81
C:\Users\liukai\AppData\Local\Temp\ccrBK0vc.s:3564   .debug_abbrev:0000000000000000 .Ldebug_abbrev0
C:\Users\liukai\AppData\Local\Temp\ccrBK0vc.s:8275   .debug_str:00000000000018ee .LASF1132
C:\Users\liukai\AppData\Local\Temp\ccrBK0vc.s:9931   .debug_str:00000000000071ee .LASF1133
C:\Users\liukai\AppData\Local\Temp\ccrBK0vc.s:9023   .debug_str:00000000000042da .LASF1134
C:\Users\liukai\AppData\Local\Temp\ccrBK0vc.s:4359   .debug_ranges:0000000000000000 .Ldebug_ranges0
C:\Users\liukai\AppData\Local\Temp\ccrBK0vc.s:7775   .debug_line:0000000000000000 .Ldebug_line0
C:\Users\liukai\AppData\Local\Temp\ccrBK0vc.s:4393   .debug_macro:0000000000000000 .Ldebug_macro0
C:\Users\liukai\AppData\Local\Temp\ccrBK0vc.s:9001   .debug_str:00000000000041ca .LASF963
C:\Users\liukai\AppData\Local\Temp\ccrBK0vc.s:9485   .debug_str:0000000000005946 .LASF966
C:\Users\liukai\AppData\Local\Temp\ccrBK0vc.s:9203   .debug_str:0000000000004ad4 .LASF964
C:\Users\liukai\AppData\Local\Temp\ccrBK0vc.s:9637   .debug_str:00000000000061fb .LASF965
C:\Users\liukai\AppData\Local\Temp\ccrBK0vc.s:8469   .debug_str:000000000000253c .LASF967
C:\Users\liukai\AppData\Local\Temp\ccrBK0vc.s:9897   .debug_str:0000000000006fe8 .LASF968
C:\Users\liukai\AppData\Local\Temp\ccrBK0vc.s:9943   .debug_str:0000000000007291 .LASF969
C:\Users\liukai\AppData\Local\Temp\ccrBK0vc.s:8145   .debug_str:00000000000012b3 .LASF970
C:\Users\liukai\AppData\Local\Temp\ccrBK0vc.s:8759   .debug_str:000000000000366f .LASF971
C:\Users\liukai\AppData\Local\Temp\ccrBK0vc.s:8743   .debug_str:00000000000035ce .LASF972
C:\Users\liukai\AppData\Local\Temp\ccrBK0vc.s:9837   .debug_str:0000000000006cda .LASF973
C:\Users\liukai\AppData\Local\Temp\ccrBK0vc.s:9385   .debug_str:0000000000005403 .LASF974
C:\Users\liukai\AppData\Local\Temp\ccrBK0vc.s:9067   .debug_str:00000000000044f4 .LASF975
C:\Users\liukai\AppData\Local\Temp\ccrBK0vc.s:8281   .debug_str:00000000000019f9 .LASF976
C:\Users\liukai\AppData\Local\Temp\ccrBK0vc.s:9401   .debug_str:00000000000054e7 .LASF977
C:\Users\liukai\AppData\Local\Temp\ccrBK0vc.s:8793   .debug_str:0000000000003845 .LASF978
C:\Users\liukai\AppData\Local\Temp\ccrBK0vc.s:9841   .debug_str:0000000000006d02 .LASF979
C:\Users\liukai\AppData\Local\Temp\ccrBK0vc.s:9267   .debug_str:0000000000004dd3 .LASF980
C:\Users\liukai\AppData\Local\Temp\ccrBK0vc.s:9789   .debug_str:0000000000006ac6 .LASF981
C:\Users\liukai\AppData\Local\Temp\ccrBK0vc.s:8649   .debug_str:000000000000303a .LASF1088
C:\Users\liukai\AppData\Local\Temp\ccrBK0vc.s:9875   .debug_str:0000000000006e9e .LASF982
C:\Users\liukai\AppData\Local\Temp\ccrBK0vc.s:9863   .debug_str:0000000000006e24 .LASF983
C:\Users\liukai\AppData\Local\Temp\ccrBK0vc.s:7801   .debug_str:000000000000014a .LASF984
C:\Users\liukai\AppData\Local\Temp\ccrBK0vc.s:9517   .debug_str:0000000000005b08 .LASF985
C:\Users\liukai\AppData\Local\Temp\ccrBK0vc.s:8107   .debug_str:000000000000102b .LASF986
C:\Users\liukai\AppData\Local\Temp\ccrBK0vc.s:9339   .debug_str:0000000000005170 .LASF987
C:\Users\liukai\AppData\Local\Temp\ccrBK0vc.s:9217   .debug_str:0000000000004b8a .LASF988
C:\Users\liukai\AppData\Local\Temp\ccrBK0vc.s:7813   .debug_str:00000000000001bd .LASF989
C:\Users\liukai\AppData\Local\Temp\ccrBK0vc.s:9017   .debug_str:00000000000042a9 .LASF990
C:\Users\liukai\AppData\Local\Temp\ccrBK0vc.s:9489   .debug_str:000000000000595b .LASF991
C:\Users\liukai\AppData\Local\Temp\ccrBK0vc.s:9823   .debug_str:0000000000006c29 .LASF992
C:\Users\liukai\AppData\Local\Temp\ccrBK0vc.s:8853   .debug_str:0000000000003b00 .LASF997
C:\Users\liukai\AppData\Local\Temp\ccrBK0vc.s:9529   .debug_str:0000000000005bc3 .LASF993
C:\Users\liukai\AppData\Local\Temp\ccrBK0vc.s:9701   .debug_str:0000000000006652 .LASF994
C:\Users\liukai\AppData\Local\Temp\ccrBK0vc.s:9019   .debug_str:00000000000042b4 .LASF995
C:\Users\liukai\AppData\Local\Temp\ccrBK0vc.s:8637   .debug_str:0000000000002f4a .LASF996
C:\Users\liukai\AppData\Local\Temp\ccrBK0vc.s:7907   .debug_str:0000000000000653 .LASF998
C:\Users\liukai\AppData\Local\Temp\ccrBK0vc.s:7913   .debug_str:000000000000066f .LASF999
C:\Users\liukai\AppData\Local\Temp\ccrBK0vc.s:10022  .debug_str:00000000000078cf .LASF1000
C:\Users\liukai\AppData\Local\Temp\ccrBK0vc.s:9901   .debug_str:0000000000007009 .LASF1001
C:\Users\liukai\AppData\Local\Temp\ccrBK0vc.s:9129   .debug_str:00000000000047fe .LASF1002
C:\Users\liukai\AppData\Local\Temp\ccrBK0vc.s:8231   .debug_str:0000000000001744 .LASF1003
C:\Users\liukai\AppData\Local\Temp\ccrBK0vc.s:9713   .debug_str:00000000000066d3 .LASF1004
C:\Users\liukai\AppData\Local\Temp\ccrBK0vc.s:9911   .debug_str:000000000000709b .LASF1005
C:\Users\liukai\AppData\Local\Temp\ccrBK0vc.s:9273   .debug_str:0000000000004df2 .LASF1006
C:\Users\liukai\AppData\Local\Temp\ccrBK0vc.s:9985   .debug_str:00000000000074b2 .LASF1007
C:\Users\liukai\AppData\Local\Temp\ccrBK0vc.s:8097   .debug_str:0000000000000fc0 .LASF1008
C:\Users\liukai\AppData\Local\Temp\ccrBK0vc.s:9981   .debug_str:00000000000074a1 .LASF1009
C:\Users\liukai\AppData\Local\Temp\ccrBK0vc.s:9407   .debug_str:0000000000005539 .LASF1010
C:\Users\liukai\AppData\Local\Temp\ccrBK0vc.s:8213   .debug_str:0000000000001627 .LASF1011
C:\Users\liukai\AppData\Local\Temp\ccrBK0vc.s:9787   .debug_str:0000000000006abe .LASF1012
C:\Users\liukai\AppData\Local\Temp\ccrBK0vc.s:9187   .debug_str:0000000000004a21 .LASF1013
C:\Users\liukai\AppData\Local\Temp\ccrBK0vc.s:9761   .debug_str:0000000000006997 .LASF1014
C:\Users\liukai\AppData\Local\Temp\ccrBK0vc.s:8435   .debug_str:00000000000023b2 .LASF1015
C:\Users\liukai\AppData\Local\Temp\ccrBK0vc.s:8199   .debug_str:000000000000158f .LASF1016
C:\Users\liukai\AppData\Local\Temp\ccrBK0vc.s:9459   .debug_str:0000000000005798 .LASF1017
C:\Users\liukai\AppData\Local\Temp\ccrBK0vc.s:7947   .debug_str:00000000000008b2 .LASF1018
C:\Users\liukai\AppData\Local\Temp\ccrBK0vc.s:8763   .debug_str:0000000000003698 .LASF1019
C:\Users\liukai\AppData\Local\Temp\ccrBK0vc.s:9169   .debug_str:000000000000496d .LASF1020
C:\Users\liukai\AppData\Local\Temp\ccrBK0vc.s:8109   .debug_str:0000000000001031 .LASF1021
C:\Users\liukai\AppData\Local\Temp\ccrBK0vc.s:9757   .debug_str:000000000000697a .LASF1022
C:\Users\liukai\AppData\Local\Temp\ccrBK0vc.s:8629   .debug_str:0000000000002ed7 .LASF1023
C:\Users\liukai\AppData\Local\Temp\ccrBK0vc.s:7829   .debug_str:000000000000026a .LASF1024
C:\Users\liukai\AppData\Local\Temp\ccrBK0vc.s:7967   .debug_str:00000000000009cc .LASF1025
C:\Users\liukai\AppData\Local\Temp\ccrBK0vc.s:9317   .debug_str:000000000000508f .LASF1026
C:\Users\liukai\AppData\Local\Temp\ccrBK0vc.s:8449   .debug_str:0000000000002462 .LASF1027
C:\Users\liukai\AppData\Local\Temp\ccrBK0vc.s:9141   .debug_str:000000000000485c .LASF1028
C:\Users\liukai\AppData\Local\Temp\ccrBK0vc.s:7911   .debug_str:0000000000000669 .LASF1029
C:\Users\liukai\AppData\Local\Temp\ccrBK0vc.s:9443   .debug_str:00000000000056c6 .LASF1030
C:\Users\liukai\AppData\Local\Temp\ccrBK0vc.s:8671   .debug_str:00000000000031d1 .LASF1031
C:\Users\liukai\AppData\Local\Temp\ccrBK0vc.s:9533   .debug_str:0000000000005be3 .LASF1032
C:\Users\liukai\AppData\Local\Temp\ccrBK0vc.s:7959   .debug_str:0000000000000961 .LASF1033
C:\Users\liukai\AppData\Local\Temp\ccrBK0vc.s:9157   .debug_str:00000000000048f9 .LASF1034
C:\Users\liukai\AppData\Local\Temp\ccrBK0vc.s:9059   .debug_str:000000000000449f .LASF1035
C:\Users\liukai\AppData\Local\Temp\ccrBK0vc.s:8383   .debug_str:00000000000020f8 .LASF1036
C:\Users\liukai\AppData\Local\Temp\ccrBK0vc.s:8803   .debug_str:00000000000038ab .LASF1037
C:\Users\liukai\AppData\Local\Temp\ccrBK0vc.s:8491   .debug_str:00000000000026a2 .LASF1038
C:\Users\liukai\AppData\Local\Temp\ccrBK0vc.s:9423   .debug_str:00000000000055d9 .LASF1039
C:\Users\liukai\AppData\Local\Temp\ccrBK0vc.s:9145   .debug_str:000000000000488f .LASF1040
C:\Users\liukai\AppData\Local\Temp\ccrBK0vc.s:8411   .debug_str:0000000000002272 .LASF1041
C:\Users\liukai\AppData\Local\Temp\ccrBK0vc.s:8909   .debug_str:0000000000003dd5 .LASF1042
C:\Users\liukai\AppData\Local\Temp\ccrBK0vc.s:8367   .debug_str:0000000000001fab .LASF1043
C:\Users\liukai\AppData\Local\Temp\ccrBK0vc.s:9821   .debug_str:0000000000006c21 .LASF1044
C:\Users\liukai\AppData\Local\Temp\ccrBK0vc.s:8765   .debug_str:00000000000036a0 .LASF1045
C:\Users\liukai\AppData\Local\Temp\ccrBK0vc.s:8881   .debug_str:0000000000003c50 .LASF1046
C:\Users\liukai\AppData\Local\Temp\ccrBK0vc.s:9849   .debug_str:0000000000006d50 .LASF1047
C:\Users\liukai\AppData\Local\Temp\ccrBK0vc.s:8159   .debug_str:0000000000001377 .LASF1048
C:\Users\liukai\AppData\Local\Temp\ccrBK0vc.s:8741   .debug_str:00000000000035c9 .LASF1049
C:\Users\liukai\AppData\Local\Temp\ccrBK0vc.s:9007   .debug_str:0000000000004230 .LASF1050
C:\Users\liukai\AppData\Local\Temp\ccrBK0vc.s:7873   .debug_str:000000000000047b .LASF1051
C:\Users\liukai\AppData\Local\Temp\ccrBK0vc.s:7851   .debug_str:0000000000000369 .LASF1052
C:\Users\liukai\AppData\Local\Temp\ccrBK0vc.s:9137   .debug_str:000000000000483d .LASF1053
C:\Users\liukai\AppData\Local\Temp\ccrBK0vc.s:8883   .debug_str:0000000000003c5a .LASF1054
C:\Users\liukai\AppData\Local\Temp\ccrBK0vc.s:8655   .debug_str:000000000000306a .LASF1055
C:\Users\liukai\AppData\Local\Temp\ccrBK0vc.s:9971   .debug_str:000000000000743d .LASF1056
C:\Users\liukai\AppData\Local\Temp\ccrBK0vc.s:7817   .debug_str:00000000000001d8 .LASF1057
C:\Users\liukai\AppData\Local\Temp\ccrBK0vc.s:8425   .debug_str:0000000000002320 .LASF357
C:\Users\liukai\AppData\Local\Temp\ccrBK0vc.s:9493   .debug_str:0000000000005997 .LASF1058
C:\Users\liukai\AppData\Local\Temp\ccrBK0vc.s:9015   .debug_str:00000000000042a3 .LASF1059
C:\Users\liukai\AppData\Local\Temp\ccrBK0vc.s:8939   .debug_str:0000000000003ef4 .LASF1060
C:\Users\liukai\AppData\Local\Temp\ccrBK0vc.s:8683   .debug_str:0000000000003251 .LASF1061
C:\Users\liukai\AppData\Local\Temp\ccrBK0vc.s:9415   .debug_str:0000000000005584 .LASF1062
C:\Users\liukai\AppData\Local\Temp\ccrBK0vc.s:9305   .debug_str:0000000000004ff3 .LASF1063
C:\Users\liukai\AppData\Local\Temp\ccrBK0vc.s:7995   .debug_str:0000000000000aea .LASF1064
C:\Users\liukai\AppData\Local\Temp\ccrBK0vc.s:9891   .debug_str:0000000000006f6e .LASF1065
C:\Users\liukai\AppData\Local\Temp\ccrBK0vc.s:8271   .debug_str:00000000000018ce .LASF1066
C:\Users\liukai\AppData\Local\Temp\ccrBK0vc.s:9469   .debug_str:000000000000587e .LASF1067
C:\Users\liukai\AppData\Local\Temp\ccrBK0vc.s:7869   .debug_str:0000000000000457 .LASF1068
C:\Users\liukai\AppData\Local\Temp\ccrBK0vc.s:8191   .debug_str:0000000000001535 .LASF1069
C:\Users\liukai\AppData\Local\Temp\ccrBK0vc.s:8973   .debug_str:0000000000004083 .LASF1070
C:\Users\liukai\AppData\Local\Temp\ccrBK0vc.s:9165   .debug_str:000000000000494b .LASF1071
C:\Users\liukai\AppData\Local\Temp\ccrBK0vc.s:9511   .debug_str:0000000000005abc .LASF1072
C:\Users\liukai\AppData\Local\Temp\ccrBK0vc.s:9635   .debug_str:00000000000061ee .LASF1073
C:\Users\liukai\AppData\Local\Temp\ccrBK0vc.s:9353   .debug_str:000000000000526d .LASF1074
C:\Users\liukai\AppData\Local\Temp\ccrBK0vc.s:9153   .debug_str:00000000000048d1 .LASF1075
C:\Users\liukai\AppData\Local\Temp\ccrBK0vc.s:7923   .debug_str:00000000000006e8 .LASF1076
C:\Users\liukai\AppData\Local\Temp\ccrBK0vc.s:8821   .debug_str:00000000000039c6 .LASF1077
C:\Users\liukai\AppData\Local\Temp\ccrBK0vc.s:10028  .debug_str:0000000000007910 .LASF1078
C:\Users\liukai\AppData\Local\Temp\ccrBK0vc.s:8143   .debug_str:00000000000012a5 .LASF1079
C:\Users\liukai\AppData\Local\Temp\ccrBK0vc.s:9479   .debug_str:0000000000005916 .LASF1080
C:\Users\liukai\AppData\Local\Temp\ccrBK0vc.s:9929   .debug_str:00000000000071dd .LASF1081
C:\Users\liukai\AppData\Local\Temp\ccrBK0vc.s:9121   .debug_str:00000000000047b2 .LASF1082
C:\Users\liukai\AppData\Local\Temp\ccrBK0vc.s:7909   .debug_str:0000000000000658 .LASF1083
C:\Users\liukai\AppData\Local\Temp\ccrBK0vc.s:9095   .debug_str:000000000000466d .LASF1084
C:\Users\liukai\AppData\Local\Temp\ccrBK0vc.s:9795   .debug_str:0000000000006b05 .LASF1085
C:\Users\liukai\AppData\Local\Temp\ccrBK0vc.s:8959   .debug_str:0000000000004004 .LASF1086
C:\Users\liukai\AppData\Local\Temp\ccrBK0vc.s:8831   .debug_str:0000000000003a14 .LASF1087
C:\Users\liukai\AppData\Local\Temp\ccrBK0vc.s:7809   .debug_str:0000000000000199 .LASF1089
C:\Users\liukai\AppData\Local\Temp\ccrBK0vc.s:8153   .debug_str:0000000000001329 .LASF1090
C:\Users\liukai\AppData\Local\Temp\ccrBK0vc.s:8389   .debug_str:0000000000002174 .LASF1091
C:\Users\liukai\AppData\Local\Temp\ccrBK0vc.s:8501   .debug_str:00000000000027d7 .LASF1092
C:\Users\liukai\AppData\Local\Temp\ccrBK0vc.s:8987   .debug_str:0000000000004129 .LASF1093
C:\Users\liukai\AppData\Local\Temp\ccrBK0vc.s:9481   .debug_str:0000000000005925 .LASF1094
C:\Users\liukai\AppData\Local\Temp\ccrBK0vc.s:10036  .debug_str:0000000000007970 .LASF1095
C:\Users\liukai\AppData\Local\Temp\ccrBK0vc.s:1502   .text.I2C_InterruptClose:0000000000000000 .LFB17
C:\Users\liukai\AppData\Local\Temp\ccrBK0vc.s:1526   .text.I2C_InterruptClose:0000000000000022 .LFE17
C:\Users\liukai\AppData\Local\Temp\ccrBK0vc.s:8423   .debug_str:000000000000231b .LASF1097
C:\Users\liukai\AppData\Local\Temp\ccrBK0vc.s:9835   .debug_str:0000000000006cc8 .LASF1096
C:\Users\liukai\AppData\Local\Temp\ccrBK0vc.s:1473   .text.I2C_InterruptOpen:0000000000000000 .LFB16
C:\Users\liukai\AppData\Local\Temp\ccrBK0vc.s:1495   .text.I2C_InterruptOpen:000000000000001c .LFE16
C:\Users\liukai\AppData\Local\Temp\ccrBK0vc.s:9377   .debug_str:00000000000053bb .LASF1098
C:\Users\liukai\AppData\Local\Temp\ccrBK0vc.s:1401   .text.I2C_ReadBytes:0000000000000000 .LFB15
C:\Users\liukai\AppData\Local\Temp\ccrBK0vc.s:1466   .text.I2C_ReadBytes:0000000000000082 .LFE15
C:\Users\liukai\AppData\Local\Temp\ccrBK0vc.s:9199   .debug_str:0000000000004ab9 .LASF1099
C:\Users\liukai\AppData\Local\Temp\ccrBK0vc.s:9865   .debug_str:0000000000006e2c .LASF1100
C:\Users\liukai\AppData\Local\Temp\ccrBK0vc.s:8239   .debug_str:0000000000001785 .LASF1101
C:\Users\liukai\AppData\Local\Temp\ccrBK0vc.s:9227   .debug_str:0000000000004c12 .LASF1102
C:\Users\liukai\AppData\Local\Temp\ccrBK0vc.s:8641   .debug_str:0000000000002f68 .LASF1103
C:\Users\liukai\AppData\Local\Temp\ccrBK0vc.s:1335   .text.I2C_SendBytes:0000000000000000 .LFB14
C:\Users\liukai\AppData\Local\Temp\ccrBK0vc.s:1394   .text.I2C_SendBytes:000000000000007a .LFE14
C:\Users\liukai\AppData\Local\Temp\ccrBK0vc.s:8653   .debug_str:0000000000003059 .LASF1104
C:\Users\liukai\AppData\Local\Temp\ccrBK0vc.s:1132   .text.I2C_ReceiveArray:0000000000000000 .LFB13
C:\Users\liukai\AppData\Local\Temp\ccrBK0vc.s:1328   .text.I2C_ReceiveArray:0000000000000152 .LFE13
C:\Users\liukai\AppData\Local\Temp\ccrBK0vc.s:7987   .debug_str:0000000000000a9e .LASF1105
C:\Users\liukai\AppData\Local\Temp\ccrBK0vc.s:9245   .debug_str:0000000000004ce9 .LASF1106
C:\Users\liukai\AppData\Local\Temp\ccrBK0vc.s:7925   .debug_str:00000000000006f2 .LASF1107
C:\Users\liukai\AppData\Local\Temp\ccrBK0vc.s:8707   .debug_str:00000000000033b8 .LASF1108
C:\Users\liukai\AppData\Local\Temp\ccrBK0vc.s:9367   .debug_str:0000000000005320 .LASF1109
C:\Users\liukai\AppData\Local\Temp\ccrBK0vc.s:1245   .text.I2C_ReceiveArray:00000000000000bc .LBB3
C:\Users\liukai\AppData\Local\Temp\ccrBK0vc.s:1291   .text.I2C_ReceiveArray:0000000000000116 .LBE3
C:\Users\liukai\AppData\Local\Temp\ccrBK0vc.s:9271   .debug_str:0000000000004de4 .LASF1110
C:\Users\liukai\AppData\Local\Temp\ccrBK0vc.s:933    .text.I2C_SendArray:0000000000000000 .LFB12
C:\Users\liukai\AppData\Local\Temp\ccrBK0vc.s:1125   .text.I2C_SendArray:0000000000000146 .LFE12
C:\Users\liukai\AppData\Local\Temp\ccrBK0vc.s:8513   .debug_str:0000000000002852 .LASF1111
C:\Users\liukai\AppData\Local\Temp\ccrBK0vc.s:9607   .debug_str:0000000000005ff3 .LASF1112
C:\Users\liukai\AppData\Local\Temp\ccrBK0vc.s:9321   .debug_str:00000000000050af .LASF1113
C:\Users\liukai\AppData\Local\Temp\ccrBK0vc.s:8745   .debug_str:00000000000035e0 .LASF1114
C:\Users\liukai\AppData\Local\Temp\ccrBK0vc.s:1013   .text.I2C_SendArray:0000000000000086 .LBB2
C:\Users\liukai\AppData\Local\Temp\ccrBK0vc.s:1068   .text.I2C_SendArray:00000000000000ea .LBE2
C:\Users\liukai\AppData\Local\Temp\ccrBK0vc.s:8867   .debug_str:0000000000003bbf .LASF1121
C:\Users\liukai\AppData\Local\Temp\ccrBK0vc.s:719    .text.I2C_ReceiveWord:0000000000000000 .LFB11
C:\Users\liukai\AppData\Local\Temp\ccrBK0vc.s:926    .text.I2C_ReceiveWord:0000000000000166 .LFE11
C:\Users\liukai\AppData\Local\Temp\ccrBK0vc.s:8185   .debug_str:00000000000014f0 .LASF1115
C:\Users\liukai\AppData\Local\Temp\ccrBK0vc.s:7927   .debug_str:0000000000000701 .LASF1116
C:\Users\liukai\AppData\Local\Temp\ccrBK0vc.s:8923   .debug_str:0000000000003e70 .LASF1117
C:\Users\liukai\AppData\Local\Temp\ccrBK0vc.s:7953   .debug_str:0000000000000924 .LASF1118
C:\Users\liukai\AppData\Local\Temp\ccrBK0vc.s:519    .text.I2C_SendWord:0000000000000000 .LFB10
C:\Users\liukai\AppData\Local\Temp\ccrBK0vc.s:712    .text.I2C_SendWord:000000000000014a .LFE10
C:\Users\liukai\AppData\Local\Temp\ccrBK0vc.s:9301   .debug_str:0000000000004fe7 .LASF1119
C:\Users\liukai\AppData\Local\Temp\ccrBK0vc.s:9303   .debug_str:0000000000004fed .LASF1120
C:\Users\liukai\AppData\Local\Temp\ccrBK0vc.s:9927   .debug_str:00000000000071cd .LASF1122
C:\Users\liukai\AppData\Local\Temp\ccrBK0vc.s:367    .text.I2C_ReceiveByte:0000000000000000 .LFB9
C:\Users\liukai\AppData\Local\Temp\ccrBK0vc.s:512    .text.I2C_ReceiveByte:00000000000000ea .LFE9
C:\Users\liukai\AppData\Local\Temp\ccrBK0vc.s:9045   .debug_str:00000000000043f8 .LASF1123
C:\Users\liukai\AppData\Local\Temp\ccrBK0vc.s:229    .text.I2C_SendByte:0000000000000000 .LFB8
C:\Users\liukai\AppData\Local\Temp\ccrBK0vc.s:360    .text.I2C_SendByte:00000000000000d4 .LFE8
C:\Users\liukai\AppData\Local\Temp\ccrBK0vc.s:7865   .debug_str:0000000000000437 .LASF1124
C:\Users\liukai\AppData\Local\Temp\ccrBK0vc.s:167    .text.I2C_Init:0000000000000000 .LFB7
C:\Users\liukai\AppData\Local\Temp\ccrBK0vc.s:222    .text.I2C_Init:0000000000000060 .LFE7
C:\Users\liukai\AppData\Local\Temp\ccrBK0vc.s:9801   .debug_str:0000000000006b2c .LASF1125
C:\Users\liukai\AppData\Local\Temp\ccrBK0vc.s:10008  .debug_str:00000000000077fb .LASF1126
C:\Users\liukai\AppData\Local\Temp\ccrBK0vc.s:7973   .debug_str:00000000000009f6 .LASF1127
C:\Users\liukai\AppData\Local\Temp\ccrBK0vc.s:116    .text.I2C_Rate_Set:0000000000000000 .LFB6
C:\Users\liukai\AppData\Local\Temp\ccrBK0vc.s:160    .text.I2C_Rate_Set:000000000000004e .LFE6
C:\Users\liukai\AppData\Local\Temp\ccrBK0vc.s:9955   .debug_str:0000000000007397 .LASF1128
C:\Users\liukai\AppData\Local\Temp\ccrBK0vc.s:9653   .debug_str:00000000000062d8 .LASF1129
C:\Users\liukai\AppData\Local\Temp\ccrBK0vc.s:85     .text.I2C_Enable:0000000000000000 .LFB5
C:\Users\liukai\AppData\Local\Temp\ccrBK0vc.s:109    .text.I2C_Enable:0000000000000022 .LFE5
C:\Users\liukai\AppData\Local\Temp\ccrBK0vc.s:9905   .debug_str:0000000000007052 .LASF1130
C:\Users\liukai\AppData\Local\Temp\ccrBK0vc.s:56     .text.I2C_Disable:0000000000000000 .LFB4
C:\Users\liukai\AppData\Local\Temp\ccrBK0vc.s:78     .text.I2C_Disable:000000000000001c .LFE4
C:\Users\liukai\AppData\Local\Temp\ccrBK0vc.s:8925   .debug_str:0000000000003e76 .LASF1135
C:\Users\liukai\AppData\Local\Temp\ccrBK0vc.s:11     .text.Delay_ms_i2c:0000000000000000 .LFB3
C:\Users\liukai\AppData\Local\Temp\ccrBK0vc.s:49     .text.Delay_ms_i2c:0000000000000036 .LFE3
C:\Users\liukai\AppData\Local\Temp\ccrBK0vc.s:8391   .debug_str:0000000000002187 .LASF1131
C:\Users\liukai\AppData\Local\Temp\ccrBK0vc.s:1538   .debug_info:0000000000000000 .Ldebug_info0
C:\Users\liukai\AppData\Local\Temp\ccrBK0vc.s:4717   .debug_macro:0000000000000000 .Ldebug_macro2
C:\Users\liukai\AppData\Local\Temp\ccrBK0vc.s:9741   .debug_str:00000000000068a8 .LASF311
C:\Users\liukai\AppData\Local\Temp\ccrBK0vc.s:9057   .debug_str:0000000000004493 .LASF312
C:\Users\liukai\AppData\Local\Temp\ccrBK0vc.s:8319   .debug_str:0000000000001c96 .LASF313
C:\Users\liukai\AppData\Local\Temp\ccrBK0vc.s:9235   .debug_str:0000000000004c7c .LASF314
C:\Users\liukai\AppData\Local\Temp\ccrBK0vc.s:8409   .debug_str:0000000000002261 .LASF315
C:\Users\liukai\AppData\Local\Temp\ccrBK0vc.s:5655   .debug_macro:0000000000000000 .Ldebug_macro3
C:\Users\liukai\AppData\Local\Temp\ccrBK0vc.s:5675   .debug_macro:0000000000000000 .Ldebug_macro4
C:\Users\liukai\AppData\Local\Temp\ccrBK0vc.s:5740   .debug_macro:0000000000000000 .Ldebug_macro5
C:\Users\liukai\AppData\Local\Temp\ccrBK0vc.s:5781   .debug_macro:0000000000000000 .Ldebug_macro6
C:\Users\liukai\AppData\Local\Temp\ccrBK0vc.s:5897   .debug_macro:0000000000000000 .Ldebug_macro7
C:\Users\liukai\AppData\Local\Temp\ccrBK0vc.s:5953   .debug_macro:0000000000000000 .Ldebug_macro8
C:\Users\liukai\AppData\Local\Temp\ccrBK0vc.s:9487   .debug_str:0000000000005950 .LASF468
C:\Users\liukai\AppData\Local\Temp\ccrBK0vc.s:9039   .debug_str:00000000000043ca .LASF469
C:\Users\liukai\AppData\Local\Temp\ccrBK0vc.s:6165   .debug_macro:0000000000000000 .Ldebug_macro9
C:\Users\liukai\AppData\Local\Temp\ccrBK0vc.s:8965   .debug_str:000000000000402f .LASF484
C:\Users\liukai\AppData\Local\Temp\ccrBK0vc.s:6212   .debug_macro:0000000000000000 .Ldebug_macro10
C:\Users\liukai\AppData\Local\Temp\ccrBK0vc.s:6226   .debug_macro:0000000000000000 .Ldebug_macro11
C:\Users\liukai\AppData\Local\Temp\ccrBK0vc.s:6252   .debug_macro:0000000000000000 .Ldebug_macro12
C:\Users\liukai\AppData\Local\Temp\ccrBK0vc.s:6281   .debug_macro:0000000000000000 .Ldebug_macro13
C:\Users\liukai\AppData\Local\Temp\ccrBK0vc.s:7993   .debug_str:0000000000000adb .LASF506
C:\Users\liukai\AppData\Local\Temp\ccrBK0vc.s:6295   .debug_macro:0000000000000000 .Ldebug_macro14
C:\Users\liukai\AppData\Local\Temp\ccrBK0vc.s:6363   .debug_macro:0000000000000000 .Ldebug_macro15
C:\Users\liukai\AppData\Local\Temp\ccrBK0vc.s:6728   .debug_macro:0000000000000000 .Ldebug_macro16
C:\Users\liukai\AppData\Local\Temp\ccrBK0vc.s:8467   .debug_str:000000000000252a .LASF680
C:\Users\liukai\AppData\Local\Temp\ccrBK0vc.s:6841   .debug_macro:0000000000000000 .Ldebug_macro17
C:\Users\liukai\AppData\Local\Temp\ccrBK0vc.s:8587   .debug_str:0000000000002c4e .LASF683
C:\Users\liukai\AppData\Local\Temp\ccrBK0vc.s:9105   .debug_str:00000000000046d3 .LASF684
C:\Users\liukai\AppData\Local\Temp\ccrBK0vc.s:9781   .debug_str:0000000000006a7f .LASF685
C:\Users\liukai\AppData\Local\Temp\ccrBK0vc.s:9779   .debug_str:0000000000006a6c .LASF686
C:\Users\liukai\AppData\Local\Temp\ccrBK0vc.s:6852   .debug_macro:0000000000000000 .Ldebug_macro18
C:\Users\liukai\AppData\Local\Temp\ccrBK0vc.s:6899   .debug_macro:0000000000000000 .Ldebug_macro19
C:\Users\liukai\AppData\Local\Temp\ccrBK0vc.s:6916   .debug_macro:0000000000000000 .Ldebug_macro20
C:\Users\liukai\AppData\Local\Temp\ccrBK0vc.s:6948   .debug_macro:0000000000000000 .Ldebug_macro21
C:\Users\liukai\AppData\Local\Temp\ccrBK0vc.s:6965   .debug_macro:0000000000000000 .Ldebug_macro22
C:\Users\liukai\AppData\Local\Temp\ccrBK0vc.s:7141   .debug_macro:0000000000000000 .Ldebug_macro23
C:\Users\liukai\AppData\Local\Temp\ccrBK0vc.s:9433   .debug_str:0000000000005659 .LASF769
C:\Users\liukai\AppData\Local\Temp\ccrBK0vc.s:7152   .debug_macro:0000000000000000 .Ldebug_macro24
C:\Users\liukai\AppData\Local\Temp\ccrBK0vc.s:7169   .debug_macro:0000000000000000 .Ldebug_macro25
C:\Users\liukai\AppData\Local\Temp\ccrBK0vc.s:8955   .debug_str:0000000000003fc0 .LASF787
C:\Users\liukai\AppData\Local\Temp\ccrBK0vc.s:9605   .debug_str:0000000000005fe2 .LASF788
C:\Users\liukai\AppData\Local\Temp\ccrBK0vc.s:7213   .debug_macro:0000000000000000 .Ldebug_macro26
C:\Users\liukai\AppData\Local\Temp\ccrBK0vc.s:8025   .debug_str:0000000000000c12 .LASF799
C:\Users\liukai\AppData\Local\Temp\ccrBK0vc.s:9135   .debug_str:000000000000482a .LASF800
C:\Users\liukai\AppData\Local\Temp\ccrBK0vc.s:7248   .debug_macro:0000000000000000 .Ldebug_macro27
C:\Users\liukai\AppData\Local\Temp\ccrBK0vc.s:7259   .debug_macro:0000000000000000 .Ldebug_macro28
C:\Users\liukai\AppData\Local\Temp\ccrBK0vc.s:7294   .debug_macro:0000000000000000 .Ldebug_macro29
C:\Users\liukai\AppData\Local\Temp\ccrBK0vc.s:9975   .debug_str:0000000000007469 .LASF845
C:\Users\liukai\AppData\Local\Temp\ccrBK0vc.s:7395   .debug_macro:0000000000000000 .Ldebug_macro30
C:\Users\liukai\AppData\Local\Temp\ccrBK0vc.s:7412   .debug_macro:0000000000000000 .Ldebug_macro31
C:\Users\liukai\AppData\Local\Temp\ccrBK0vc.s:9473   .debug_str:0000000000005899 .LASF859
C:\Users\liukai\AppData\Local\Temp\ccrBK0vc.s:8399   .debug_str:00000000000021cc .LASF860
C:\Users\liukai\AppData\Local\Temp\ccrBK0vc.s:7444   .debug_macro:0000000000000000 .Ldebug_macro32
C:\Users\liukai\AppData\Local\Temp\ccrBK0vc.s:7458   .debug_macro:0000000000000000 .Ldebug_macro33
C:\Users\liukai\AppData\Local\Temp\ccrBK0vc.s:7628   .debug_macro:0000000000000000 .Ldebug_macro34
C:\Users\liukai\AppData\Local\Temp\ccrBK0vc.s:7648   .debug_macro:0000000000000000 .Ldebug_macro35
C:\Users\liukai\AppData\Local\Temp\ccrBK0vc.s:7725   .debug_macro:0000000000000000 .Ldebug_macro36
C:\Users\liukai\AppData\Local\Temp\ccrBK0vc.s:9133   .debug_str:000000000000481f .LASF0
C:\Users\liukai\AppData\Local\Temp\ccrBK0vc.s:8691   .debug_str:00000000000032a7 .LASF1
C:\Users\liukai\AppData\Local\Temp\ccrBK0vc.s:7905   .debug_str:0000000000000641 .LASF2
C:\Users\liukai\AppData\Local\Temp\ccrBK0vc.s:8339   .debug_str:0000000000001db8 .LASF3
C:\Users\liukai\AppData\Local\Temp\ccrBK0vc.s:8843   .debug_str:0000000000003a9a .LASF4
C:\Users\liukai\AppData\Local\Temp\ccrBK0vc.s:8753   .debug_str:0000000000003633 .LASF5
C:\Users\liukai\AppData\Local\Temp\ccrBK0vc.s:9537   .debug_str:0000000000005c0f .LASF6
C:\Users\liukai\AppData\Local\Temp\ccrBK0vc.s:8301   .debug_str:0000000000001b42 .LASF7
C:\Users\liukai\AppData\Local\Temp\ccrBK0vc.s:9053   .debug_str:0000000000004471 .LASF8
C:\Users\liukai\AppData\Local\Temp\ccrBK0vc.s:9669   .debug_str:00000000000063db .LASF9
C:\Users\liukai\AppData\Local\Temp\ccrBK0vc.s:8359   .debug_str:0000000000001f17 .LASF10
C:\Users\liukai\AppData\Local\Temp\ccrBK0vc.s:9363   .debug_str:00000000000052fc .LASF11
C:\Users\liukai\AppData\Local\Temp\ccrBK0vc.s:8827   .debug_str:00000000000039f5 .LASF12
C:\Users\liukai\AppData\Local\Temp\ccrBK0vc.s:9998   .debug_str:0000000000007771 .LASF13
C:\Users\liukai\AppData\Local\Temp\ccrBK0vc.s:7849   .debug_str:0000000000000356 .LASF14
C:\Users\liukai\AppData\Local\Temp\ccrBK0vc.s:9435   .debug_str:000000000000566f .LASF15
C:\Users\liukai\AppData\Local\Temp\ccrBK0vc.s:9833   .debug_str:0000000000006cb7 .LASF16
C:\Users\liukai\AppData\Local\Temp\ccrBK0vc.s:8329   .debug_str:0000000000001d3a .LASF17
C:\Users\liukai\AppData\Local\Temp\ccrBK0vc.s:7867   .debug_str:0000000000000440 .LASF18
C:\Users\liukai\AppData\Local\Temp\ccrBK0vc.s:8401   .debug_str:00000000000021dc .LASF19
C:\Users\liukai\AppData\Local\Temp\ccrBK0vc.s:9691   .debug_str:00000000000065e8 .LASF20
C:\Users\liukai\AppData\Local\Temp\ccrBK0vc.s:8241   .debug_str:000000000000178a .LASF21
C:\Users\liukai\AppData\Local\Temp\ccrBK0vc.s:9793   .debug_str:0000000000006aeb .LASF22
C:\Users\liukai\AppData\Local\Temp\ccrBK0vc.s:8279   .debug_str:00000000000019e5 .LASF23
C:\Users\liukai\AppData\Local\Temp\ccrBK0vc.s:9101   .debug_str:00000000000046a0 .LASF24
C:\Users\liukai\AppData\Local\Temp\ccrBK0vc.s:8453   .debug_str:0000000000002478 .LASF25
C:\Users\liukai\AppData\Local\Temp\ccrBK0vc.s:9765   .debug_str:00000000000069b0 .LASF26
C:\Users\liukai\AppData\Local\Temp\ccrBK0vc.s:8027   .debug_str:0000000000000c24 .LASF27
C:\Users\liukai\AppData\Local\Temp\ccrBK0vc.s:7891   .debug_str:0000000000000595 .LASF28
C:\Users\liukai\AppData\Local\Temp\ccrBK0vc.s:9033   .debug_str:0000000000004360 .LASF29
C:\Users\liukai\AppData\Local\Temp\ccrBK0vc.s:9143   .debug_str:0000000000004862 .LASF30
C:\Users\liukai\AppData\Local\Temp\ccrBK0vc.s:8187   .debug_str:00000000000014f7 .LASF31
C:\Users\liukai\AppData\Local\Temp\ccrBK0vc.s:7893   .debug_str:00000000000005af .LASF32
C:\Users\liukai\AppData\Local\Temp\ccrBK0vc.s:9393   .debug_str:0000000000005498 .LASF33
C:\Users\liukai\AppData\Local\Temp\ccrBK0vc.s:9035   .debug_str:0000000000004387 .LASF34
C:\Users\liukai\AppData\Local\Temp\ccrBK0vc.s:9047   .debug_str:0000000000004405 .LASF35
C:\Users\liukai\AppData\Local\Temp\ccrBK0vc.s:9549   .debug_str:0000000000005ce5 .LASF36
C:\Users\liukai\AppData\Local\Temp\ccrBK0vc.s:8209   .debug_str:00000000000015ef .LASF37
C:\Users\liukai\AppData\Local\Temp\ccrBK0vc.s:9589   .debug_str:0000000000005efa .LASF38
C:\Users\liukai\AppData\Local\Temp\ccrBK0vc.s:8223   .debug_str:00000000000016c7 .LASF39
C:\Users\liukai\AppData\Local\Temp\ccrBK0vc.s:9509   .debug_str:0000000000005aa4 .LASF40
C:\Users\liukai\AppData\Local\Temp\ccrBK0vc.s:7899   .debug_str:00000000000005f5 .LASF41
C:\Users\liukai\AppData\Local\Temp\ccrBK0vc.s:7917   .debug_str:0000000000000687 .LASF42
C:\Users\liukai\AppData\Local\Temp\ccrBK0vc.s:10002  .debug_str:00000000000077a4 .LASF43
C:\Users\liukai\AppData\Local\Temp\ccrBK0vc.s:8981   .debug_str:00000000000040d5 .LASF44
C:\Users\liukai\AppData\Local\Temp\ccrBK0vc.s:9963   .debug_str:00000000000073e3 .LASF45
C:\Users\liukai\AppData\Local\Temp\ccrBK0vc.s:8755   .debug_str:000000000000363e .LASF46
C:\Users\liukai\AppData\Local\Temp\ccrBK0vc.s:9803   .debug_str:0000000000006b31 .LASF47
C:\Users\liukai\AppData\Local\Temp\ccrBK0vc.s:8277   .debug_str:00000000000019be .LASF48
C:\Users\liukai\AppData\Local\Temp\ccrBK0vc.s:10000  .debug_str:0000000000007784 .LASF49
C:\Users\liukai\AppData\Local\Temp\ccrBK0vc.s:9889   .debug_str:0000000000006f4f .LASF50
C:\Users\liukai\AppData\Local\Temp\ccrBK0vc.s:8841   .debug_str:0000000000003a7c .LASF51
C:\Users\liukai\AppData\Local\Temp\ccrBK0vc.s:8067   .debug_str:0000000000000e15 .LASF52
C:\Users\liukai\AppData\Local\Temp\ccrBK0vc.s:8131   .debug_str:000000000000113c .LASF53
C:\Users\liukai\AppData\Local\Temp\ccrBK0vc.s:9417   .debug_str:000000000000558c .LASF54
C:\Users\liukai\AppData\Local\Temp\ccrBK0vc.s:9541   .debug_str:0000000000005c38 .LASF55
C:\Users\liukai\AppData\Local\Temp\ccrBK0vc.s:8809   .debug_str:0000000000003912 .LASF56
C:\Users\liukai\AppData\Local\Temp\ccrBK0vc.s:8169   .debug_str:0000000000001400 .LASF57
C:\Users\liukai\AppData\Local\Temp\ccrBK0vc.s:9411   .debug_str:0000000000005557 .LASF58
C:\Users\liukai\AppData\Local\Temp\ccrBK0vc.s:8839   .debug_str:0000000000003a64 .LASF59
C:\Users\liukai\AppData\Local\Temp\ccrBK0vc.s:8405   .debug_str:0000000000002202 .LASF60
C:\Users\liukai\AppData\Local\Temp\ccrBK0vc.s:8781   .debug_str:0000000000003750 .LASF61
C:\Users\liukai\AppData\Local\Temp\ccrBK0vc.s:9859   .debug_str:0000000000006deb .LASF62
C:\Users\liukai\AppData\Local\Temp\ccrBK0vc.s:8335   .debug_str:0000000000001d85 .LASF63
C:\Users\liukai\AppData\Local\Temp\ccrBK0vc.s:8441   .debug_str:00000000000023de .LASF64
C:\Users\liukai\AppData\Local\Temp\ccrBK0vc.s:8869   .debug_str:0000000000003bcf .LASF65
C:\Users\liukai\AppData\Local\Temp\ccrBK0vc.s:9591   .debug_str:0000000000005f1d .LASF66
C:\Users\liukai\AppData\Local\Temp\ccrBK0vc.s:8713   .debug_str:00000000000033ef .LASF67
C:\Users\liukai\AppData\Local\Temp\ccrBK0vc.s:8539   .debug_str:00000000000029f7 .LASF68
C:\Users\liukai\AppData\Local\Temp\ccrBK0vc.s:8511   .debug_str:000000000000283b .LASF69
C:\Users\liukai\AppData\Local\Temp\ccrBK0vc.s:9111   .debug_str:000000000000472f .LASF70
C:\Users\liukai\AppData\Local\Temp\ccrBK0vc.s:9389   .debug_str:0000000000005442 .LASF71
C:\Users\liukai\AppData\Local\Temp\ccrBK0vc.s:10044  .debug_str:00000000000079b9 .LASF72
C:\Users\liukai\AppData\Local\Temp\ccrBK0vc.s:9935   .debug_str:000000000000721b .LASF73
C:\Users\liukai\AppData\Local\Temp\ccrBK0vc.s:9263   .debug_str:0000000000004d96 .LASF74
C:\Users\liukai\AppData\Local\Temp\ccrBK0vc.s:8437   .debug_str:00000000000023b7 .LASF75
C:\Users\liukai\AppData\Local\Temp\ccrBK0vc.s:8591   .debug_str:0000000000002caf .LASF76
C:\Users\liukai\AppData\Local\Temp\ccrBK0vc.s:9397   .debug_str:00000000000054be .LASF77
C:\Users\liukai\AppData\Local\Temp\ccrBK0vc.s:9871   .debug_str:0000000000006e6b .LASF78
C:\Users\liukai\AppData\Local\Temp\ccrBK0vc.s:7821   .debug_str:00000000000001f9 .LASF79
C:\Users\liukai\AppData\Local\Temp\ccrBK0vc.s:9925   .debug_str:00000000000071b4 .LASF80
C:\Users\liukai\AppData\Local\Temp\ccrBK0vc.s:8073   .debug_str:0000000000000e77 .LASF81
C:\Users\liukai\AppData\Local\Temp\ccrBK0vc.s:9161   .debug_str:000000000000491c .LASF82
C:\Users\liukai\AppData\Local\Temp\ccrBK0vc.s:9727   .debug_str:00000000000067be .LASF83
C:\Users\liukai\AppData\Local\Temp\ccrBK0vc.s:8891   .debug_str:0000000000003cad .LASF84
C:\Users\liukai\AppData\Local\Temp\ccrBK0vc.s:8937   .debug_str:0000000000003edd .LASF85
C:\Users\liukai\AppData\Local\Temp\ccrBK0vc.s:9967   .debug_str:0000000000007417 .LASF86
C:\Users\liukai\AppData\Local\Temp\ccrBK0vc.s:8979   .debug_str:00000000000040c3 .LASF87
C:\Users\liukai\AppData\Local\Temp\ccrBK0vc.s:8049   .debug_str:0000000000000d20 .LASF88
C:\Users\liukai\AppData\Local\Temp\ccrBK0vc.s:9867   .debug_str:0000000000006e3f .LASF89
C:\Users\liukai\AppData\Local\Temp\ccrBK0vc.s:7831   .debug_str:0000000000000270 .LASF90
C:\Users\liukai\AppData\Local\Temp\ccrBK0vc.s:10056  .debug_str:0000000000007c0e .LASF91
C:\Users\liukai\AppData\Local\Temp\ccrBK0vc.s:10034  .debug_str:000000000000794a .LASF92
C:\Users\liukai\AppData\Local\Temp\ccrBK0vc.s:8183   .debug_str:00000000000014d8 .LASF93
C:\Users\liukai\AppData\Local\Temp\ccrBK0vc.s:7887   .debug_str:000000000000056c .LASF94
C:\Users\liukai\AppData\Local\Temp\ccrBK0vc.s:9679   .debug_str:00000000000064d3 .LASF95
C:\Users\liukai\AppData\Local\Temp\ccrBK0vc.s:8609   .debug_str:0000000000002daf .LASF96
C:\Users\liukai\AppData\Local\Temp\ccrBK0vc.s:9745   .debug_str:00000000000068bc .LASF97
C:\Users\liukai\AppData\Local\Temp\ccrBK0vc.s:8733   .debug_str:0000000000003523 .LASF98
C:\Users\liukai\AppData\Local\Temp\ccrBK0vc.s:9717   .debug_str:00000000000066f1 .LASF99
C:\Users\liukai\AppData\Local\Temp\ccrBK0vc.s:8787   .debug_str:00000000000037fa .LASF100
C:\Users\liukai\AppData\Local\Temp\ccrBK0vc.s:8865   .debug_str:0000000000003b9c .LASF101
C:\Users\liukai\AppData\Local\Temp\ccrBK0vc.s:8481   .debug_str:000000000000261a .LASF102
C:\Users\liukai\AppData\Local\Temp\ccrBK0vc.s:10046  .debug_str:00000000000079d0 .LASF103
C:\Users\liukai\AppData\Local\Temp\ccrBK0vc.s:8837   .debug_str:0000000000003a48 .LASF104
C:\Users\liukai\AppData\Local\Temp\ccrBK0vc.s:8679   .debug_str:000000000000321b .LASF105
C:\Users\liukai\AppData\Local\Temp\ccrBK0vc.s:8697   .debug_str:0000000000003347 .LASF106
C:\Users\liukai\AppData\Local\Temp\ccrBK0vc.s:9283   .debug_str:0000000000004e9e .LASF107
C:\Users\liukai\AppData\Local\Temp\ccrBK0vc.s:9885   .debug_str:0000000000006f1c .LASF108
C:\Users\liukai\AppData\Local\Temp\ccrBK0vc.s:8517   .debug_str:000000000000286d .LASF109
C:\Users\liukai\AppData\Local\Temp\ccrBK0vc.s:9977   .debug_str:0000000000007480 .LASF110
C:\Users\liukai\AppData\Local\Temp\ccrBK0vc.s:8639   .debug_str:0000000000002f4f .LASF111
C:\Users\liukai\AppData\Local\Temp\ccrBK0vc.s:9021   .debug_str:00000000000042ba .LASF112
C:\Users\liukai\AppData\Local\Temp\ccrBK0vc.s:8023   .debug_str:0000000000000bfe .LASF113
C:\Users\liukai\AppData\Local\Temp\ccrBK0vc.s:8243   .debug_str:000000000000179e .LASF114
C:\Users\liukai\AppData\Local\Temp\ccrBK0vc.s:8795   .debug_str:000000000000384d .LASF115
C:\Users\liukai\AppData\Local\Temp\ccrBK0vc.s:9613   .debug_str:000000000000602d .LASF116
C:\Users\liukai\AppData\Local\Temp\ccrBK0vc.s:8727   .debug_str:00000000000034d6 .LASF117
C:\Users\liukai\AppData\Local\Temp\ccrBK0vc.s:8611   .debug_str:0000000000002ddc .LASF118
C:\Users\liukai\AppData\Local\Temp\ccrBK0vc.s:7915   .debug_str:0000000000000678 .LASF119
C:\Users\liukai\AppData\Local\Temp\ccrBK0vc.s:8313   .debug_str:0000000000001c12 .LASF120
C:\Users\liukai\AppData\Local\Temp\ccrBK0vc.s:9647   .debug_str:000000000000628c .LASF121
C:\Users\liukai\AppData\Local\Temp\ccrBK0vc.s:8719   .debug_str:0000000000003462 .LASF122
C:\Users\liukai\AppData\Local\Temp\ccrBK0vc.s:8545   .debug_str:0000000000002a5f .LASF123
C:\Users\liukai\AppData\Local\Temp\ccrBK0vc.s:9357   .debug_str:000000000000528d .LASF124
C:\Users\liukai\AppData\Local\Temp\ccrBK0vc.s:9347   .debug_str:00000000000051fe .LASF125
C:\Users\liukai\AppData\Local\Temp\ccrBK0vc.s:9773   .debug_str:0000000000006a2f .LASF126
C:\Users\liukai\AppData\Local\Temp\ccrBK0vc.s:9113   .debug_str:0000000000004742 .LASF127
C:\Users\liukai\AppData\Local\Temp\ccrBK0vc.s:9437   .debug_str:0000000000005686 .LASF128
C:\Users\liukai\AppData\Local\Temp\ccrBK0vc.s:8077   .debug_str:0000000000000e98 .LASF129
C:\Users\liukai\AppData\Local\Temp\ccrBK0vc.s:8357   .debug_str:0000000000001ef9 .LASF130
C:\Users\liukai\AppData\Local\Temp\ccrBK0vc.s:9783   .debug_str:0000000000006a8e .LASF131
C:\Users\liukai\AppData\Local\Temp\ccrBK0vc.s:8155   .debug_str:0000000000001335 .LASF132
C:\Users\liukai\AppData\Local\Temp\ccrBK0vc.s:8011   .debug_str:0000000000000b8b .LASF133
C:\Users\liukai\AppData\Local\Temp\ccrBK0vc.s:8055   .debug_str:0000000000000d9a .LASF134
C:\Users\liukai\AppData\Local\Temp\ccrBK0vc.s:8093   .debug_str:0000000000000f75 .LASF135
C:\Users\liukai\AppData\Local\Temp\ccrBK0vc.s:8229   .debug_str:0000000000001724 .LASF136
C:\Users\liukai\AppData\Local\Temp\ccrBK0vc.s:9361   .debug_str:00000000000052d2 .LASF137
C:\Users\liukai\AppData\Local\Temp\ccrBK0vc.s:8101   .debug_str:0000000000000fe7 .LASF138
C:\Users\liukai\AppData\Local\Temp\ccrBK0vc.s:8951   .debug_str:0000000000003f8d .LASF139
C:\Users\liukai\AppData\Local\Temp\ccrBK0vc.s:7979   .debug_str:0000000000000a41 .LASF140
C:\Users\liukai\AppData\Local\Temp\ccrBK0vc.s:9125   .debug_str:00000000000047dc .LASF141
C:\Users\liukai\AppData\Local\Temp\ccrBK0vc.s:8749   .debug_str:00000000000035f0 .LASF142
C:\Users\liukai\AppData\Local\Temp\ccrBK0vc.s:9107   .debug_str:00000000000046e2 .LASF143
C:\Users\liukai\AppData\Local\Temp\ccrBK0vc.s:8771   .debug_str:00000000000036ca .LASF144
C:\Users\liukai\AppData\Local\Temp\ccrBK0vc.s:9077   .debug_str:0000000000004579 .LASF145
C:\Users\liukai\AppData\Local\Temp\ccrBK0vc.s:8915   .debug_str:0000000000003df3 .LASF146
C:\Users\liukai\AppData\Local\Temp\ccrBK0vc.s:8835   .debug_str:0000000000003a34 .LASF147
C:\Users\liukai\AppData\Local\Temp\ccrBK0vc.s:9093   .debug_str:000000000000465f .LASF148
C:\Users\liukai\AppData\Local\Temp\ccrBK0vc.s:9075   .debug_str:0000000000004562 .LASF149
C:\Users\liukai\AppData\Local\Temp\ccrBK0vc.s:8265   .debug_str:0000000000001892 .LASF150
C:\Users\liukai\AppData\Local\Temp\ccrBK0vc.s:8233   .debug_str:000000000000174d .LASF151
C:\Users\liukai\AppData\Local\Temp\ccrBK0vc.s:8347   .debug_str:0000000000001e42 .LASF152
C:\Users\liukai\AppData\Local\Temp\ccrBK0vc.s:8269   .debug_str:00000000000018b8 .LASF153
C:\Users\liukai\AppData\Local\Temp\ccrBK0vc.s:9109   .debug_str:00000000000046f8 .LASF154
C:\Users\liukai\AppData\Local\Temp\ccrBK0vc.s:9883   .debug_str:0000000000006ee5 .LASF155
C:\Users\liukai\AppData\Local\Temp\ccrBK0vc.s:8485   .debug_str:0000000000002642 .LASF156
C:\Users\liukai\AppData\Local\Temp\ccrBK0vc.s:9225   .debug_str:0000000000004bd4 .LASF157
C:\Users\liukai\AppData\Local\Temp\ccrBK0vc.s:7897   .debug_str:00000000000005e0 .LASF158
C:\Users\liukai\AppData\Local\Temp\ccrBK0vc.s:8365   .debug_str:0000000000001f94 .LASF159
C:\Users\liukai\AppData\Local\Temp\ccrBK0vc.s:8299   .debug_str:0000000000001b2a .LASF160
C:\Users\liukai\AppData\Local\Temp\ccrBK0vc.s:10038  .debug_str:0000000000007983 .LASF161
C:\Users\liukai\AppData\Local\Temp\ccrBK0vc.s:9597   .debug_str:0000000000005f95 .LASF162
C:\Users\liukai\AppData\Local\Temp\ccrBK0vc.s:9293   .debug_str:0000000000004f96 .LASF163
C:\Users\liukai\AppData\Local\Temp\ccrBK0vc.s:10006  .debug_str:00000000000077e1 .LASF164
C:\Users\liukai\AppData\Local\Temp\ccrBK0vc.s:8823   .debug_str:00000000000039d2 .LASF165
C:\Users\liukai\AppData\Local\Temp\ccrBK0vc.s:7871   .debug_str:0000000000000464 .LASF166
C:\Users\liukai\AppData\Local\Temp\ccrBK0vc.s:9699   .debug_str:000000000000663b .LASF167
C:\Users\liukai\AppData\Local\Temp\ccrBK0vc.s:8631   .debug_str:0000000000002edf .LASF168
C:\Users\liukai\AppData\Local\Temp\ccrBK0vc.s:9519   .debug_str:0000000000005b0f .LASF169
C:\Users\liukai\AppData\Local\Temp\ccrBK0vc.s:9211   .debug_str:0000000000004b16 .LASF170
C:\Users\liukai\AppData\Local\Temp\ccrBK0vc.s:10012  .debug_str:0000000000007827 .LASF171
C:\Users\liukai\AppData\Local\Temp\ccrBK0vc.s:8499   .debug_str:00000000000027c2 .LASF172
C:\Users\liukai\AppData\Local\Temp\ccrBK0vc.s:9677   .debug_str:00000000000064bc .LASF173
C:\Users\liukai\AppData\Local\Temp\ccrBK0vc.s:9567   .debug_str:0000000000005dc5 .LASF174
C:\Users\liukai\AppData\Local\Temp\ccrBK0vc.s:9241   .debug_str:0000000000004cc4 .LASF175
C:\Users\liukai\AppData\Local\Temp\ccrBK0vc.s:10016  .debug_str:0000000000007893 .LASF176
C:\Users\liukai\AppData\Local\Temp\ccrBK0vc.s:8371   .debug_str:0000000000001fde .LASF177
C:\Users\liukai\AppData\Local\Temp\ccrBK0vc.s:9543   .debug_str:0000000000005c60 .LASF178
C:\Users\liukai\AppData\Local\Temp\ccrBK0vc.s:8397   .debug_str:00000000000021b5 .LASF179
C:\Users\liukai\AppData\Local\Temp\ccrBK0vc.s:8249   .debug_str:00000000000017e8 .LASF180
C:\Users\liukai\AppData\Local\Temp\ccrBK0vc.s:7937   .debug_str:000000000000080f .LASF181
C:\Users\liukai\AppData\Local\Temp\ccrBK0vc.s:7779   .debug_str:0000000000000017 .LASF182
C:\Users\liukai\AppData\Local\Temp\ccrBK0vc.s:9341   .debug_str:0000000000005177 .LASF183
C:\Users\liukai\AppData\Local\Temp\ccrBK0vc.s:9857   .debug_str:0000000000006db1 .LASF184
C:\Users\liukai\AppData\Local\Temp\ccrBK0vc.s:9937   .debug_str:0000000000007234 .LASF185
C:\Users\liukai\AppData\Local\Temp\ccrBK0vc.s:8215   .debug_str:0000000000001630 .LASF186
C:\Users\liukai\AppData\Local\Temp\ccrBK0vc.s:9335   .debug_str:000000000000513d .LASF187
C:\Users\liukai\AppData\Local\Temp\ccrBK0vc.s:8597   .debug_str:0000000000002d14 .LASF188
C:\Users\liukai\AppData\Local\Temp\ccrBK0vc.s:8929   .debug_str:0000000000003e90 .LASF189
C:\Users\liukai\AppData\Local\Temp\ccrBK0vc.s:8801   .debug_str:0000000000003895 .LASF190
C:\Users\liukai\AppData\Local\Temp\ccrBK0vc.s:9315   .debug_str:000000000000507f .LASF191
C:\Users\liukai\AppData\Local\Temp\ccrBK0vc.s:7985   .debug_str:0000000000000a85 .LASF192
C:\Users\liukai\AppData\Local\Temp\ccrBK0vc.s:8983   .debug_str:00000000000040f2 .LASF193
C:\Users\liukai\AppData\Local\Temp\ccrBK0vc.s:8205   .debug_str:00000000000015c2 .LASF194
C:\Users\liukai\AppData\Local\Temp\ccrBK0vc.s:7969   .debug_str:00000000000009d3 .LASF195
C:\Users\liukai\AppData\Local\Temp\ccrBK0vc.s:7901   .debug_str:000000000000060f .LASF196
C:\Users\liukai\AppData\Local\Temp\ccrBK0vc.s:9287   .debug_str:0000000000004f09 .LASF197
C:\Users\liukai\AppData\Local\Temp\ccrBK0vc.s:7963   .debug_str:0000000000000973 .LASF198
C:\Users\liukai\AppData\Local\Temp\ccrBK0vc.s:8343   .debug_str:0000000000001de4 .LASF199
C:\Users\liukai\AppData\Local\Temp\ccrBK0vc.s:8287   .debug_str:0000000000001a37 .LASF200
C:\Users\liukai\AppData\Local\Temp\ccrBK0vc.s:9775   .debug_str:0000000000006a4c .LASF201
C:\Users\liukai\AppData\Local\Temp\ccrBK0vc.s:8917   .debug_str:0000000000003e03 .LASF202
C:\Users\liukai\AppData\Local\Temp\ccrBK0vc.s:8593   .debug_str:0000000000002cd2 .LASF203
C:\Users\liukai\AppData\Local\Temp\ccrBK0vc.s:9681   .debug_str:00000000000064f1 .LASF204
C:\Users\liukai\AppData\Local\Temp\ccrBK0vc.s:9877   .debug_str:0000000000006ea5 .LASF205
C:\Users\liukai\AppData\Local\Temp\ccrBK0vc.s:8047   .debug_str:0000000000000d06 .LASF206
C:\Users\liukai\AppData\Local\Temp\ccrBK0vc.s:8001   .debug_str:0000000000000b1c .LASF207
C:\Users\liukai\AppData\Local\Temp\ccrBK0vc.s:8961   .debug_str:000000000000400d .LASF208
C:\Users\liukai\AppData\Local\Temp\ccrBK0vc.s:8327   .debug_str:0000000000001d21 .LASF209
C:\Users\liukai\AppData\Local\Temp\ccrBK0vc.s:7841   .debug_str:00000000000002f2 .LASF210
C:\Users\liukai\AppData\Local\Temp\ccrBK0vc.s:9373   .debug_str:0000000000005376 .LASF211
C:\Users\liukai\AppData\Local\Temp\ccrBK0vc.s:8855   .debug_str:0000000000003b08 .LASF212
C:\Users\liukai\AppData\Local\Temp\ccrBK0vc.s:9617   .debug_str:0000000000006058 .LASF213
C:\Users\liukai\AppData\Local\Temp\ccrBK0vc.s:9917   .debug_str:0000000000007118 .LASF214
C:\Users\liukai\AppData\Local\Temp\ccrBK0vc.s:9091   .debug_str:0000000000004648 .LASF215
C:\Users\liukai\AppData\Local\Temp\ccrBK0vc.s:7811   .debug_str:00000000000001a4 .LASF216
C:\Users\liukai\AppData\Local\Temp\ccrBK0vc.s:8341   .debug_str:0000000000001dca .LASF217
C:\Users\liukai\AppData\Local\Temp\ccrBK0vc.s:9733   .debug_str:000000000000681a .LASF218
C:\Users\liukai\AppData\Local\Temp\ccrBK0vc.s:9281   .debug_str:0000000000004e8c .LASF219
C:\Users\liukai\AppData\Local\Temp\ccrBK0vc.s:8177   .debug_str:0000000000001459 .LASF220
C:\Users\liukai\AppData\Local\Temp\ccrBK0vc.s:7789   .debug_str:000000000000007e .LASF221
C:\Users\liukai\AppData\Local\Temp\ccrBK0vc.s:8521   .debug_str:00000000000028cc .LASF222
C:\Users\liukai\AppData\Local\Temp\ccrBK0vc.s:9123   .debug_str:00000000000047c1 .LASF223
C:\Users\liukai\AppData\Local\Temp\ccrBK0vc.s:9457   .debug_str:000000000000577e .LASF224
C:\Users\liukai\AppData\Local\Temp\ccrBK0vc.s:9903   .debug_str:0000000000007013 .LASF225
C:\Users\liukai\AppData\Local\Temp\ccrBK0vc.s:8417   .debug_str:00000000000022aa .LASF226
C:\Users\liukai\AppData\Local\Temp\ccrBK0vc.s:9117   .debug_str:0000000000004765 .LASF227
C:\Users\liukai\AppData\Local\Temp\ccrBK0vc.s:9581   .debug_str:0000000000005e73 .LASF228
C:\Users\liukai\AppData\Local\Temp\ccrBK0vc.s:8889   .debug_str:0000000000003c95 .LASF229
C:\Users\liukai\AppData\Local\Temp\ccrBK0vc.s:9359   .debug_str:00000000000052b8 .LASF230
C:\Users\liukai\AppData\Local\Temp\ccrBK0vc.s:7921   .debug_str:00000000000006cd .LASF231
C:\Users\liukai\AppData\Local\Temp\ccrBK0vc.s:9965   .debug_str:0000000000007400 .LASF232
C:\Users\liukai\AppData\Local\Temp\ccrBK0vc.s:9127   .debug_str:00000000000047ec .LASF233
C:\Users\liukai\AppData\Local\Temp\ccrBK0vc.s:9181   .debug_str:00000000000049d5 .LASF234
C:\Users\liukai\AppData\Local\Temp\ccrBK0vc.s:8873   .debug_str:0000000000003bf7 .LASF235
C:\Users\liukai\AppData\Local\Temp\ccrBK0vc.s:8711   .debug_str:00000000000033d7 .LASF236
C:\Users\liukai\AppData\Local\Temp\ccrBK0vc.s:8599   .debug_str:0000000000002d2c .LASF237
C:\Users\liukai\AppData\Local\Temp\ccrBK0vc.s:8157   .debug_str:000000000000135d .LASF238
C:\Users\liukai\AppData\Local\Temp\ccrBK0vc.s:9089   .debug_str:000000000000460a .LASF239
C:\Users\liukai\AppData\Local\Temp\ccrBK0vc.s:9343   .debug_str:00000000000051b1 .LASF240
C:\Users\liukai\AppData\Local\Temp\ccrBK0vc.s:9555   .debug_str:0000000000005d26 .LASF241
C:\Users\liukai\AppData\Local\Temp\ccrBK0vc.s:8325   .debug_str:0000000000001cdc .LASF242
C:\Users\liukai\AppData\Local\Temp\ccrBK0vc.s:8833   .debug_str:0000000000003a1c .LASF243
C:\Users\liukai\AppData\Local\Temp\ccrBK0vc.s:8123   .debug_str:00000000000010b2 .LASF244
C:\Users\liukai\AppData\Local\Temp\ccrBK0vc.s:8161   .debug_str:0000000000001381 .LASF245
C:\Users\liukai\AppData\Local\Temp\ccrBK0vc.s:8813   .debug_str:000000000000394d .LASF246
C:\Users\liukai\AppData\Local\Temp\ccrBK0vc.s:7859   .debug_str:00000000000003ce .LASF247
C:\Users\liukai\AppData\Local\Temp\ccrBK0vc.s:9311   .debug_str:0000000000005056 .LASF248
C:\Users\liukai\AppData\Local\Temp\ccrBK0vc.s:8761   .debug_str:000000000000367a .LASF249
C:\Users\liukai\AppData\Local\Temp\ccrBK0vc.s:9667   .debug_str:00000000000063c2 .LASF250
C:\Users\liukai\AppData\Local\Temp\ccrBK0vc.s:8071   .debug_str:0000000000000e5c .LASF251
C:\Users\liukai\AppData\Local\Temp\ccrBK0vc.s:7903   .debug_str:0000000000000627 .LASF252
C:\Users\liukai\AppData\Local\Temp\ccrBK0vc.s:9257   .debug_str:0000000000004d3c .LASF253
C:\Users\liukai\AppData\Local\Temp\ccrBK0vc.s:9523   .debug_str:0000000000005b64 .LASF254
C:\Users\liukai\AppData\Local\Temp\ccrBK0vc.s:7861   .debug_str:00000000000003e0 .LASF255
C:\Users\liukai\AppData\Local\Temp\ccrBK0vc.s:9291   .debug_str:0000000000004f50 .LASF256
C:\Users\liukai\AppData\Local\Temp\ccrBK0vc.s:8197   .debug_str:0000000000001577 .LASF257
C:\Users\liukai\AppData\Local\Temp\ccrBK0vc.s:8625   .debug_str:0000000000002e91 .LASF258
C:\Users\liukai\AppData\Local\Temp\ccrBK0vc.s:9279   .debug_str:0000000000004e71 .LASF259
C:\Users\liukai\AppData\Local\Temp\ccrBK0vc.s:9229   .debug_str:0000000000004c1b .LASF260
C:\Users\liukai\AppData\Local\Temp\ccrBK0vc.s:8463   .debug_str:000000000000250b .LASF261
C:\Users\liukai\AppData\Local\Temp\ccrBK0vc.s:8767   .debug_str:00000000000036ab .LASF262
C:\Users\liukai\AppData\Local\Temp\ccrBK0vc.s:7885   .debug_str:0000000000000556 .LASF263
C:\Users\liukai\AppData\Local\Temp\ccrBK0vc.s:8111   .debug_str:0000000000001037 .LASF264
C:\Users\liukai\AppData\Local\Temp\ccrBK0vc.s:8059   .debug_str:0000000000000dc3 .LASF265
C:\Users\liukai\AppData\Local\Temp\ccrBK0vc.s:7835   .debug_str:00000000000002a4 .LASF266
C:\Users\liukai\AppData\Local\Temp\ccrBK0vc.s:9383   .debug_str:00000000000053ed .LASF267
C:\Users\liukai\AppData\Local\Temp\ccrBK0vc.s:8615   .debug_str:0000000000002e13 .LASF268
C:\Users\liukai\AppData\Local\Temp\ccrBK0vc.s:7895   .debug_str:00000000000005ca .LASF269
C:\Users\liukai\AppData\Local\Temp\ccrBK0vc.s:9695   .debug_str:0000000000006613 .LASF270
C:\Users\liukai\AppData\Local\Temp\ccrBK0vc.s:8259   .debug_str:0000000000001851 .LASF271
C:\Users\liukai\AppData\Local\Temp\ccrBK0vc.s:9879   .debug_str:0000000000006eb6 .LASF272
C:\Users\liukai\AppData\Local\Temp\ccrBK0vc.s:8657   .debug_str:0000000000003074 .LASF273
C:\Users\liukai\AppData\Local\Temp\ccrBK0vc.s:9167   .debug_str:0000000000004956 .LASF274
C:\Users\liukai\AppData\Local\Temp\ccrBK0vc.s:8167   .debug_str:00000000000013e5 .LASF275
C:\Users\liukai\AppData\Local\Temp\ccrBK0vc.s:8353   .debug_str:0000000000001ea3 .LASF276
C:\Users\liukai\AppData\Local\Temp\ccrBK0vc.s:9611   .debug_str:0000000000006014 .LASF277
C:\Users\liukai\AppData\Local\Temp\ccrBK0vc.s:8351   .debug_str:0000000000001e69 .LASF278
C:\Users\liukai\AppData\Local\Temp\ccrBK0vc.s:7791   .debug_str:000000000000009c .LASF279
C:\Users\liukai\AppData\Local\Temp\ccrBK0vc.s:9595   .debug_str:0000000000005f50 .LASF280
C:\Users\liukai\AppData\Local\Temp\ccrBK0vc.s:9593   .debug_str:0000000000005f3b .LASF281
C:\Users\liukai\AppData\Local\Temp\ccrBK0vc.s:8677   .debug_str:0000000000003204 .LASF282
C:\Users\liukai\AppData\Local\Temp\ccrBK0vc.s:9861   .debug_str:0000000000006e0d .LASF283
C:\Users\liukai\AppData\Local\Temp\ccrBK0vc.s:8029   .debug_str:0000000000000c3e .LASF284
C:\Users\liukai\AppData\Local\Temp\ccrBK0vc.s:7803   .debug_str:0000000000000153 .LASF285
C:\Users\liukai\AppData\Local\Temp\ccrBK0vc.s:8193   .debug_str:0000000000001544 .LASF286
C:\Users\liukai\AppData\Local\Temp\ccrBK0vc.s:9183   .debug_str:00000000000049f0 .LASF287
C:\Users\liukai\AppData\Local\Temp\ccrBK0vc.s:8815   .debug_str:0000000000003965 .LASF288
C:\Users\liukai\AppData\Local\Temp\ccrBK0vc.s:8303   .debug_str:0000000000001b58 .LASF289
C:\Users\liukai\AppData\Local\Temp\ccrBK0vc.s:7797   .debug_str:00000000000000ea .LASF290
C:\Users\liukai\AppData\Local\Temp\ccrBK0vc.s:8555   .debug_str:0000000000002ab3 .LASF291
C:\Users\liukai\AppData\Local\Temp\ccrBK0vc.s:9551   .debug_str:0000000000005d03 .LASF292
C:\Users\liukai\AppData\Local\Temp\ccrBK0vc.s:8613   .debug_str:0000000000002df5 .LASF293
C:\Users\liukai\AppData\Local\Temp\ccrBK0vc.s:8953   .debug_str:0000000000003fa1 .LASF294
C:\Users\liukai\AppData\Local\Temp\ccrBK0vc.s:8579   .debug_str:0000000000002bfc .LASF295
C:\Users\liukai\AppData\Local\Temp\ccrBK0vc.s:8087   .debug_str:0000000000000f33 .LASF296
C:\Users\liukai\AppData\Local\Temp\ccrBK0vc.s:8737   .debug_str:0000000000003599 .LASF297
C:\Users\liukai\AppData\Local\Temp\ccrBK0vc.s:8419   .debug_str:00000000000022e9 .LASF298
C:\Users\liukai\AppData\Local\Temp\ccrBK0vc.s:8989   .debug_str:0000000000004131 .LASF299
C:\Users\liukai\AppData\Local\Temp\ccrBK0vc.s:9759   .debug_str:0000000000006983 .LASF300
C:\Users\liukai\AppData\Local\Temp\ccrBK0vc.s:9131   .debug_str:0000000000004808 .LASF301
C:\Users\liukai\AppData\Local\Temp\ccrBK0vc.s:7787   .debug_str:0000000000000074 .LASF302
C:\Users\liukai\AppData\Local\Temp\ccrBK0vc.s:9909   .debug_str:0000000000007086 .LASF303
C:\Users\liukai\AppData\Local\Temp\ccrBK0vc.s:8311   .debug_str:0000000000001c04 .LASF304
C:\Users\liukai\AppData\Local\Temp\ccrBK0vc.s:8263   .debug_str:0000000000001884 .LASF305
C:\Users\liukai\AppData\Local\Temp\ccrBK0vc.s:7853   .debug_str:0000000000000371 .LASF306
C:\Users\liukai\AppData\Local\Temp\ccrBK0vc.s:9447   .debug_str:00000000000056da .LASF307
C:\Users\liukai\AppData\Local\Temp\ccrBK0vc.s:7793   .debug_str:00000000000000b7 .LASF308
C:\Users\liukai\AppData\Local\Temp\ccrBK0vc.s:8041   .debug_str:0000000000000cb8 .LASF309
C:\Users\liukai\AppData\Local\Temp\ccrBK0vc.s:7807   .debug_str:000000000000018f .LASF310
C:\Users\liukai\AppData\Local\Temp\ccrBK0vc.s:8905   .debug_str:0000000000003db1 .LASF316
C:\Users\liukai\AppData\Local\Temp\ccrBK0vc.s:8651   .debug_str:0000000000003041 .LASF317
C:\Users\liukai\AppData\Local\Temp\ccrBK0vc.s:8261   .debug_str:0000000000001877 .LASF318
C:\Users\liukai\AppData\Local\Temp\ccrBK0vc.s:9071   .debug_str:0000000000004513 .LASF319
C:\Users\liukai\AppData\Local\Temp\ccrBK0vc.s:9369   .debug_str:000000000000532b .LASF320
C:\Users\liukai\AppData\Local\Temp\ccrBK0vc.s:8139   .debug_str:000000000000121e .LASF321
C:\Users\liukai\AppData\Local\Temp\ccrBK0vc.s:9747   .debug_str:00000000000068d4 .LASF322
C:\Users\liukai\AppData\Local\Temp\ccrBK0vc.s:9811   .debug_str:0000000000006ba2 .LASF323
C:\Users\liukai\AppData\Local\Temp\ccrBK0vc.s:8799   .debug_str:0000000000003883 .LASF324
C:\Users\liukai\AppData\Local\Temp\ccrBK0vc.s:8757   .debug_str:0000000000003661 .LASF325
C:\Users\liukai\AppData\Local\Temp\ccrBK0vc.s:9855   .debug_str:0000000000006da1 .LASF326
C:\Users\liukai\AppData\Local\Temp\ccrBK0vc.s:10032  .debug_str:000000000000793a .LASF327
C:\Users\liukai\AppData\Local\Temp\ccrBK0vc.s:8225   .debug_str:00000000000016e9 .LASF328
C:\Users\liukai\AppData\Local\Temp\ccrBK0vc.s:8687   .debug_str:000000000000326f .LASF329
C:\Users\liukai\AppData\Local\Temp\ccrBK0vc.s:9025   .debug_str:00000000000042ff .LASF330
C:\Users\liukai\AppData\Local\Temp\ccrBK0vc.s:9185   .debug_str:0000000000004a0e .LASF331
C:\Users\liukai\AppData\Local\Temp\ccrBK0vc.s:8995   .debug_str:000000000000416a .LASF332
C:\Users\liukai\AppData\Local\Temp\ccrBK0vc.s:9399   .debug_str:00000000000054d7 .LASF333
C:\Users\liukai\AppData\Local\Temp\ccrBK0vc.s:9219   .debug_str:0000000000004b92 .LASF334
C:\Users\liukai\AppData\Local\Temp\ccrBK0vc.s:8257   .debug_str:000000000000183b .LASF335
C:\Users\liukai\AppData\Local\Temp\ccrBK0vc.s:8585   .debug_str:0000000000002c3d .LASF336
C:\Users\liukai\AppData\Local\Temp\ccrBK0vc.s:7881   .debug_str:00000000000004dc .LASF337
C:\Users\liukai\AppData\Local\Temp\ccrBK0vc.s:7785   .debug_str:0000000000000063 .LASF338
C:\Users\liukai\AppData\Local\Temp\ccrBK0vc.s:9731   .debug_str:000000000000680a .LASF339
C:\Users\liukai\AppData\Local\Temp\ccrBK0vc.s:8851   .debug_str:0000000000003aea .LASF340
C:\Users\liukai\AppData\Local\Temp\ccrBK0vc.s:9029   .debug_str:000000000000432c .LASF341
C:\Users\liukai\AppData\Local\Temp\ccrBK0vc.s:9439   .debug_str:00000000000056a4 .LASF342
C:\Users\liukai\AppData\Local\Temp\ccrBK0vc.s:9703   .debug_str:000000000000665a .LASF343
C:\Users\liukai\AppData\Local\Temp\ccrBK0vc.s:8739   .debug_str:00000000000035b5 .LASF344
C:\Users\liukai\AppData\Local\Temp\ccrBK0vc.s:8483   .debug_str:000000000000262d .LASF345
C:\Users\liukai\AppData\Local\Temp\ccrBK0vc.s:8971   .debug_str:000000000000406e .LASF346
C:\Users\liukai\AppData\Local\Temp\ccrBK0vc.s:8195   .debug_str:0000000000001562 .LASF347
C:\Users\liukai\AppData\Local\Temp\ccrBK0vc.s:9139   .debug_str:0000000000004842 .LASF348
C:\Users\liukai\AppData\Local\Temp\ccrBK0vc.s:8165   .debug_str:00000000000013ca .LASF349
C:\Users\liukai\AppData\Local\Temp\ccrBK0vc.s:8669   .debug_str:00000000000031b6 .LASF350
C:\Users\liukai\AppData\Local\Temp\ccrBK0vc.s:9011   .debug_str:0000000000004276 .LASF351
C:\Users\liukai\AppData\Local\Temp\ccrBK0vc.s:9331   .debug_str:000000000000511e .LASF352
C:\Users\liukai\AppData\Local\Temp\ccrBK0vc.s:9843   .debug_str:0000000000006d0b .LASF353
C:\Users\liukai\AppData\Local\Temp\ccrBK0vc.s:9027   .debug_str:0000000000004310 .LASF354
C:\Users\liukai\AppData\Local\Temp\ccrBK0vc.s:8747   .debug_str:00000000000035e9 .LASF355
C:\Users\liukai\AppData\Local\Temp\ccrBK0vc.s:9631   .debug_str:00000000000061c1 .LASF356
C:\Users\liukai\AppData\Local\Temp\ccrBK0vc.s:9553   .debug_str:0000000000005d20 .LASF358
C:\Users\liukai\AppData\Local\Temp\ccrBK0vc.s:10018  .debug_str:00000000000078a3 .LASF359
C:\Users\liukai\AppData\Local\Temp\ccrBK0vc.s:9269   .debug_str:0000000000004ddf .LASF360
C:\Users\liukai\AppData\Local\Temp\ccrBK0vc.s:9771   .debug_str:0000000000006a25 .LASF361
C:\Users\liukai\AppData\Local\Temp\ccrBK0vc.s:8829   .debug_str:0000000000003a08 .LASF362
C:\Users\liukai\AppData\Local\Temp\ccrBK0vc.s:9585   .debug_str:0000000000005ecc .LASF363
C:\Users\liukai\AppData\Local\Temp\ccrBK0vc.s:9983   .debug_str:00000000000074a9 .LASF364
C:\Users\liukai\AppData\Local\Temp\ccrBK0vc.s:8857   .debug_str:0000000000003b44 .LASF365
C:\Users\liukai\AppData\Local\Temp\ccrBK0vc.s:8773   .debug_str:00000000000036eb .LASF366
C:\Users\liukai\AppData\Local\Temp\ccrBK0vc.s:9941   .debug_str:0000000000007289 .LASF367
C:\Users\liukai\AppData\Local\Temp\ccrBK0vc.s:8709   .debug_str:00000000000033c7 .LASF368
C:\Users\liukai\AppData\Local\Temp\ccrBK0vc.s:9919   .debug_str:000000000000715b .LASF369
C:\Users\liukai\AppData\Local\Temp\ccrBK0vc.s:7935   .debug_str:0000000000000803 .LASF370
C:\Users\liukai\AppData\Local\Temp\ccrBK0vc.s:9115   .debug_str:0000000000004759 .LASF371
C:\Users\liukai\AppData\Local\Temp\ccrBK0vc.s:9797   .debug_str:0000000000006b0c .LASF372
C:\Users\liukai\AppData\Local\Temp\ccrBK0vc.s:8085   .debug_str:0000000000000f26 .LASF373
C:\Users\liukai\AppData\Local\Temp\ccrBK0vc.s:9777   .debug_str:0000000000006a63 .LASF374
C:\Users\liukai\AppData\Local\Temp\ccrBK0vc.s:8251   .debug_str:0000000000001801 .LASF375
C:\Users\liukai\AppData\Local\Temp\ccrBK0vc.s:9743   .debug_str:00000000000068b2 .LASF376
C:\Users\liukai\AppData\Local\Temp\ccrBK0vc.s:8825   .debug_str:00000000000039e7 .LASF377
C:\Users\liukai\AppData\Local\Temp\ccrBK0vc.s:8523   .debug_str:00000000000028e5 .LASF378
C:\Users\liukai\AppData\Local\Temp\ccrBK0vc.s:9655   .debug_str:00000000000062e3 .LASF379
C:\Users\liukai\AppData\Local\Temp\ccrBK0vc.s:8083   .debug_str:0000000000000f18 .LASF380
C:\Users\liukai\AppData\Local\Temp\ccrBK0vc.s:9243   .debug_str:0000000000004cda .LASF381
C:\Users\liukai\AppData\Local\Temp\ccrBK0vc.s:8043   .debug_str:0000000000000cd0 .LASF382
C:\Users\liukai\AppData\Local\Temp\ccrBK0vc.s:9829   .debug_str:0000000000006c92 .LASF383
C:\Users\liukai\AppData\Local\Temp\ccrBK0vc.s:8273   .debug_str:00000000000018db .LASF384
C:\Users\liukai\AppData\Local\Temp\ccrBK0vc.s:8495   .debug_str:00000000000026df .LASF385
C:\Users\liukai\AppData\Local\Temp\ccrBK0vc.s:8633   .debug_str:0000000000002f21 .LASF386
C:\Users\liukai\AppData\Local\Temp\ccrBK0vc.s:9599   .debug_str:0000000000005fa4 .LASF387
C:\Users\liukai\AppData\Local\Temp\ccrBK0vc.s:8871   .debug_str:0000000000003be3 .LASF388
C:\Users\liukai\AppData\Local\Temp\ccrBK0vc.s:9831   .debug_str:0000000000006ca4 .LASF389
C:\Users\liukai\AppData\Local\Temp\ccrBK0vc.s:7827   .debug_str:0000000000000256 .LASF390
C:\Users\liukai\AppData\Local\Temp\ccrBK0vc.s:8149   .debug_str:00000000000012ea .LASF391
C:\Users\liukai\AppData\Local\Temp\ccrBK0vc.s:9969   .debug_str:000000000000742a .LASF392
C:\Users\liukai\AppData\Local\Temp\ccrBK0vc.s:9753   .debug_str:000000000000693e .LASF393
C:\Users\liukai\AppData\Local\Temp\ccrBK0vc.s:9715   .debug_str:00000000000066dd .LASF394
C:\Users\liukai\AppData\Local\Temp\ccrBK0vc.s:9421   .debug_str:00000000000055c5 .LASF395
C:\Users\liukai\AppData\Local\Temp\ccrBK0vc.s:9413   .debug_str:000000000000556f .LASF396
C:\Users\liukai\AppData\Local\Temp\ccrBK0vc.s:8119   .debug_str:0000000000001089 .LASF397
C:\Users\liukai\AppData\Local\Temp\ccrBK0vc.s:9455   .debug_str:0000000000005769 .LASF398
C:\Users\liukai\AppData\Local\Temp\ccrBK0vc.s:9939   .debug_str:0000000000007270 .LASF399
C:\Users\liukai\AppData\Local\Temp\ccrBK0vc.s:9319   .debug_str:0000000000005095 .LASF400
C:\Users\liukai\AppData\Local\Temp\ccrBK0vc.s:8675   .debug_str:00000000000031ea .LASF401
C:\Users\liukai\AppData\Local\Temp\ccrBK0vc.s:8643   .debug_str:0000000000002f76 .LASF402
C:\Users\liukai\AppData\Local\Temp\ccrBK0vc.s:9149   .debug_str:00000000000048af .LASF403
C:\Users\liukai\AppData\Local\Temp\ccrBK0vc.s:9049   .debug_str:0000000000004420 .LASF404
C:\Users\liukai\AppData\Local\Temp\ccrBK0vc.s:8009   .debug_str:0000000000000b72 .LASF405
C:\Users\liukai\AppData\Local\Temp\ccrBK0vc.s:8393   .debug_str:0000000000002190 .LASF406
C:\Users\liukai\AppData\Local\Temp\ccrBK0vc.s:10026  .debug_str:00000000000078ef .LASF407
C:\Users\liukai\AppData\Local\Temp\ccrBK0vc.s:9659   .debug_str:0000000000006350 .LASF408
C:\Users\liukai\AppData\Local\Temp\ccrBK0vc.s:8203   .debug_str:00000000000015a4 .LASF409
C:\Users\liukai\AppData\Local\Temp\ccrBK0vc.s:9337   .debug_str:0000000000005153 .LASF410
C:\Users\liukai\AppData\Local\Temp\ccrBK0vc.s:7957   .debug_str:0000000000000949 .LASF411
C:\Users\liukai\AppData\Local\Temp\ccrBK0vc.s:9933   .debug_str:0000000000007201 .LASF412
C:\Users\liukai\AppData\Local\Temp\ccrBK0vc.s:7825   .debug_str:000000000000022d .LASF413
C:\Users\liukai\AppData\Local\Temp\ccrBK0vc.s:8069   .debug_str:0000000000000e38 .LASF414
C:\Users\liukai\AppData\Local\Temp\ccrBK0vc.s:9535   .debug_str:0000000000005be9 .LASF415
C:\Users\liukai\AppData\Local\Temp\ccrBK0vc.s:9221   .debug_str:0000000000004ba7 .LASF416
C:\Users\liukai\AppData\Local\Temp\ccrBK0vc.s:7997   .debug_str:0000000000000af0 .LASF417
C:\Users\liukai\AppData\Local\Temp\ccrBK0vc.s:8985   .debug_str:000000000000410d .LASF418
C:\Users\liukai\AppData\Local\Temp\ccrBK0vc.s:8997   .debug_str:000000000000417a .LASF419
C:\Users\liukai\AppData\Local\Temp\ccrBK0vc.s:7939   .debug_str:0000000000000822 .LASF420
C:\Users\liukai\AppData\Local\Temp\ccrBK0vc.s:8543   .debug_str:0000000000002a37 .LASF421
C:\Users\liukai\AppData\Local\Temp\ccrBK0vc.s:8701   .debug_str:0000000000003376 .LASF422
C:\Users\liukai\AppData\Local\Temp\ccrBK0vc.s:8509   .debug_str:0000000000002821 .LASF423
C:\Users\liukai\AppData\Local\Temp\ccrBK0vc.s:8921   .debug_str:0000000000003e54 .LASF424
C:\Users\liukai\AppData\Local\Temp\ccrBK0vc.s:8571   .debug_str:0000000000002ba0 .LASF425
C:\Users\liukai\AppData\Local\Temp\ccrBK0vc.s:8567   .debug_str:0000000000002b42 .LASF426
C:\Users\liukai\AppData\Local\Temp\ccrBK0vc.s:8807   .debug_str:00000000000038ea .LASF427
C:\Users\liukai\AppData\Local\Temp\ccrBK0vc.s:9665   .debug_str:00000000000063a3 .LASF428
C:\Users\liukai\AppData\Local\Temp\ccrBK0vc.s:9061   .debug_str:00000000000044a7 .LASF429
C:\Users\liukai\AppData\Local\Temp\ccrBK0vc.s:8255   .debug_str:000000000000181f .LASF430
C:\Users\liukai\AppData\Local\Temp\ccrBK0vc.s:8095   .debug_str:0000000000000f95 .LASF431
C:\Users\liukai\AppData\Local\Temp\ccrBK0vc.s:8045   .debug_str:0000000000000ce0 .LASF432
C:\Users\liukai\AppData\Local\Temp\ccrBK0vc.s:9387   .debug_str:000000000000541a .LASF433
C:\Users\liukai\AppData\Local\Temp\ccrBK0vc.s:9087   .debug_str:00000000000045e3 .LASF434
C:\Users\liukai\AppData\Local\Temp\ccrBK0vc.s:8379   .debug_str:000000000000207b .LASF435
C:\Users\liukai\AppData\Local\Temp\ccrBK0vc.s:9083   .debug_str:00000000000045b4 .LASF436
C:\Users\liukai\AppData\Local\Temp\ccrBK0vc.s:8689   .debug_str:000000000000327e .LASF437
C:\Users\liukai\AppData\Local\Temp\ccrBK0vc.s:7943   .debug_str:000000000000085c .LASF438
C:\Users\liukai\AppData\Local\Temp\ccrBK0vc.s:8525   .debug_str:00000000000028f3 .LASF439
C:\Users\liukai\AppData\Local\Temp\ccrBK0vc.s:8125   .debug_str:00000000000010cc .LASF440
C:\Users\liukai\AppData\Local\Temp\ccrBK0vc.s:10020  .debug_str:00000000000078ab .LASF441
C:\Users\liukai\AppData\Local\Temp\ccrBK0vc.s:9587   .debug_str:0000000000005ed4 .LASF442
C:\Users\liukai\AppData\Local\Temp\ccrBK0vc.s:8189   .debug_str:000000000000150c .LASF443
C:\Users\liukai\AppData\Local\Temp\ccrBK0vc.s:9851   .debug_str:0000000000006d58 .LASF444
C:\Users\liukai\AppData\Local\Temp\ccrBK0vc.s:8945   .debug_str:0000000000003f35 .LASF445
C:\Users\liukai\AppData\Local\Temp\ccrBK0vc.s:8507   .debug_str:0000000000002805 .LASF446
C:\Users\liukai\AppData\Local\Temp\ccrBK0vc.s:8283   .debug_str:0000000000001a01 .LASF447
C:\Users\liukai\AppData\Local\Temp\ccrBK0vc.s:8385   .debug_str:00000000000020ff .LASF448
C:\Users\liukai\AppData\Local\Temp\ccrBK0vc.s:7877   .debug_str:00000000000004a3 .LASF449
C:\Users\liukai\AppData\Local\Temp\ccrBK0vc.s:8627   .debug_str:0000000000002eab .LASF450
C:\Users\liukai\AppData\Local\Temp\ccrBK0vc.s:8455   .debug_str:0000000000002491 .LASF451
C:\Users\liukai\AppData\Local\Temp\ccrBK0vc.s:7965   .debug_str:00000000000009ae .LASF452
C:\Users\liukai\AppData\Local\Temp\ccrBK0vc.s:8429   .debug_str:000000000000233b .LASF453
C:\Users\liukai\AppData\Local\Temp\ccrBK0vc.s:8295   .debug_str:0000000000001ad2 .LASF454
C:\Users\liukai\AppData\Local\Temp\ccrBK0vc.s:8899   .debug_str:0000000000003d57 .LASF455
C:\Users\liukai\AppData\Local\Temp\ccrBK0vc.s:8941   .debug_str:0000000000003efb .LASF456
C:\Users\liukai\AppData\Local\Temp\ccrBK0vc.s:7781   .debug_str:000000000000002f .LASF457
C:\Users\liukai\AppData\Local\Temp\ccrBK0vc.s:8775   .debug_str:00000000000036f2 .LASF458
C:\Users\liukai\AppData\Local\Temp\ccrBK0vc.s:9693   .debug_str:00000000000065fb .LASF459
C:\Users\liukai\AppData\Local\Temp\ccrBK0vc.s:8015   .debug_str:0000000000000bb5 .LASF460
C:\Users\liukai\AppData\Local\Temp\ccrBK0vc.s:9839   .debug_str:0000000000006ce8 .LASF461
C:\Users\liukai\AppData\Local\Temp\ccrBK0vc.s:9569   .debug_str:0000000000005ddd .LASF462
C:\Users\liukai\AppData\Local\Temp\ccrBK0vc.s:9079   .debug_str:000000000000458f .LASF463
C:\Users\liukai\AppData\Local\Temp\ccrBK0vc.s:8685   .debug_str:0000000000003257 .LASF464
C:\Users\liukai\AppData\Local\Temp\ccrBK0vc.s:9531   .debug_str:0000000000005bc9 .LASF465
C:\Users\liukai\AppData\Local\Temp\ccrBK0vc.s:8729   .debug_str:00000000000034ef .LASF466
C:\Users\liukai\AppData\Local\Temp\ccrBK0vc.s:9325   .debug_str:00000000000050e1 .LASF467
C:\Users\liukai\AppData\Local\Temp\ccrBK0vc.s:8075   .debug_str:0000000000000e89 .LASF470
C:\Users\liukai\AppData\Local\Temp\ccrBK0vc.s:9043   .debug_str:00000000000043e1 .LASF471
C:\Users\liukai\AppData\Local\Temp\ccrBK0vc.s:8121   .debug_str:000000000000109d .LASF472
C:\Users\liukai\AppData\Local\Temp\ccrBK0vc.s:9719   .debug_str:0000000000006706 .LASF473
C:\Users\liukai\AppData\Local\Temp\ccrBK0vc.s:9609   .debug_str:0000000000005ffd .LASF474
C:\Users\liukai\AppData\Local\Temp\ccrBK0vc.s:8505   .debug_str:00000000000027f7 .LASF475
C:\Users\liukai\AppData\Local\Temp\ccrBK0vc.s:9615   .debug_str:0000000000006042 .LASF476
C:\Users\liukai\AppData\Local\Temp\ccrBK0vc.s:8291   .debug_str:0000000000001a88 .LASF477
C:\Users\liukai\AppData\Local\Temp\ccrBK0vc.s:8975   .debug_str:0000000000004092 .LASF478
C:\Users\liukai\AppData\Local\Temp\ccrBK0vc.s:9097   .debug_str:0000000000004676 .LASF479
C:\Users\liukai\AppData\Local\Temp\ccrBK0vc.s:9265   .debug_str:0000000000004dbd .LASF480
C:\Users\liukai\AppData\Local\Temp\ccrBK0vc.s:8559   .debug_str:0000000000002ae6 .LASF481
C:\Users\liukai\AppData\Local\Temp\ccrBK0vc.s:9763   .debug_str:000000000000699c .LASF482
C:\Users\liukai\AppData\Local\Temp\ccrBK0vc.s:9683   .debug_str:0000000000006507 .LASF483
C:\Users\liukai\AppData\Local\Temp\ccrBK0vc.s:9179   .debug_str:00000000000049bf .LASF485
C:\Users\liukai\AppData\Local\Temp\ccrBK0vc.s:9155   .debug_str:00000000000048df .LASF486
C:\Users\liukai\AppData\Local\Temp\ccrBK0vc.s:8595   .debug_str:0000000000002cec .LASF487
C:\Users\liukai\AppData\Local\Temp\ccrBK0vc.s:9649   .debug_str:000000000000629c .LASF488
C:\Users\liukai\AppData\Local\Temp\ccrBK0vc.s:8017   .debug_str:0000000000000bcd .LASF489
C:\Users\liukai\AppData\Local\Temp\ccrBK0vc.s:8091   .debug_str:0000000000000f6a .LASF490
C:\Users\liukai\AppData\Local\Temp\ccrBK0vc.s:8089   .debug_str:0000000000000f54 .LASF491
C:\Users\liukai\AppData\Local\Temp\ccrBK0vc.s:9151   .debug_str:00000000000048c7 .LASF492
C:\Users\liukai\AppData\Local\Temp\ccrBK0vc.s:9171   .debug_str:0000000000004974 .LASF493
C:\Users\liukai\AppData\Local\Temp\ccrBK0vc.s:9163   .debug_str:000000000000492e .LASF494
C:\Users\liukai\AppData\Local\Temp\ccrBK0vc.s:9193   .debug_str:0000000000004a73 .LASF495
C:\Users\liukai\AppData\Local\Temp\ccrBK0vc.s:8533   .debug_str:00000000000029bb .LASF496
C:\Users\liukai\AppData\Local\Temp\ccrBK0vc.s:8057   .debug_str:0000000000000db9 .LASF497
C:\Users\liukai\AppData\Local\Temp\ccrBK0vc.s:7823   .debug_str:0000000000000214 .LASF498
C:\Users\liukai\AppData\Local\Temp\ccrBK0vc.s:9671   .debug_str:00000000000063ee .LASF499
C:\Users\liukai\AppData\Local\Temp\ccrBK0vc.s:8031   .debug_str:0000000000000c4e .LASF500
C:\Users\liukai\AppData\Local\Temp\ccrBK0vc.s:8171   .debug_str:0000000000001417 .LASF501
C:\Users\liukai\AppData\Local\Temp\ccrBK0vc.s:9573   .debug_str:0000000000005e01 .LASF502
C:\Users\liukai\AppData\Local\Temp\ccrBK0vc.s:9209   .debug_str:0000000000004b0d .LASF503
C:\Users\liukai\AppData\Local\Temp\ccrBK0vc.s:8451   .debug_str:0000000000002469 .LASF504
C:\Users\liukai\AppData\Local\Temp\ccrBK0vc.s:8797   .debug_str:0000000000003876 .LASF505
C:\Users\liukai\AppData\Local\Temp\ccrBK0vc.s:8175   .debug_str:000000000000144d .LASF507
C:\Users\liukai\AppData\Local\Temp\ccrBK0vc.s:7961   .debug_str:0000000000000967 .LASF508
C:\Users\liukai\AppData\Local\Temp\ccrBK0vc.s:9247   .debug_str:0000000000004cf3 .LASF509
C:\Users\liukai\AppData\Local\Temp\ccrBK0vc.s:8127   .debug_str:00000000000010f5 .LASF510
C:\Users\liukai\AppData\Local\Temp\ccrBK0vc.s:8769   .debug_str:00000000000036c0 .LASF511
C:\Users\liukai\AppData\Local\Temp\ccrBK0vc.s:8021   .debug_str:0000000000000bf5 .LASF512
C:\Users\liukai\AppData\Local\Temp\ccrBK0vc.s:9295   .debug_str:0000000000004fae .LASF513
C:\Users\liukai\AppData\Local\Temp\ccrBK0vc.s:8911   .debug_str:0000000000003de0 .LASF514
C:\Users\liukai\AppData\Local\Temp\ccrBK0vc.s:9483   .debug_str:0000000000005938 .LASF515
C:\Users\liukai\AppData\Local\Temp\ccrBK0vc.s:9069   .debug_str:0000000000004501 .LASF516
C:\Users\liukai\AppData\Local\Temp\ccrBK0vc.s:9395   .debug_str:00000000000054ad .LASF517
C:\Users\liukai\AppData\Local\Temp\ccrBK0vc.s:8333   .debug_str:0000000000001d6f .LASF518
C:\Users\liukai\AppData\Local\Temp\ccrBK0vc.s:8221   .debug_str:00000000000016b5 .LASF519
C:\Users\liukai\AppData\Local\Temp\ccrBK0vc.s:8337   .debug_str:0000000000001da7 .LASF520
C:\Users\liukai\AppData\Local\Temp\ccrBK0vc.s:9813   .debug_str:0000000000006bb2 .LASF521
C:\Users\liukai\AppData\Local\Temp\ccrBK0vc.s:9565   .debug_str:0000000000005dbc .LASF522
C:\Users\liukai\AppData\Local\Temp\ccrBK0vc.s:8005   .debug_str:0000000000000b5d .LASF523
C:\Users\liukai\AppData\Local\Temp\ccrBK0vc.s:8907   .debug_str:0000000000003dc7 .LASF524
C:\Users\liukai\AppData\Local\Temp\ccrBK0vc.s:8063   .debug_str:0000000000000dfa .LASF525
C:\Users\liukai\AppData\Local\Temp\ccrBK0vc.s:8659   .debug_str:00000000000030a5 .LASF526
C:\Users\liukai\AppData\Local\Temp\ccrBK0vc.s:8931   .debug_str:0000000000003ea9 .LASF527
C:\Users\liukai\AppData\Local\Temp\ccrBK0vc.s:8349   .debug_str:0000000000001e58 .LASF528
C:\Users\liukai\AppData\Local\Temp\ccrBK0vc.s:9381   .debug_str:00000000000053e0 .LASF529
C:\Users\liukai\AppData\Local\Temp\ccrBK0vc.s:8537   .debug_str:00000000000029ee .LASF530
C:\Users\liukai\AppData\Local\Temp\ccrBK0vc.s:9513   .debug_str:0000000000005ac1 .LASF531
C:\Users\liukai\AppData\Local\Temp\ccrBK0vc.s:8289   .debug_str:0000000000001a79 .LASF532
C:\Users\liukai\AppData\Local\Temp\ccrBK0vc.s:9887   .debug_str:0000000000006f33 .LASF533
C:\Users\liukai\AppData\Local\Temp\ccrBK0vc.s:8897   .debug_str:0000000000003d41 .LASF534
C:\Users\liukai\AppData\Local\Temp\ccrBK0vc.s:8557   .debug_str:0000000000002ad2 .LASF535
C:\Users\liukai\AppData\Local\Temp\ccrBK0vc.s:8331   .debug_str:0000000000001d4c .LASF536
C:\Users\liukai\AppData\Local\Temp\ccrBK0vc.s:9711   .debug_str:00000000000066c5 .LASF537
C:\Users\liukai\AppData\Local\Temp\ccrBK0vc.s:8007   .debug_str:0000000000000b67 .LASF538
C:\Users\liukai\AppData\Local\Temp\ccrBK0vc.s:7933   .debug_str:00000000000007f6 .LASF539
C:\Users\liukai\AppData\Local\Temp\ccrBK0vc.s:9571   .debug_str:0000000000005df5 .LASF540
C:\Users\liukai\AppData\Local\Temp\ccrBK0vc.s:8061   .debug_str:0000000000000ddc .LASF541
C:\Users\liukai\AppData\Local\Temp\ccrBK0vc.s:8489   .debug_str:000000000000268f .LASF542
C:\Users\liukai\AppData\Local\Temp\ccrBK0vc.s:9505   .debug_str:0000000000005a80 .LASF543
C:\Users\liukai\AppData\Local\Temp\ccrBK0vc.s:9345   .debug_str:00000000000051ef .LASF544
C:\Users\liukai\AppData\Local\Temp\ccrBK0vc.s:9625   .debug_str:000000000000617f .LASF545
C:\Users\liukai\AppData\Local\Temp\ccrBK0vc.s:9769   .debug_str:0000000000006a14 .LASF546
C:\Users\liukai\AppData\Local\Temp\ccrBK0vc.s:9805   .debug_str:0000000000006b53 .LASF547
C:\Users\liukai\AppData\Local\Temp\ccrBK0vc.s:7863   .debug_str:0000000000000421 .LASF548
C:\Users\liukai\AppData\Local\Temp\ccrBK0vc.s:9645   .debug_str:0000000000006274 .LASF549
C:\Users\liukai\AppData\Local\Temp\ccrBK0vc.s:7777   .debug_str:0000000000000000 .LASF550
C:\Users\liukai\AppData\Local\Temp\ccrBK0vc.s:8479   .debug_str:00000000000025f7 .LASF551
C:\Users\liukai\AppData\Local\Temp\ccrBK0vc.s:8103   .debug_str:0000000000001001 .LASF552
C:\Users\liukai\AppData\Local\Temp\ccrBK0vc.s:8565   .debug_str:0000000000002b25 .LASF553
C:\Users\liukai\AppData\Local\Temp\ccrBK0vc.s:9215   .debug_str:0000000000004b6e .LASF554
C:\Users\liukai\AppData\Local\Temp\ccrBK0vc.s:9791   .debug_str:0000000000006ace .LASF555
C:\Users\liukai\AppData\Local\Temp\ccrBK0vc.s:9349   .debug_str:0000000000005215 .LASF556
C:\Users\liukai\AppData\Local\Temp\ccrBK0vc.s:9913   .debug_str:00000000000070a5 .LASF557
C:\Users\liukai\AppData\Local\Temp\ccrBK0vc.s:8413   .debug_str:0000000000002277 .LASF558
C:\Users\liukai\AppData\Local\Temp\ccrBK0vc.s:8345   .debug_str:0000000000001e22 .LASF559
C:\Users\liukai\AppData\Local\Temp\ccrBK0vc.s:9847   .debug_str:0000000000006d34 .LASF560
C:\Users\liukai\AppData\Local\Temp\ccrBK0vc.s:9379   .debug_str:00000000000053c9 .LASF561
C:\Users\liukai\AppData\Local\Temp\ccrBK0vc.s:9845   .debug_str:0000000000006d1b .LASF562
C:\Users\liukai\AppData\Local\Temp\ccrBK0vc.s:9651   .debug_str:00000000000062bd .LASF563
C:\Users\liukai\AppData\Local\Temp\ccrBK0vc.s:8849   .debug_str:0000000000003ad1 .LASF564
C:\Users\liukai\AppData\Local\Temp\ccrBK0vc.s:9815   .debug_str:0000000000006bbf .LASF565
C:\Users\liukai\AppData\Local\Temp\ccrBK0vc.s:9575   .debug_str:0000000000005e23 .LASF566
C:\Users\liukai\AppData\Local\Temp\ccrBK0vc.s:8227   .debug_str:0000000000001701 .LASF567
C:\Users\liukai\AppData\Local\Temp\ccrBK0vc.s:8403   .debug_str:00000000000021ef .LASF568
C:\Users\liukai\AppData\Local\Temp\ccrBK0vc.s:8019   .debug_str:0000000000000bdf .LASF569
C:\Users\liukai\AppData\Local\Temp\ccrBK0vc.s:7857   .debug_str:00000000000003b1 .LASF570
C:\Users\liukai\AppData\Local\Temp\ccrBK0vc.s:9201   .debug_str:0000000000004ac5 .LASF571
C:\Users\liukai\AppData\Local\Temp\ccrBK0vc.s:9333   .debug_str:0000000000005124 .LASF572
C:\Users\liukai\AppData\Local\Temp\ccrBK0vc.s:8219   .debug_str:00000000000016a7 .LASF573
C:\Users\liukai\AppData\Local\Temp\ccrBK0vc.s:9427   .debug_str:0000000000005601 .LASF574
C:\Users\liukai\AppData\Local\Temp\ccrBK0vc.s:9177   .debug_str:00000000000049ab .LASF575
C:\Users\liukai\AppData\Local\Temp\ccrBK0vc.s:8471   .debug_str:0000000000002547 .LASF576
C:\Users\liukai\AppData\Local\Temp\ccrBK0vc.s:9323   .debug_str:00000000000050bb .LASF577
C:\Users\liukai\AppData\Local\Temp\ccrBK0vc.s:9749   .debug_str:0000000000006901 .LASF578
C:\Users\liukai\AppData\Local\Temp\ccrBK0vc.s:8999   .debug_str:00000000000041a5 .LASF579
C:\Users\liukai\AppData\Local\Temp\ccrBK0vc.s:8473   .debug_str:000000000000256f .LASF580
C:\Users\liukai\AppData\Local\Temp\ccrBK0vc.s:10004  .debug_str:00000000000077bc .LASF581
C:\Users\liukai\AppData\Local\Temp\ccrBK0vc.s:7919   .debug_str:00000000000006a0 .LASF582
C:\Users\liukai\AppData\Local\Temp\ccrBK0vc.s:8725   .debug_str:00000000000034a9 .LASF583
C:\Users\liukai\AppData\Local\Temp\ccrBK0vc.s:7945   .debug_str:0000000000000880 .LASF584
C:\Users\liukai\AppData\Local\Temp\ccrBK0vc.s:9619   .debug_str:0000000000006097 .LASF585
C:\Users\liukai\AppData\Local\Temp\ccrBK0vc.s:8475   .debug_str:0000000000002590 .LASF586
C:\Users\liukai\AppData\Local\Temp\ccrBK0vc.s:8789   .debug_str:0000000000003814 .LASF587
C:\Users\liukai\AppData\Local\Temp\ccrBK0vc.s:9195   .debug_str:0000000000004a81 .LASF588
C:\Users\liukai\AppData\Local\Temp\ccrBK0vc.s:8605   .debug_str:0000000000002d61 .LASF589
C:\Users\liukai\AppData\Local\Temp\ccrBK0vc.s:10054  .debug_str:0000000000007bd0 .LASF590
C:\Users\liukai\AppData\Local\Temp\ccrBK0vc.s:8457   .debug_str:00000000000024b8 .LASF591
C:\Users\liukai\AppData\Local\Temp\ccrBK0vc.s:9945   .debug_str:000000000000729b .LASF592
C:\Users\liukai\AppData\Local\Temp\ccrBK0vc.s:8751   .debug_str:0000000000003608 .LASF593
C:\Users\liukai\AppData\Local\Temp\ccrBK0vc.s:9661   .debug_str:000000000000636c .LASF594
C:\Users\liukai\AppData\Local\Temp\ccrBK0vc.s:9729   .debug_str:00000000000067cf .LASF595
C:\Users\liukai\AppData\Local\Temp\ccrBK0vc.s:8527   .debug_str:0000000000002919 .LASF596
C:\Users\liukai\AppData\Local\Temp\ccrBK0vc.s:9755   .debug_str:0000000000006952 .LASF597
C:\Users\liukai\AppData\Local\Temp\ccrBK0vc.s:8779   .debug_str:000000000000373c .LASF598
C:\Users\liukai\AppData\Local\Temp\ccrBK0vc.s:8321   .debug_str:0000000000001ca1 .LASF599
C:\Users\liukai\AppData\Local\Temp\ccrBK0vc.s:9191   .debug_str:0000000000004a43 .LASF600
C:\Users\liukai\AppData\Local\Temp\ccrBK0vc.s:8163   .debug_str:000000000000139c .LASF601
C:\Users\liukai\AppData\Local\Temp\ccrBK0vc.s:8493   .debug_str:00000000000026a9 .LASF602
C:\Users\liukai\AppData\Local\Temp\ccrBK0vc.s:8431   .debug_str:000000000000235a .LASF603
C:\Users\liukai\AppData\Local\Temp\ccrBK0vc.s:8607   .debug_str:0000000000002d82 .LASF604
C:\Users\liukai\AppData\Local\Temp\ccrBK0vc.s:9687   .debug_str:000000000000652d .LASF605
C:\Users\liukai\AppData\Local\Temp\ccrBK0vc.s:9673   .debug_str:0000000000006416 .LASF606
C:\Users\liukai\AppData\Local\Temp\ccrBK0vc.s:9657   .debug_str:00000000000062f1 .LASF607
C:\Users\liukai\AppData\Local\Temp\ccrBK0vc.s:9285   .debug_str:0000000000004eac .LASF608
C:\Users\liukai\AppData\Local\Temp\ccrBK0vc.s:8355   .debug_str:0000000000001ebb .LASF609
C:\Users\liukai\AppData\Local\Temp\ccrBK0vc.s:9737   .debug_str:000000000000683b .LASF610
C:\Users\liukai\AppData\Local\Temp\ccrBK0vc.s:8133   .debug_str:000000000000115f .LASF611
C:\Users\liukai\AppData\Local\Temp\ccrBK0vc.s:9307   .debug_str:0000000000004ff9 .LASF612
C:\Users\liukai\AppData\Local\Temp\ccrBK0vc.s:7883   .debug_str:00000000000004f3 .LASF613
C:\Users\liukai\AppData\Local\Temp\ccrBK0vc.s:8051   .debug_str:0000000000000d35 .LASF614
C:\Users\liukai\AppData\Local\Temp\ccrBK0vc.s:8895   .debug_str:0000000000003cca .LASF615
C:\Users\liukai\AppData\Local\Temp\ccrBK0vc.s:9725   .debug_str:0000000000006772 .LASF616
C:\Users\liukai\AppData\Local\Temp\ccrBK0vc.s:8373   .debug_str:0000000000001ff8 .LASF617
C:\Users\liukai\AppData\Local\Temp\ccrBK0vc.s:9751   .debug_str:0000000000006924 .LASF618
C:\Users\liukai\AppData\Local\Temp\ccrBK0vc.s:9601   .debug_str:0000000000005fb8 .LASF619
C:\Users\liukai\AppData\Local\Temp\ccrBK0vc.s:7875   .debug_str:0000000000000483 .LASF620
C:\Users\liukai\AppData\Local\Temp\ccrBK0vc.s:9159   .debug_str:0000000000004902 .LASF621
C:\Users\liukai\AppData\Local\Temp\ccrBK0vc.s:9277   .debug_str:0000000000004e54 .LASF622
C:\Users\liukai\AppData\Local\Temp\ccrBK0vc.s:8407   .debug_str:0000000000002224 .LASF623
C:\Users\liukai\AppData\Local\Temp\ccrBK0vc.s:9723   .debug_str:000000000000672f .LASF624
C:\Users\liukai\AppData\Local\Temp\ccrBK0vc.s:9987   .debug_str:00000000000074bd .LASF625
C:\Users\liukai\AppData\Local\Temp\ccrBK0vc.s:8105   .debug_str:0000000000001021 .LASF626
C:\Users\liukai\AppData\Local\Temp\ccrBK0vc.s:7971   .debug_str:00000000000009eb .LASF627
C:\Users\liukai\AppData\Local\Temp\ccrBK0vc.s:8551   .debug_str:0000000000002a8e .LASF628
C:\Users\liukai\AppData\Local\Temp\ccrBK0vc.s:8819   .debug_str:00000000000039ab .LASF629
C:\Users\liukai\AppData\Local\Temp\ccrBK0vc.s:9189   .debug_str:0000000000004a29 .LASF630
C:\Users\liukai\AppData\Local\Temp\ccrBK0vc.s:9477   .debug_str:00000000000058e7 .LASF631
C:\Users\liukai\AppData\Local\Temp\ccrBK0vc.s:9627   .debug_str:000000000000618c .LASF632
C:\Users\liukai\AppData\Local\Temp\ccrBK0vc.s:9799   .debug_str:0000000000006b18 .LASF633
C:\Users\liukai\AppData\Local\Temp\ccrBK0vc.s:9853   .debug_str:0000000000006d7c .LASF634
C:\Users\liukai\AppData\Local\Temp\ccrBK0vc.s:8135   .debug_str:00000000000011c2 .LASF635
C:\Users\liukai\AppData\Local\Temp\ccrBK0vc.s:9767   .debug_str:00000000000069cd .LASF636
C:\Users\liukai\AppData\Local\Temp\ccrBK0vc.s:9463   .debug_str:00000000000057d6 .LASF637
C:\Users\liukai\AppData\Local\Temp\ccrBK0vc.s:8695   .debug_str:00000000000032fa .LASF638
C:\Users\liukai\AppData\Local\Temp\ccrBK0vc.s:8315   .debug_str:0000000000001c2e .LASF639
C:\Users\liukai\AppData\Local\Temp\ccrBK0vc.s:8663   .debug_str:00000000000030f0 .LASF640
C:\Users\liukai\AppData\Local\Temp\ccrBK0vc.s:9825   .debug_str:0000000000006c31 .LASF641
C:\Users\liukai\AppData\Local\Temp\ccrBK0vc.s:9545   .debug_str:0000000000005c7c .LASF642
C:\Users\liukai\AppData\Local\Temp\ccrBK0vc.s:8531   .debug_str:0000000000002970 .LASF643
C:\Users\liukai\AppData\Local\Temp\ccrBK0vc.s:8785   .debug_str:00000000000037b4 .LASF644
C:\Users\liukai\AppData\Local\Temp\ccrBK0vc.s:8297   .debug_str:0000000000001aec .LASF645
C:\Users\liukai\AppData\Local\Temp\ccrBK0vc.s:9643   .debug_str:0000000000006245 .LASF646
C:\Users\liukai\AppData\Local\Temp\ccrBK0vc.s:9641   .debug_str:0000000000006210 .LASF647
C:\Users\liukai\AppData\Local\Temp\ccrBK0vc.s:9639   .debug_str:0000000000006205 .LASF648
C:\Users\liukai\AppData\Local\Temp\ccrBK0vc.s:9289   .debug_str:0000000000004f44 .LASF649
C:\Users\liukai\AppData\Local\Temp\ccrBK0vc.s:8875   .debug_str:0000000000003c14 .LASF650
C:\Users\liukai\AppData\Local\Temp\ccrBK0vc.s:8991   .debug_str:0000000000004146 .LASF651
C:\Users\liukai\AppData\Local\Temp\ccrBK0vc.s:9313   .debug_str:0000000000005072 .LASF652
C:\Users\liukai\AppData\Local\Temp\ccrBK0vc.s:9119   .debug_str:00000000000047a6 .LASF653
C:\Users\liukai\AppData\Local\Temp\ccrBK0vc.s:9403   .debug_str:00000000000054f0 .LASF654
C:\Users\liukai\AppData\Local\Temp\ccrBK0vc.s:8173   .debug_str:0000000000001440 .LASF655
C:\Users\liukai\AppData\Local\Temp\ccrBK0vc.s:8673   .debug_str:00000000000031d9 .LASF656
C:\Users\liukai\AppData\Local\Temp\ccrBK0vc.s:8845   .debug_str:0000000000003aac .LASF657
C:\Users\liukai\AppData\Local\Temp\ccrBK0vc.s:9239   .debug_str:0000000000004cb4 .LASF658
C:\Users\liukai\AppData\Local\Temp\ccrBK0vc.s:9175   .debug_str:0000000000004996 .LASF659
C:\Users\liukai\AppData\Local\Temp\ccrBK0vc.s:9697   .debug_str:000000000000662a .LASF660
C:\Users\liukai\AppData\Local\Temp\ccrBK0vc.s:8927   .debug_str:0000000000003e83 .LASF661
C:\Users\liukai\AppData\Local\Temp\ccrBK0vc.s:9251   .debug_str:0000000000004d08 .LASF662
C:\Users\liukai\AppData\Local\Temp\ccrBK0vc.s:8581   .debug_str:0000000000002c20 .LASF663
C:\Users\liukai\AppData\Local\Temp\ccrBK0vc.s:8893   .debug_str:0000000000003cbf .LASF664
C:\Users\liukai\AppData\Local\Temp\ccrBK0vc.s:8113   .debug_str:0000000000001053 .LASF665
C:\Users\liukai\AppData\Local\Temp\ccrBK0vc.s:8963   .debug_str:0000000000004024 .LASF666
C:\Users\liukai\AppData\Local\Temp\ccrBK0vc.s:9525   .debug_str:0000000000005ba3 .LASF667
C:\Users\liukai\AppData\Local\Temp\ccrBK0vc.s:8617   .debug_str:0000000000002e2c .LASF668
C:\Users\liukai\AppData\Local\Temp\ccrBK0vc.s:9329   .debug_str:000000000000510b .LASF669
C:\Users\liukai\AppData\Local\Temp\ccrBK0vc.s:7989   .debug_str:0000000000000aa7 .LASF670
C:\Users\liukai\AppData\Local\Temp\ccrBK0vc.s:9249   .debug_str:0000000000004cfc .LASF671
C:\Users\liukai\AppData\Local\Temp\ccrBK0vc.s:8013   .debug_str:0000000000000ba3 .LASF672
C:\Users\liukai\AppData\Local\Temp\ccrBK0vc.s:9507   .debug_str:0000000000005a93 .LASF673
C:\Users\liukai\AppData\Local\Temp\ccrBK0vc.s:9515   .debug_str:0000000000005afa .LASF674
C:\Users\liukai\AppData\Local\Temp\ccrBK0vc.s:9099   .debug_str:000000000000468d .LASF675
C:\Users\liukai\AppData\Local\Temp\ccrBK0vc.s:9471   .debug_str:000000000000588b .LASF676
C:\Users\liukai\AppData\Local\Temp\ccrBK0vc.s:7983   .debug_str:0000000000000a76 .LASF677
C:\Users\liukai\AppData\Local\Temp\ccrBK0vc.s:8805   .debug_str:00000000000038b2 .LASF678
C:\Users\liukai\AppData\Local\Temp\ccrBK0vc.s:9561   .debug_str:0000000000005d9e .LASF679
C:\Users\liukai\AppData\Local\Temp\ccrBK0vc.s:9921   .debug_str:000000000000716b .LASF681
C:\Users\liukai\AppData\Local\Temp\ccrBK0vc.s:8601   .debug_str:0000000000002d46 .LASF682
C:\Users\liukai\AppData\Local\Temp\ccrBK0vc.s:10040  .debug_str:0000000000007997 .LASF687
C:\Users\liukai\AppData\Local\Temp\ccrBK0vc.s:8369   .debug_str:0000000000001fc4 .LASF688
C:\Users\liukai\AppData\Local\Temp\ccrBK0vc.s:8735   .debug_str:0000000000003535 .LASF689
C:\Users\liukai\AppData\Local\Temp\ccrBK0vc.s:8661   .debug_str:00000000000030b6 .LASF690
C:\Users\liukai\AppData\Local\Temp\ccrBK0vc.s:8147   .debug_str:00000000000012bc .LASF691
C:\Users\liukai\AppData\Local\Temp\ccrBK0vc.s:9996   .debug_str:000000000000772f .LASF692
C:\Users\liukai\AppData\Local\Temp\ccrBK0vc.s:9817   .debug_str:0000000000006bd7 .LASF693
C:\Users\liukai\AppData\Local\Temp\ccrBK0vc.s:8783   .debug_str:0000000000003771 .LASF694
C:\Users\liukai\AppData\Local\Temp\ccrBK0vc.s:9371   .debug_str:0000000000005343 .LASF695
C:\Users\liukai\AppData\Local\Temp\ccrBK0vc.s:9951   .debug_str:0000000000007323 .LASF696
C:\Users\liukai\AppData\Local\Temp\ccrBK0vc.s:9453   .debug_str:000000000000572e .LASF697
C:\Users\liukai\AppData\Local\Temp\ccrBK0vc.s:8589   .debug_str:0000000000002c60 .LASF698
C:\Users\liukai\AppData\Local\Temp\ccrBK0vc.s:8141   .debug_str:0000000000001272 .LASF699
C:\Users\liukai\AppData\Local\Temp\ccrBK0vc.s:9949   .debug_str:00000000000072dc .LASF700
C:\Users\liukai\AppData\Local\Temp\ccrBK0vc.s:9375   .debug_str:00000000000053b2 .LASF701
C:\Users\liukai\AppData\Local\Temp\ccrBK0vc.s:8705   .debug_str:00000000000033a8 .LASF702
C:\Users\liukai\AppData\Local\Temp\ccrBK0vc.s:8137   .debug_str:000000000000120f .LASF703
C:\Users\liukai\AppData\Local\Temp\ccrBK0vc.s:8447   .debug_str:0000000000002459 .LASF704
C:\Users\liukai\AppData\Local\Temp\ccrBK0vc.s:8879   .debug_str:0000000000003c42 .LASF705
C:\Users\liukai\AppData\Local\Temp\ccrBK0vc.s:8245   .debug_str:00000000000017b7 .LASF706
C:\Users\liukai\AppData\Local\Temp\ccrBK0vc.s:8247   .debug_str:00000000000017cf .LASF707
C:\Users\liukai\AppData\Local\Temp\ccrBK0vc.s:9497   .debug_str:0000000000005a21 .LASF708
C:\Users\liukai\AppData\Local\Temp\ccrBK0vc.s:8791   .debug_str:000000000000382d .LASF709
C:\Users\liukai\AppData\Local\Temp\ccrBK0vc.s:9709   .debug_str:00000000000066bd .LASF710
C:\Users\liukai\AppData\Local\Temp\ccrBK0vc.s:9563   .debug_str:0000000000005db0 .LASF711
C:\Users\liukai\AppData\Local\Temp\ccrBK0vc.s:8211   .debug_str:0000000000001617 .LASF712
C:\Users\liukai\AppData\Local\Temp\ccrBK0vc.s:8647   .debug_str:0000000000002fff .LASF713
C:\Users\liukai\AppData\Local\Temp\ccrBK0vc.s:9907   .debug_str:000000000000705e .LASF714
C:\Users\liukai\AppData\Local\Temp\ccrBK0vc.s:8885   .debug_str:0000000000003c63 .LASF715
C:\Users\liukai\AppData\Local\Temp\ccrBK0vc.s:8993   .debug_str:0000000000004152 .LASF716
C:\Users\liukai\AppData\Local\Temp\ccrBK0vc.s:9005   .debug_str:0000000000004218 .LASF717
C:\Users\liukai\AppData\Local\Temp\ccrBK0vc.s:9173   .debug_str:000000000000497e .LASF718
C:\Users\liukai\AppData\Local\Temp\ccrBK0vc.s:9785   .debug_str:0000000000006aa6 .LASF719
C:\Users\liukai\AppData\Local\Temp\ccrBK0vc.s:9547   .debug_str:0000000000005ccd .LASF720
C:\Users\liukai\AppData\Local\Temp\ccrBK0vc.s:9253   .debug_str:0000000000004d15 .LASF721
C:\Users\liukai\AppData\Local\Temp\ccrBK0vc.s:9947   .debug_str:00000000000072c7 .LASF722
C:\Users\liukai\AppData\Local\Temp\ccrBK0vc.s:8235   .debug_str:0000000000001761 .LASF723
C:\Users\liukai\AppData\Local\Temp\ccrBK0vc.s:10024  .debug_str:00000000000078d8 .LASF724
C:\Users\liukai\AppData\Local\Temp\ccrBK0vc.s:7843   .debug_str:000000000000030b .LASF725
C:\Users\liukai\AppData\Local\Temp\ccrBK0vc.s:8117   .debug_str:000000000000107d .LASF726
C:\Users\liukai\AppData\Local\Temp\ccrBK0vc.s:9491   .debug_str:0000000000005964 .LASF727
C:\Users\liukai\AppData\Local\Temp\ccrBK0vc.s:10048  .debug_str:00000000000079e6 .LASF728
C:\Users\liukai\AppData\Local\Temp\ccrBK0vc.s:9989   .debug_str:0000000000007505 .LASF729
C:\Users\liukai\AppData\Local\Temp\ccrBK0vc.s:9827   .debug_str:0000000000006c78 .LASF730
C:\Users\liukai\AppData\Local\Temp\ccrBK0vc.s:8065   .debug_str:0000000000000dff .LASF731
C:\Users\liukai\AppData\Local\Temp\ccrBK0vc.s:9499   .debug_str:0000000000005a3b .LASF732
C:\Users\liukai\AppData\Local\Temp\ccrBK0vc.s:8949   .debug_str:0000000000003f6e .LASF733
C:\Users\liukai\AppData\Local\Temp\ccrBK0vc.s:9579   .debug_str:0000000000005e56 .LASF734
C:\Users\liukai\AppData\Local\Temp\ccrBK0vc.s:9147   .debug_str:0000000000004897 .LASF735
C:\Users\liukai\AppData\Local\Temp\ccrBK0vc.s:8877   .debug_str:0000000000003c24 .LASF736
C:\Users\liukai\AppData\Local\Temp\ccrBK0vc.s:8569   .debug_str:0000000000002b68 .LASF737
C:\Users\liukai\AppData\Local\Temp\ccrBK0vc.s:8181   .debug_str:00000000000014a2 .LASF738
C:\Users\liukai\AppData\Local\Temp\ccrBK0vc.s:8129   .debug_str:0000000000001104 .LASF739
C:\Users\liukai\AppData\Local\Temp\ccrBK0vc.s:8919   .debug_str:0000000000003e1c .LASF740
C:\Users\liukai\AppData\Local\Temp\ccrBK0vc.s:8293   .debug_str:0000000000001a9c .LASF741
C:\Users\liukai\AppData\Local\Temp\ccrBK0vc.s:7951   .debug_str:00000000000008fd .LASF742
C:\Users\liukai\AppData\Local\Temp\ccrBK0vc.s:8317   .debug_str:0000000000001c6b .LASF743
C:\Users\liukai\AppData\Local\Temp\ccrBK0vc.s:9451   .debug_str:000000000000570d .LASF744
C:\Users\liukai\AppData\Local\Temp\ccrBK0vc.s:7977   .debug_str:0000000000000a16 .LASF745
C:\Users\liukai\AppData\Local\Temp\ccrBK0vc.s:9431   .debug_str:000000000000561f .LASF746
C:\Users\liukai\AppData\Local\Temp\ccrBK0vc.s:8621   .debug_str:0000000000002e50 .LASF747
C:\Users\liukai\AppData\Local\Temp\ccrBK0vc.s:8477   .debug_str:00000000000025cd .LASF748
C:\Users\liukai\AppData\Local\Temp\ccrBK0vc.s:9915   .debug_str:00000000000070de .LASF749
C:\Users\liukai\AppData\Local\Temp\ccrBK0vc.s:8693   .debug_str:00000000000032c0 .LASF750
C:\Users\liukai\AppData\Local\Temp\ccrBK0vc.s:9073   .debug_str:0000000000004526 .LASF751
C:\Users\liukai\AppData\Local\Temp\ccrBK0vc.s:9405   .debug_str:00000000000054fd .LASF752
C:\Users\liukai\AppData\Local\Temp\ccrBK0vc.s:9009   .debug_str:000000000000423a .LASF753
C:\Users\liukai\AppData\Local\Temp\ccrBK0vc.s:8445   .debug_str:000000000000241b .LASF754
C:\Users\liukai\AppData\Local\Temp\ccrBK0vc.s:9003   .debug_str:00000000000041d6 .LASF755
C:\Users\liukai\AppData\Local\Temp\ccrBK0vc.s:9475   .debug_str:00000000000058a9 .LASF756
C:\Users\liukai\AppData\Local\Temp\ccrBK0vc.s:9391   .debug_str:0000000000005456 .LASF757
C:\Users\liukai\AppData\Local\Temp\ccrBK0vc.s:8777   .debug_str:0000000000003708 .LASF758
C:\Users\liukai\AppData\Local\Temp\ccrBK0vc.s:9923   .debug_str:000000000000717c .LASF759
C:\Users\liukai\AppData\Local\Temp\ccrBK0vc.s:7799   .debug_str:000000000000010b .LASF760
C:\Users\liukai\AppData\Local\Temp\ccrBK0vc.s:9275   .debug_str:0000000000004dfc .LASF761
C:\Users\liukai\AppData\Local\Temp\ccrBK0vc.s:7847   .debug_str:0000000000000339 .LASF762
C:\Users\liukai\AppData\Local\Temp\ccrBK0vc.s:9675   .debug_str:00000000000064a2 .LASF763
C:\Users\liukai\AppData\Local\Temp\ccrBK0vc.s:8487   .debug_str:000000000000267c .LASF764
C:\Users\liukai\AppData\Local\Temp\ccrBK0vc.s:9707   .debug_str:000000000000669c .LASF765
C:\Users\liukai\AppData\Local\Temp\ccrBK0vc.s:7805   .debug_str:0000000000000167 .LASF766
C:\Users\liukai\AppData\Local\Temp\ccrBK0vc.s:7955   .debug_str:0000000000000931 .LASF767
C:\Users\liukai\AppData\Local\Temp\ccrBK0vc.s:8541   .debug_str:0000000000002a29 .LASF768
C:\Users\liukai\AppData\Local\Temp\ccrBK0vc.s:8887   .debug_str:0000000000003c81 .LASF770
C:\Users\liukai\AppData\Local\Temp\ccrBK0vc.s:9365   .debug_str:000000000000530f .LASF771
C:\Users\liukai\AppData\Local\Temp\ccrBK0vc.s:8681   .debug_str:0000000000003240 .LASF772
C:\Users\liukai\AppData\Local\Temp\ccrBK0vc.s:8503   .debug_str:00000000000027dc .LASF773
C:\Users\liukai\AppData\Local\Temp\ccrBK0vc.s:9207   .debug_str:0000000000004afc .LASF774
C:\Users\liukai\AppData\Local\Temp\ccrBK0vc.s:7833   .debug_str:0000000000000294 .LASF775
C:\Users\liukai\AppData\Local\Temp\ccrBK0vc.s:9237   .debug_str:0000000000004c97 .LASF776
C:\Users\liukai\AppData\Local\Temp\ccrBK0vc.s:8207   .debug_str:00000000000015d8 .LASF777
C:\Users\liukai\AppData\Local\Temp\ccrBK0vc.s:9957   .debug_str:000000000000739f .LASF778
C:\Users\liukai\AppData\Local\Temp\ccrBK0vc.s:8699   .debug_str:000000000000335f .LASF779
C:\Users\liukai\AppData\Local\Temp\ccrBK0vc.s:8817   .debug_str:0000000000003987 .LASF780
C:\Users\liukai\AppData\Local\Temp\ccrBK0vc.s:8529   .debug_str:000000000000294c .LASF781
C:\Users\liukai\AppData\Local\Temp\ccrBK0vc.s:9633   .debug_str:00000000000061ca .LASF782
C:\Users\liukai\AppData\Local\Temp\ccrBK0vc.s:7795   .debug_str:00000000000000d0 .LASF783
C:\Users\liukai\AppData\Local\Temp\ccrBK0vc.s:9467   .debug_str:0000000000005864 .LASF784
C:\Users\liukai\AppData\Local\Temp\ccrBK0vc.s:8039   .debug_str:0000000000000c9e .LASF785
C:\Users\liukai\AppData\Local\Temp\ccrBK0vc.s:9231   .debug_str:0000000000004c30 .LASF786
C:\Users\liukai\AppData\Local\Temp\ccrBK0vc.s:8575   .debug_str:0000000000002bd3 .LASF789
C:\Users\liukai\AppData\Local\Temp\ccrBK0vc.s:9577   .debug_str:0000000000005e3f .LASF790
C:\Users\liukai\AppData\Local\Temp\ccrBK0vc.s:9259   .debug_str:0000000000004d7b .LASF791
C:\Users\liukai\AppData\Local\Temp\ccrBK0vc.s:9013   .debug_str:0000000000004291 .LASF792
C:\Users\liukai\AppData\Local\Temp\ccrBK0vc.s:8553   .debug_str:0000000000002aa1 .LASF793
C:\Users\liukai\AppData\Local\Temp\ccrBK0vc.s:8957   .debug_str:0000000000003fcf .LASF794
C:\Users\liukai\AppData\Local\Temp\ccrBK0vc.s:9233   .debug_str:0000000000004c4a .LASF795
C:\Users\liukai\AppData\Local\Temp\ccrBK0vc.s:9495   .debug_str:000000000000599e .LASF796
C:\Users\liukai\AppData\Local\Temp\ccrBK0vc.s:7931   .debug_str:000000000000071f .LASF797
C:\Users\liukai\AppData\Local\Temp\ccrBK0vc.s:8497   .debug_str:00000000000026f2 .LASF798
C:\Users\liukai\AppData\Local\Temp\ccrBK0vc.s:8645   .debug_str:0000000000002f90 .LASF801
C:\Users\liukai\AppData\Local\Temp\ccrBK0vc.s:9689   .debug_str:0000000000006579 .LASF802
C:\Users\liukai\AppData\Local\Temp\ccrBK0vc.s:7941   .debug_str:0000000000000848 .LASF803
C:\Users\liukai\AppData\Local\Temp\ccrBK0vc.s:8461   .debug_str:00000000000024f8 .LASF804
C:\Users\liukai\AppData\Local\Temp\ccrBK0vc.s:9663   .debug_str:0000000000006395 .LASF805
C:\Users\liukai\AppData\Local\Temp\ccrBK0vc.s:9809   .debug_str:0000000000006b83 .LASF806
C:\Users\liukai\AppData\Local\Temp\ccrBK0vc.s:7991   .debug_str:0000000000000ab9 .LASF807
C:\Users\liukai\AppData\Local\Temp\ccrBK0vc.s:9629   .debug_str:00000000000061ac .LASF808
C:\Users\liukai\AppData\Local\Temp\ccrBK0vc.s:8519   .debug_str:0000000000002888 .LASF809
C:\Users\liukai\AppData\Local\Temp\ccrBK0vc.s:8079   .debug_str:0000000000000eb0 .LASF810
C:\Users\liukai\AppData\Local\Temp\ccrBK0vc.s:7949   .debug_str:00000000000008b8 .LASF811
C:\Users\liukai\AppData\Local\Temp\ccrBK0vc.s:9621   .debug_str:00000000000060cb .LASF812
C:\Users\liukai\AppData\Local\Temp\ccrBK0vc.s:9409   .debug_str:0000000000005545 .LASF813
C:\Users\liukai\AppData\Local\Temp\ccrBK0vc.s:8395   .debug_str:00000000000021a9 .LASF814
C:\Users\liukai\AppData\Local\Temp\ccrBK0vc.s:9527   .debug_str:0000000000005bae .LASF815
C:\Users\liukai\AppData\Local\Temp\ccrBK0vc.s:7889   .debug_str:0000000000000580 .LASF816
C:\Users\liukai\AppData\Local\Temp\ccrBK0vc.s:9979   .debug_str:000000000000748f .LASF817
C:\Users\liukai\AppData\Local\Temp\ccrBK0vc.s:9583   .debug_str:0000000000005eb9 .LASF818
C:\Users\liukai\AppData\Local\Temp\ccrBK0vc.s:8847   .debug_str:0000000000003ac0 .LASF819
C:\Users\liukai\AppData\Local\Temp\ccrBK0vc.s:10042  .debug_str:00000000000079a7 .LASF820
C:\Users\liukai\AppData\Local\Temp\ccrBK0vc.s:8947   .debug_str:0000000000003f5b .LASF821
C:\Users\liukai\AppData\Local\Temp\ccrBK0vc.s:8253   .debug_str:000000000000180b .LASF822
C:\Users\liukai\AppData\Local\Temp\ccrBK0vc.s:8619   .debug_str:0000000000002e3b .LASF823
C:\Users\liukai\AppData\Local\Temp\ccrBK0vc.s:9521   .debug_str:0000000000005b51 .LASF824
C:\Users\liukai\AppData\Local\Temp\ccrBK0vc.s:7815   .debug_str:00000000000001c5 .LASF825
C:\Users\liukai\AppData\Local\Temp\ccrBK0vc.s:7975   .debug_str:0000000000000a03 .LASF826
C:\Users\liukai\AppData\Local\Temp\ccrBK0vc.s:8583   .debug_str:0000000000002c2a .LASF827
C:\Users\liukai\AppData\Local\Temp\ccrBK0vc.s:8635   .debug_str:0000000000002f34 .LASF828
C:\Users\liukai\AppData\Local\Temp\ccrBK0vc.s:9419   .debug_str:00000000000055b5 .LASF829
C:\Users\liukai\AppData\Local\Temp\ccrBK0vc.s:9063   .debug_str:00000000000044c1 .LASF830
C:\Users\liukai\AppData\Local\Temp\ccrBK0vc.s:8667   .debug_str:00000000000031a5 .LASF831
C:\Users\liukai\AppData\Local\Temp\ccrBK0vc.s:8363   .debug_str:0000000000001f83 .LASF832
C:\Users\liukai\AppData\Local\Temp\ccrBK0vc.s:8443   .debug_str:000000000000240a .LASF833
C:\Users\liukai\AppData\Local\Temp\ccrBK0vc.s:9501   .debug_str:0000000000005a51 .LASF834
C:\Users\liukai\AppData\Local\Temp\ccrBK0vc.s:8969   .debug_str:000000000000405d .LASF835
C:\Users\liukai\AppData\Local\Temp\ccrBK0vc.s:8037   .debug_str:0000000000000c8d .LASF836
C:\Users\liukai\AppData\Local\Temp\ccrBK0vc.s:9557   .debug_str:0000000000005d67 .LASF837
C:\Users\liukai\AppData\Local\Temp\ccrBK0vc.s:7999   .debug_str:0000000000000b0a .LASF838
C:\Users\liukai\AppData\Local\Temp\ccrBK0vc.s:8305   .debug_str:0000000000001b7a .LASF839
C:\Users\liukai\AppData\Local\Temp\ccrBK0vc.s:8415   .debug_str:0000000000002295 .LASF840
C:\Users\liukai\AppData\Local\Temp\ccrBK0vc.s:9881   .debug_str:0000000000006ed0 .LASF841
C:\Users\liukai\AppData\Local\Temp\ccrBK0vc.s:9213   .debug_str:0000000000004b5b .LASF842
C:\Users\liukai\AppData\Local\Temp\ccrBK0vc.s:8377   .debug_str:0000000000002068 .LASF843
C:\Users\liukai\AppData\Local\Temp\ccrBK0vc.s:8459   .debug_str:00000000000024e2 .LASF844
C:\Users\liukai\AppData\Local\Temp\ccrBK0vc.s:9255   .debug_str:0000000000004d2d .LASF846
C:\Users\liukai\AppData\Local\Temp\ccrBK0vc.s:9297   .debug_str:0000000000004fb8 .LASF847
C:\Users\liukai\AppData\Local\Temp\ccrBK0vc.s:8859   .debug_str:0000000000003b4f .LASF848
C:\Users\liukai\AppData\Local\Temp\ccrBK0vc.s:9961   .debug_str:00000000000073d8 .LASF849
C:\Users\liukai\AppData\Local\Temp\ccrBK0vc.s:9539   .debug_str:0000000000005c20 .LASF850
C:\Users\liukai\AppData\Local\Temp\ccrBK0vc.s:8577   .debug_str:0000000000002be5 .LASF851
C:\Users\liukai\AppData\Local\Temp\ccrBK0vc.s:7845   .debug_str:0000000000000321 .LASF852
C:\Users\liukai\AppData\Local\Temp\ccrBK0vc.s:8285   .debug_str:0000000000001a1e .LASF853
C:\Users\liukai\AppData\Local\Temp\ccrBK0vc.s:9205   .debug_str:0000000000004ae2 .LASF854
C:\Users\liukai\AppData\Local\Temp\ccrBK0vc.s:8731   .debug_str:0000000000003509 .LASF855
C:\Users\liukai\AppData\Local\Temp\ccrBK0vc.s:9309   .debug_str:000000000000501c .LASF856
C:\Users\liukai\AppData\Local\Temp\ccrBK0vc.s:9461   .debug_str:000000000000579e .LASF857
C:\Users\liukai\AppData\Local\Temp\ccrBK0vc.s:7783   .debug_str:0000000000000047 .LASF858
C:\Users\liukai\AppData\Local\Temp\ccrBK0vc.s:9603   .debug_str:0000000000005fd1 .LASF861
C:\Users\liukai\AppData\Local\Temp\ccrBK0vc.s:8307   .debug_str:0000000000001b8d .LASF862
C:\Users\liukai\AppData\Local\Temp\ccrBK0vc.s:8387   .debug_str:000000000000211d .LASF863
C:\Users\liukai\AppData\Local\Temp\ccrBK0vc.s:8201   .debug_str:0000000000001596 .LASF864
C:\Users\liukai\AppData\Local\Temp\ccrBK0vc.s:9327   .debug_str:00000000000050fd .LASF865
C:\Users\liukai\AppData\Local\Temp\ccrBK0vc.s:8053   .debug_str:0000000000000d8d .LASF866
C:\Users\liukai\AppData\Local\Temp\ccrBK0vc.s:9807   .debug_str:0000000000006b76 .LASF867
C:\Users\liukai\AppData\Local\Temp\ccrBK0vc.s:8547   .debug_str:0000000000002a75 .LASF868
C:\Users\liukai\AppData\Local\Temp\ccrBK0vc.s:9055   .debug_str:0000000000004485 .LASF869
C:\Users\liukai\AppData\Local\Temp\ccrBK0vc.s:8977   .debug_str:00000000000040b5 .LASF870
C:\Users\liukai\AppData\Local\Temp\ccrBK0vc.s:8035   .debug_str:0000000000000c7f .LASF871
C:\Users\liukai\AppData\Local\Temp\ccrBK0vc.s:9197   .debug_str:0000000000004aab .LASF872
C:\Users\liukai\AppData\Local\Temp\ccrBK0vc.s:8033   .debug_str:0000000000000c71 .LASF873
C:\Users\liukai\AppData\Local\Temp\ccrBK0vc.s:9441   .debug_str:00000000000056b8 .LASF874
C:\Users\liukai\AppData\Local\Temp\ccrBK0vc.s:9899   .debug_str:0000000000006ffb .LASF875
C:\Users\liukai\AppData\Local\Temp\ccrBK0vc.s:8439   .debug_str:00000000000023d0 .LASF876
C:\Users\liukai\AppData\Local\Temp\ccrBK0vc.s:9223   .debug_str:0000000000004bc6 .LASF877
C:\Users\liukai\AppData\Local\Temp\ccrBK0vc.s:8515   .debug_str:000000000000285f .LASF878
C:\Users\liukai\AppData\Local\Temp\ccrBK0vc.s:9429   .debug_str:0000000000005611 .LASF879
C:\Users\liukai\AppData\Local\Temp\ccrBK0vc.s:8811   .debug_str:000000000000393f .LASF880
C:\Users\liukai\AppData\Local\Temp\ccrBK0vc.s:8913   .debug_str:0000000000003dea .LASF881
C:\Users\liukai\AppData\Local\Temp\ccrBK0vc.s:9735   .debug_str:0000000000006832 .LASF882
C:\Users\liukai\AppData\Local\Temp\ccrBK0vc.s:9261   .debug_str:0000000000004d8d .LASF883
C:\Users\liukai\AppData\Local\Temp\ccrBK0vc.s:9041   .debug_str:00000000000043d8 .LASF884
C:\Users\liukai\AppData\Local\Temp\ccrBK0vc.s:9739   .debug_str:000000000000689c .LASF885
C:\Users\liukai\AppData\Local\Temp\ccrBK0vc.s:8267   .debug_str:00000000000018ab .LASF886
C:\Users\liukai\AppData\Local\Temp\ccrBK0vc.s:8717   .debug_str:0000000000003450 .LASF887
C:\Users\liukai\AppData\Local\Temp\ccrBK0vc.s:8421   .debug_str:0000000000002305 .LASF888
C:\Users\liukai\AppData\Local\Temp\ccrBK0vc.s:8935   .debug_str:0000000000003ecd .LASF889
C:\Users\liukai\AppData\Local\Temp\ccrBK0vc.s:7839   .debug_str:00000000000002e7 .LASF890
C:\Users\liukai\AppData\Local\Temp\ccrBK0vc.s:8237   .debug_str:000000000000177a .LASF891
C:\Users\liukai\AppData\Local\Temp\ccrBK0vc.s:9445   .debug_str:00000000000056cf .LASF892
C:\Users\liukai\AppData\Local\Temp\ccrBK0vc.s:9085   .debug_str:00000000000045d8 .LASF893
C:\Users\liukai\AppData\Local\Temp\ccrBK0vc.s:7929   .debug_str:0000000000000708 .LASF894
C:\Users\liukai\AppData\Local\Temp\ccrBK0vc.s:8099   .debug_str:0000000000000fce .LASF895
C:\Users\liukai\AppData\Local\Temp\ccrBK0vc.s:7981   .debug_str:0000000000000a5d .LASF896
C:\Users\liukai\AppData\Local\Temp\ccrBK0vc.s:9895   .debug_str:0000000000006fce .LASF897
C:\Users\liukai\AppData\Local\Temp\ccrBK0vc.s:8861   .debug_str:0000000000003b5c .LASF898
C:\Users\liukai\AppData\Local\Temp\ccrBK0vc.s:7837   .debug_str:00000000000002cb .LASF899
C:\Users\liukai\AppData\Local\Temp\ccrBK0vc.s:8933   .debug_str:0000000000003eb5 .LASF900
C:\Users\liukai\AppData\Local\Temp\ccrBK0vc.s:9893   .debug_str:0000000000006f73 .LASF901
C:\Users\liukai\AppData\Local\Temp\ccrBK0vc.s:8381   .debug_str:000000000000209d .LASF902
C:\Users\liukai\AppData\Local\Temp\ccrBK0vc.s:8361   .debug_str:0000000000001f2a .LASF903
C:\Users\liukai\AppData\Local\Temp\ccrBK0vc.s:7855   .debug_str:0000000000000382 .LASF904
C:\Users\liukai\AppData\Local\Temp\ccrBK0vc.s:9037   .debug_str:000000000000439a .LASF905
C:\Users\liukai\AppData\Local\Temp\ccrBK0vc.s:9705   .debug_str:000000000000666a .LASF906
C:\Users\liukai\AppData\Local\Temp\ccrBK0vc.s:8715   .debug_str:0000000000003417 .LASF907
C:\Users\liukai\AppData\Local\Temp\ccrBK0vc.s:9869   .debug_str:0000000000006e51 .LASF908
C:\Users\liukai\AppData\Local\Temp\ccrBK0vc.s:8703   .debug_str:0000000000003395 .LASF909
C:\Users\liukai\AppData\Local\Temp\ccrBK0vc.s:8721   .debug_str:0000000000003484 .LASF910
C:\Users\liukai\AppData\Local\Temp\ccrBK0vc.s:9819   .debug_str:0000000000006c06 .LASF911
C:\Users\liukai\AppData\Local\Temp\ccrBK0vc.s:7819   .debug_str:00000000000001dd .LASF912
C:\Users\liukai\AppData\Local\Temp\ccrBK0vc.s:9425   .debug_str:00000000000055e1 .LASF913
C:\Users\liukai\AppData\Local\Temp\ccrBK0vc.s:9973   .debug_str:0000000000007445 .LASF914
C:\Users\liukai\AppData\Local\Temp\ccrBK0vc.s:8535   .debug_str:00000000000029c7 .LASF915
C:\Users\liukai\AppData\Local\Temp\ccrBK0vc.s:8151   .debug_str:00000000000012fe .LASF916
C:\Users\liukai\AppData\Local\Temp\ccrBK0vc.s:8665   .debug_str:000000000000313d .LASF917
C:\Users\liukai\AppData\Local\Temp\ccrBK0vc.s:8563   .debug_str:0000000000002b18 .LASF918
C:\Users\liukai\AppData\Local\Temp\ccrBK0vc.s:8323   .debug_str:0000000000001cd0 .LASF919
C:\Users\liukai\AppData\Local\Temp\ccrBK0vc.s:8603   .debug_str:0000000000002d56 .LASF920
C:\Users\liukai\AppData\Local\Temp\ccrBK0vc.s:8465   .debug_str:0000000000002523 .LASF921
C:\Users\liukai\AppData\Local\Temp\ccrBK0vc.s:8573   .debug_str:0000000000002bcb .LASF922
C:\Users\liukai\AppData\Local\Temp\ccrBK0vc.s:8115   .debug_str:000000000000105d .LASF923
C:\Users\liukai\AppData\Local\Temp\ccrBK0vc.s:9721   .debug_str:000000000000671c .LASF924
C:\Users\liukai\AppData\Local\Temp\ccrBK0vc.s:8623   .debug_str:0000000000002e84 .LASF925
C:\Users\liukai\AppData\Local\Temp\ccrBK0vc.s:9685   .debug_str:000000000000651f .LASF926
C:\Users\liukai\AppData\Local\Temp\ccrBK0vc.s:9081   .debug_str:00000000000045a9 .LASF927
C:\Users\liukai\AppData\Local\Temp\ccrBK0vc.s:8723   .debug_str:000000000000349b .LASF928
C:\Users\liukai\AppData\Local\Temp\ccrBK0vc.s:8427   .debug_str:0000000000002325 .LASF929
C:\Users\liukai\AppData\Local\Temp\ccrBK0vc.s:8549   .debug_str:0000000000002a82 .LASF930
C:\Users\liukai\AppData\Local\Temp\ccrBK0vc.s:9355   .debug_str:000000000000527b .LASF931
C:\Users\liukai\AppData\Local\Temp\ccrBK0vc.s:7879   .debug_str:00000000000004bb .LASF932
C:\Users\liukai\AppData\Local\Temp\ccrBK0vc.s:8901   .debug_str:0000000000003d71 .LASF933
C:\Users\liukai\AppData\Local\Temp\ccrBK0vc.s:10030  .debug_str:000000000000791d .LASF934
C:\Users\liukai\AppData\Local\Temp\ccrBK0vc.s:9873   .debug_str:0000000000006e7b .LASF935
C:\Users\liukai\AppData\Local\Temp\ccrBK0vc.s:8943   .debug_str:0000000000003f13 .LASF936
C:\Users\liukai\AppData\Local\Temp\ccrBK0vc.s:8375   .debug_str:0000000000002046 .LASF937
C:\Users\liukai\AppData\Local\Temp\ccrBK0vc.s:8967   .debug_str:0000000000004041 .LASF938
C:\Users\liukai\AppData\Local\Temp\ccrBK0vc.s:9503   .debug_str:0000000000005a62 .LASF939
C:\Users\liukai\AppData\Local\Temp\ccrBK0vc.s:9031   .debug_str:0000000000004341 .LASF940
C:\Users\liukai\AppData\Local\Temp\ccrBK0vc.s:9351   .debug_str:0000000000005234 .LASF941
C:\Users\liukai\AppData\Local\Temp\ccrBK0vc.s:9953   .debug_str:000000000000736a .LASF942
C:\Users\liukai\AppData\Local\Temp\ccrBK0vc.s:8179   .debug_str:0000000000001475 .LASF943
C:\Users\liukai\AppData\Local\Temp\ccrBK0vc.s:9051   .debug_str:0000000000004439 .LASF944
C:\Users\liukai\AppData\Local\Temp\ccrBK0vc.s:8217   .debug_str:0000000000001671 .LASF945
C:\Users\liukai\AppData\Local\Temp\ccrBK0vc.s:9465   .debug_str:0000000000005829 .LASF946
C:\Users\liukai\AppData\Local\Temp\ccrBK0vc.s:9623   .debug_str:000000000000614f .LASF947
C:\Users\liukai\AppData\Local\Temp\ccrBK0vc.s:9065   .debug_str:00000000000044d2 .LASF948
C:\Users\liukai\AppData\Local\Temp\ccrBK0vc.s:8081   .debug_str:0000000000000ef5 .LASF949
C:\Users\liukai\AppData\Local\Temp\ccrBK0vc.s:8863   .debug_str:0000000000003b78 .LASF950
C:\Users\liukai\AppData\Local\Temp\ccrBK0vc.s:9559   .debug_str:0000000000005d7a .LASF951
C:\Users\liukai\AppData\Local\Temp\ccrBK0vc.s:8561   .debug_str:0000000000002af5 .LASF952
C:\Users\liukai\AppData\Local\Temp\ccrBK0vc.s:9959   .debug_str:00000000000073b6 .LASF953
C:\Users\liukai\AppData\Local\Temp\ccrBK0vc.s:10010  .debug_str:0000000000007805 .LASF954
C:\Users\liukai\AppData\Local\Temp\ccrBK0vc.s:8903   .debug_str:0000000000003d8e .LASF955
C:\Users\liukai\AppData\Local\Temp\ccrBK0vc.s:9449   .debug_str:00000000000056ea .LASF956
C:\Users\liukai\AppData\Local\Temp\ccrBK0vc.s:8309   .debug_str:0000000000001be2 .LASF957
C:\Users\liukai\AppData\Local\Temp\ccrBK0vc.s:9299   .debug_str:0000000000004fc6 .LASF958
C:\Users\liukai\AppData\Local\Temp\ccrBK0vc.s:10014  .debug_str:0000000000007870 .LASF959
C:\Users\liukai\AppData\Local\Temp\ccrBK0vc.s:9103   .debug_str:00000000000046af .LASF960
C:\Users\liukai\AppData\Local\Temp\ccrBK0vc.s:8003   .debug_str:0000000000000b38 .LASF961
C:\Users\liukai\AppData\Local\Temp\ccrBK0vc.s:8433   .debug_str:000000000000238d .LASF962
                           .group:0000000000000000 wm4.0.37aa6d340f8b0e49c613fc152d20c88a
                           .group:0000000000000000 wm4._newlib_version.h.4.875b979a44719054cd750d0952ad3fd6
                           .group:0000000000000000 wm4.features.h.33.318b64d71e0957639cfb30f1db1f7ec8
                           .group:0000000000000000 wm4._default_types.h.15.247e5cd201eca3442cbf5404108c4935
                           .group:0000000000000000 wm4._intsup.h.10.cce27fed8484c08a33f522034c30d2b5
                           .group:0000000000000000 wm4._stdint.h.10.c24fa3af3bc1706662bb5593a907e841
                           .group:0000000000000000 wm4.stdint.h.23.d53047a68f4a85177f80b422d52785ed
                           .group:0000000000000000 wm4.newlib.h.8.9957ed579b08d5b19580d9fda2a8f437
                           .group:0000000000000000 wm4.ieeefp.h.193.a04996ad6548b0579a40a1f708027f95
                           .group:0000000000000000 wm4.config.h.79.b548f69d9f69fceadec535dc005f68c6
                           .group:0000000000000000 wm4._ansi.h.31.de524f58584151836e90d8620a16f8e8
                           .group:0000000000000000 wm4.stdio.h.31.7c0e28c411445f3f9c5b11accf882760
                           .group:0000000000000000 wm4.stddef.h.187.2ff233552538c6ff9b8575ca8ea52cb3
                           .group:0000000000000000 wm4.cdefs.h.47.9b1aff81ebf9fd459c1248694f70fc96
                           .group:0000000000000000 wm4.stddef.h.39.ec95e8feac892e292b69dc7ae75b0d64
                           .group:0000000000000000 wm4.stdarg.h.34.3a23a216c0c293b3d2ea2e89281481e6
                           .group:0000000000000000 wm4.lock.h.2.1461d1fff82dffe8bfddc23307f6484f
                           .group:0000000000000000 wm4._types.h.125.5cf8a495f1f7ef36777ad868a1e32068
                           .group:0000000000000000 wm4.stddef.h.161.5349cb105733e8777bfb0cf53c4e3f34
                           .group:0000000000000000 wm4._types.h.184.7120b8bb2e0149e2359704f4e2251b68
                           .group:0000000000000000 wm4.reent.h.17.87376802c2b370b32a762f0a30482d9e
                           .group:0000000000000000 wm4.types.h.40.e8c16e7ec36ba55f133d0616070e25fc
                           .group:0000000000000000 wm4._endian.h.18.1bf9649e8e5bbc91042012680270b9ed
                           .group:0000000000000000 wm4.endian.h.9.49f3a4695c1b61e8a0808de3c4a106cb
                           .group:0000000000000000 wm4._timeval.h.30.0e8bfd94e85db17dda3286ee81496fe6
                           .group:0000000000000000 wm4.timespec.h.41.d855182eb0e690443ab8651bcedca6e1
                           .group:0000000000000000 wm4.select.h.30.bbece7fa40993a78092dcc5805132560
                           .group:0000000000000000 wm4.types.h.69.ed3eae3cf73030a737515151ebcab7a1
                           .group:0000000000000000 wm4.sched.h.22.c60982713a5c428609783c78f9c78d95
                           .group:0000000000000000 wm4._pthreadtypes.h.36.fcee9961c35163dde6267ef772ad1972
                           .group:0000000000000000 wm4.stdio.h.2.4aa87247282eca6c8f36f9de33d8df1a
                           .group:0000000000000000 wm4.stdio.h.81.932d0c162786b883f622b8d05c120c78
                           .group:0000000000000000 wm4.stdbool.h.29.07dce69c3b78884144b7f7bd19483461
                           .group:0000000000000000 wm4.picorv32.h.23.1beb83b07770a1ba2f5d16665d13d6c4
                           .group:0000000000000000 wm4.wbi2c.h.21.b1f2439332a21b4d2c6a21c21c056f19

NO UNDEFINED SYMBOLS
