   1              		.file	"wbspi.c"
   2              		.option nopic
   3              		.text
   4              	.Ltext0:
   5              		.cfi_sections	.debug_frame
   6              		.section	.text.wbspi_master_select_slave,"ax",@progbits
   7              		.align	1
   8              		.globl	wbspi_master_select_slave
  10              	wbspi_master_select_slave:
  11              	.LFB3:
  12              		.file 1 "../src/bsp/wbspi.c"
   1:../src/bsp/wbspi.c **** /*
   2:../src/bsp/wbspi.c ****  * *****************************************************************************************
   3:../src/bsp/wbspi.c ****  *
   4:../src/bsp/wbspi.c ****  * 		Copyright (C) 2014-2022 Gowin Semiconductor Technology Co.,Ltd.
   5:../src/bsp/wbspi.c ****  *
   6:../src/bsp/wbspi.c ****  * @file		wbspi.c
   7:../src/bsp/wbspi.c ****  * @author		Embedded Development Team
   8:../src/bsp/wbspi.c ****  * @version		V1.2.x
   9:../src/bsp/wbspi.c ****  * @date		2022-01-01 09:00:00
  10:../src/bsp/wbspi.c ****  * @brief		Wishbone SPI Peripheral.
  11:../src/bsp/wbspi.c ****  ******************************************************************************************
  12:../src/bsp/wbspi.c ****  */
  13:../src/bsp/wbspi.c **** 
  14:../src/bsp/wbspi.c **** /* Includes --------------------------------------------------------------------- */
  15:../src/bsp/wbspi.c **** #include "wbspi.h"
  16:../src/bsp/wbspi.c **** 
  17:../src/bsp/wbspi.c **** /* Functions --------------------------------------------------------------------- */
  18:../src/bsp/wbspi.c **** uint32_t wbspi_master_select_slave(WBSPI_RegDef *WBSPI, uint32_t slave_num)
  19:../src/bsp/wbspi.c **** {
  13              		.loc 1 19 1
  14              		.cfi_startproc
  15 0000 0111     		addi	sp,sp,-32
  16              		.cfi_def_cfa_offset 32
  17 0002 22CE     		sw	s0,28(sp)
  18              		.cfi_offset 8, -4
  19 0004 0010     		addi	s0,sp,32
  20              		.cfi_def_cfa 8, 0
  21 0006 2326A4FE 		sw	a0,-20(s0)
  22 000a 2324B4FE 		sw	a1,-24(s0)
  20:../src/bsp/wbspi.c **** 	if(slave_num > SLAVE_NUM_MAX)
  23              		.loc 1 20 4
  24 000e 032784FE 		lw	a4,-24(s0)
  25 0012 A147     		li	a5,8
  26 0014 63F4E700 		bleu	a4,a5,.L2
  21:../src/bsp/wbspi.c **** 	{
  22:../src/bsp/wbspi.c **** 		return -1;
  27              		.loc 1 22 10
  28 0018 FD57     		li	a5,-1
  29 001a 11A8     		j	.L3
  30              	.L2:
  23:../src/bsp/wbspi.c **** 	}
  24:../src/bsp/wbspi.c **** 	WBSPI->SSMASK = (1UL << slave_num);
  31              		.loc 1 24 23
  32 001c 832784FE 		lw	a5,-24(s0)
  33 0020 0547     		li	a4,1
  34 0022 3317F700 		sll	a4,a4,a5
  35              		.loc 1 24 16
  36 0026 8327C4FE 		lw	a5,-20(s0)
  37 002a 98CB     		sw	a4,16(a5)
  25:../src/bsp/wbspi.c **** 	return 0;
  38              		.loc 1 25 9
  39 002c 8147     		li	a5,0
  40              	.L3:
  26:../src/bsp/wbspi.c **** }
  41              		.loc 1 26 1
  42 002e 3E85     		mv	a0,a5
  43 0030 7244     		lw	s0,28(sp)
  44              		.cfi_restore 8
  45 0032 0561     		addi	sp,sp,32
  46              		.cfi_def_cfa_register 2
  47 0034 8280     		jr	ra
  48              		.cfi_endproc
  49              	.LFE3:
  51              		.section	.text.wbspi_enable_interrupt,"ax",@progbits
  52              		.align	1
  53              		.globl	wbspi_enable_interrupt
  55              	wbspi_enable_interrupt:
  56              	.LFB4:
  27:../src/bsp/wbspi.c **** 
  28:../src/bsp/wbspi.c **** uint32_t wbspi_enable_interrupt(WBSPI_RegDef *WBSPI, uint32_t interrupt_id)
  29:../src/bsp/wbspi.c **** {
  57              		.loc 1 29 1
  58              		.cfi_startproc
  59 0000 0111     		addi	sp,sp,-32
  60              		.cfi_def_cfa_offset 32
  61 0002 22CE     		sw	s0,28(sp)
  62              		.cfi_offset 8, -4
  63 0004 0010     		addi	s0,sp,32
  64              		.cfi_def_cfa 8, 0
  65 0006 2326A4FE 		sw	a0,-20(s0)
  66 000a 2324B4FE 		sw	a1,-24(s0)
  30:../src/bsp/wbspi.c **** 	WBSPI->CONTROL |= interrupt_id;
  67              		.loc 1 30 17
  68 000e 8327C4FE 		lw	a5,-20(s0)
  69 0012 D847     		lw	a4,12(a5)
  70 0014 832784FE 		lw	a5,-24(s0)
  71 0018 5D8F     		or	a4,a4,a5
  72 001a 8327C4FE 		lw	a5,-20(s0)
  73 001e D8C7     		sw	a4,12(a5)
  31:../src/bsp/wbspi.c **** 	return WBSPI->CONTROL;
  74              		.loc 1 31 14
  75 0020 8327C4FE 		lw	a5,-20(s0)
  76 0024 DC47     		lw	a5,12(a5)
  32:../src/bsp/wbspi.c **** }
  77              		.loc 1 32 1
  78 0026 3E85     		mv	a0,a5
  79 0028 7244     		lw	s0,28(sp)
  80              		.cfi_restore 8
  81 002a 0561     		addi	sp,sp,32
  82              		.cfi_def_cfa_register 2
  83 002c 8280     		jr	ra
  84              		.cfi_endproc
  85              	.LFE4:
  87              		.section	.text.wbspi_disable_interrupt,"ax",@progbits
  88              		.align	1
  89              		.globl	wbspi_disable_interrupt
  91              	wbspi_disable_interrupt:
  92              	.LFB5:
  33:../src/bsp/wbspi.c **** 
  34:../src/bsp/wbspi.c **** uint32_t wbspi_disable_interrupt(WBSPI_RegDef *WBSPI, uint32_t interrupt_id)
  35:../src/bsp/wbspi.c **** {
  93              		.loc 1 35 1
  94              		.cfi_startproc
  95 0000 0111     		addi	sp,sp,-32
  96              		.cfi_def_cfa_offset 32
  97 0002 22CE     		sw	s0,28(sp)
  98              		.cfi_offset 8, -4
  99 0004 0010     		addi	s0,sp,32
 100              		.cfi_def_cfa 8, 0
 101 0006 2326A4FE 		sw	a0,-20(s0)
 102 000a 2324B4FE 		sw	a1,-24(s0)
  36:../src/bsp/wbspi.c **** 	WBSPI->CONTROL &= (~interrupt_id);
 103              		.loc 1 36 17
 104 000e 8327C4FE 		lw	a5,-20(s0)
 105 0012 D847     		lw	a4,12(a5)
 106              		.loc 1 36 21
 107 0014 832784FE 		lw	a5,-24(s0)
 108 0018 93C7F7FF 		not	a5,a5
 109              		.loc 1 36 17
 110 001c 7D8F     		and	a4,a4,a5
 111 001e 8327C4FE 		lw	a5,-20(s0)
 112 0022 D8C7     		sw	a4,12(a5)
  37:../src/bsp/wbspi.c **** 	return WBSPI->CONTROL;
 113              		.loc 1 37 14
 114 0024 8327C4FE 		lw	a5,-20(s0)
 115 0028 DC47     		lw	a5,12(a5)
  38:../src/bsp/wbspi.c **** }
 116              		.loc 1 38 1
 117 002a 3E85     		mv	a0,a5
 118 002c 7244     		lw	s0,28(sp)
 119              		.cfi_restore 8
 120 002e 0561     		addi	sp,sp,32
 121              		.cfi_def_cfa_register 2
 122 0030 8280     		jr	ra
 123              		.cfi_endproc
 124              	.LFE5:
 126              		.section	.text.wbspi_master_txdata,"ax",@progbits
 127              		.align	1
 128              		.globl	wbspi_master_txdata
 130              	wbspi_master_txdata:
 131              	.LFB6:
  39:../src/bsp/wbspi.c **** 
  40:../src/bsp/wbspi.c **** uint32_t wbspi_master_txdata(WBSPI_RegDef *WBSPI, uint32_t txdata)
  41:../src/bsp/wbspi.c **** {
 132              		.loc 1 41 1
 133              		.cfi_startproc
 134 0000 7971     		addi	sp,sp,-48
 135              		.cfi_def_cfa_offset 48
 136 0002 22D6     		sw	s0,44(sp)
 137              		.cfi_offset 8, -4
 138 0004 0018     		addi	s0,sp,48
 139              		.cfi_def_cfa 8, 0
 140 0006 232EA4FC 		sw	a0,-36(s0)
 141 000a 232CB4FC 		sw	a1,-40(s0)
  42:../src/bsp/wbspi.c **** 	while (!(WBSPI->STATUS & (1UL << 5))) ;
 142              		.loc 1 42 8
 143 000e 0100     		nop
 144              	.L9:
 145              		.loc 1 42 16 discriminator 1
 146 0010 8327C4FD 		lw	a5,-36(s0)
 147 0014 9C47     		lw	a5,8(a5)
 148              		.loc 1 42 25 discriminator 1
 149 0016 93F70702 		andi	a5,a5,32
 150              		.loc 1 42 8 discriminator 1
 151 001a FDDB     		beqz	a5,.L9
  43:../src/bsp/wbspi.c **** 	WBSPI->TXDATA = txdata;
 152              		.loc 1 43 16
 153 001c 8327C4FD 		lw	a5,-36(s0)
 154 0020 032784FD 		lw	a4,-40(s0)
 155 0024 D8C3     		sw	a4,4(a5)
  44:../src/bsp/wbspi.c **** 	while (!(WBSPI->STATUS & (1UL << 6))) ;
 156              		.loc 1 44 8
 157 0026 0100     		nop
 158              	.L10:
 159              		.loc 1 44 16 discriminator 1
 160 0028 8327C4FD 		lw	a5,-36(s0)
 161 002c 9C47     		lw	a5,8(a5)
 162              		.loc 1 44 25 discriminator 1
 163 002e 93F70704 		andi	a5,a5,64
 164              		.loc 1 44 8 discriminator 1
 165 0032 FDDB     		beqz	a5,.L10
  45:../src/bsp/wbspi.c **** 	uint32_t master_rx_data = WBSPI->RXDATA;
 166              		.loc 1 45 11
 167 0034 8327C4FD 		lw	a5,-36(s0)
 168 0038 9C43     		lw	a5,0(a5)
 169 003a 2326F4FE 		sw	a5,-20(s0)
  46:../src/bsp/wbspi.c **** 	return master_rx_data;
 170              		.loc 1 46 9
 171 003e 8327C4FE 		lw	a5,-20(s0)
  47:../src/bsp/wbspi.c **** }
 172              		.loc 1 47 1
 173 0042 3E85     		mv	a0,a5
 174 0044 3254     		lw	s0,44(sp)
 175              		.cfi_restore 8
 176 0046 4561     		addi	sp,sp,48
 177              		.cfi_def_cfa_register 2
 178 0048 8280     		jr	ra
 179              		.cfi_endproc
 180              	.LFE6:
 182              		.section	.text.wbspi_master_rxdata,"ax",@progbits
 183              		.align	1
 184              		.globl	wbspi_master_rxdata
 186              	wbspi_master_rxdata:
 187              	.LFB7:
  48:../src/bsp/wbspi.c **** 
  49:../src/bsp/wbspi.c **** uint32_t wbspi_master_rxdata(WBSPI_RegDef *WBSPI)
  50:../src/bsp/wbspi.c **** {
 188              		.loc 1 50 1
 189              		.cfi_startproc
 190 0000 7971     		addi	sp,sp,-48
 191              		.cfi_def_cfa_offset 48
 192 0002 22D6     		sw	s0,44(sp)
 193              		.cfi_offset 8, -4
 194 0004 0018     		addi	s0,sp,48
 195              		.cfi_def_cfa 8, 0
 196 0006 232EA4FC 		sw	a0,-36(s0)
  51:../src/bsp/wbspi.c **** 	uint32_t master_rx_data = 0;
 197              		.loc 1 51 11
 198 000a 232604FE 		sw	zero,-20(s0)
  52:../src/bsp/wbspi.c **** 	while (!(WBSPI->STATUS & (1UL << 5))) ;
 199              		.loc 1 52 8
 200 000e 0100     		nop
 201              	.L13:
 202              		.loc 1 52 16 discriminator 1
 203 0010 8327C4FD 		lw	a5,-36(s0)
 204 0014 9C47     		lw	a5,8(a5)
 205              		.loc 1 52 25 discriminator 1
 206 0016 93F70702 		andi	a5,a5,32
 207              		.loc 1 52 8 discriminator 1
 208 001a FDDB     		beqz	a5,.L13
  53:../src/bsp/wbspi.c **** 	WBSPI->TXDATA = 0x00;
 209              		.loc 1 53 16
 210 001c 8327C4FD 		lw	a5,-36(s0)
 211 0020 23A20700 		sw	zero,4(a5)
  54:../src/bsp/wbspi.c **** 	while (!(WBSPI->STATUS & (1UL << 6))) ;
 212              		.loc 1 54 8
 213 0024 0100     		nop
 214              	.L14:
 215              		.loc 1 54 16 discriminator 1
 216 0026 8327C4FD 		lw	a5,-36(s0)
 217 002a 9C47     		lw	a5,8(a5)
 218              		.loc 1 54 25 discriminator 1
 219 002c 93F70704 		andi	a5,a5,64
 220              		.loc 1 54 8 discriminator 1
 221 0030 FDDB     		beqz	a5,.L14
  55:../src/bsp/wbspi.c **** 	master_rx_data = WBSPI->RXDATA;
 222              		.loc 1 55 17
 223 0032 8327C4FD 		lw	a5,-36(s0)
 224 0036 9C43     		lw	a5,0(a5)
 225 0038 2326F4FE 		sw	a5,-20(s0)
  56:../src/bsp/wbspi.c **** 	return master_rx_data;
 226              		.loc 1 56 9
 227 003c 8327C4FE 		lw	a5,-20(s0)
  57:../src/bsp/wbspi.c **** }
 228              		.loc 1 57 1
 229 0040 3E85     		mv	a0,a5
 230 0042 3254     		lw	s0,44(sp)
 231              		.cfi_restore 8
 232 0044 4561     		addi	sp,sp,48
 233              		.cfi_def_cfa_register 2
 234 0046 8280     		jr	ra
 235              		.cfi_endproc
 236              	.LFE7:
 238              		.section	.text.wbspi_slave_prepare_txdata,"ax",@progbits
 239              		.align	1
 240              		.globl	wbspi_slave_prepare_txdata
 242              	wbspi_slave_prepare_txdata:
 243              	.LFB8:
  58:../src/bsp/wbspi.c **** 
  59:../src/bsp/wbspi.c **** void wbspi_slave_prepare_txdata(WBSPI_RegDef *WBSPI, uint32_t txdata)
  60:../src/bsp/wbspi.c **** {
 244              		.loc 1 60 1
 245              		.cfi_startproc
 246 0000 0111     		addi	sp,sp,-32
 247              		.cfi_def_cfa_offset 32
 248 0002 22CE     		sw	s0,28(sp)
 249              		.cfi_offset 8, -4
 250 0004 0010     		addi	s0,sp,32
 251              		.cfi_def_cfa 8, 0
 252 0006 2326A4FE 		sw	a0,-20(s0)
 253 000a 2324B4FE 		sw	a1,-24(s0)
  61:../src/bsp/wbspi.c **** 	while (!(WBSPI->STATUS & (1UL << 5))) ;
 254              		.loc 1 61 8
 255 000e 0100     		nop
 256              	.L17:
 257              		.loc 1 61 16 discriminator 1
 258 0010 8327C4FE 		lw	a5,-20(s0)
 259 0014 9C47     		lw	a5,8(a5)
 260              		.loc 1 61 25 discriminator 1
 261 0016 93F70702 		andi	a5,a5,32
 262              		.loc 1 61 8 discriminator 1
 263 001a FDDB     		beqz	a5,.L17
  62:../src/bsp/wbspi.c **** 	WBSPI->TXDATA = txdata;
 264              		.loc 1 62 16
 265 001c 8327C4FE 		lw	a5,-20(s0)
 266 0020 032784FE 		lw	a4,-24(s0)
 267 0024 D8C3     		sw	a4,4(a5)
  63:../src/bsp/wbspi.c **** }
 268              		.loc 1 63 1
 269 0026 0100     		nop
 270 0028 7244     		lw	s0,28(sp)
 271              		.cfi_restore 8
 272 002a 0561     		addi	sp,sp,32
 273              		.cfi_def_cfa_register 2
 274 002c 8280     		jr	ra
 275              		.cfi_endproc
 276              	.LFE8:
 278              		.section	.text.wbspi_slave_read_data,"ax",@progbits
 279              		.align	1
 280              		.globl	wbspi_slave_read_data
 282              	wbspi_slave_read_data:
 283              	.LFB9:
  64:../src/bsp/wbspi.c **** 
  65:../src/bsp/wbspi.c **** uint32_t wbspi_slave_read_data(WBSPI_RegDef *WBSPI)
  66:../src/bsp/wbspi.c **** {
 284              		.loc 1 66 1
 285              		.cfi_startproc
 286 0000 7971     		addi	sp,sp,-48
 287              		.cfi_def_cfa_offset 48
 288 0002 22D6     		sw	s0,44(sp)
 289              		.cfi_offset 8, -4
 290 0004 0018     		addi	s0,sp,48
 291              		.cfi_def_cfa 8, 0
 292 0006 232EA4FC 		sw	a0,-36(s0)
  67:../src/bsp/wbspi.c **** 	while (!(WBSPI->STATUS & (1UL << 6))) ;
 293              		.loc 1 67 8
 294 000a 0100     		nop
 295              	.L19:
 296              		.loc 1 67 16 discriminator 1
 297 000c 8327C4FD 		lw	a5,-36(s0)
 298 0010 9C47     		lw	a5,8(a5)
 299              		.loc 1 67 25 discriminator 1
 300 0012 93F70704 		andi	a5,a5,64
 301              		.loc 1 67 8 discriminator 1
 302 0016 FDDB     		beqz	a5,.L19
  68:../src/bsp/wbspi.c **** 	uint32_t slave_rx_data = WBSPI->RXDATA;
 303              		.loc 1 68 11
 304 0018 8327C4FD 		lw	a5,-36(s0)
 305 001c 9C43     		lw	a5,0(a5)
 306 001e 2326F4FE 		sw	a5,-20(s0)
  69:../src/bsp/wbspi.c **** 	return slave_rx_data;
 307              		.loc 1 69 9
 308 0022 8327C4FE 		lw	a5,-20(s0)
  70:../src/bsp/wbspi.c **** }
 309              		.loc 1 70 1
 310 0026 3E85     		mv	a0,a5
 311 0028 3254     		lw	s0,44(sp)
 312              		.cfi_restore 8
 313 002a 4561     		addi	sp,sp,48
 314              		.cfi_def_cfa_register 2
 315 002c 8280     		jr	ra
 316              		.cfi_endproc
 317              	.LFE9:
 319              		.text
 320              	.Letext0:
 321              		.file 2 "c:\\gmd\\toolchain\\risc-v_toolchain\\riscv-none-embed\\include\\machine\\_default_types.
 322              		.file 3 "c:\\gmd\\toolchain\\risc-v_toolchain\\riscv-none-embed\\include\\sys\\_stdint.h"
 323              		.file 4 "c:\\gmd\\toolchain\\risc-v_toolchain\\riscv-none-embed\\include\\sys\\lock.h"
 324              		.file 5 "c:\\gmd\\toolchain\\risc-v_toolchain\\riscv-none-embed\\include\\sys\\_types.h"
 325              		.file 6 "c:\\gmd\\toolchain\\risc-v_toolchain\\lib\\gcc\\riscv-none-embed\\8.2.0\\include\\stddef.
 326              		.file 7 "c:\\gmd\\toolchain\\risc-v_toolchain\\riscv-none-embed\\include\\sys\\reent.h"
 327              		.file 8 "E:\\GMD\\workspace\\picorv32_demo\\src/picorv32.h"